ARM GAS  C:\Users\ASUS\AppData\Local\Temp\cc83csU8.s 			page 1


   1              		.syntax unified
   2              		.cpu cortex-m0
   3              		.fpu softvfp
   4              		.eabi_attribute 20, 1
   5              		.eabi_attribute 21, 1
   6              		.eabi_attribute 23, 3
   7              		.eabi_attribute 24, 1
   8              		.eabi_attribute 25, 1
   9              		.eabi_attribute 26, 1
  10              		.eabi_attribute 30, 6
  11              		.eabi_attribute 34, 0
  12              		.eabi_attribute 18, 4
  13              		.thumb
  14              		.syntax unified
  15              		.file	"BLE_custom.c"
  16              		.text
  17              	.Ltext0:
  18              		.cfi_sections	.debug_frame
  19              		.global	cyBle_customs
  20              		.section	.rodata
  21              		.align	2
  22              		.type	cyBle_customs, %object
  23              		.size	cyBle_customs, 10
  24              	cyBle_customs:
  25 0000 0C00     		.short	12
  26 0002 0E00     		.short	14
  27 0004 0F00     		.short	15
  28 0006 1100     		.short	17
  29 0008 0000     		.short	0
  30 000a 0000     		.align	2
  31              		.type	cyBle_customUuid128, %object
  32              		.size	cyBle_customUuid128, 32
  33              	cyBle_customUuid128:
  34 000c 31       		.byte	49
  35 000d 01       		.byte	1
  36 000e 9B       		.byte	-101
  37 000f 5F       		.byte	95
  38 0010 80       		.byte	-128
  39 0011 00       		.byte	0
  40 0012 00       		.byte	0
  41 0013 80       		.byte	-128
  42 0014 00       		.byte	0
  43 0015 10       		.byte	16
  44 0016 00       		.byte	0
  45 0017 00       		.byte	0
  46 0018 BB       		.byte	-69
  47 0019 CB       		.byte	-53
  48 001a 03       		.byte	3
  49 001b 00       		.byte	0
  50 001c 31       		.byte	49
  51 001d 01       		.byte	1
  52 001e 9B       		.byte	-101
  53 001f 5F       		.byte	95
  54 0020 80       		.byte	-128
  55 0021 00       		.byte	0
  56 0022 00       		.byte	0
  57 0023 80       		.byte	-128
ARM GAS  C:\Users\ASUS\AppData\Local\Temp\cc83csU8.s 			page 2


  58 0024 00       		.byte	0
  59 0025 10       		.byte	16
  60 0026 00       		.byte	0
  61 0027 00       		.byte	0
  62 0028 B1       		.byte	-79
  63 0029 CB       		.byte	-53
  64 002a 03       		.byte	3
  65 002b 00       		.byte	0
  66              		.align	2
  67              		.type	cyBle_customUuid16, %object
  68              		.size	cyBle_customUuid16, 2
  69              	cyBle_customUuid16:
  70 002c 0129     		.short	10497
  71              		.data
  72              		.align	2
  73              		.type	cyBle_customCDesc, %object
  74              		.size	cyBle_customCDesc, 12
  75              	cyBle_customCDesc:
  76 0000 0000     		.short	0
  77 0002 0000     		.space	2
  78 0004 2C000000 		.word	cyBle_customUuid16
  79 0008 01       		.byte	1
  80 0009 000000   		.space	3
  81              		.align	2
  82              		.type	cyBle_customCChar, %object
  83              		.size	cyBle_customCChar, 16
  84              	cyBle_customCChar:
  85 000c 0000     		.short	0
  86 000e 0000     		.short	0
  87 0010 1C000000 		.word	cyBle_customUuid128+16
  88 0014 02       		.byte	2
  89 0015 00       		.byte	0
  90 0016 01       		.byte	1
  91 0017 00       		.space	1
  92 0018 00000000 		.word	cyBle_customCDesc
  93              		.global	cyBle_customCServ
  94              		.align	2
  95              		.type	cyBle_customCServ, %object
  96              		.size	cyBle_customCServ, 16
  97              	cyBle_customCServ:
  98 001c 0000     		.short	0
  99 001e 0000     		.space	2
 100 0020 0C000000 		.word	cyBle_customUuid128
 101 0024 02       		.byte	2
 102 0025 01       		.byte	1
 103 0026 0000     		.space	2
 104 0028 0C000000 		.word	cyBle_customCChar
 105              		.bss
 106              		.align	1
 107              	cyBle_customDisServIndex:
 108 0000 0000     		.space	2
 109              		.align	1
 110              	cyBle_customDisCharIndex:
 111 0002 0000     		.space	2
 112              		.section	.text.CyBle_CustomInit,"ax",%progbits
 113              		.align	2
 114              		.global	CyBle_CustomInit
ARM GAS  C:\Users\ASUS\AppData\Local\Temp\cc83csU8.s 			page 3


 115              		.code	16
 116              		.thumb_func
 117              		.type	CyBle_CustomInit, %function
 118              	CyBle_CustomInit:
 119              	.LFB2:
 120              		.file 1 "Generated_Source\\PSoC4\\BLE_custom.c"
   1:Generated_Source\PSoC4/BLE_custom.c **** /***************************************************************************//**
   2:Generated_Source\PSoC4/BLE_custom.c **** * \file CYBLE_custom.c
   3:Generated_Source\PSoC4/BLE_custom.c **** * \version 3.66
   4:Generated_Source\PSoC4/BLE_custom.c **** * 
   5:Generated_Source\PSoC4/BLE_custom.c **** * \brief
   6:Generated_Source\PSoC4/BLE_custom.c **** *  Contains the source code for the Custom Service.
   7:Generated_Source\PSoC4/BLE_custom.c **** * 
   8:Generated_Source\PSoC4/BLE_custom.c **** ********************************************************************************
   9:Generated_Source\PSoC4/BLE_custom.c **** * \copyright
  10:Generated_Source\PSoC4/BLE_custom.c **** * Copyright 2014-2020, Cypress Semiconductor Corporation.  All rights reserved.
  11:Generated_Source\PSoC4/BLE_custom.c **** * You may use this file only in accordance with the license, terms, conditions,
  12:Generated_Source\PSoC4/BLE_custom.c **** * disclaimers, and limitations in the end user license agreement accompanying
  13:Generated_Source\PSoC4/BLE_custom.c **** * the software package with which this file was provided.
  14:Generated_Source\PSoC4/BLE_custom.c **** *******************************************************************************/
  15:Generated_Source\PSoC4/BLE_custom.c **** 
  16:Generated_Source\PSoC4/BLE_custom.c **** 
  17:Generated_Source\PSoC4/BLE_custom.c **** #include "BLE_eventHandler.h"
  18:Generated_Source\PSoC4/BLE_custom.c **** 
  19:Generated_Source\PSoC4/BLE_custom.c **** #ifdef CYBLE_CUSTOM_SERVER
  20:Generated_Source\PSoC4/BLE_custom.c **** 
  21:Generated_Source\PSoC4/BLE_custom.c **** /* If any custom service with custom characteristics is defined in the
  22:Generated_Source\PSoC4/BLE_custom.c **** * customizer's GUI their handles will be present in this array.
  23:Generated_Source\PSoC4/BLE_custom.c **** */
  24:Generated_Source\PSoC4/BLE_custom.c **** /* This array contains attribute handles for the defined Custom Services and their characteristics 
  25:Generated_Source\PSoC4/BLE_custom.c ****    The array index definitions are located in the CYBLE_custom.h file. */
  26:Generated_Source\PSoC4/BLE_custom.c **** const CYBLE_CUSTOMS_T cyBle_customs[0x01u] = {
  27:Generated_Source\PSoC4/BLE_custom.c **** 
  28:Generated_Source\PSoC4/BLE_custom.c ****     /* RGB service */
  29:Generated_Source\PSoC4/BLE_custom.c ****     {
  30:Generated_Source\PSoC4/BLE_custom.c ****         0x000Cu, /* Handle of the RGB service */ 
  31:Generated_Source\PSoC4/BLE_custom.c ****         {
  32:Generated_Source\PSoC4/BLE_custom.c **** 
  33:Generated_Source\PSoC4/BLE_custom.c ****             /* LED Control characteristic */
  34:Generated_Source\PSoC4/BLE_custom.c ****             {
  35:Generated_Source\PSoC4/BLE_custom.c ****                 0x000Eu, /* Handle of the LED Control characteristic */ 
  36:Generated_Source\PSoC4/BLE_custom.c ****                 
  37:Generated_Source\PSoC4/BLE_custom.c ****                 /* Array of Descriptors handles */
  38:Generated_Source\PSoC4/BLE_custom.c ****                 {
  39:Generated_Source\PSoC4/BLE_custom.c ****                     0x000Fu, /* Handle of the CUD descriptor */ 
  40:Generated_Source\PSoC4/BLE_custom.c ****                 }, 
  41:Generated_Source\PSoC4/BLE_custom.c ****             },
  42:Generated_Source\PSoC4/BLE_custom.c **** 
  43:Generated_Source\PSoC4/BLE_custom.c ****             /* Data Count characteristic */
  44:Generated_Source\PSoC4/BLE_custom.c ****             {
  45:Generated_Source\PSoC4/BLE_custom.c ****                 0x0011u, /* Handle of the Data Count characteristic */ 
  46:Generated_Source\PSoC4/BLE_custom.c ****                 
  47:Generated_Source\PSoC4/BLE_custom.c ****                 /* Array of Descriptors handles */
  48:Generated_Source\PSoC4/BLE_custom.c ****                 {
  49:Generated_Source\PSoC4/BLE_custom.c ****                     CYBLE_GATT_INVALID_ATTR_HANDLE_VALUE, 
  50:Generated_Source\PSoC4/BLE_custom.c ****                 }, 
  51:Generated_Source\PSoC4/BLE_custom.c ****             },
ARM GAS  C:\Users\ASUS\AppData\Local\Temp\cc83csU8.s 			page 4


  52:Generated_Source\PSoC4/BLE_custom.c ****         }, 
  53:Generated_Source\PSoC4/BLE_custom.c ****     },
  54:Generated_Source\PSoC4/BLE_custom.c **** };
  55:Generated_Source\PSoC4/BLE_custom.c **** 
  56:Generated_Source\PSoC4/BLE_custom.c **** 
  57:Generated_Source\PSoC4/BLE_custom.c **** #endif /* (CYBLE_CUSTOM_SERVER) */
  58:Generated_Source\PSoC4/BLE_custom.c **** 
  59:Generated_Source\PSoC4/BLE_custom.c **** #ifdef CYBLE_CUSTOM_CLIENT
  60:Generated_Source\PSoC4/BLE_custom.c ****     
  61:Generated_Source\PSoC4/BLE_custom.c **** static const CYBLE_UUID128_T cyBle_customUuid128[] = {
  62:Generated_Source\PSoC4/BLE_custom.c ****     /* RGB */
  63:Generated_Source\PSoC4/BLE_custom.c ****     { {0x31u, 0x01u, 0x9Bu, 0x5Fu, 0x80u, 0x00u, 0x00u, 0x80u, 0x00u, 0x10u, 0x00u, 0x00u, 0xBBu, 0
  64:Generated_Source\PSoC4/BLE_custom.c ****     /* LED Control */
  65:Generated_Source\PSoC4/BLE_custom.c ****     { {0x31u, 0x01u, 0x9Bu, 0x5Fu, 0x80u, 0x00u, 0x00u, 0x80u, 0x00u, 0x10u, 0x00u, 0x00u, 0xB1u, 0
  66:Generated_Source\PSoC4/BLE_custom.c **** };
  67:Generated_Source\PSoC4/BLE_custom.c **** 
  68:Generated_Source\PSoC4/BLE_custom.c **** static const CYBLE_UUID16 cyBle_customUuid16[] = {
  69:Generated_Source\PSoC4/BLE_custom.c ****     /* CUD */
  70:Generated_Source\PSoC4/BLE_custom.c ****     0x2901u,
  71:Generated_Source\PSoC4/BLE_custom.c **** };
  72:Generated_Source\PSoC4/BLE_custom.c **** 
  73:Generated_Source\PSoC4/BLE_custom.c **** static CYBLE_CUSTOMC_DESC_T cyBle_customCDesc[0x01u] = {
  74:Generated_Source\PSoC4/BLE_custom.c **** 
  75:Generated_Source\PSoC4/BLE_custom.c ****     /* CUD */
  76:Generated_Source\PSoC4/BLE_custom.c ****     {
  77:Generated_Source\PSoC4/BLE_custom.c ****         CYBLE_GATT_INVALID_ATTR_HANDLE_VALUE, /* Descriptor handle */ 
  78:Generated_Source\PSoC4/BLE_custom.c ****         (const CYBLE_UUID16 *) &cyBle_customUuid16[0], /* 16-bit UUID */ 
  79:Generated_Source\PSoC4/BLE_custom.c ****         0x01u, /* UUID Format - 16-bit (0x01) or 128-bit (0x02) */ 
  80:Generated_Source\PSoC4/BLE_custom.c ****     },
  81:Generated_Source\PSoC4/BLE_custom.c **** };
  82:Generated_Source\PSoC4/BLE_custom.c **** 
  83:Generated_Source\PSoC4/BLE_custom.c **** static CYBLE_CUSTOMC_CHAR_T cyBle_customCChar[0x01u] = {
  84:Generated_Source\PSoC4/BLE_custom.c **** 
  85:Generated_Source\PSoC4/BLE_custom.c ****     /* LED Control */
  86:Generated_Source\PSoC4/BLE_custom.c ****     {
  87:Generated_Source\PSoC4/BLE_custom.c ****         CYBLE_GATT_INVALID_ATTR_HANDLE_VALUE, /* Characteristic handle */ 
  88:Generated_Source\PSoC4/BLE_custom.c ****         CYBLE_GATT_INVALID_ATTR_HANDLE_VALUE, /* Characteristic end handle */ 
  89:Generated_Source\PSoC4/BLE_custom.c ****         (const CYBLE_UUID128_T *) &cyBle_customUuid128[1], /* 128-bit UUID */ 
  90:Generated_Source\PSoC4/BLE_custom.c ****         0x02u, /* UUID Format - 16-bit (0x01) or 128-bit (0x02) */ 
  91:Generated_Source\PSoC4/BLE_custom.c ****         0x00u, /* Characteristic properties */ 
  92:Generated_Source\PSoC4/BLE_custom.c ****         0x01u, /* Number of descriptors */ 
  93:Generated_Source\PSoC4/BLE_custom.c ****         &cyBle_customCDesc[0], /* Characteristic Descriptors */ 
  94:Generated_Source\PSoC4/BLE_custom.c ****     },
  95:Generated_Source\PSoC4/BLE_custom.c **** };
  96:Generated_Source\PSoC4/BLE_custom.c **** 
  97:Generated_Source\PSoC4/BLE_custom.c **** CYBLE_CUSTOMC_T cyBle_customCServ[CYBLE_CUSTOMC_SERVICE_COUNT] = {
  98:Generated_Source\PSoC4/BLE_custom.c **** 
  99:Generated_Source\PSoC4/BLE_custom.c ****     /* RGB */
 100:Generated_Source\PSoC4/BLE_custom.c ****     {
 101:Generated_Source\PSoC4/BLE_custom.c ****         CYBLE_GATT_INVALID_ATTR_HANDLE_VALUE, /* Custom Service handle */ 
 102:Generated_Source\PSoC4/BLE_custom.c ****         (const CYBLE_UUID128_T *) &cyBle_customUuid128[0], /* 128-bit UUID */ 
 103:Generated_Source\PSoC4/BLE_custom.c ****         0x02u, /* UUID Format - 16-bit (0x01) or 128-bit (0x02) */ 
 104:Generated_Source\PSoC4/BLE_custom.c ****         0x01u, /* Number of characteristics */ 
 105:Generated_Source\PSoC4/BLE_custom.c ****         &cyBle_customCChar[0], /* Custom Service Characteristics */ 
 106:Generated_Source\PSoC4/BLE_custom.c ****     },
 107:Generated_Source\PSoC4/BLE_custom.c **** };
 108:Generated_Source\PSoC4/BLE_custom.c **** 
ARM GAS  C:\Users\ASUS\AppData\Local\Temp\cc83csU8.s 			page 5


 109:Generated_Source\PSoC4/BLE_custom.c **** 
 110:Generated_Source\PSoC4/BLE_custom.c **** static uint16 cyBle_customDisServIndex;
 111:Generated_Source\PSoC4/BLE_custom.c **** static uint16 cyBle_customDisCharIndex;
 112:Generated_Source\PSoC4/BLE_custom.c **** 
 113:Generated_Source\PSoC4/BLE_custom.c **** #endif /* (CYBLE_CUSTOM_CLIENT) */
 114:Generated_Source\PSoC4/BLE_custom.c **** 
 115:Generated_Source\PSoC4/BLE_custom.c **** 
 116:Generated_Source\PSoC4/BLE_custom.c **** /****************************************************************************** 
 117:Generated_Source\PSoC4/BLE_custom.c **** * Function Name: CyBle_CustomInit
 118:Generated_Source\PSoC4/BLE_custom.c **** ***************************************************************************//**
 119:Generated_Source\PSoC4/BLE_custom.c **** * 
 120:Generated_Source\PSoC4/BLE_custom.c **** *  This function initializes Custom Service.
 121:Generated_Source\PSoC4/BLE_custom.c **** * 
 122:Generated_Source\PSoC4/BLE_custom.c **** * \return
 123:Generated_Source\PSoC4/BLE_custom.c **** *  None
 124:Generated_Source\PSoC4/BLE_custom.c **** * 
 125:Generated_Source\PSoC4/BLE_custom.c **** ******************************************************************************/
 126:Generated_Source\PSoC4/BLE_custom.c **** void CyBle_CustomInit(void)
 127:Generated_Source\PSoC4/BLE_custom.c **** {
 121              		.loc 1 127 0
 122              		.cfi_startproc
 123              		@ args = 0, pretend = 0, frame = 8
 124              		@ frame_needed = 1, uses_anonymous_args = 0
 125 0000 80B5     		push	{r7, lr}
 126              		.cfi_def_cfa_offset 8
 127              		.cfi_offset 7, -8
 128              		.cfi_offset 14, -4
 129 0002 82B0     		sub	sp, sp, #8
 130              		.cfi_def_cfa_offset 16
 131 0004 00AF     		add	r7, sp, #0
 132              		.cfi_def_cfa_register 7
 128:Generated_Source\PSoC4/BLE_custom.c ****     
 129:Generated_Source\PSoC4/BLE_custom.c **** #ifdef CYBLE_CUSTOM_CLIENT
 130:Generated_Source\PSoC4/BLE_custom.c **** 
 131:Generated_Source\PSoC4/BLE_custom.c ****     uint16 locServIndex;
 132:Generated_Source\PSoC4/BLE_custom.c ****     uint16 locCharIndex;
 133:Generated_Source\PSoC4/BLE_custom.c ****     uint16 locDescIndex;
 134:Generated_Source\PSoC4/BLE_custom.c ****     
 135:Generated_Source\PSoC4/BLE_custom.c ****     for(locServIndex = 0u; locServIndex < CYBLE_CUSTOMC_SERVICE_COUNT; locServIndex++)
 133              		.loc 1 135 0
 134 0006 BB1D     		adds	r3, r7, #6
 135 0008 0022     		movs	r2, #0
 136 000a 1A80     		strh	r2, [r3]
 137 000c 60E0     		b	.L2
 138              	.L8:
 136:Generated_Source\PSoC4/BLE_custom.c ****     {
 137:Generated_Source\PSoC4/BLE_custom.c ****         if(cyBle_serverInfo[CYBLE_SRVI_CUSTOMS + locServIndex].range.startHandle == CYBLE_GATT_INVA
 139              		.loc 1 137 0
 140 000e BB1D     		adds	r3, r7, #6
 141 0010 1B88     		ldrh	r3, [r3]
 142 0012 9A1C     		adds	r2, r3, #2
 143 0014 3249     		ldr	r1, .L9
 144 0016 1300     		movs	r3, r2
 145 0018 5B00     		lsls	r3, r3, #1
 146 001a 9B18     		adds	r3, r3, r2
 147 001c 5B00     		lsls	r3, r3, #1
 148 001e 5B5A     		ldrh	r3, [r3, r1]
ARM GAS  C:\Users\ASUS\AppData\Local\Temp\cc83csU8.s 			page 6


 149 0020 002B     		cmp	r3, #0
 150 0022 50D1     		bne	.L3
 138:Generated_Source\PSoC4/BLE_custom.c ****         {
 139:Generated_Source\PSoC4/BLE_custom.c ****             for(locCharIndex = 0u; locCharIndex < cyBle_customCServ[locServIndex].charCount; locCha
 151              		.loc 1 139 0
 152 0024 3B1D     		adds	r3, r7, #4
 153 0026 0022     		movs	r2, #0
 154 0028 1A80     		strh	r2, [r3]
 155 002a 40E0     		b	.L4
 156              	.L7:
 140:Generated_Source\PSoC4/BLE_custom.c ****             {
 141:Generated_Source\PSoC4/BLE_custom.c ****                 cyBle_customCServ[locServIndex].customServChar[locCharIndex].
 157              		.loc 1 141 0
 158 002c BB1D     		adds	r3, r7, #6
 159 002e 1B88     		ldrh	r3, [r3]
 160 0030 2C4A     		ldr	r2, .L9+4
 161 0032 1B01     		lsls	r3, r3, #4
 162 0034 D318     		adds	r3, r2, r3
 163 0036 0C33     		adds	r3, r3, #12
 164 0038 1A68     		ldr	r2, [r3]
 165 003a 3B1D     		adds	r3, r7, #4
 166 003c 1B88     		ldrh	r3, [r3]
 167 003e 1B01     		lsls	r3, r3, #4
 168 0040 D318     		adds	r3, r2, r3
 142:Generated_Source\PSoC4/BLE_custom.c ****                     customServCharHandle = 0u;
 169              		.loc 1 142 0
 170 0042 0022     		movs	r2, #0
 171 0044 1A80     		strh	r2, [r3]
 143:Generated_Source\PSoC4/BLE_custom.c ****                 
 144:Generated_Source\PSoC4/BLE_custom.c ****                 for(locDescIndex = 0u; locDescIndex < 
 172              		.loc 1 144 0
 173 0046 BB1C     		adds	r3, r7, #2
 174 0048 0022     		movs	r2, #0
 175 004a 1A80     		strh	r2, [r3]
 176 004c 19E0     		b	.L5
 177              	.L6:
 145:Generated_Source\PSoC4/BLE_custom.c ****                     cyBle_customCServ[locServIndex].customServChar[locCharIndex].descCount; 
 146:Generated_Source\PSoC4/BLE_custom.c ****                         locDescIndex++)
 147:Generated_Source\PSoC4/BLE_custom.c ****                 {
 148:Generated_Source\PSoC4/BLE_custom.c ****                     cyBle_customCServ[locServIndex].customServChar[locCharIndex].
 178              		.loc 1 148 0
 179 004e BB1D     		adds	r3, r7, #6
 180 0050 1B88     		ldrh	r3, [r3]
 181 0052 244A     		ldr	r2, .L9+4
 182 0054 1B01     		lsls	r3, r3, #4
 183 0056 D318     		adds	r3, r2, r3
 184 0058 0C33     		adds	r3, r3, #12
 185 005a 1A68     		ldr	r2, [r3]
 186 005c 3B1D     		adds	r3, r7, #4
 187 005e 1B88     		ldrh	r3, [r3]
 188 0060 1B01     		lsls	r3, r3, #4
 189 0062 D318     		adds	r3, r2, r3
 190 0064 D968     		ldr	r1, [r3, #12]
 149:Generated_Source\PSoC4/BLE_custom.c ****                         customServCharDesc[locDescIndex].descHandle = 0u;
 191              		.loc 1 149 0
 192 0066 BB1C     		adds	r3, r7, #2
 193 0068 1A88     		ldrh	r2, [r3]
ARM GAS  C:\Users\ASUS\AppData\Local\Temp\cc83csU8.s 			page 7


 194 006a 1300     		movs	r3, r2
 195 006c 5B00     		lsls	r3, r3, #1
 196 006e 9B18     		adds	r3, r3, r2
 197 0070 9B00     		lsls	r3, r3, #2
 198 0072 CB18     		adds	r3, r1, r3
 199 0074 0022     		movs	r2, #0
 200 0076 1A80     		strh	r2, [r3]
 146:Generated_Source\PSoC4/BLE_custom.c ****                 {
 201              		.loc 1 146 0
 202 0078 BB1C     		adds	r3, r7, #2
 203 007a 1A88     		ldrh	r2, [r3]
 204 007c BB1C     		adds	r3, r7, #2
 205 007e 0132     		adds	r2, r2, #1
 206 0080 1A80     		strh	r2, [r3]
 207              	.L5:
 145:Generated_Source\PSoC4/BLE_custom.c ****                     cyBle_customCServ[locServIndex].customServChar[locCharIndex].descCount; 
 208              		.loc 1 145 0 discriminator 1
 209 0082 BB1D     		adds	r3, r7, #6
 210 0084 1B88     		ldrh	r3, [r3]
 211 0086 174A     		ldr	r2, .L9+4
 212 0088 1B01     		lsls	r3, r3, #4
 213 008a D318     		adds	r3, r2, r3
 214 008c 0C33     		adds	r3, r3, #12
 215 008e 1A68     		ldr	r2, [r3]
 216 0090 3B1D     		adds	r3, r7, #4
 217 0092 1B88     		ldrh	r3, [r3]
 218 0094 1B01     		lsls	r3, r3, #4
 219 0096 D318     		adds	r3, r2, r3
 220 0098 9B7A     		ldrb	r3, [r3, #10]
 144:Generated_Source\PSoC4/BLE_custom.c ****                     cyBle_customCServ[locServIndex].customServChar[locCharIndex].descCount; 
 221              		.loc 1 144 0 discriminator 1
 222 009a 9BB2     		uxth	r3, r3
 223 009c BA1C     		adds	r2, r7, #2
 224 009e 1288     		ldrh	r2, [r2]
 225 00a0 9A42     		cmp	r2, r3
 226 00a2 D4D3     		bcc	.L6
 139:Generated_Source\PSoC4/BLE_custom.c ****             {
 227              		.loc 1 139 0 discriminator 2
 228 00a4 3B1D     		adds	r3, r7, #4
 229 00a6 1A88     		ldrh	r2, [r3]
 230 00a8 3B1D     		adds	r3, r7, #4
 231 00aa 0132     		adds	r2, r2, #1
 232 00ac 1A80     		strh	r2, [r3]
 233              	.L4:
 139:Generated_Source\PSoC4/BLE_custom.c ****             {
 234              		.loc 1 139 0 is_stmt 0 discriminator 1
 235 00ae BB1D     		adds	r3, r7, #6
 236 00b0 1B88     		ldrh	r3, [r3]
 237 00b2 0C4A     		ldr	r2, .L9+4
 238 00b4 1B01     		lsls	r3, r3, #4
 239 00b6 D318     		adds	r3, r2, r3
 240 00b8 0933     		adds	r3, r3, #9
 241 00ba 1B78     		ldrb	r3, [r3]
 242 00bc 9BB2     		uxth	r3, r3
 243 00be 3A1D     		adds	r2, r7, #4
 244 00c0 1288     		ldrh	r2, [r2]
 245 00c2 9A42     		cmp	r2, r3
ARM GAS  C:\Users\ASUS\AppData\Local\Temp\cc83csU8.s 			page 8


 246 00c4 B2D3     		bcc	.L7
 247              	.L3:
 135:Generated_Source\PSoC4/BLE_custom.c ****     {
 248              		.loc 1 135 0 is_stmt 1 discriminator 2
 249 00c6 BB1D     		adds	r3, r7, #6
 250 00c8 1A88     		ldrh	r2, [r3]
 251 00ca BB1D     		adds	r3, r7, #6
 252 00cc 0132     		adds	r2, r2, #1
 253 00ce 1A80     		strh	r2, [r3]
 254              	.L2:
 135:Generated_Source\PSoC4/BLE_custom.c ****     {
 255              		.loc 1 135 0 is_stmt 0 discriminator 1
 256 00d0 BB1D     		adds	r3, r7, #6
 257 00d2 1B88     		ldrh	r3, [r3]
 258 00d4 002B     		cmp	r3, #0
 259 00d6 9AD0     		beq	.L8
 150:Generated_Source\PSoC4/BLE_custom.c ****                 }
 151:Generated_Source\PSoC4/BLE_custom.c ****             }
 152:Generated_Source\PSoC4/BLE_custom.c ****         }
 153:Generated_Source\PSoC4/BLE_custom.c ****     }
 154:Generated_Source\PSoC4/BLE_custom.c **** 
 155:Generated_Source\PSoC4/BLE_custom.c **** #endif /* (CYBLE_CUSTOM_CLIENT) */
 156:Generated_Source\PSoC4/BLE_custom.c **** }
 260              		.loc 1 156 0 is_stmt 1
 261 00d8 C046     		nop
 262 00da BD46     		mov	sp, r7
 263 00dc 02B0     		add	sp, sp, #8
 264              		@ sp needed
 265 00de 80BD     		pop	{r7, pc}
 266              	.L10:
 267              		.align	2
 268              	.L9:
 269 00e0 00000000 		.word	cyBle_serverInfo
 270 00e4 00000000 		.word	cyBle_customCServ
 271              		.cfi_endproc
 272              	.LFE2:
 273              		.size	CyBle_CustomInit, .-CyBle_CustomInit
 274              		.section	.text.CyBle_CustomcDiscoverServiceEventHandler,"ax",%progbits
 275              		.align	2
 276              		.global	CyBle_CustomcDiscoverServiceEventHandler
 277              		.code	16
 278              		.thumb_func
 279              		.type	CyBle_CustomcDiscoverServiceEventHandler, %function
 280              	CyBle_CustomcDiscoverServiceEventHandler:
 281              	.LFB3:
 157:Generated_Source\PSoC4/BLE_custom.c **** 
 158:Generated_Source\PSoC4/BLE_custom.c **** 
 159:Generated_Source\PSoC4/BLE_custom.c **** #ifdef CYBLE_CUSTOM_CLIENT
 160:Generated_Source\PSoC4/BLE_custom.c **** 
 161:Generated_Source\PSoC4/BLE_custom.c ****     
 162:Generated_Source\PSoC4/BLE_custom.c **** /******************************************************************************
 163:Generated_Source\PSoC4/BLE_custom.c **** * Function Name: CyBle_CustomcDiscoverServiceEventHandler
 164:Generated_Source\PSoC4/BLE_custom.c **** ***************************************************************************//**
 165:Generated_Source\PSoC4/BLE_custom.c **** * 
 166:Generated_Source\PSoC4/BLE_custom.c **** *  This function is called on receiving a Read By Group Response event or 
 167:Generated_Source\PSoC4/BLE_custom.c **** *  Read response with 128-bit service uuid. 
 168:Generated_Source\PSoC4/BLE_custom.c **** * 
ARM GAS  C:\Users\ASUS\AppData\Local\Temp\cc83csU8.s 			page 9


 169:Generated_Source\PSoC4/BLE_custom.c **** *  \param *discServInfo: The pointer to a service information structure.
 170:Generated_Source\PSoC4/BLE_custom.c **** * 
 171:Generated_Source\PSoC4/BLE_custom.c **** * \return
 172:Generated_Source\PSoC4/BLE_custom.c **** *  None
 173:Generated_Source\PSoC4/BLE_custom.c **** * 
 174:Generated_Source\PSoC4/BLE_custom.c **** ******************************************************************************/
 175:Generated_Source\PSoC4/BLE_custom.c **** void CyBle_CustomcDiscoverServiceEventHandler(const CYBLE_DISC_SRVC128_INFO_T *discServInfo)
 176:Generated_Source\PSoC4/BLE_custom.c **** {
 282              		.loc 1 176 0
 283              		.cfi_startproc
 284              		@ args = 0, pretend = 0, frame = 16
 285              		@ frame_needed = 1, uses_anonymous_args = 0
 286 0000 80B5     		push	{r7, lr}
 287              		.cfi_def_cfa_offset 8
 288              		.cfi_offset 7, -8
 289              		.cfi_offset 14, -4
 290 0002 84B0     		sub	sp, sp, #16
 291              		.cfi_def_cfa_offset 24
 292 0004 00AF     		add	r7, sp, #0
 293              		.cfi_def_cfa_register 7
 294 0006 7860     		str	r0, [r7, #4]
 177:Generated_Source\PSoC4/BLE_custom.c ****     uint16 j;
 178:Generated_Source\PSoC4/BLE_custom.c ****     uint8 flag = 0u;
 295              		.loc 1 178 0
 296 0008 0D23     		movs	r3, #13
 297 000a FB18     		adds	r3, r7, r3
 298 000c 0022     		movs	r2, #0
 299 000e 1A70     		strb	r2, [r3]
 179:Generated_Source\PSoC4/BLE_custom.c ****     
 180:Generated_Source\PSoC4/BLE_custom.c ****     /* Services with 128 bit UUID have discServInfo->uuid equal to 0 and address to 
 181:Generated_Source\PSoC4/BLE_custom.c ****        128 uuid is stored in cyBle_customCServ.uuid128
 182:Generated_Source\PSoC4/BLE_custom.c ****     */
 183:Generated_Source\PSoC4/BLE_custom.c **** 	for(j = 0u; (j < CYBLE_CUSTOMC_SERVICE_COUNT) && (flag == 0u); j++)
 300              		.loc 1 183 0
 301 0010 0E23     		movs	r3, #14
 302 0012 FB18     		adds	r3, r7, r3
 303 0014 0022     		movs	r2, #0
 304 0016 1A80     		strh	r2, [r3]
 305 0018 46E0     		b	.L12
 306              	.L15:
 184:Generated_Source\PSoC4/BLE_custom.c ****     {
 185:Generated_Source\PSoC4/BLE_custom.c ****         if(cyBle_customCServ[j].uuidFormat == CYBLE_GATT_128_BIT_UUID_FORMAT)
 307              		.loc 1 185 0
 308 001a 0E23     		movs	r3, #14
 309 001c FB18     		adds	r3, r7, r3
 310 001e 1B88     		ldrh	r3, [r3]
 311 0020 284A     		ldr	r2, .L17
 312 0022 1B01     		lsls	r3, r3, #4
 313 0024 D318     		adds	r3, r2, r3
 314 0026 0833     		adds	r3, r3, #8
 315 0028 1B78     		ldrb	r3, [r3]
 316 002a 022B     		cmp	r3, #2
 317 002c 35D1     		bne	.L13
 186:Generated_Source\PSoC4/BLE_custom.c ****         {
 187:Generated_Source\PSoC4/BLE_custom.c ****             if(memcmp(cyBle_customCServ[j].uuid, &discServInfo->uuid.uuid128, CYBLE_GATT_128_BIT_UU
 318              		.loc 1 187 0
 319 002e 0E23     		movs	r3, #14
ARM GAS  C:\Users\ASUS\AppData\Local\Temp\cc83csU8.s 			page 10


 320 0030 FB18     		adds	r3, r7, r3
 321 0032 1B88     		ldrh	r3, [r3]
 322 0034 234A     		ldr	r2, .L17
 323 0036 1B01     		lsls	r3, r3, #4
 324 0038 D318     		adds	r3, r2, r3
 325 003a 0433     		adds	r3, r3, #4
 326 003c 1868     		ldr	r0, [r3]
 327 003e 7B68     		ldr	r3, [r7, #4]
 328 0040 0433     		adds	r3, r3, #4
 329 0042 1022     		movs	r2, #16
 330 0044 1900     		movs	r1, r3
 331 0046 FFF7FEFF 		bl	memcmp
 332 004a 031E     		subs	r3, r0, #0
 333 004c 25D1     		bne	.L13
 188:Generated_Source\PSoC4/BLE_custom.c ****             {
 189:Generated_Source\PSoC4/BLE_custom.c ****                 if(cyBle_serverInfo[j + (uint16)CYBLE_SRVI_CUSTOMS].range.startHandle == 
 334              		.loc 1 189 0
 335 004e 0E23     		movs	r3, #14
 336 0050 FB18     		adds	r3, r7, r3
 337 0052 1B88     		ldrh	r3, [r3]
 338 0054 9A1C     		adds	r2, r3, #2
 339 0056 1C49     		ldr	r1, .L17+4
 340 0058 1300     		movs	r3, r2
 341 005a 5B00     		lsls	r3, r3, #1
 342 005c 9B18     		adds	r3, r3, r2
 343 005e 5B00     		lsls	r3, r3, #1
 344 0060 5B5A     		ldrh	r3, [r3, r1]
 345 0062 002B     		cmp	r3, #0
 346 0064 19D1     		bne	.L13
 190:Generated_Source\PSoC4/BLE_custom.c ****                    CYBLE_GATT_INVALID_ATTR_HANDLE_VALUE)
 191:Generated_Source\PSoC4/BLE_custom.c ****                 {
 192:Generated_Source\PSoC4/BLE_custom.c ****                     cyBle_serverInfo[j + (uint16)CYBLE_SRVI_CUSTOMS].range = discServInfo->range;
 347              		.loc 1 192 0
 348 0066 0E23     		movs	r3, #14
 349 0068 FB18     		adds	r3, r7, r3
 350 006a 1B88     		ldrh	r3, [r3]
 351 006c 9A1C     		adds	r2, r3, #2
 352 006e 1649     		ldr	r1, .L17+4
 353 0070 1300     		movs	r3, r2
 354 0072 5B00     		lsls	r3, r3, #1
 355 0074 9B18     		adds	r3, r3, r2
 356 0076 5B00     		lsls	r3, r3, #1
 357 0078 7A68     		ldr	r2, [r7, #4]
 358 007a CB18     		adds	r3, r1, r3
 359 007c 1100     		movs	r1, r2
 360 007e 0422     		movs	r2, #4
 361 0080 1800     		movs	r0, r3
 362 0082 FFF7FEFF 		bl	memcpy
 193:Generated_Source\PSoC4/BLE_custom.c ****                     cyBle_disCount++;
 363              		.loc 1 193 0
 364 0086 114B     		ldr	r3, .L17+8
 365 0088 1B78     		ldrb	r3, [r3]
 366 008a 0133     		adds	r3, r3, #1
 367 008c DAB2     		uxtb	r2, r3
 368 008e 0F4B     		ldr	r3, .L17+8
 369 0090 1A70     		strb	r2, [r3]
 194:Generated_Source\PSoC4/BLE_custom.c ****                     flag = 1u;
ARM GAS  C:\Users\ASUS\AppData\Local\Temp\cc83csU8.s 			page 11


 370              		.loc 1 194 0
 371 0092 0D23     		movs	r3, #13
 372 0094 FB18     		adds	r3, r7, r3
 373 0096 0122     		movs	r2, #1
 374 0098 1A70     		strb	r2, [r3]
 375              	.L13:
 183:Generated_Source\PSoC4/BLE_custom.c ****     {
 376              		.loc 1 183 0 discriminator 2
 377 009a 0E23     		movs	r3, #14
 378 009c FB18     		adds	r3, r7, r3
 379 009e 1A88     		ldrh	r2, [r3]
 380 00a0 0E23     		movs	r3, #14
 381 00a2 FB18     		adds	r3, r7, r3
 382 00a4 0132     		adds	r2, r2, #1
 383 00a6 1A80     		strh	r2, [r3]
 384              	.L12:
 183:Generated_Source\PSoC4/BLE_custom.c ****     {
 385              		.loc 1 183 0 is_stmt 0 discriminator 1
 386 00a8 0E23     		movs	r3, #14
 387 00aa FB18     		adds	r3, r7, r3
 388 00ac 1B88     		ldrh	r3, [r3]
 389 00ae 002B     		cmp	r3, #0
 390 00b0 04D1     		bne	.L16
 183:Generated_Source\PSoC4/BLE_custom.c ****     {
 391              		.loc 1 183 0 discriminator 3
 392 00b2 0D23     		movs	r3, #13
 393 00b4 FB18     		adds	r3, r7, r3
 394 00b6 1B78     		ldrb	r3, [r3]
 395 00b8 002B     		cmp	r3, #0
 396 00ba AED0     		beq	.L15
 397              	.L16:
 195:Generated_Source\PSoC4/BLE_custom.c ****                 }
 196:Generated_Source\PSoC4/BLE_custom.c ****             }
 197:Generated_Source\PSoC4/BLE_custom.c ****         }
 198:Generated_Source\PSoC4/BLE_custom.c ****     }
 199:Generated_Source\PSoC4/BLE_custom.c **** }
 398              		.loc 1 199 0 is_stmt 1
 399 00bc C046     		nop
 400 00be BD46     		mov	sp, r7
 401 00c0 04B0     		add	sp, sp, #16
 402              		@ sp needed
 403 00c2 80BD     		pop	{r7, pc}
 404              	.L18:
 405              		.align	2
 406              	.L17:
 407 00c4 00000000 		.word	cyBle_customCServ
 408 00c8 00000000 		.word	cyBle_serverInfo
 409 00cc 00000000 		.word	cyBle_disCount
 410              		.cfi_endproc
 411              	.LFE3:
 412              		.size	CyBle_CustomcDiscoverServiceEventHandler, .-CyBle_CustomcDiscoverServiceEventHandler
 413              		.section	.text.CyBle_CustomcDiscoverCharacteristicsEventHandler,"ax",%progbits
 414              		.align	2
 415              		.global	CyBle_CustomcDiscoverCharacteristicsEventHandler
 416              		.code	16
 417              		.thumb_func
 418              		.type	CyBle_CustomcDiscoverCharacteristicsEventHandler, %function
ARM GAS  C:\Users\ASUS\AppData\Local\Temp\cc83csU8.s 			page 12


 419              	CyBle_CustomcDiscoverCharacteristicsEventHandler:
 420              	.LFB4:
 200:Generated_Source\PSoC4/BLE_custom.c **** 
 201:Generated_Source\PSoC4/BLE_custom.c **** 
 202:Generated_Source\PSoC4/BLE_custom.c **** /******************************************************************************
 203:Generated_Source\PSoC4/BLE_custom.c **** * Function Name: CyBle_CustomcDiscoverCharacteristicsEventHandler
 204:Generated_Source\PSoC4/BLE_custom.c **** ***************************************************************************//**
 205:Generated_Source\PSoC4/BLE_custom.c **** * 
 206:Generated_Source\PSoC4/BLE_custom.c **** *  This function is called on receiving a CYBLE_EVT_GATTC_READ_BY_TYPE_RSP
 207:Generated_Source\PSoC4/BLE_custom.c **** *  event. Based on the service index, an appropriate data structure is populated
 208:Generated_Source\PSoC4/BLE_custom.c **** *  using the data received as part of the callback.
 209:Generated_Source\PSoC4/BLE_custom.c **** * 
 210:Generated_Source\PSoC4/BLE_custom.c **** *  \param *discCharInfo: The pointer to a characteristic information structure.
 211:Generated_Source\PSoC4/BLE_custom.c **** *  \param discoveryService: The index of the service instance.
 212:Generated_Source\PSoC4/BLE_custom.c **** * 
 213:Generated_Source\PSoC4/BLE_custom.c **** * \return
 214:Generated_Source\PSoC4/BLE_custom.c **** *  None
 215:Generated_Source\PSoC4/BLE_custom.c **** * 
 216:Generated_Source\PSoC4/BLE_custom.c **** ******************************************************************************/
 217:Generated_Source\PSoC4/BLE_custom.c **** void CyBle_CustomcDiscoverCharacteristicsEventHandler(uint16 discoveryService, const CYBLE_DISC_CHA
 218:Generated_Source\PSoC4/BLE_custom.c **** {
 421              		.loc 1 218 0
 422              		.cfi_startproc
 423              		@ args = 0, pretend = 0, frame = 16
 424              		@ frame_needed = 1, uses_anonymous_args = 0
 425 0000 80B5     		push	{r7, lr}
 426              		.cfi_def_cfa_offset 8
 427              		.cfi_offset 7, -8
 428              		.cfi_offset 14, -4
 429 0002 84B0     		sub	sp, sp, #16
 430              		.cfi_def_cfa_offset 24
 431 0004 00AF     		add	r7, sp, #0
 432              		.cfi_def_cfa_register 7
 433 0006 0200     		movs	r2, r0
 434 0008 3960     		str	r1, [r7]
 435 000a BB1D     		adds	r3, r7, #6
 436 000c 1A80     		strh	r2, [r3]
 219:Generated_Source\PSoC4/BLE_custom.c ****     uint16 locCharIndex;
 220:Generated_Source\PSoC4/BLE_custom.c ****     static CYBLE_GATT_DB_ATTR_HANDLE_T *customsLastEndHandle = NULL;
 221:Generated_Source\PSoC4/BLE_custom.c ****     static uint16 discoveryLastServ = 0u;    
 222:Generated_Source\PSoC4/BLE_custom.c ****     uint8 locReqHandle = 0u;
 437              		.loc 1 222 0
 438 000e 0D23     		movs	r3, #13
 439 0010 FB18     		adds	r3, r7, r3
 440 0012 0022     		movs	r2, #0
 441 0014 1A70     		strb	r2, [r3]
 223:Generated_Source\PSoC4/BLE_custom.c **** 
 224:Generated_Source\PSoC4/BLE_custom.c ****     /* Update last characteristic endHandle to declaration handle of this characteristic */
 225:Generated_Source\PSoC4/BLE_custom.c ****     if(customsLastEndHandle != NULL)
 442              		.loc 1 225 0
 443 0016 774B     		ldr	r3, .L30
 444 0018 1B68     		ldr	r3, [r3]
 445 001a 002B     		cmp	r3, #0
 446 001c 0FD0     		beq	.L20
 226:Generated_Source\PSoC4/BLE_custom.c ****     {
 227:Generated_Source\PSoC4/BLE_custom.c ****         if(discoveryLastServ == discoveryService)
 447              		.loc 1 227 0
ARM GAS  C:\Users\ASUS\AppData\Local\Temp\cc83csU8.s 			page 13


 448 001e 764B     		ldr	r3, .L30+4
 449 0020 1B88     		ldrh	r3, [r3]
 450 0022 BA1D     		adds	r2, r7, #6
 451 0024 1288     		ldrh	r2, [r2]
 452 0026 9A42     		cmp	r2, r3
 453 0028 06D1     		bne	.L21
 228:Generated_Source\PSoC4/BLE_custom.c ****         {
 229:Generated_Source\PSoC4/BLE_custom.c ****             *customsLastEndHandle = discCharInfo->charDeclHandle - 1u;
 454              		.loc 1 229 0
 455 002a 724B     		ldr	r3, .L30
 456 002c 1B68     		ldr	r3, [r3]
 457 002e 3A68     		ldr	r2, [r7]
 458 0030 1288     		ldrh	r2, [r2]
 459 0032 013A     		subs	r2, r2, #1
 460 0034 92B2     		uxth	r2, r2
 461 0036 1A80     		strh	r2, [r3]
 462              	.L21:
 230:Generated_Source\PSoC4/BLE_custom.c ****         }
 231:Generated_Source\PSoC4/BLE_custom.c ****         customsLastEndHandle = NULL;
 463              		.loc 1 231 0
 464 0038 6E4B     		ldr	r3, .L30
 465 003a 0022     		movs	r2, #0
 466 003c 1A60     		str	r2, [r3]
 467              	.L20:
 232:Generated_Source\PSoC4/BLE_custom.c ****     }
 233:Generated_Source\PSoC4/BLE_custom.c ****     
 234:Generated_Source\PSoC4/BLE_custom.c ****     for(locCharIndex = 0u; (locCharIndex < cyBle_customCServ[discoveryService].charCount) && (locRe
 468              		.loc 1 234 0
 469 003e 0E23     		movs	r3, #14
 470 0040 FB18     		adds	r3, r7, r3
 471 0042 0022     		movs	r2, #0
 472 0044 1A80     		strh	r2, [r3]
 473 0046 ABE0     		b	.L22
 474              	.L27:
 475              	.LBB2:
 235:Generated_Source\PSoC4/BLE_custom.c ****         locCharIndex++)
 236:Generated_Source\PSoC4/BLE_custom.c ****     {
 237:Generated_Source\PSoC4/BLE_custom.c ****         uint8 flag = 0u;
 476              		.loc 1 237 0
 477 0048 0C23     		movs	r3, #12
 478 004a FB18     		adds	r3, r7, r3
 479 004c 0022     		movs	r2, #0
 480 004e 1A70     		strb	r2, [r3]
 238:Generated_Source\PSoC4/BLE_custom.c ****         
 239:Generated_Source\PSoC4/BLE_custom.c ****         /* Support 128 bit uuid */
 240:Generated_Source\PSoC4/BLE_custom.c ****         if((discCharInfo->uuidFormat == CYBLE_GATT_128_BIT_UUID_FORMAT) &&
 481              		.loc 1 240 0
 482 0050 3B68     		ldr	r3, [r7]
 483 0052 9B7D     		ldrb	r3, [r3, #22]
 484 0054 022B     		cmp	r3, #2
 485 0056 27D1     		bne	.L23
 241:Generated_Source\PSoC4/BLE_custom.c ****            (cyBle_customCServ[discoveryService].customServChar[locCharIndex].uuidFormat == 
 486              		.loc 1 241 0 discriminator 1
 487 0058 BB1D     		adds	r3, r7, #6
 488 005a 1B88     		ldrh	r3, [r3]
 489 005c 674A     		ldr	r2, .L30+8
 490 005e 1B01     		lsls	r3, r3, #4
ARM GAS  C:\Users\ASUS\AppData\Local\Temp\cc83csU8.s 			page 14


 491 0060 D318     		adds	r3, r2, r3
 492 0062 0C33     		adds	r3, r3, #12
 493 0064 1A68     		ldr	r2, [r3]
 494 0066 0E23     		movs	r3, #14
 495 0068 FB18     		adds	r3, r7, r3
 496 006a 1B88     		ldrh	r3, [r3]
 497 006c 1B01     		lsls	r3, r3, #4
 498 006e D318     		adds	r3, r2, r3
 499 0070 1B7A     		ldrb	r3, [r3, #8]
 240:Generated_Source\PSoC4/BLE_custom.c ****            (cyBle_customCServ[discoveryService].customServChar[locCharIndex].uuidFormat == 
 500              		.loc 1 240 0 discriminator 1
 501 0072 022B     		cmp	r3, #2
 502 0074 18D1     		bne	.L23
 242:Generated_Source\PSoC4/BLE_custom.c ****                 CYBLE_GATT_128_BIT_UUID_FORMAT))
 243:Generated_Source\PSoC4/BLE_custom.c ****         {
 244:Generated_Source\PSoC4/BLE_custom.c ****             if(memcmp(cyBle_customCServ[discoveryService].customServChar[locCharIndex].uuid, 
 503              		.loc 1 244 0
 504 0076 BB1D     		adds	r3, r7, #6
 505 0078 1B88     		ldrh	r3, [r3]
 506 007a 604A     		ldr	r2, .L30+8
 507 007c 1B01     		lsls	r3, r3, #4
 508 007e D318     		adds	r3, r2, r3
 509 0080 0C33     		adds	r3, r3, #12
 510 0082 1A68     		ldr	r2, [r3]
 511 0084 0E23     		movs	r3, #14
 512 0086 FB18     		adds	r3, r7, r3
 513 0088 1B88     		ldrh	r3, [r3]
 514 008a 1B01     		lsls	r3, r3, #4
 515 008c D318     		adds	r3, r2, r3
 516 008e 5868     		ldr	r0, [r3, #4]
 245:Generated_Source\PSoC4/BLE_custom.c ****                 &discCharInfo->uuid.uuid128, CYBLE_GATT_128_BIT_UUID_SIZE) == 0u)
 517              		.loc 1 245 0
 518 0090 3B68     		ldr	r3, [r7]
 519 0092 0633     		adds	r3, r3, #6
 244:Generated_Source\PSoC4/BLE_custom.c ****                 &discCharInfo->uuid.uuid128, CYBLE_GATT_128_BIT_UUID_SIZE) == 0u)
 520              		.loc 1 244 0
 521 0094 1022     		movs	r2, #16
 522 0096 1900     		movs	r1, r3
 523 0098 FFF7FEFF 		bl	memcmp
 524 009c 031E     		subs	r3, r0, #0
 525 009e 03D1     		bne	.L23
 246:Generated_Source\PSoC4/BLE_custom.c ****             {
 247:Generated_Source\PSoC4/BLE_custom.c ****                 flag = 1u;
 526              		.loc 1 247 0
 527 00a0 0C23     		movs	r3, #12
 528 00a2 FB18     		adds	r3, r7, r3
 529 00a4 0122     		movs	r2, #1
 530 00a6 1A70     		strb	r2, [r3]
 531              	.L23:
 248:Generated_Source\PSoC4/BLE_custom.c ****             }
 249:Generated_Source\PSoC4/BLE_custom.c ****         }
 250:Generated_Source\PSoC4/BLE_custom.c ****         
 251:Generated_Source\PSoC4/BLE_custom.c ****         /* And support 16 bit uuid */
 252:Generated_Source\PSoC4/BLE_custom.c ****         if((discCharInfo->uuidFormat == CYBLE_GATT_16_BIT_UUID_FORMAT) &&
 532              		.loc 1 252 0
 533 00a8 3B68     		ldr	r3, [r7]
 534 00aa 9B7D     		ldrb	r3, [r3, #22]
ARM GAS  C:\Users\ASUS\AppData\Local\Temp\cc83csU8.s 			page 15


 535 00ac 012B     		cmp	r3, #1
 536 00ae 27D1     		bne	.L24
 253:Generated_Source\PSoC4/BLE_custom.c ****            (cyBle_customCServ[discoveryService].customServChar[locCharIndex].uuidFormat == 
 537              		.loc 1 253 0 discriminator 1
 538 00b0 BB1D     		adds	r3, r7, #6
 539 00b2 1B88     		ldrh	r3, [r3]
 540 00b4 514A     		ldr	r2, .L30+8
 541 00b6 1B01     		lsls	r3, r3, #4
 542 00b8 D318     		adds	r3, r2, r3
 543 00ba 0C33     		adds	r3, r3, #12
 544 00bc 1A68     		ldr	r2, [r3]
 545 00be 0E23     		movs	r3, #14
 546 00c0 FB18     		adds	r3, r7, r3
 547 00c2 1B88     		ldrh	r3, [r3]
 548 00c4 1B01     		lsls	r3, r3, #4
 549 00c6 D318     		adds	r3, r2, r3
 550 00c8 1B7A     		ldrb	r3, [r3, #8]
 252:Generated_Source\PSoC4/BLE_custom.c ****            (cyBle_customCServ[discoveryService].customServChar[locCharIndex].uuidFormat == 
 551              		.loc 1 252 0 discriminator 1
 552 00ca 012B     		cmp	r3, #1
 553 00cc 18D1     		bne	.L24
 254:Generated_Source\PSoC4/BLE_custom.c ****                 CYBLE_GATT_16_BIT_UUID_FORMAT))
 255:Generated_Source\PSoC4/BLE_custom.c ****         {
 256:Generated_Source\PSoC4/BLE_custom.c ****             if(memcmp(cyBle_customCServ[discoveryService].customServChar[locCharIndex].uuid, 
 554              		.loc 1 256 0
 555 00ce BB1D     		adds	r3, r7, #6
 556 00d0 1B88     		ldrh	r3, [r3]
 557 00d2 4A4A     		ldr	r2, .L30+8
 558 00d4 1B01     		lsls	r3, r3, #4
 559 00d6 D318     		adds	r3, r2, r3
 560 00d8 0C33     		adds	r3, r3, #12
 561 00da 1A68     		ldr	r2, [r3]
 562 00dc 0E23     		movs	r3, #14
 563 00de FB18     		adds	r3, r7, r3
 564 00e0 1B88     		ldrh	r3, [r3]
 565 00e2 1B01     		lsls	r3, r3, #4
 566 00e4 D318     		adds	r3, r2, r3
 567 00e6 5868     		ldr	r0, [r3, #4]
 257:Generated_Source\PSoC4/BLE_custom.c ****                 &discCharInfo->uuid.uuid16, CYBLE_GATT_16_BIT_UUID_SIZE) == 0u)
 568              		.loc 1 257 0
 569 00e8 3B68     		ldr	r3, [r7]
 570 00ea 0633     		adds	r3, r3, #6
 256:Generated_Source\PSoC4/BLE_custom.c ****                 &discCharInfo->uuid.uuid16, CYBLE_GATT_16_BIT_UUID_SIZE) == 0u)
 571              		.loc 1 256 0
 572 00ec 0222     		movs	r2, #2
 573 00ee 1900     		movs	r1, r3
 574 00f0 FFF7FEFF 		bl	memcmp
 575 00f4 031E     		subs	r3, r0, #0
 576 00f6 03D1     		bne	.L24
 258:Generated_Source\PSoC4/BLE_custom.c ****             {
 259:Generated_Source\PSoC4/BLE_custom.c ****                 flag = 1u;
 577              		.loc 1 259 0
 578 00f8 0C23     		movs	r3, #12
 579 00fa FB18     		adds	r3, r7, r3
 580 00fc 0122     		movs	r2, #1
 581 00fe 1A70     		strb	r2, [r3]
 582              	.L24:
ARM GAS  C:\Users\ASUS\AppData\Local\Temp\cc83csU8.s 			page 16


 260:Generated_Source\PSoC4/BLE_custom.c ****             }
 261:Generated_Source\PSoC4/BLE_custom.c ****         }
 262:Generated_Source\PSoC4/BLE_custom.c ****         
 263:Generated_Source\PSoC4/BLE_custom.c ****         if((flag == 1u) && 
 583              		.loc 1 263 0
 584 0100 0C23     		movs	r3, #12
 585 0102 FB18     		adds	r3, r7, r3
 586 0104 1B78     		ldrb	r3, [r3]
 587 0106 012B     		cmp	r3, #1
 588 0108 43D1     		bne	.L25
 264:Generated_Source\PSoC4/BLE_custom.c ****            (cyBle_customCServ[discoveryService].customServChar[locCharIndex].customServCharHandle
 589              		.loc 1 264 0 discriminator 1
 590 010a BB1D     		adds	r3, r7, #6
 591 010c 1B88     		ldrh	r3, [r3]
 592 010e 3B4A     		ldr	r2, .L30+8
 593 0110 1B01     		lsls	r3, r3, #4
 594 0112 D318     		adds	r3, r2, r3
 595 0114 0C33     		adds	r3, r3, #12
 596 0116 1A68     		ldr	r2, [r3]
 597 0118 0E23     		movs	r3, #14
 598 011a FB18     		adds	r3, r7, r3
 599 011c 1B88     		ldrh	r3, [r3]
 600 011e 1B01     		lsls	r3, r3, #4
 601 0120 D318     		adds	r3, r2, r3
 602 0122 1B88     		ldrh	r3, [r3]
 263:Generated_Source\PSoC4/BLE_custom.c ****            (cyBle_customCServ[discoveryService].customServChar[locCharIndex].customServCharHandle
 603              		.loc 1 263 0 discriminator 1
 604 0124 002B     		cmp	r3, #0
 605 0126 34D1     		bne	.L25
 265:Generated_Source\PSoC4/BLE_custom.c ****                 == CYBLE_GATT_INVALID_ATTR_HANDLE_VALUE))
 266:Generated_Source\PSoC4/BLE_custom.c ****         {
 267:Generated_Source\PSoC4/BLE_custom.c ****             cyBle_customCServ[discoveryService].customServChar[locCharIndex].customServCharHandle =
 606              		.loc 1 267 0
 607 0128 BB1D     		adds	r3, r7, #6
 608 012a 1B88     		ldrh	r3, [r3]
 609 012c 334A     		ldr	r2, .L30+8
 610 012e 1B01     		lsls	r3, r3, #4
 611 0130 D318     		adds	r3, r2, r3
 612 0132 0C33     		adds	r3, r3, #12
 613 0134 1A68     		ldr	r2, [r3]
 614 0136 0E23     		movs	r3, #14
 615 0138 FB18     		adds	r3, r7, r3
 616 013a 1B88     		ldrh	r3, [r3]
 617 013c 1B01     		lsls	r3, r3, #4
 618 013e D318     		adds	r3, r2, r3
 268:Generated_Source\PSoC4/BLE_custom.c ****                 discCharInfo->valueHandle;
 619              		.loc 1 268 0
 620 0140 3A68     		ldr	r2, [r7]
 621 0142 9288     		ldrh	r2, [r2, #4]
 267:Generated_Source\PSoC4/BLE_custom.c ****                 discCharInfo->valueHandle;
 622              		.loc 1 267 0
 623 0144 1A80     		strh	r2, [r3]
 269:Generated_Source\PSoC4/BLE_custom.c ****             cyBle_customCServ[discoveryService].customServChar[locCharIndex].properties = 
 624              		.loc 1 269 0
 625 0146 BB1D     		adds	r3, r7, #6
 626 0148 1B88     		ldrh	r3, [r3]
 627 014a 2C4A     		ldr	r2, .L30+8
ARM GAS  C:\Users\ASUS\AppData\Local\Temp\cc83csU8.s 			page 17


 628 014c 1B01     		lsls	r3, r3, #4
 629 014e D318     		adds	r3, r2, r3
 630 0150 0C33     		adds	r3, r3, #12
 631 0152 1A68     		ldr	r2, [r3]
 632 0154 0E23     		movs	r3, #14
 633 0156 FB18     		adds	r3, r7, r3
 634 0158 1B88     		ldrh	r3, [r3]
 635 015a 1B01     		lsls	r3, r3, #4
 636 015c D318     		adds	r3, r2, r3
 270:Generated_Source\PSoC4/BLE_custom.c ****                 discCharInfo->properties;
 637              		.loc 1 270 0
 638 015e 3A68     		ldr	r2, [r7]
 639 0160 9278     		ldrb	r2, [r2, #2]
 269:Generated_Source\PSoC4/BLE_custom.c ****             cyBle_customCServ[discoveryService].customServChar[locCharIndex].properties = 
 640              		.loc 1 269 0
 641 0162 5A72     		strb	r2, [r3, #9]
 271:Generated_Source\PSoC4/BLE_custom.c ****             /* Init pointer to characteristic endHandle */
 272:Generated_Source\PSoC4/BLE_custom.c ****             customsLastEndHandle = &cyBle_customCServ[discoveryService].customServChar[locCharIndex
 642              		.loc 1 272 0
 643 0164 BB1D     		adds	r3, r7, #6
 644 0166 1B88     		ldrh	r3, [r3]
 645 0168 244A     		ldr	r2, .L30+8
 646 016a 1B01     		lsls	r3, r3, #4
 647 016c D318     		adds	r3, r2, r3
 648 016e 0C33     		adds	r3, r3, #12
 649 0170 1A68     		ldr	r2, [r3]
 650 0172 0E23     		movs	r3, #14
 651 0174 FB18     		adds	r3, r7, r3
 652 0176 1B88     		ldrh	r3, [r3]
 653 0178 1B01     		lsls	r3, r3, #4
 654 017a D318     		adds	r3, r2, r3
 655 017c 9A1C     		adds	r2, r3, #2
 656 017e 1D4B     		ldr	r3, .L30
 657 0180 1A60     		str	r2, [r3]
 273:Generated_Source\PSoC4/BLE_custom.c ****                                     customServCharEndHandle;
 274:Generated_Source\PSoC4/BLE_custom.c ****             /* Init service index of discovered characteristic */
 275:Generated_Source\PSoC4/BLE_custom.c ****             discoveryLastServ = discoveryService;
 658              		.loc 1 275 0
 659 0182 1D4B     		ldr	r3, .L30+4
 660 0184 BA1D     		adds	r2, r7, #6
 661 0186 1288     		ldrh	r2, [r2]
 662 0188 1A80     		strh	r2, [r3]
 276:Generated_Source\PSoC4/BLE_custom.c ****             locReqHandle = 1u;
 663              		.loc 1 276 0
 664 018a 0D23     		movs	r3, #13
 665 018c FB18     		adds	r3, r7, r3
 666 018e 0122     		movs	r2, #1
 667 0190 1A70     		strb	r2, [r3]
 668              	.L25:
 669              	.LBE2:
 235:Generated_Source\PSoC4/BLE_custom.c ****     {
 670              		.loc 1 235 0
 671 0192 0E23     		movs	r3, #14
 672 0194 FB18     		adds	r3, r7, r3
 673 0196 1A88     		ldrh	r2, [r3]
 674 0198 0E23     		movs	r3, #14
 675 019a FB18     		adds	r3, r7, r3
ARM GAS  C:\Users\ASUS\AppData\Local\Temp\cc83csU8.s 			page 18


 676 019c 0132     		adds	r2, r2, #1
 677 019e 1A80     		strh	r2, [r3]
 678              	.L22:
 234:Generated_Source\PSoC4/BLE_custom.c ****         locCharIndex++)
 679              		.loc 1 234 0 discriminator 1
 680 01a0 BB1D     		adds	r3, r7, #6
 681 01a2 1B88     		ldrh	r3, [r3]
 682 01a4 154A     		ldr	r2, .L30+8
 683 01a6 1B01     		lsls	r3, r3, #4
 684 01a8 D318     		adds	r3, r2, r3
 685 01aa 0933     		adds	r3, r3, #9
 686 01ac 1B78     		ldrb	r3, [r3]
 687 01ae 9BB2     		uxth	r3, r3
 688 01b0 0E22     		movs	r2, #14
 689 01b2 BA18     		adds	r2, r7, r2
 690 01b4 1288     		ldrh	r2, [r2]
 691 01b6 9A42     		cmp	r2, r3
 692 01b8 05D2     		bcs	.L26
 234:Generated_Source\PSoC4/BLE_custom.c ****         locCharIndex++)
 693              		.loc 1 234 0 is_stmt 0 discriminator 2
 694 01ba 0D23     		movs	r3, #13
 695 01bc FB18     		adds	r3, r7, r3
 696 01be 1B78     		ldrb	r3, [r3]
 697 01c0 002B     		cmp	r3, #0
 698 01c2 00D1     		bne	.LCB530
 699 01c4 40E7     		b	.L27	@long jump
 700              	.LCB530:
 701              	.L26:
 277:Generated_Source\PSoC4/BLE_custom.c ****         }
 278:Generated_Source\PSoC4/BLE_custom.c ****     }
 279:Generated_Source\PSoC4/BLE_custom.c ****     
 280:Generated_Source\PSoC4/BLE_custom.c ****     /* Init characteristic endHandle to Service endHandle.
 281:Generated_Source\PSoC4/BLE_custom.c ****        Characteristic endHandle will be updated to the declaration
 282:Generated_Source\PSoC4/BLE_custom.c ****        Handler of the following characteristic,
 283:Generated_Source\PSoC4/BLE_custom.c ****        in the following characteristic discovery procedure. */
 284:Generated_Source\PSoC4/BLE_custom.c ****     if(customsLastEndHandle != NULL)
 702              		.loc 1 284 0 is_stmt 1
 703 01c6 0B4B     		ldr	r3, .L30
 704 01c8 1B68     		ldr	r3, [r3]
 705 01ca 002B     		cmp	r3, #0
 706 01cc 0DD0     		beq	.L29
 285:Generated_Source\PSoC4/BLE_custom.c ****     {
 286:Generated_Source\PSoC4/BLE_custom.c ****         *customsLastEndHandle = cyBle_serverInfo[cyBle_disCount].range.endHandle;
 707              		.loc 1 286 0
 708 01ce 094B     		ldr	r3, .L30
 709 01d0 1A68     		ldr	r2, [r3]
 710 01d2 0B4B     		ldr	r3, .L30+12
 711 01d4 1B78     		ldrb	r3, [r3]
 712 01d6 1800     		movs	r0, r3
 713 01d8 0A49     		ldr	r1, .L30+16
 714 01da 0300     		movs	r3, r0
 715 01dc 5B00     		lsls	r3, r3, #1
 716 01de 1B18     		adds	r3, r3, r0
 717 01e0 5B00     		lsls	r3, r3, #1
 718 01e2 CB18     		adds	r3, r1, r3
 719 01e4 0233     		adds	r3, r3, #2
 720 01e6 1B88     		ldrh	r3, [r3]
ARM GAS  C:\Users\ASUS\AppData\Local\Temp\cc83csU8.s 			page 19


 721 01e8 1380     		strh	r3, [r2]
 722              	.L29:
 287:Generated_Source\PSoC4/BLE_custom.c ****     }
 288:Generated_Source\PSoC4/BLE_custom.c **** }
 723              		.loc 1 288 0
 724 01ea C046     		nop
 725 01ec BD46     		mov	sp, r7
 726 01ee 04B0     		add	sp, sp, #16
 727              		@ sp needed
 728 01f0 80BD     		pop	{r7, pc}
 729              	.L31:
 730 01f2 C046     		.align	2
 731              	.L30:
 732 01f4 04000000 		.word	customsLastEndHandle.6753
 733 01f8 08000000 		.word	discoveryLastServ.6754
 734 01fc 00000000 		.word	cyBle_customCServ
 735 0200 00000000 		.word	cyBle_disCount
 736 0204 00000000 		.word	cyBle_serverInfo
 737              		.cfi_endproc
 738              	.LFE4:
 739              		.size	CyBle_CustomcDiscoverCharacteristicsEventHandler, .-CyBle_CustomcDiscoverCharacteristicsEven
 740              		.section	.text.CyBle_CustomcGetCharRange,"ax",%progbits
 741              		.align	2
 742              		.global	CyBle_CustomcGetCharRange
 743              		.code	16
 744              		.thumb_func
 745              		.type	CyBle_CustomcGetCharRange, %function
 746              	CyBle_CustomcGetCharRange:
 747              	.LFB5:
 289:Generated_Source\PSoC4/BLE_custom.c **** 
 290:Generated_Source\PSoC4/BLE_custom.c **** 
 291:Generated_Source\PSoC4/BLE_custom.c **** /****************************************************************************** 
 292:Generated_Source\PSoC4/BLE_custom.c **** * Function Name: CyBle_GetCustomCharRange
 293:Generated_Source\PSoC4/BLE_custom.c **** ***************************************************************************//**
 294:Generated_Source\PSoC4/BLE_custom.c **** * 
 295:Generated_Source\PSoC4/BLE_custom.c **** *  Returns a possible range of the current characteristic descriptor
 296:Generated_Source\PSoC4/BLE_custom.c **** *  which is pointed by custom service and char index.
 297:Generated_Source\PSoC4/BLE_custom.c **** * 
 298:Generated_Source\PSoC4/BLE_custom.c **** *  \param incrementIndex: Not zero value indicates that service and characteristic index
 299:Generated_Source\PSoC4/BLE_custom.c **** *                  should be incremented.
 300:Generated_Source\PSoC4/BLE_custom.c **** * \return
 301:Generated_Source\PSoC4/BLE_custom.c **** *  CYBLE_GATT_ATTR_HANDLE_RANGE_T range: the block of start and end handles.
 302:Generated_Source\PSoC4/BLE_custom.c **** * 
 303:Generated_Source\PSoC4/BLE_custom.c **** ******************************************************************************/
 304:Generated_Source\PSoC4/BLE_custom.c **** CYBLE_GATT_ATTR_HANDLE_RANGE_T CyBle_CustomcGetCharRange(uint8 incrementIndex)
 305:Generated_Source\PSoC4/BLE_custom.c **** {
 748              		.loc 1 305 0
 749              		.cfi_startproc
 750              		@ args = 0, pretend = 0, frame = 16
 751              		@ frame_needed = 1, uses_anonymous_args = 0
 752 0000 80B5     		push	{r7, lr}
 753              		.cfi_def_cfa_offset 8
 754              		.cfi_offset 7, -8
 755              		.cfi_offset 14, -4
 756 0002 84B0     		sub	sp, sp, #16
 757              		.cfi_def_cfa_offset 24
 758 0004 00AF     		add	r7, sp, #0
ARM GAS  C:\Users\ASUS\AppData\Local\Temp\cc83csU8.s 			page 20


 759              		.cfi_def_cfa_register 7
 760 0006 0200     		movs	r2, r0
 761 0008 FB1D     		adds	r3, r7, #7
 762 000a 1A70     		strb	r2, [r3]
 306:Generated_Source\PSoC4/BLE_custom.c ****     CYBLE_GATT_ATTR_HANDLE_RANGE_T charRange = {CYBLE_GATT_INVALID_ATTR_HANDLE_VALUE, CYBLE_GATT_IN
 763              		.loc 1 306 0
 764 000c 0823     		movs	r3, #8
 765 000e FB18     		adds	r3, r7, r3
 766 0010 0022     		movs	r2, #0
 767 0012 1A80     		strh	r2, [r3]
 768 0014 0823     		movs	r3, #8
 769 0016 FB18     		adds	r3, r7, r3
 770 0018 0022     		movs	r2, #0
 771 001a 5A80     		strh	r2, [r3, #2]
 772              	.L41:
 307:Generated_Source\PSoC4/BLE_custom.c **** 
 308:Generated_Source\PSoC4/BLE_custom.c ****     do{
 309:Generated_Source\PSoC4/BLE_custom.c ****         if(incrementIndex != CYBLE_DISCOVERY_INIT)
 773              		.loc 1 309 0
 774 001c FB1D     		adds	r3, r7, #7
 775 001e 1B78     		ldrb	r3, [r3]
 776 0020 002B     		cmp	r3, #0
 777 0022 2DD0     		beq	.L33
 310:Generated_Source\PSoC4/BLE_custom.c ****         {
 311:Generated_Source\PSoC4/BLE_custom.c ****             if((cyBle_customDisCharIndex + 1u) < cyBle_customCServ[cyBle_customDisServIndex].charCo
 778              		.loc 1 311 0
 779 0024 524B     		ldr	r3, .L43
 780 0026 1B88     		ldrh	r3, [r3]
 781 0028 0133     		adds	r3, r3, #1
 782 002a 524A     		ldr	r2, .L43+4
 783 002c 1288     		ldrh	r2, [r2]
 784 002e 5249     		ldr	r1, .L43+8
 785 0030 1201     		lsls	r2, r2, #4
 786 0032 8A18     		adds	r2, r1, r2
 787 0034 0932     		adds	r2, r2, #9
 788 0036 1278     		ldrb	r2, [r2]
 789 0038 9342     		cmp	r3, r2
 790 003a 06D2     		bcs	.L34
 312:Generated_Source\PSoC4/BLE_custom.c ****             {
 313:Generated_Source\PSoC4/BLE_custom.c ****                 cyBle_customDisCharIndex++;
 791              		.loc 1 313 0
 792 003c 4C4B     		ldr	r3, .L43
 793 003e 1B88     		ldrh	r3, [r3]
 794 0040 0133     		adds	r3, r3, #1
 795 0042 9AB2     		uxth	r2, r3
 796 0044 4A4B     		ldr	r3, .L43
 797 0046 1A80     		strh	r2, [r3]
 798 0048 23E0     		b	.L37
 799              	.L34:
 314:Generated_Source\PSoC4/BLE_custom.c ****             }
 315:Generated_Source\PSoC4/BLE_custom.c ****             else 
 316:Generated_Source\PSoC4/BLE_custom.c ****             {
 317:Generated_Source\PSoC4/BLE_custom.c ****                 if((cyBle_customDisServIndex + 1u) < CYBLE_CUSTOMC_SERVICE_COUNT)
 800              		.loc 1 317 0
 801 004a 4A4B     		ldr	r3, .L43+4
 802 004c 1B88     		ldrh	r3, [r3]
 803 004e 0133     		adds	r3, r3, #1
ARM GAS  C:\Users\ASUS\AppData\Local\Temp\cc83csU8.s 			page 21


 804 0050 09D1     		bne	.L36
 318:Generated_Source\PSoC4/BLE_custom.c ****                 {
 319:Generated_Source\PSoC4/BLE_custom.c ****                     cyBle_customDisServIndex++;      /* Discover descriptors for next custom servic
 805              		.loc 1 319 0
 806 0052 484B     		ldr	r3, .L43+4
 807 0054 1B88     		ldrh	r3, [r3]
 808 0056 0133     		adds	r3, r3, #1
 809 0058 9AB2     		uxth	r2, r3
 810 005a 464B     		ldr	r3, .L43+4
 811 005c 1A80     		strh	r2, [r3]
 320:Generated_Source\PSoC4/BLE_custom.c ****                     /* Set characteristic index to first characteristic of custom service */
 321:Generated_Source\PSoC4/BLE_custom.c ****                     cyBle_customDisCharIndex = 0u;
 812              		.loc 1 321 0
 813 005e 444B     		ldr	r3, .L43
 814 0060 0022     		movs	r2, #0
 815 0062 1A80     		strh	r2, [r3]
 816 0064 15E0     		b	.L37
 817              	.L36:
 322:Generated_Source\PSoC4/BLE_custom.c ****                 }
 323:Generated_Source\PSoC4/BLE_custom.c ****                 else /* Increment general discovery index when custom characteristic discovery is d
 324:Generated_Source\PSoC4/BLE_custom.c ****                 {
 325:Generated_Source\PSoC4/BLE_custom.c ****                     cyBle_disCount++;  
 818              		.loc 1 325 0
 819 0066 454B     		ldr	r3, .L43+12
 820 0068 1B78     		ldrb	r3, [r3]
 821 006a 0133     		adds	r3, r3, #1
 822 006c DAB2     		uxtb	r2, r3
 823 006e 434B     		ldr	r3, .L43+12
 824 0070 1A70     		strb	r2, [r3]
 326:Generated_Source\PSoC4/BLE_custom.c ****                     cyBle_customDisCharIndex++;
 825              		.loc 1 326 0
 826 0072 3F4B     		ldr	r3, .L43
 827 0074 1B88     		ldrh	r3, [r3]
 828 0076 0133     		adds	r3, r3, #1
 829 0078 9AB2     		uxth	r2, r3
 830 007a 3D4B     		ldr	r3, .L43
 831 007c 1A80     		strh	r2, [r3]
 832 007e 08E0     		b	.L37
 833              	.L33:
 327:Generated_Source\PSoC4/BLE_custom.c ****                 }
 328:Generated_Source\PSoC4/BLE_custom.c ****             }
 329:Generated_Source\PSoC4/BLE_custom.c ****         }
 330:Generated_Source\PSoC4/BLE_custom.c ****         else    /* Increment indexes in the following loop */
 331:Generated_Source\PSoC4/BLE_custom.c ****         {
 332:Generated_Source\PSoC4/BLE_custom.c ****             cyBle_customDisServIndex = 0u;
 834              		.loc 1 332 0
 835 0080 3C4B     		ldr	r3, .L43+4
 836 0082 0022     		movs	r2, #0
 837 0084 1A80     		strh	r2, [r3]
 333:Generated_Source\PSoC4/BLE_custom.c ****             cyBle_customDisCharIndex = 0u;
 838              		.loc 1 333 0
 839 0086 3A4B     		ldr	r3, .L43
 840 0088 0022     		movs	r2, #0
 841 008a 1A80     		strh	r2, [r3]
 334:Generated_Source\PSoC4/BLE_custom.c ****             incrementIndex = 1u;
 842              		.loc 1 334 0
 843 008c FB1D     		adds	r3, r7, #7
ARM GAS  C:\Users\ASUS\AppData\Local\Temp\cc83csU8.s 			page 22


 844 008e 0122     		movs	r2, #1
 845 0090 1A70     		strb	r2, [r3]
 846              	.L37:
 335:Generated_Source\PSoC4/BLE_custom.c ****         }            
 336:Generated_Source\PSoC4/BLE_custom.c ****         /* Read characteristic range */
 337:Generated_Source\PSoC4/BLE_custom.c ****         if(cyBle_customDisCharIndex < (cyBle_customCServ[cyBle_customDisServIndex].charCount))
 847              		.loc 1 337 0
 848 0092 384B     		ldr	r3, .L43+4
 849 0094 1B88     		ldrh	r3, [r3]
 850 0096 384A     		ldr	r2, .L43+8
 851 0098 1B01     		lsls	r3, r3, #4
 852 009a D318     		adds	r3, r2, r3
 853 009c 0933     		adds	r3, r3, #9
 854 009e 1B78     		ldrb	r3, [r3]
 855 00a0 9AB2     		uxth	r2, r3
 856 00a2 334B     		ldr	r3, .L43
 857 00a4 1B88     		ldrh	r3, [r3]
 858 00a6 9A42     		cmp	r2, r3
 859 00a8 1FD9     		bls	.L38
 338:Generated_Source\PSoC4/BLE_custom.c ****         {
 339:Generated_Source\PSoC4/BLE_custom.c ****             charRange.startHandle = cyBle_customCServ[cyBle_customDisServIndex].
 860              		.loc 1 339 0
 861 00aa 324B     		ldr	r3, .L43+4
 862 00ac 1B88     		ldrh	r3, [r3]
 863 00ae 324A     		ldr	r2, .L43+8
 864 00b0 1B01     		lsls	r3, r3, #4
 865 00b2 D318     		adds	r3, r2, r3
 866 00b4 0C33     		adds	r3, r3, #12
 867 00b6 1A68     		ldr	r2, [r3]
 340:Generated_Source\PSoC4/BLE_custom.c ****                                 customServChar[cyBle_customDisCharIndex].customServCharHandle + 1u;
 868              		.loc 1 340 0
 869 00b8 2D4B     		ldr	r3, .L43
 870 00ba 1B88     		ldrh	r3, [r3]
 871 00bc 1B01     		lsls	r3, r3, #4
 872 00be D318     		adds	r3, r2, r3
 873 00c0 1B88     		ldrh	r3, [r3]
 339:Generated_Source\PSoC4/BLE_custom.c ****                                 customServChar[cyBle_customDisCharIndex].customServCharHandle + 1u;
 874              		.loc 1 339 0
 875 00c2 0133     		adds	r3, r3, #1
 876 00c4 9AB2     		uxth	r2, r3
 877 00c6 0823     		movs	r3, #8
 878 00c8 FB18     		adds	r3, r7, r3
 879 00ca 1A80     		strh	r2, [r3]
 341:Generated_Source\PSoC4/BLE_custom.c ****             charRange.endHandle = cyBle_customCServ[cyBle_customDisServIndex].
 880              		.loc 1 341 0
 881 00cc 294B     		ldr	r3, .L43+4
 882 00ce 1B88     		ldrh	r3, [r3]
 883 00d0 294A     		ldr	r2, .L43+8
 884 00d2 1B01     		lsls	r3, r3, #4
 885 00d4 D318     		adds	r3, r2, r3
 886 00d6 0C33     		adds	r3, r3, #12
 887 00d8 1A68     		ldr	r2, [r3]
 342:Generated_Source\PSoC4/BLE_custom.c ****                                 customServChar[cyBle_customDisCharIndex].customServCharEndHandle;
 888              		.loc 1 342 0
 889 00da 254B     		ldr	r3, .L43
 890 00dc 1B88     		ldrh	r3, [r3]
 891 00de 1B01     		lsls	r3, r3, #4
ARM GAS  C:\Users\ASUS\AppData\Local\Temp\cc83csU8.s 			page 23


 892 00e0 D318     		adds	r3, r2, r3
 893 00e2 5A88     		ldrh	r2, [r3, #2]
 341:Generated_Source\PSoC4/BLE_custom.c ****             charRange.endHandle = cyBle_customCServ[cyBle_customDisServIndex].
 894              		.loc 1 341 0
 895 00e4 0823     		movs	r3, #8
 896 00e6 FB18     		adds	r3, r7, r3
 897 00e8 5A80     		strh	r2, [r3, #2]
 898              	.L38:
 343:Generated_Source\PSoC4/BLE_custom.c ****         }
 344:Generated_Source\PSoC4/BLE_custom.c ****     }while(((charRange.startHandle <= cyBle_gattcDiscoveryRange.startHandle) || 
 899              		.loc 1 344 0
 900 00ea 0823     		movs	r3, #8
 901 00ec FB18     		adds	r3, r7, r3
 902 00ee 1A88     		ldrh	r2, [r3]
 903 00f0 234B     		ldr	r3, .L43+16
 904 00f2 1B88     		ldrh	r3, [r3]
 345:Generated_Source\PSoC4/BLE_custom.c ****             (charRange.startHandle > cyBle_gattcDiscoveryRange.endHandle) ||
 346:Generated_Source\PSoC4/BLE_custom.c ****             (charRange.endHandle < cyBle_gattcDiscoveryRange.startHandle) ||
 347:Generated_Source\PSoC4/BLE_custom.c ****             (charRange.startHandle > charRange.endHandle)) && 
 348:Generated_Source\PSoC4/BLE_custom.c ****             (cyBle_customDisCharIndex < cyBle_customCServ[cyBle_customDisServIndex].charCount));
 905              		.loc 1 348 0
 906 00f4 9A42     		cmp	r2, r3
 907 00f6 15D9     		bls	.L39
 345:Generated_Source\PSoC4/BLE_custom.c ****             (charRange.startHandle > cyBle_gattcDiscoveryRange.endHandle) ||
 908              		.loc 1 345 0
 909 00f8 0823     		movs	r3, #8
 910 00fa FB18     		adds	r3, r7, r3
 911 00fc 1A88     		ldrh	r2, [r3]
 912 00fe 204B     		ldr	r3, .L43+16
 913 0100 5B88     		ldrh	r3, [r3, #2]
 344:Generated_Source\PSoC4/BLE_custom.c ****             (charRange.startHandle > cyBle_gattcDiscoveryRange.endHandle) ||
 914              		.loc 1 344 0
 915 0102 9A42     		cmp	r2, r3
 916 0104 0ED8     		bhi	.L39
 346:Generated_Source\PSoC4/BLE_custom.c ****             (charRange.startHandle > charRange.endHandle)) && 
 917              		.loc 1 346 0
 918 0106 0823     		movs	r3, #8
 919 0108 FB18     		adds	r3, r7, r3
 920 010a 5A88     		ldrh	r2, [r3, #2]
 921 010c 1C4B     		ldr	r3, .L43+16
 922 010e 1B88     		ldrh	r3, [r3]
 345:Generated_Source\PSoC4/BLE_custom.c ****             (charRange.startHandle > cyBle_gattcDiscoveryRange.endHandle) ||
 923              		.loc 1 345 0
 924 0110 9A42     		cmp	r2, r3
 925 0112 07D3     		bcc	.L39
 347:Generated_Source\PSoC4/BLE_custom.c ****             (cyBle_customDisCharIndex < cyBle_customCServ[cyBle_customDisServIndex].charCount));
 926              		.loc 1 347 0
 927 0114 0823     		movs	r3, #8
 928 0116 FB18     		adds	r3, r7, r3
 929 0118 1A88     		ldrh	r2, [r3]
 930 011a 0823     		movs	r3, #8
 931 011c FB18     		adds	r3, r7, r3
 932 011e 5B88     		ldrh	r3, [r3, #2]
 346:Generated_Source\PSoC4/BLE_custom.c ****             (charRange.startHandle > charRange.endHandle)) && 
 933              		.loc 1 346 0
 934 0120 9A42     		cmp	r2, r3
 935 0122 0CD9     		bls	.L40
ARM GAS  C:\Users\ASUS\AppData\Local\Temp\cc83csU8.s 			page 24


 936              	.L39:
 937              		.loc 1 348 0 discriminator 1
 938 0124 134B     		ldr	r3, .L43+4
 939 0126 1B88     		ldrh	r3, [r3]
 940 0128 134A     		ldr	r2, .L43+8
 941 012a 1B01     		lsls	r3, r3, #4
 942 012c D318     		adds	r3, r2, r3
 943 012e 0933     		adds	r3, r3, #9
 944 0130 1B78     		ldrb	r3, [r3]
 945 0132 9AB2     		uxth	r2, r3
 946 0134 0E4B     		ldr	r3, .L43
 947 0136 1B88     		ldrh	r3, [r3]
 347:Generated_Source\PSoC4/BLE_custom.c ****             (cyBle_customDisCharIndex < cyBle_customCServ[cyBle_customDisServIndex].charCount));
 948              		.loc 1 347 0 discriminator 1
 949 0138 9A42     		cmp	r2, r3
 950 013a 00D9     		bls	.LCB754
 951 013c 6EE7     		b	.L41	@long jump
 952              	.LCB754:
 953              	.L40:
 349:Generated_Source\PSoC4/BLE_custom.c ****     
 350:Generated_Source\PSoC4/BLE_custom.c ****     return(charRange);
 954              		.loc 1 350 0
 955 013e 0C23     		movs	r3, #12
 956 0140 FB18     		adds	r3, r7, r3
 957 0142 0822     		movs	r2, #8
 958 0144 BA18     		adds	r2, r7, r2
 959 0146 1268     		ldr	r2, [r2]
 960 0148 1A60     		str	r2, [r3]
 961 014a 0C23     		movs	r3, #12
 962 014c FA18     		adds	r2, r7, r3
 963 014e 0023     		movs	r3, #0
 964 0150 1188     		ldrh	r1, [r2]
 965 0152 0904     		lsls	r1, r1, #16
 966 0154 090C     		lsrs	r1, r1, #16
 967 0156 1B0C     		lsrs	r3, r3, #16
 968 0158 1B04     		lsls	r3, r3, #16
 969 015a 0B43     		orrs	r3, r1
 970 015c 5288     		ldrh	r2, [r2, #2]
 971 015e 1204     		lsls	r2, r2, #16
 972 0160 1B04     		lsls	r3, r3, #16
 973 0162 1B0C     		lsrs	r3, r3, #16
 974 0164 1343     		orrs	r3, r2
 351:Generated_Source\PSoC4/BLE_custom.c **** }
 975              		.loc 1 351 0
 976 0166 1800     		movs	r0, r3
 977 0168 BD46     		mov	sp, r7
 978 016a 04B0     		add	sp, sp, #16
 979              		@ sp needed
 980 016c 80BD     		pop	{r7, pc}
 981              	.L44:
 982 016e C046     		.align	2
 983              	.L43:
 984 0170 02000000 		.word	cyBle_customDisCharIndex
 985 0174 00000000 		.word	cyBle_customDisServIndex
 986 0178 00000000 		.word	cyBle_customCServ
 987 017c 00000000 		.word	cyBle_disCount
 988 0180 00000000 		.word	cyBle_gattcDiscoveryRange
ARM GAS  C:\Users\ASUS\AppData\Local\Temp\cc83csU8.s 			page 25


 989              		.cfi_endproc
 990              	.LFE5:
 991              		.size	CyBle_CustomcGetCharRange, .-CyBle_CustomcGetCharRange
 992              		.section	.text.CyBle_CustomcDiscoverCharDescriptorsEventHandler,"ax",%progbits
 993              		.align	2
 994              		.global	CyBle_CustomcDiscoverCharDescriptorsEventHandler
 995              		.code	16
 996              		.thumb_func
 997              		.type	CyBle_CustomcDiscoverCharDescriptorsEventHandler, %function
 998              	CyBle_CustomcDiscoverCharDescriptorsEventHandler:
 999              	.LFB6:
 352:Generated_Source\PSoC4/BLE_custom.c **** 
 353:Generated_Source\PSoC4/BLE_custom.c **** 
 354:Generated_Source\PSoC4/BLE_custom.c **** /******************************************************************************
 355:Generated_Source\PSoC4/BLE_custom.c **** * Function Name: CyBle_CustomcDiscoverCharDescriptorsEventHandler
 356:Generated_Source\PSoC4/BLE_custom.c **** ***************************************************************************//**
 357:Generated_Source\PSoC4/BLE_custom.c **** * 
 358:Generated_Source\PSoC4/BLE_custom.c **** *  This function is called on receiving a CYBLE_EVT_GATTC_FIND_INFO_RSP event.
 359:Generated_Source\PSoC4/BLE_custom.c **** *  Based on the descriptor UUID, an appropriate data structure is populated using
 360:Generated_Source\PSoC4/BLE_custom.c **** *  the data received as part of the callback.
 361:Generated_Source\PSoC4/BLE_custom.c **** * 
 362:Generated_Source\PSoC4/BLE_custom.c **** *  \param *discDescrInfo: The pointer to a descriptor information structure.
 363:Generated_Source\PSoC4/BLE_custom.c **** * 
 364:Generated_Source\PSoC4/BLE_custom.c **** * \return
 365:Generated_Source\PSoC4/BLE_custom.c **** *  None
 366:Generated_Source\PSoC4/BLE_custom.c **** * 
 367:Generated_Source\PSoC4/BLE_custom.c **** ******************************************************************************/
 368:Generated_Source\PSoC4/BLE_custom.c **** void CyBle_CustomcDiscoverCharDescriptorsEventHandler(const CYBLE_DISC_DESCR_INFO_T *discDescrInfo)
 369:Generated_Source\PSoC4/BLE_custom.c **** {
 1000              		.loc 1 369 0
 1001              		.cfi_startproc
 1002              		@ args = 0, pretend = 0, frame = 16
 1003              		@ frame_needed = 1, uses_anonymous_args = 0
 1004 0000 80B5     		push	{r7, lr}
 1005              		.cfi_def_cfa_offset 8
 1006              		.cfi_offset 7, -8
 1007              		.cfi_offset 14, -4
 1008 0002 84B0     		sub	sp, sp, #16
 1009              		.cfi_def_cfa_offset 24
 1010 0004 00AF     		add	r7, sp, #0
 1011              		.cfi_def_cfa_register 7
 1012 0006 7860     		str	r0, [r7, #4]
 370:Generated_Source\PSoC4/BLE_custom.c ****     uint8 locDescIndex;
 371:Generated_Source\PSoC4/BLE_custom.c ****     uint8 locReqHandle = 0u;
 1013              		.loc 1 371 0
 1014 0008 0E23     		movs	r3, #14
 1015 000a FB18     		adds	r3, r7, r3
 1016 000c 0022     		movs	r2, #0
 1017 000e 1A70     		strb	r2, [r3]
 372:Generated_Source\PSoC4/BLE_custom.c **** 
 373:Generated_Source\PSoC4/BLE_custom.c ****     for(locDescIndex = 0u; (locDescIndex < cyBle_customCServ[cyBle_customDisServIndex].
 1018              		.loc 1 373 0
 1019 0010 0F23     		movs	r3, #15
 1020 0012 FB18     		adds	r3, r7, r3
 1021 0014 0022     		movs	r2, #0
 1022 0016 1A70     		strb	r2, [r3]
 1023 0018 B9E0     		b	.L46
ARM GAS  C:\Users\ASUS\AppData\Local\Temp\cc83csU8.s 			page 26


 1024              	.L51:
 1025              	.LBB3:
 374:Generated_Source\PSoC4/BLE_custom.c ****           customServChar[cyBle_customDisCharIndex].descCount) && (locReqHandle == 0u); locDescIndex
 375:Generated_Source\PSoC4/BLE_custom.c ****     {
 376:Generated_Source\PSoC4/BLE_custom.c ****         uint8 flag = 0u;
 1026              		.loc 1 376 0
 1027 001a 0D23     		movs	r3, #13
 1028 001c FB18     		adds	r3, r7, r3
 1029 001e 0022     		movs	r2, #0
 1030 0020 1A70     		strb	r2, [r3]
 377:Generated_Source\PSoC4/BLE_custom.c ****         
 378:Generated_Source\PSoC4/BLE_custom.c ****         if((discDescrInfo->uuidFormat == CYBLE_GATT_128_BIT_UUID_FORMAT) &&
 1031              		.loc 1 378 0
 1032 0022 7B68     		ldr	r3, [r7, #4]
 1033 0024 1B7D     		ldrb	r3, [r3, #20]
 1034 0026 022B     		cmp	r3, #2
 1035 0028 37D1     		bne	.L47
 379:Generated_Source\PSoC4/BLE_custom.c ****            (cyBle_customCServ[cyBle_customDisServIndex].customServChar[cyBle_customDisCharIndex].
 1036              		.loc 1 379 0 discriminator 1
 1037 002a 664B     		ldr	r3, .L53
 1038 002c 1B88     		ldrh	r3, [r3]
 1039 002e 664A     		ldr	r2, .L53+4
 1040 0030 1B01     		lsls	r3, r3, #4
 1041 0032 D318     		adds	r3, r2, r3
 1042 0034 0C33     		adds	r3, r3, #12
 1043 0036 1A68     		ldr	r2, [r3]
 1044 0038 644B     		ldr	r3, .L53+8
 1045 003a 1B88     		ldrh	r3, [r3]
 1046 003c 1B01     		lsls	r3, r3, #4
 1047 003e D318     		adds	r3, r2, r3
 1048 0040 D968     		ldr	r1, [r3, #12]
 380:Generated_Source\PSoC4/BLE_custom.c ****              customServCharDesc[locDescIndex].uuidFormat == CYBLE_GATT_128_BIT_UUID_FORMAT))
 1049              		.loc 1 380 0 discriminator 1
 1050 0042 0F23     		movs	r3, #15
 1051 0044 FB18     		adds	r3, r7, r3
 1052 0046 1A78     		ldrb	r2, [r3]
 1053 0048 1300     		movs	r3, r2
 1054 004a 5B00     		lsls	r3, r3, #1
 1055 004c 9B18     		adds	r3, r3, r2
 1056 004e 9B00     		lsls	r3, r3, #2
 1057 0050 CB18     		adds	r3, r1, r3
 1058 0052 1B7A     		ldrb	r3, [r3, #8]
 378:Generated_Source\PSoC4/BLE_custom.c ****            (cyBle_customCServ[cyBle_customDisServIndex].customServChar[cyBle_customDisCharIndex].
 1059              		.loc 1 378 0 discriminator 1
 1060 0054 022B     		cmp	r3, #2
 1061 0056 20D1     		bne	.L47
 381:Generated_Source\PSoC4/BLE_custom.c ****         {
 382:Generated_Source\PSoC4/BLE_custom.c ****             if(memcmp(cyBle_customCServ[cyBle_customDisServIndex].
 1062              		.loc 1 382 0
 1063 0058 5A4B     		ldr	r3, .L53
 1064 005a 1B88     		ldrh	r3, [r3]
 1065 005c 5A4A     		ldr	r2, .L53+4
 1066 005e 1B01     		lsls	r3, r3, #4
 1067 0060 D318     		adds	r3, r2, r3
 1068 0062 0C33     		adds	r3, r3, #12
 1069 0064 1A68     		ldr	r2, [r3]
 383:Generated_Source\PSoC4/BLE_custom.c ****                 customServChar[cyBle_customDisCharIndex].customServCharDesc[locDescIndex].uuid, 
ARM GAS  C:\Users\ASUS\AppData\Local\Temp\cc83csU8.s 			page 27


 1070              		.loc 1 383 0
 1071 0066 594B     		ldr	r3, .L53+8
 1072 0068 1B88     		ldrh	r3, [r3]
 1073 006a 1B01     		lsls	r3, r3, #4
 1074 006c D318     		adds	r3, r2, r3
 1075 006e D968     		ldr	r1, [r3, #12]
 1076 0070 0F23     		movs	r3, #15
 1077 0072 FB18     		adds	r3, r7, r3
 1078 0074 1A78     		ldrb	r2, [r3]
 1079 0076 1300     		movs	r3, r2
 1080 0078 5B00     		lsls	r3, r3, #1
 1081 007a 9B18     		adds	r3, r3, r2
 1082 007c 9B00     		lsls	r3, r3, #2
 1083 007e CB18     		adds	r3, r1, r3
 382:Generated_Source\PSoC4/BLE_custom.c ****                 customServChar[cyBle_customDisCharIndex].customServCharDesc[locDescIndex].uuid, 
 1084              		.loc 1 382 0
 1085 0080 5868     		ldr	r0, [r3, #4]
 384:Generated_Source\PSoC4/BLE_custom.c ****                 &discDescrInfo->uuid.uuid128, CYBLE_GATT_128_BIT_UUID_SIZE) == 0u)
 1086              		.loc 1 384 0
 1087 0082 7B68     		ldr	r3, [r7, #4]
 1088 0084 0433     		adds	r3, r3, #4
 382:Generated_Source\PSoC4/BLE_custom.c ****                 customServChar[cyBle_customDisCharIndex].customServCharDesc[locDescIndex].uuid, 
 1089              		.loc 1 382 0
 1090 0086 1022     		movs	r2, #16
 1091 0088 1900     		movs	r1, r3
 1092 008a FFF7FEFF 		bl	memcmp
 1093 008e 031E     		subs	r3, r0, #0
 1094 0090 03D1     		bne	.L47
 385:Generated_Source\PSoC4/BLE_custom.c ****             {
 386:Generated_Source\PSoC4/BLE_custom.c ****                 flag = 1u;
 1095              		.loc 1 386 0
 1096 0092 0D23     		movs	r3, #13
 1097 0094 FB18     		adds	r3, r7, r3
 1098 0096 0122     		movs	r2, #1
 1099 0098 1A70     		strb	r2, [r3]
 1100              	.L47:
 387:Generated_Source\PSoC4/BLE_custom.c ****             }
 388:Generated_Source\PSoC4/BLE_custom.c ****         }
 389:Generated_Source\PSoC4/BLE_custom.c ****         
 390:Generated_Source\PSoC4/BLE_custom.c ****         if((discDescrInfo->uuidFormat == CYBLE_GATT_16_BIT_UUID_FORMAT) &&
 1101              		.loc 1 390 0
 1102 009a 7B68     		ldr	r3, [r7, #4]
 1103 009c 1B7D     		ldrb	r3, [r3, #20]
 1104 009e 012B     		cmp	r3, #1
 1105 00a0 37D1     		bne	.L48
 391:Generated_Source\PSoC4/BLE_custom.c ****            (cyBle_customCServ[cyBle_customDisServIndex].customServChar[cyBle_customDisCharIndex].
 1106              		.loc 1 391 0 discriminator 1
 1107 00a2 484B     		ldr	r3, .L53
 1108 00a4 1B88     		ldrh	r3, [r3]
 1109 00a6 484A     		ldr	r2, .L53+4
 1110 00a8 1B01     		lsls	r3, r3, #4
 1111 00aa D318     		adds	r3, r2, r3
 1112 00ac 0C33     		adds	r3, r3, #12
 1113 00ae 1A68     		ldr	r2, [r3]
 1114 00b0 464B     		ldr	r3, .L53+8
 1115 00b2 1B88     		ldrh	r3, [r3]
 1116 00b4 1B01     		lsls	r3, r3, #4
ARM GAS  C:\Users\ASUS\AppData\Local\Temp\cc83csU8.s 			page 28


 1117 00b6 D318     		adds	r3, r2, r3
 1118 00b8 D968     		ldr	r1, [r3, #12]
 392:Generated_Source\PSoC4/BLE_custom.c ****              customServCharDesc[locDescIndex].uuidFormat == CYBLE_GATT_16_BIT_UUID_FORMAT))
 1119              		.loc 1 392 0 discriminator 1
 1120 00ba 0F23     		movs	r3, #15
 1121 00bc FB18     		adds	r3, r7, r3
 1122 00be 1A78     		ldrb	r2, [r3]
 1123 00c0 1300     		movs	r3, r2
 1124 00c2 5B00     		lsls	r3, r3, #1
 1125 00c4 9B18     		adds	r3, r3, r2
 1126 00c6 9B00     		lsls	r3, r3, #2
 1127 00c8 CB18     		adds	r3, r1, r3
 1128 00ca 1B7A     		ldrb	r3, [r3, #8]
 390:Generated_Source\PSoC4/BLE_custom.c ****            (cyBle_customCServ[cyBle_customDisServIndex].customServChar[cyBle_customDisCharIndex].
 1129              		.loc 1 390 0 discriminator 1
 1130 00cc 012B     		cmp	r3, #1
 1131 00ce 20D1     		bne	.L48
 393:Generated_Source\PSoC4/BLE_custom.c ****         {
 394:Generated_Source\PSoC4/BLE_custom.c ****             if(memcmp(cyBle_customCServ[cyBle_customDisServIndex].
 1132              		.loc 1 394 0
 1133 00d0 3C4B     		ldr	r3, .L53
 1134 00d2 1B88     		ldrh	r3, [r3]
 1135 00d4 3C4A     		ldr	r2, .L53+4
 1136 00d6 1B01     		lsls	r3, r3, #4
 1137 00d8 D318     		adds	r3, r2, r3
 1138 00da 0C33     		adds	r3, r3, #12
 1139 00dc 1A68     		ldr	r2, [r3]
 395:Generated_Source\PSoC4/BLE_custom.c ****                 customServChar[cyBle_customDisCharIndex].customServCharDesc[locDescIndex].uuid, 
 1140              		.loc 1 395 0
 1141 00de 3B4B     		ldr	r3, .L53+8
 1142 00e0 1B88     		ldrh	r3, [r3]
 1143 00e2 1B01     		lsls	r3, r3, #4
 1144 00e4 D318     		adds	r3, r2, r3
 1145 00e6 D968     		ldr	r1, [r3, #12]
 1146 00e8 0F23     		movs	r3, #15
 1147 00ea FB18     		adds	r3, r7, r3
 1148 00ec 1A78     		ldrb	r2, [r3]
 1149 00ee 1300     		movs	r3, r2
 1150 00f0 5B00     		lsls	r3, r3, #1
 1151 00f2 9B18     		adds	r3, r3, r2
 1152 00f4 9B00     		lsls	r3, r3, #2
 1153 00f6 CB18     		adds	r3, r1, r3
 394:Generated_Source\PSoC4/BLE_custom.c ****                 customServChar[cyBle_customDisCharIndex].customServCharDesc[locDescIndex].uuid, 
 1154              		.loc 1 394 0
 1155 00f8 5868     		ldr	r0, [r3, #4]
 396:Generated_Source\PSoC4/BLE_custom.c ****                 &discDescrInfo->uuid.uuid16, CYBLE_GATT_16_BIT_UUID_SIZE) == 0u)
 1156              		.loc 1 396 0
 1157 00fa 7B68     		ldr	r3, [r7, #4]
 1158 00fc 0433     		adds	r3, r3, #4
 394:Generated_Source\PSoC4/BLE_custom.c ****                 customServChar[cyBle_customDisCharIndex].customServCharDesc[locDescIndex].uuid, 
 1159              		.loc 1 394 0
 1160 00fe 0222     		movs	r2, #2
 1161 0100 1900     		movs	r1, r3
 1162 0102 FFF7FEFF 		bl	memcmp
 1163 0106 031E     		subs	r3, r0, #0
 1164 0108 03D1     		bne	.L48
 397:Generated_Source\PSoC4/BLE_custom.c ****             {
ARM GAS  C:\Users\ASUS\AppData\Local\Temp\cc83csU8.s 			page 29


 398:Generated_Source\PSoC4/BLE_custom.c ****                 flag = 1u;
 1165              		.loc 1 398 0
 1166 010a 0D23     		movs	r3, #13
 1167 010c FB18     		adds	r3, r7, r3
 1168 010e 0122     		movs	r2, #1
 1169 0110 1A70     		strb	r2, [r3]
 1170              	.L48:
 399:Generated_Source\PSoC4/BLE_custom.c ****             }
 400:Generated_Source\PSoC4/BLE_custom.c ****         }
 401:Generated_Source\PSoC4/BLE_custom.c ****         
 402:Generated_Source\PSoC4/BLE_custom.c ****         if((flag == 1u) && 
 1171              		.loc 1 402 0
 1172 0112 0D23     		movs	r3, #13
 1173 0114 FB18     		adds	r3, r7, r3
 1174 0116 1B78     		ldrb	r3, [r3]
 1175 0118 012B     		cmp	r3, #1
 1176 011a 31D1     		bne	.L49
 403:Generated_Source\PSoC4/BLE_custom.c ****            (cyBle_customCServ[cyBle_customDisServIndex].customServChar[cyBle_customDisCharIndex].
 1177              		.loc 1 403 0 discriminator 1
 1178 011c 294B     		ldr	r3, .L53
 1179 011e 1B88     		ldrh	r3, [r3]
 1180 0120 294A     		ldr	r2, .L53+4
 1181 0122 1B01     		lsls	r3, r3, #4
 1182 0124 D318     		adds	r3, r2, r3
 1183 0126 0C33     		adds	r3, r3, #12
 1184 0128 1A68     		ldr	r2, [r3]
 1185 012a 284B     		ldr	r3, .L53+8
 1186 012c 1B88     		ldrh	r3, [r3]
 1187 012e 1B01     		lsls	r3, r3, #4
 1188 0130 D318     		adds	r3, r2, r3
 1189 0132 D968     		ldr	r1, [r3, #12]
 404:Generated_Source\PSoC4/BLE_custom.c ****                customServCharDesc[locDescIndex].descHandle == CYBLE_GATT_INVALID_ATTR_HANDLE_VALUE)
 1190              		.loc 1 404 0 discriminator 1
 1191 0134 0F23     		movs	r3, #15
 1192 0136 FB18     		adds	r3, r7, r3
 1193 0138 1A78     		ldrb	r2, [r3]
 1194 013a 1300     		movs	r3, r2
 1195 013c 5B00     		lsls	r3, r3, #1
 1196 013e 9B18     		adds	r3, r3, r2
 1197 0140 9B00     		lsls	r3, r3, #2
 1198 0142 CB18     		adds	r3, r1, r3
 1199 0144 1B88     		ldrh	r3, [r3]
 402:Generated_Source\PSoC4/BLE_custom.c ****            (cyBle_customCServ[cyBle_customDisServIndex].customServChar[cyBle_customDisCharIndex].
 1200              		.loc 1 402 0 discriminator 1
 1201 0146 002B     		cmp	r3, #0
 1202 0148 1AD1     		bne	.L49
 405:Generated_Source\PSoC4/BLE_custom.c ****         {
 406:Generated_Source\PSoC4/BLE_custom.c ****             cyBle_customCServ[cyBle_customDisServIndex].customServChar[cyBle_customDisCharIndex].
 1203              		.loc 1 406 0
 1204 014a 1E4B     		ldr	r3, .L53
 1205 014c 1B88     		ldrh	r3, [r3]
 1206 014e 1E4A     		ldr	r2, .L53+4
 1207 0150 1B01     		lsls	r3, r3, #4
 1208 0152 D318     		adds	r3, r2, r3
 1209 0154 0C33     		adds	r3, r3, #12
 1210 0156 1A68     		ldr	r2, [r3]
 1211 0158 1C4B     		ldr	r3, .L53+8
ARM GAS  C:\Users\ASUS\AppData\Local\Temp\cc83csU8.s 			page 30


 1212 015a 1B88     		ldrh	r3, [r3]
 1213 015c 1B01     		lsls	r3, r3, #4
 1214 015e D318     		adds	r3, r2, r3
 1215 0160 D968     		ldr	r1, [r3, #12]
 407:Generated_Source\PSoC4/BLE_custom.c ****                 customServCharDesc[locDescIndex].descHandle = discDescrInfo->descrHandle;
 1216              		.loc 1 407 0
 1217 0162 0F23     		movs	r3, #15
 1218 0164 FB18     		adds	r3, r7, r3
 1219 0166 1A78     		ldrb	r2, [r3]
 1220 0168 1300     		movs	r3, r2
 1221 016a 5B00     		lsls	r3, r3, #1
 1222 016c 9B18     		adds	r3, r3, r2
 1223 016e 9B00     		lsls	r3, r3, #2
 1224 0170 CB18     		adds	r3, r1, r3
 1225 0172 7A68     		ldr	r2, [r7, #4]
 1226 0174 5288     		ldrh	r2, [r2, #2]
 1227 0176 1A80     		strh	r2, [r3]
 408:Generated_Source\PSoC4/BLE_custom.c ****             locReqHandle = 1u;
 1228              		.loc 1 408 0
 1229 0178 0E23     		movs	r3, #14
 1230 017a FB18     		adds	r3, r7, r3
 1231 017c 0122     		movs	r2, #1
 1232 017e 1A70     		strb	r2, [r3]
 1233              	.L49:
 1234              	.LBE3:
 374:Generated_Source\PSoC4/BLE_custom.c ****     {
 1235              		.loc 1 374 0
 1236 0180 0F23     		movs	r3, #15
 1237 0182 FB18     		adds	r3, r7, r3
 1238 0184 1A78     		ldrb	r2, [r3]
 1239 0186 0F23     		movs	r3, #15
 1240 0188 FB18     		adds	r3, r7, r3
 1241 018a 0132     		adds	r2, r2, #1
 1242 018c 1A70     		strb	r2, [r3]
 1243              	.L46:
 373:Generated_Source\PSoC4/BLE_custom.c ****           customServChar[cyBle_customDisCharIndex].descCount) && (locReqHandle == 0u); locDescIndex
 1244              		.loc 1 373 0 discriminator 1
 1245 018e 0D4B     		ldr	r3, .L53
 1246 0190 1B88     		ldrh	r3, [r3]
 1247 0192 0D4A     		ldr	r2, .L53+4
 1248 0194 1B01     		lsls	r3, r3, #4
 1249 0196 D318     		adds	r3, r2, r3
 1250 0198 0C33     		adds	r3, r3, #12
 1251 019a 1A68     		ldr	r2, [r3]
 374:Generated_Source\PSoC4/BLE_custom.c ****     {
 1252              		.loc 1 374 0 discriminator 1
 1253 019c 0B4B     		ldr	r3, .L53+8
 1254 019e 1B88     		ldrh	r3, [r3]
 1255 01a0 1B01     		lsls	r3, r3, #4
 1256 01a2 D318     		adds	r3, r2, r3
 1257 01a4 9B7A     		ldrb	r3, [r3, #10]
 373:Generated_Source\PSoC4/BLE_custom.c ****           customServChar[cyBle_customDisCharIndex].descCount) && (locReqHandle == 0u); locDescIndex
 1258              		.loc 1 373 0 discriminator 1
 1259 01a6 0F22     		movs	r2, #15
 1260 01a8 BA18     		adds	r2, r7, r2
 1261 01aa 1278     		ldrb	r2, [r2]
 1262 01ac 9A42     		cmp	r2, r3
ARM GAS  C:\Users\ASUS\AppData\Local\Temp\cc83csU8.s 			page 31


 1263 01ae 05D2     		bcs	.L52
 374:Generated_Source\PSoC4/BLE_custom.c ****     {
 1264              		.loc 1 374 0
 1265 01b0 0E23     		movs	r3, #14
 1266 01b2 FB18     		adds	r3, r7, r3
 1267 01b4 1B78     		ldrb	r3, [r3]
 1268 01b6 002B     		cmp	r3, #0
 1269 01b8 00D1     		bne	.LCB1040
 1270 01ba 2EE7     		b	.L51	@long jump
 1271              	.LCB1040:
 1272              	.L52:
 409:Generated_Source\PSoC4/BLE_custom.c ****         }
 410:Generated_Source\PSoC4/BLE_custom.c ****     }
 411:Generated_Source\PSoC4/BLE_custom.c **** }
 1273              		.loc 1 411 0
 1274 01bc C046     		nop
 1275 01be BD46     		mov	sp, r7
 1276 01c0 04B0     		add	sp, sp, #16
 1277              		@ sp needed
 1278 01c2 80BD     		pop	{r7, pc}
 1279              	.L54:
 1280              		.align	2
 1281              	.L53:
 1282 01c4 00000000 		.word	cyBle_customDisServIndex
 1283 01c8 00000000 		.word	cyBle_customCServ
 1284 01cc 02000000 		.word	cyBle_customDisCharIndex
 1285              		.cfi_endproc
 1286              	.LFE6:
 1287              		.size	CyBle_CustomcDiscoverCharDescriptorsEventHandler, .-CyBle_CustomcDiscoverCharDescriptorsEven
 1288              		.bss
 1289              		.align	2
 1290              	customsLastEndHandle.6753:
 1291 0004 00000000 		.space	4
 1292              		.align	1
 1293              	discoveryLastServ.6754:
 1294 0008 0000     		.space	2
 1295              		.text
 1296              	.Letext0:
 1297              		.file 2 "Generated_Source\\PSoC4\\cytypes.h"
 1298              		.file 3 "Generated_Source\\PSoC4\\BLE_StackGatt.h"
 1299              		.file 4 "Generated_Source\\PSoC4\\BLE_gatt.h"
 1300              		.file 5 "Generated_Source\\PSoC4\\BLE_custom.h"
 1301              		.file 6 "Generated_Source\\PSoC4\\BLE_Stack.h"
 1302              		.file 7 "Generated_Source\\PSoC4\\BLE_eventHandler.h"