ARM GAS  C:\Users\ASUS\AppData\Local\Temp\ccKl44WS.s 			page 1


   1              		.syntax unified
   2              		.cpu cortex-m0
   3              		.fpu softvfp
   4              		.eabi_attribute 20, 1
   5              		.eabi_attribute 21, 1
   6              		.eabi_attribute 23, 3
   7              		.eabi_attribute 24, 1
   8              		.eabi_attribute 25, 1
   9              		.eabi_attribute 26, 1
  10              		.eabi_attribute 30, 6
  11              		.eabi_attribute 34, 0
  12              		.eabi_attribute 18, 4
  13              		.thumb
  14              		.syntax unified
  15              		.file	"ble_process.c"
  16              		.text
  17              	.Ltext0:
  18              		.cfi_sections	.debug_frame
  19              		.comm	current_watchdog_counter,2,2
  20              		.comm	TEXT_BUF,50,4
  21              		.comm	RGBData,4,4
  22              		.global	dataADVCounter
  23              		.data
  24              		.type	dataADVCounter, %object
  25              		.size	dataADVCounter, 1
  26              	dataADVCounter:
  27 0000 01       		.byte	1
  28              		.global	switch_Role
  29              		.bss
  30              		.type	switch_Role, %object
  31              		.size	switch_Role, 1
  32              	switch_Role:
  33 0000 00       		.space	1
  34              		.comm	new_advData,32,4
  35              		.global	potential_node_found
  36              		.type	potential_node_found, %object
  37              		.size	potential_node_found, 1
  38              	potential_node_found:
  39 0001 00       		.space	1
  40              		.comm	potential_node_bdAddr,6,4
  41              		.global	potential_node_bdAddrType
  42              		.type	potential_node_bdAddrType, %object
  43              		.size	potential_node_bdAddrType, 1
  44              	potential_node_bdAddrType:
  45 0002 00       		.space	1
  46              		.global	scan_tag
  47              		.data
  48 0001 000000   		.align	2
  49              		.type	scan_tag, %object
  50              		.size	scan_tag, 20
  51              	scan_tag:
  52 0004 13       		.byte	19
  53 0005 21       		.byte	33
  54 0006 31       		.byte	49
  55 0007 01       		.byte	1
  56 0008 9B       		.byte	-101
  57 0009 5F       		.byte	95
ARM GAS  C:\Users\ASUS\AppData\Local\Temp\ccKl44WS.s 			page 2


  58 000a 80       		.byte	-128
  59 000b 00       		.byte	0
  60 000c 00       		.byte	0
  61 000d 80       		.byte	-128
  62 000e 00       		.byte	0
  63 000f 10       		.byte	16
  64 0010 00       		.byte	0
  65 0011 00       		.byte	0
  66 0012 BB       		.byte	-69
  67 0013 CB       		.byte	-53
  68 0014 03       		.byte	3
  69 0015 00       		.byte	0
  70 0016 BB       		.byte	-69
  71 0017 CB       		.byte	-53
  72              		.comm	peripAddr,7,4
  73              		.global	clientConnectToDevice
  74              		.bss
  75              		.type	clientConnectToDevice, %object
  76              		.size	clientConnectToDevice, 1
  77              	clientConnectToDevice:
  78 0003 00       		.space	1
  79              		.global	ble_gap_state
  80              		.data
  81              		.type	ble_gap_state, %object
  82              		.size	ble_gap_state, 1
  83              	ble_gap_state:
  84 0018 01       		.byte	1
  85              		.global	deviceConnected
  86              		.bss
  87              		.type	deviceConnected, %object
  88              		.size	deviceConnected, 1
  89              	deviceConnected:
  90 0004 00       		.space	1
  91              		.global	restartScanning
  92              		.type	restartScanning, %object
  93              		.size	restartScanning, 1
  94              	restartScanning:
  95 0005 00       		.space	1
  96              		.global	centralStartedTime
  97              		.align	1
  98              		.type	centralStartedTime, %object
  99              		.size	centralStartedTime, 2
 100              	centralStartedTime:
 101 0006 0000     		.space	2
 102              		.section	.rodata
 103              		.align	2
 104              	.LC0:
 105 0000 4359424C 		.ascii	"CYBLE_EVT_STACK_ON \000"
 105      455F4556 
 105      545F5354 
 105      41434B5F 
 105      4F4E2000 
 106              		.align	2
 107              	.LC2:
 108 0014 4359424C 		.ascii	"CYBLE_EVT_GAPP_ADVERTISEMENT_START_STOP \000"
 108      455F4556 
 108      545F4741 
ARM GAS  C:\Users\ASUS\AppData\Local\Temp\ccKl44WS.s 			page 3


 108      50505F41 
 108      44564552 
 109 003d 000000   		.align	2
 110              	.LC6:
 111 0040 52657374 		.ascii	"Restart Advertisement \000"
 111      61727420 
 111      41647665 
 111      72746973 
 111      656D656E 
 112 0057 00       		.align	2
 113              	.LC8:
 114 0058 4359424C 		.ascii	"CYBLE_EVT_GAPC_SCAN_START_STOP \000"
 114      455F4556 
 114      545F4741 
 114      50435F53 
 114      43414E5F 
 115              		.align	2
 116              	.LC10:
 117 0078 4359424C 		.ascii	"CYBLE_EVT_GATT_CONNECT_IND \000"
 117      455F4556 
 117      545F4741 
 117      54545F43 
 117      4F4E4E45 
 118              		.align	2
 119              	.LC12:
 120 0094 4359424C 		.ascii	"CYBLE_EVT_GATT_DISCONNECT_IND \000"
 120      455F4556 
 120      545F4741 
 120      54545F44 
 120      4953434F 
 121 00b3 00       		.align	2
 122              	.LC14:
 123 00b4 52474220 		.ascii	"RGB CYBLE_EVT_GATTS_WRITE_REQ \000"
 123      4359424C 
 123      455F4556 
 123      545F4741 
 123      5454535F 
 124 00d3 00       		.align	2
 125              	.LC19:
 126 00d4 0A0A2044 		.ascii	"\012\012 DEVICE_INDEX in case CYBLE_EVT_GATTS_WRITE"
 126      45564943 
 126      455F494E 
 126      44455820 
 126      696E2063 
 127 0101 5F524551 		.ascii	"_REQ  %d \012\012\000"
 127      20202564 
 127      200A0A00 
 128 010d 000000   		.align	2
 129              	.LC24:
 130 0110 696E6372 		.ascii	"incremented dataADVCounter value in CYBLE_EVT_GATTS"
 130      656D656E 
 130      74656420 
 130      64617461 
 130      41445643 
 131 0143 5F575249 		.ascii	"_WRITE_REQ= \000"
 131      54455F52 
 131      45513D20 
ARM GAS  C:\Users\ASUS\AppData\Local\Temp\ccKl44WS.s 			page 4


 131      00
 132              		.align	2
 133              	.LC26:
 134 0150 73776974 		.ascii	"switchRole to Central\000"
 134      6368526F 
 134      6C652074 
 134      6F204365 
 134      6E747261 
 135 0166 0000     		.align	2
 136              	.LC28:
 137 0168 64617461 		.ascii	"dataADVCounter from CYBLE_EVT_GATTS_WRITE_CMD_REQ ="
 137      41445643 
 137      6F756E74 
 137      65722066 
 137      726F6D20 
 138 019b 2000     		.ascii	" \000"
 139 019d 000000   		.align	2
 140              	.LC30:
 141 01a0 4359424C 		.ascii	"CYBLE_EVT_GAPC_SCAN_PROGRESS_RESULT \000"
 141      455F4556 
 141      545F4741 
 141      50435F53 
 141      43414E5F 
 142 01c5 000000   		.align	2
 143              	.LC36:
 144 01c8 706F7465 		.ascii	"potential_node_found \000"
 144      6E746961 
 144      6C5F6E6F 
 144      64655F66 
 144      6F756E64 
 145 01de 0000     		.align	2
 146              	.LC39:
 147 01e0 54697461 		.ascii	"Titan Found \000"
 147      6E20466F 
 147      756E6420 
 147      00
 148 01ed 000000   		.align	2
 149              	.LC41:
 150 01f0 53746F70 		.ascii	"Stop Scan called \000"
 150      20536361 
 150      6E206361 
 150      6C6C6564 
 150      2000
 151 0202 0000     		.align	2
 152              	.LC47:
 153 0204 44697265 		.ascii	"Directly write RGB using Attr handle \000"
 153      63746C79 
 153      20777269 
 153      74652052 
 153      47422075 
 154 022a 0000     		.align	2
 155              	.LC50:
 156 022c 4359424C 		.ascii	"CYBLE_EVT_GATTC_WRITE_RSP \000"
 156      455F4556 
 156      545F4741 
 156      5454435F 
 156      57524954 
ARM GAS  C:\Users\ASUS\AppData\Local\Temp\ccKl44WS.s 			page 5


 157 0247 00       		.align	2
 158              	.LC53:
 159 0248 44697363 		.ascii	"Disconnect from CYBLE_EVT_GATTC_WRITE_RSP \000"
 159      6F6E6E65 
 159      63742066 
 159      726F6D20 
 159      4359424C 
 160 0273 00       		.align	2
 161              	.LC55:
 162 0274 4359424C 		.ascii	"CYBLE_EVT_GAP_DEVICE_DISCONNECTED \000"
 162      455F4556 
 162      545F4741 
 162      505F4445 
 162      56494345 
 163 0297 00       		.align	2
 164              	.LC57:
 165 0298 52657374 		.ascii	"Restart Scanning \000"
 165      61727420 
 165      5363616E 
 165      6E696E67 
 165      2000
 166              		.section	.text.GenericEventHandler,"ax",%progbits
 167              		.align	2
 168              		.global	GenericEventHandler
 169              		.code	16
 170              		.thumb_func
 171              		.type	GenericEventHandler, %function
 172              	GenericEventHandler:
 173              	.LFB36:
 174              		.file 1 "ble_process.c"
   1:ble_process.c **** /*******************************************************************************
   2:ble_process.c **** * File Name: ble_process.c
   3:ble_process.c **** *
   4:ble_process.c **** * Version: 1.0
   5:ble_process.c **** *
   6:ble_process.c **** * Description:
   7:ble_process.c **** * This file contains the definiton for BLE related functions, such as event handler,
   8:ble_process.c **** * GAP role switching, central scanning and connection to peripherals.
   9:ble_process.c **** *
  10:ble_process.c **** ********************************************************************************
  11:ble_process.c **** * Copyright 2015, Cypress Semiconductor Corporation.  All rights reserved.
  12:ble_process.c **** * You may use this file only in accordance with the license, terms, conditions,
  13:ble_process.c **** * disclaimers, and limitations in the end user license agreement accompanying
  14:ble_process.c **** * the software package with which this file was provided.
  15:ble_process.c **** *******************************************************************************/
  16:ble_process.c **** #include <main.h>
  17:ble_process.c **** 
  18:ble_process.c **** #include <stdio.h>
  19:ble_process.c **** #include <utils.h>
  20:ble_process.c **** 
  21:ble_process.c **** char TEXT_BUF[50];
  22:ble_process.c **** 
  23:ble_process.c **** uint8 RGBData[4];
  24:ble_process.c **** uint8 dataADVCounter = 1;
  25:ble_process.c **** uint8 switch_Role = FALSE;
  26:ble_process.c **** 
  27:ble_process.c **** #ifdef ENABLE_ADV_DATA_COUNTER
ARM GAS  C:\Users\ASUS\AppData\Local\Temp\ccKl44WS.s 			page 6


  28:ble_process.c **** CYBLE_GAPP_DISC_DATA_T  new_advData;
  29:ble_process.c **** uint8 potential_node_found = 0;
  30:ble_process.c **** uint8 potential_node_bdAddr[6];
  31:ble_process.c **** uint8 potential_node_bdAddrType = 0;
  32:ble_process.c **** #endif
  33:ble_process.c **** 
  34:ble_process.c **** uint8 scan_tag[SCAN_TAG_DATA_LEN] = {0x13, 0x21, 0x31, 0x01, 0x9B, 0x5F, 0x80, 0x00,
  35:ble_process.c **** 									0x00, 0x80, 0x00, 0x10, 0x00, 0x00, 0xBB, 0xCB, 
  36:ble_process.c **** 									0x03, 0x00, 0xBB, 0xCB};
  37:ble_process.c **** 
  38:ble_process.c **** CYBLE_GAP_BD_ADDR_T				peripAddr;
  39:ble_process.c **** uint8 clientConnectToDevice = FALSE;
  40:ble_process.c **** uint8 ble_gap_state = BLE_PERIPHERAL;
  41:ble_process.c **** 
  42:ble_process.c **** uint8 deviceConnected = FALSE;
  43:ble_process.c **** uint8 restartScanning = FALSE;
  44:ble_process.c **** volatile uint16 centralStartedTime = 0;
  45:ble_process.c **** 
  46:ble_process.c **** /*******************************************************************************
  47:ble_process.c **** * Function Name: GenericEventHandler
  48:ble_process.c **** ********************************************************************************
  49:ble_process.c **** * Summary:
  50:ble_process.c **** *        Event handler function for the BLE stack. All the events by BLE stack
  51:ble_process.c **** * are received by application through this function. For this, CyBle_ProcessEvents()
  52:ble_process.c **** * should be called continuously in main loop.
  53:ble_process.c **** *
  54:ble_process.c **** * Parameters:
  55:ble_process.c **** *  event: 		event value
  56:ble_process.c **** *  eventParame: pointer to the location where relevant event data is stored
  57:ble_process.c **** *
  58:ble_process.c **** * Return:
  59:ble_process.c **** *  void
  60:ble_process.c **** *
  61:ble_process.c **** *******************************************************************************/
  62:ble_process.c **** void GenericEventHandler(uint32 event, void * eventParam)
  63:ble_process.c **** {
 175              		.loc 1 63 0
 176              		.cfi_startproc
 177              		@ args = 0, pretend = 0, frame = 96
 178              		@ frame_needed = 1, uses_anonymous_args = 0
 179 0000 90B5     		push	{r4, r7, lr}
 180              		.cfi_def_cfa_offset 12
 181              		.cfi_offset 4, -12
 182              		.cfi_offset 7, -8
 183              		.cfi_offset 14, -4
 184 0002 99B0     		sub	sp, sp, #100
 185              		.cfi_def_cfa_offset 112
 186 0004 00AF     		add	r7, sp, #0
 187              		.cfi_def_cfa_register 7
 188 0006 7860     		str	r0, [r7, #4]
 189 0008 3960     		str	r1, [r7]
  64:ble_process.c **** 	/* Local variables and data structures*/
  65:ble_process.c **** 	CYBLE_GATTS_WRITE_REQ_PARAM_T 		writeReqData;
  66:ble_process.c **** 	CYBLE_GATTC_WRITE_REQ_T				writeADVcounterdata;
  67:ble_process.c **** 	CYBLE_GAPC_ADV_REPORT_T				scan_report;
  68:ble_process.c **** 	CYBLE_GATTS_WRITE_CMD_REQ_PARAM_T	writeCmdData;
  69:ble_process.c **** 	CYBLE_API_RESULT_T					apiResult;
ARM GAS  C:\Users\ASUS\AppData\Local\Temp\ccKl44WS.s 			page 7


  70:ble_process.c **** 	CYBLE_GATTC_WRITE_REQ_T 			writeRGBdata;
  71:ble_process.c **** 	
  72:ble_process.c **** 	switch(event)
 190              		.loc 1 72 0
 191 000a 7B68     		ldr	r3, [r7, #4]
 192 000c 2B2B     		cmp	r3, #43
 193 000e 5AD0     		beq	.L3
 194 0010 0FD8     		bhi	.L4
 195 0012 262B     		cmp	r3, #38
 196 0014 2BD0     		beq	.L5
 197 0016 05D8     		bhi	.L6
 198 0018 012B     		cmp	r3, #1
 199 001a 1DD0     		beq	.L7
 200 001c 202B     		cmp	r3, #32
 201 001e 00D1     		bne	.LCB27
 202 0020 2CE1     		b	.L8	@long jump
 203              	.LCB27:
  73:ble_process.c **** 	{
  74:ble_process.c **** 		case CYBLE_EVT_STACK_ON:
  75:ble_process.c **** 			#ifdef DEBUG_ENABLED
  76:ble_process.c **** 			UART_UartPutString("CYBLE_EVT_STACK_ON ");
  77:ble_process.c **** 			UART_UartPutCRLF(' ');
  78:ble_process.c **** 			#endif
  79:ble_process.c **** 			/* At the start of the BLE stack, start advertisement */
  80:ble_process.c **** 			CyBle_GappStartAdvertisement(CYBLE_ADVERTISING_FAST);
  81:ble_process.c **** 		break;
  82:ble_process.c **** 			
  83:ble_process.c **** 		case CYBLE_EVT_GAPP_ADVERTISEMENT_START_STOP:
  84:ble_process.c **** 			/* This event is received at every start or stop of peripheral advertisement*/
  85:ble_process.c **** 			#ifdef DEBUG_ENABLED
  86:ble_process.c **** 			UART_UartPutString("CYBLE_EVT_GAPP_ADVERTISEMENT_START_STOP ");
  87:ble_process.c **** 			SendBLEStatetoUART(CyBle_GetState());
  88:ble_process.c **** 			UART_UartPutCRLF(' ');
  89:ble_process.c **** 			#endif
  90:ble_process.c **** 			
  91:ble_process.c **** 			if((CYBLE_STATE_DISCONNECTED == CyBle_GetState()) && (switch_Role == FALSE))
  92:ble_process.c **** 			{
  93:ble_process.c **** 				/* If the current state of the BLE is Disconnected, then restart advertisement.
  94:ble_process.c **** 				* Note that the advertisement should only be restarted if the switch flag is not
  95:ble_process.c **** 				* TRUE. If switch role flag is TRUE, then there is no need to start advertisement
  96:ble_process.c **** 				* as the GAP role has to be switched*/
  97:ble_process.c **** 				CyBle_GappStartAdvertisement(CYBLE_ADVERTISING_FAST);	
  98:ble_process.c **** 				
  99:ble_process.c **** 				if(apiResult == CYBLE_ERROR_OK)
 100:ble_process.c **** 				{
 101:ble_process.c **** 					#ifdef DEBUG_ENABLED
 102:ble_process.c **** 					UART_UartPutString("Restart Advertisement ");
 103:ble_process.c **** 					SendBLEStatetoUART(CyBle_GetState());
 104:ble_process.c **** 					UART_UartPutCRLF(' ');
 105:ble_process.c **** 					#endif
 106:ble_process.c **** 				}
 107:ble_process.c **** 			}
 108:ble_process.c **** 		break;
 109:ble_process.c **** 			
 110:ble_process.c **** 		case CYBLE_EVT_GAPC_SCAN_START_STOP:
 111:ble_process.c **** 			/* This event is received at every start or stop of central scanning*/
 112:ble_process.c **** 			#ifdef DEBUG_ENABLED
ARM GAS  C:\Users\ASUS\AppData\Local\Temp\ccKl44WS.s 			page 8


 113:ble_process.c **** 			UART_UartPutString("CYBLE_EVT_GAPC_SCAN_START_STOP ");
 114:ble_process.c **** 			SendBLEStatetoUART(CyBle_GetState());
 115:ble_process.c **** 			UART_UartPutCRLF(' ');
 116:ble_process.c **** 			#endif
 117:ble_process.c **** 		break;
 118:ble_process.c **** 			
 119:ble_process.c **** 		case CYBLE_EVT_GATT_CONNECT_IND:
 120:ble_process.c **** 			/* This event is received at GATT connection with a device. This event
 121:ble_process.c **** 			* is received for both Client or Server role */
 122:ble_process.c **** 			#ifdef DEBUG_ENABLED
 123:ble_process.c **** 			UART_UartPutString("CYBLE_EVT_GATT_CONNECT_IND ");
 124:ble_process.c **** 			UART_UartPutCRLF(' ');
 125:ble_process.c **** 			#endif
 126:ble_process.c **** 		break;
 127:ble_process.c **** 		
 128:ble_process.c **** 		case CYBLE_EVT_GATT_DISCONNECT_IND:
 129:ble_process.c **** 			/* This event is received at GATT disconnection with a device. This event
 130:ble_process.c **** 			* is received for both Client or Server role */
 131:ble_process.c **** 			#ifdef DEBUG_ENABLED
 132:ble_process.c **** 			UART_UartPutString("CYBLE_EVT_GATT_DISCONNECT_IND ");
 133:ble_process.c **** 			UART_UartPutCRLF(' ');
 134:ble_process.c **** 			#endif
 135:ble_process.c **** 		break;
 136:ble_process.c **** 			
 137:ble_process.c **** 		case CYBLE_EVT_GATTS_WRITE_REQ:
 138:ble_process.c **** 			/* This event is received at when Server receives a Write request from
 139:ble_process.c **** 			* connected Client device */
 140:ble_process.c **** 			/* Save the associated event parameter in local variable */
 141:ble_process.c **** 			writeReqData = *(CYBLE_GATTS_WRITE_REQ_PARAM_T*)eventParam;
 142:ble_process.c **** 
 143:ble_process.c **** 			if(writeReqData.handleValPair.attrHandle == CYBLE_RGB_LED_CONTROL_CHAR_HANDLE)
 144:ble_process.c **** 			{
 145:ble_process.c **** 				/* If the Write request is on RGB LED Control Characteristic, then Client is 
 146:ble_process.c **** 				* trying to set a new color to the device. */
 147:ble_process.c **** 				if(writeReqData.handleValPair.value.len == RGB_LED_DATA_LEN)
 148:ble_process.c **** 				{
 149:ble_process.c **** 					#ifdef DEBUG_ENABLED
 150:ble_process.c **** 						UART_UartPutString("RGB CYBLE_EVT_GATTS_WRITE_REQ ");
 151:ble_process.c **** 						UART_UartPutCRLF(' ');
 152:ble_process.c **** 					#endif
 153:ble_process.c **** 					
 154:ble_process.c **** 					/* Extract the four bytes containing the color value and store it */
 155:ble_process.c **** 					RGBData[RGB_RED_INDEX] = writeReqData.handleValPair.value.val[0];
 156:ble_process.c **** 					RGBData[RGB_GREEN_INDEX] = writeReqData.handleValPair.value.val[1];
 157:ble_process.c **** 					RGBData[RGB_BLUE_INDEX] = writeReqData.handleValPair.value.val[2];
 158:ble_process.c **** 					RGBData[RGB_INTENSITY_INDEX] = writeReqData.handleValPair.value.val[3];
 159:ble_process.c ****                     
 160:ble_process.c ****                     DEVICE_INDEX = writeReqData.handleValPair.value.val[4];
 161:ble_process.c ****                     NUM_EXCEEDED_WAITING_TIME = 0;
 162:ble_process.c **** 					
 163:ble_process.c **** //                    uint8 RGB_Collection[4] = {0xFF, 0xFF, 0xFF, 0xFF};
 164:ble_process.c **** //                    RGBData[RGB_RED_INDEX] = RGB_Collection[0];
 165:ble_process.c **** //                    RGBData[RGB_BLUE_INDEX] = RGB_Collection[1];
 166:ble_process.c **** //                    RGBData[RGB_GREEN_INDEX] = RGB_Collection[2];
 167:ble_process.c **** //                    RGBData[RGB_INTENSITY_INDEX] = RGB_Collection[3];
 168:ble_process.c ****                     
 169:ble_process.c **** 					/* Modify RGB Color my configuring the PrISM components with new density 
ARM GAS  C:\Users\ASUS\AppData\Local\Temp\ccKl44WS.s 			page 9


 170:ble_process.c **** 					* value*/
 171:ble_process.c ****                     sprintf(TEXT_BUF,"\n\n DEVICE_INDEX in case CYBLE_EVT_GATTS_WRITE_REQ  %d \n\n"
 172:ble_process.c ****                     UART_UartPutString(TEXT_BUF);
 173:ble_process.c ****                     
 174:ble_process.c ****                     restart_peripheral_waiting_time();
 175:ble_process.c ****                     
 176:ble_process.c ****                     
 177:ble_process.c **** 					UpdateRGBled(RGBData, RGB_LED_DATA_LEN);
 178:ble_process.c **** 					
 179:ble_process.c **** 					/* Update the RGB LED Control characteristic in GATT DB  to allow
 180:ble_process.c **** 					* Client to read the latest RGB LED color value set */
 181:ble_process.c **** 					CyBle_GattsWriteAttributeValue(&writeReqData.handleValPair,0,&cyBle_connHandle,
 182:ble_process.c ****                         CYBLE_GATT_DB_LOCALLY_INITIATED);
 183:ble_process.c **** 							
 184:ble_process.c **** 					#ifdef ENABLE_ADV_DATA_COUNTER
 185:ble_process.c **** 					/* Increment the ADV data counter so that scanning Central device knows
 186:ble_process.c **** 					* if this device has updated RGB LED data or not */
 187:ble_process.c **** 					dataADVCounter++;
 188:ble_process.c **** 					#endif
 189:ble_process.c **** 					
 190:ble_process.c **** 					#ifdef DEBUG_ENABLED
 191:ble_process.c ****     					UART_UartPutString("incremented dataADVCounter value in CYBLE_EVT_GATTS_WRITE_REQ= ");
 192:ble_process.c ****     					PrintNum(dataADVCounter);
 193:ble_process.c ****     					UART_UartPutCRLF(' ');
 194:ble_process.c **** 					#endif
 195:ble_process.c **** 					
 196:ble_process.c **** 					/* After receiveing the color value, set the switch role flag to allow the system
 197:ble_process.c **** 					* to switch role to Central role */
 198:ble_process.c **** 					switch_Role = TRUE;
 199:ble_process.c **** 					
 200:ble_process.c **** 					#ifdef DEBUG_ENABLED
 201:ble_process.c **** 					UART_UartPutString("switchRole to Central");
 202:ble_process.c **** 					UART_UartPutCRLF(' ');
 203:ble_process.c **** 					#endif
 204:ble_process.c **** 				}
 205:ble_process.c **** 				else
 206:ble_process.c **** 				{
 207:ble_process.c **** 					/* Send the error code for invalid attribute length packet */
 208:ble_process.c **** 					SendErrorCode(CYBLE_GATT_WRITE_REQ, 
 209:ble_process.c **** 									writeReqData.handleValPair.attrHandle, 
 210:ble_process.c **** 									ERR_INVALID_ATT_LEN);
 211:ble_process.c **** 					
 212:ble_process.c **** 					return;
 213:ble_process.c **** 				}
 214:ble_process.c **** 			}
 215:ble_process.c **** 
 216:ble_process.c **** 			/* As part of every write request, the server needs to send a write response. Note
 217:ble_process.c **** 			* that this will be sent only if all the application layer conditions are met on a 
 218:ble_process.c **** 			* write request. Else, an appropriate error code is sent. */
 219:ble_process.c **** 	        CyBle_GattsWriteRsp(cyBle_connHandle);
 220:ble_process.c **** 		break;
 221:ble_process.c **** 			
 222:ble_process.c **** 		case CYBLE_EVT_GATTS_WRITE_CMD_REQ:
 223:ble_process.c **** 			/* This event is generated whenever a Client device sends a Write Command (Write 
 224:ble_process.c **** 			* without response) to a connected Server. Save the associated event parameter in
 225:ble_process.c **** 			* local variable. */
 226:ble_process.c **** 			writeCmdData = *(CYBLE_GATTS_WRITE_CMD_REQ_PARAM_T*)eventParam;
ARM GAS  C:\Users\ASUS\AppData\Local\Temp\ccKl44WS.s 			page 10


 227:ble_process.c **** 			
 228:ble_process.c **** 			/* Check if the Write command is for ADV Data counter characteristic */
 229:ble_process.c **** 			if(writeCmdData.handleValPair.attrHandle == CYBLE_RGB_DATA_COUNT_CHAR_HANDLE)
 230:ble_process.c **** 			{
 231:ble_process.c **** 				/* If the data sent is of one byte, then proceed. */
 232:ble_process.c **** 				if(writeCmdData.handleValPair.value.len == 1)
 233:ble_process.c **** 				{
 234:ble_process.c **** 					/* Extract and save the set ADV data counter value */
 235:ble_process.c **** 					dataADVCounter = *(writeCmdData.handleValPair.value.val);	
 236:ble_process.c **** 					
 237:ble_process.c **** 					/* This increment is done to balance the ++ done as part of CYBLE_EVT_GATTS_WRITE_REQ */
 238:ble_process.c **** 					dataADVCounter--;
 239:ble_process.c **** 					
 240:ble_process.c **** 					/* Update the ADV data counter characteristic in GATT DB  to allow
 241:ble_process.c **** 					* Client to read the latest ADV data counter value */
 242:ble_process.c **** 					CyBle_GattsWriteAttributeValue(&writeCmdData.handleValPair,
 243:ble_process.c **** 													0,
 244:ble_process.c **** 													&cyBle_connHandle,
 245:ble_process.c **** 													CYBLE_GATT_DB_LOCALLY_INITIATED);
 246:ble_process.c **** 
 247:ble_process.c **** 					#ifdef DEBUG_ENABLED
 248:ble_process.c **** 					UART_UartPutString("dataADVCounter from CYBLE_EVT_GATTS_WRITE_CMD_REQ = ");
 249:ble_process.c **** 					PrintNum(dataADVCounter);
 250:ble_process.c **** 					UART_UartPutCRLF(' ');
 251:ble_process.c **** 					#endif
 252:ble_process.c **** 				}	/* if(writeCmdData.handleValPair.value.len == 1) */
 253:ble_process.c **** 			}
 254:ble_process.c **** 			break;
 255:ble_process.c **** 		
 256:ble_process.c **** 		case CYBLE_EVT_GAPC_SCAN_PROGRESS_RESULT:
 257:ble_process.c **** 			/* This event is generated whenever there is a peripheral device found by 
 258:ble_process.c **** 			* while scanning */
 259:ble_process.c **** 			if(CYBLE_STATE_CONNECTED != CyBle_GetState())	
 260:ble_process.c **** 			{
 261:ble_process.c **** 				/* If we are not connected to any peripheral device, then save the new device  
 262:ble_process.c **** 				* information so to add it to our list */
 263:ble_process.c **** 				scan_report = *(CYBLE_GAPC_ADV_REPORT_T*)eventParam;
 264:ble_process.c **** 				
 265:ble_process.c **** 				#ifdef DEBUG_ENABLED
 266:ble_process.c **** 					UART_UartPutString("CYBLE_EVT_GAPC_SCAN_PROGRESS_RESULT ");
 267:ble_process.c **** 					UART_UartPutCRLF(' ');
 268:ble_process.c **** 				#endif
 269:ble_process.c **** 				
 270:ble_process.c **** 				#ifdef ENABLE_ADV_DATA_COUNTER
 271:ble_process.c **** 				/* If ADV DATA COUNTER is enabled, then the central device would check
 272:ble_process.c **** 				* if the counter in ADV packet of peripheral is less than its own counter
 273:ble_process.c **** 				* or not. If yes, then it will consider the peripheral as a potential 
 274:ble_process.c **** 				* device to connect to.*/
 275:ble_process.c **** 				if(scan_report.eventType == CYBLE_GAPC_CONN_UNDIRECTED_ADV)
 276:ble_process.c **** 				{
 277:ble_process.c **** 					/* If the scan report received is of advertising nature and the data 
 278:ble_process.c **** 					* length is as expected... */
 279:ble_process.c **** 					if(scan_report.dataLen == new_advData.advDataLen)
 280:ble_process.c **** 					{
 281:ble_process.c **** 						/* If the second last value of the advertising data matches the custom 
 282:ble_process.c **** 						* marker, then the peripheral is a node of the network */
 283:ble_process.c **** 						if(scan_report.data[scan_report.dataLen-2] == CUSTOM_ADV_DATA_MARKER)
ARM GAS  C:\Users\ASUS\AppData\Local\Temp\ccKl44WS.s 			page 11


 284:ble_process.c **** 						{
 285:ble_process.c **** 							/* If the ADV counter data in Advertising data is less than that of
 286:ble_process.c **** 							* the value in this scanning device, then the node is a potential node 
 287:ble_process.c **** 							* whose color has to be updated. */
 288:ble_process.c **** 							if((scan_report.data[scan_report.dataLen-1] != dataADVCounter) ||
 289:ble_process.c **** 							((scan_report.data[scan_report.dataLen-1] == 255) && (dataADVCounter == 0)))
 290:ble_process.c **** 							{
 291:ble_process.c **** 								/* Potential node found*/
 292:ble_process.c **** 								potential_node_found = TRUE;
 293:ble_process.c **** 								/* Save the advertising peripheral address and type*/
 294:ble_process.c **** 								memcpy(potential_node_bdAddr, scan_report.peerBdAddr, 6);
 295:ble_process.c **** 								potential_node_bdAddrType = scan_report.peerAddrType;
 296:ble_process.c **** 								
 297:ble_process.c **** 								#ifdef DEBUG_ENABLED
 298:ble_process.c **** 								UART_UartPutString("potential_node_found ");
 299:ble_process.c **** 								UART_UartPutCRLF(' ');
 300:ble_process.c **** 								#endif
 301:ble_process.c **** 							}
 302:ble_process.c **** 							else
 303:ble_process.c **** 							{
 304:ble_process.c **** 								/* If the ADV data counter is equal or more than the data counter
 305:ble_process.c **** 								* in this scanning device, then the node has latest RGB LED data
 306:ble_process.c **** 								* and does not need to be connected to. Reset the potential node 
 307:ble_process.c **** 								* address */
 308:ble_process.c **** 								potential_node_found = FALSE;
 309:ble_process.c **** 								
 310:ble_process.c **** 								potential_node_bdAddrType = 0;
 311:ble_process.c **** 								
 312:ble_process.c **** 								potential_node_bdAddr[0] = 0x00;
 313:ble_process.c **** 								potential_node_bdAddr[1] = 0x00;
 314:ble_process.c **** 								potential_node_bdAddr[2] = 0x00;
 315:ble_process.c **** 								potential_node_bdAddr[3] = 0x00;
 316:ble_process.c **** 								potential_node_bdAddr[4] = 0x00;
 317:ble_process.c **** 								potential_node_bdAddr[5] = 0x00;
 318:ble_process.c **** 							}
 319:ble_process.c **** 						}
 320:ble_process.c **** 					}
 321:ble_process.c **** 				}
 322:ble_process.c **** 				#endif
 323:ble_process.c **** 				
 324:ble_process.c **** 				/* If the received scan data is part of scan response from a peripheral... */
 325:ble_process.c **** 				if(scan_report.eventType == CYBLE_GAPC_SCAN_RSP)
 326:ble_process.c **** 				{
 327:ble_process.c **** 					/* If the data lenght of the scan reponse packet is equal to expected
 328:ble_process.c **** 					* scan response data lenght...*/
 329:ble_process.c **** 					if(scan_report.dataLen == SCAN_TAG_DATA_LEN)
 330:ble_process.c **** 					{
 331:ble_process.c **** 						#ifdef ENABLE_ADV_DATA_COUNTER
 332:ble_process.c **** 						/* If a potential node had been found earlier as part of received 
 333:ble_process.c **** 						* advertising data, then compare the address of stored potential 
 334:ble_process.c **** 						* node and received address of the scan response */
 335:ble_process.c **** 						if(potential_node_found)
 336:ble_process.c **** 						{
 337:ble_process.c **** 							/* Compare the two addresses and type */
 338:ble_process.c **** 							if((!memcmp(scan_report.peerBdAddr, potential_node_bdAddr, 6))  
 339:ble_process.c **** 								&& (potential_node_bdAddrType == scan_report.peerAddrType))
 340:ble_process.c **** 							{
ARM GAS  C:\Users\ASUS\AppData\Local\Temp\ccKl44WS.s 			page 12


 341:ble_process.c **** 						#endif
 342:ble_process.c **** 								/* If the scan report data matches the expected data (scan_tag),
 343:ble_process.c **** 								* then it is our desired node */
 344:ble_process.c **** 								if(!memcmp(scan_report.data, scan_tag, scan_report.dataLen))
 345:ble_process.c **** 								{
 346:ble_process.c **** 									#ifdef DEBUG_ENABLED
 347:ble_process.c **** 									UART_UartPutString("Titan Found ");
 348:ble_process.c **** 									UART_UartPutCRLF(' ');
 349:ble_process.c **** 									#endif
 350:ble_process.c **** 									/* Stop existing scan */
 351:ble_process.c **** 									CyBle_GapcStopScan();
 352:ble_process.c **** 									#ifdef DEBUG_ENABLED
 353:ble_process.c **** 									UART_UartPutString("Stop Scan called ");
 354:ble_process.c **** 									UART_UartPutCRLF(' ');
 355:ble_process.c **** 									#endif
 356:ble_process.c **** 									
 357:ble_process.c **** 									/* Save the peripheral BD address and type*/
 358:ble_process.c **** 									peripAddr.type = scan_report.peerAddrType;
 359:ble_process.c **** 									peripAddr.bdAddr[0] = scan_report.peerBdAddr[0];
 360:ble_process.c **** 									peripAddr.bdAddr[1] = scan_report.peerBdAddr[1];
 361:ble_process.c **** 									peripAddr.bdAddr[2] = scan_report.peerBdAddr[2];
 362:ble_process.c **** 									peripAddr.bdAddr[3] = scan_report.peerBdAddr[3];
 363:ble_process.c **** 									peripAddr.bdAddr[4] = scan_report.peerBdAddr[4];
 364:ble_process.c **** 									peripAddr.bdAddr[5] = scan_report.peerBdAddr[5];
 365:ble_process.c **** 
 366:ble_process.c **** 									/* Set the flag to allow application to connect to the
 367:ble_process.c **** 									* peripheral found */
 368:ble_process.c **** 									clientConnectToDevice = TRUE;
 369:ble_process.c **** 									
 370:ble_process.c **** 									#ifdef ENABLE_ADV_DATA_COUNTER
 371:ble_process.c **** 									/* Reset the potential node flag*/
 372:ble_process.c **** 									potential_node_found = FALSE;
 373:ble_process.c **** 									#endif
 374:ble_process.c **** 								}
 375:ble_process.c **** 						#ifdef ENABLE_ADV_DATA_COUNTER
 376:ble_process.c **** 							}
 377:ble_process.c **** 						}
 378:ble_process.c **** 						#endif
 379:ble_process.c **** 					}
 380:ble_process.c **** 				}
 381:ble_process.c **** 			}
 382:ble_process.c **** 
 383:ble_process.c **** 		break;
 384:ble_process.c **** 			
 385:ble_process.c **** 		case CYBLE_EVT_GAP_DEVICE_CONNECTED:
 386:ble_process.c **** 			/* This event is received whenever the device connect on GAP layer */
 387:ble_process.c **** 			if(ble_gap_state == BLE_CENTRAL)
 388:ble_process.c **** 			{
 389:ble_process.c **** 				#ifdef ENABLE_CENTRAL_DISCOVERY
 390:ble_process.c **** 					/* The Device is connected now. Start Attributes discovery process.*/
 391:ble_process.c **** 					CyBle_GattcStartDiscovery(cyBle_connHandle);
 392:ble_process.c **** 					#ifdef DEBUG_ENABLED
 393:ble_process.c **** 						UART_UartPutString("CYBLE_EVT_GAP_DEVICE_CONNECTED ");
 394:ble_process.c **** 						SendBLEStatetoUART(CyBle_GetState());
 395:ble_process.c **** 						UART_UartPutCRLF(' ');
 396:ble_process.c **** 					#endif
 397:ble_process.c **** 				#else
ARM GAS  C:\Users\ASUS\AppData\Local\Temp\ccKl44WS.s 			page 13


 398:ble_process.c **** 					/* If this system is currently acting in Central role and has connected
 399:ble_process.c **** 					* to a peripheral device, then write directly the ADV counter data and
 400:ble_process.c **** 					* RGB LED control data using attribute handles */
 401:ble_process.c **** 					
 402:ble_process.c **** 					/* Set the device connected flag */
 403:ble_process.c **** 					deviceConnected = TRUE;
 404:ble_process.c **** 					
 405:ble_process.c **** 					#ifdef DEBUG_ENABLED
 406:ble_process.c **** 						UART_UartPutString("Directly write RGB using Attr handle ");
 407:ble_process.c **** 						SendBLEStatetoUART(CyBle_GetState());
 408:ble_process.c **** 						UART_UartPutCRLF(' ');
 409:ble_process.c **** 					#endif
 410:ble_process.c **** 					
 411:ble_process.c **** 					/* Write the Data Counter value */
 412:ble_process.c **** 					writeADVcounterdata.attrHandle = CYBLE_RGB_DATA_COUNT_CHAR_HANDLE;
 413:ble_process.c **** 					writeADVcounterdata.value.val = &dataADVCounter;
 414:ble_process.c **** 					writeADVcounterdata.value.len = 1;
 415:ble_process.c **** 					CyBle_GattcWriteWithoutResponse(cyBle_connHandle, &writeADVcounterdata);
 416:ble_process.c **** 				    
 417:ble_process.c ****                     uint8 RGBData2[5];
 418:ble_process.c ****                     memcpy(RGBData2, RGBData, 4);
 419:ble_process.c ****                     
 420:ble_process.c ****                     uint8 sendIndex;
 421:ble_process.c ****                     if (DEVICE_INDEX == 0)
 422:ble_process.c ****                     {
 423:ble_process.c ****                        sendIndex = NEXT_NEIGHBOUR_INDEX++;
 424:ble_process.c ****                     }
 425:ble_process.c ****                     else
 426:ble_process.c ****                     {
 427:ble_process.c ****                         sendIndex = -1;
 428:ble_process.c ****                     }
 429:ble_process.c ****                     RGBData2[4] = sendIndex;
 430:ble_process.c ****                     
 431:ble_process.c **** 					/* Write the RGB LED Value */
 432:ble_process.c **** 					writeRGBdata.attrHandle = CYBLE_RGB_LED_CONTROL_CHAR_HANDLE;
 433:ble_process.c **** 					writeRGBdata.value.val = RGBData2;
 434:ble_process.c **** 					writeRGBdata.value.len = RGB_LED_DATA_LEN;
 435:ble_process.c **** 					CyBle_GattcWriteCharacteristicValue(cyBle_connHandle, &writeRGBdata);
 436:ble_process.c **** 				#endif
 437:ble_process.c **** 			}	
 438:ble_process.c ****         break;
 439:ble_process.c **** 			
 440:ble_process.c **** 		case CYBLE_EVT_GATTC_DISCOVERY_COMPLETE:
 441:ble_process.c **** 			/* This event is generated whenever the discovery procedure is complete*/
 442:ble_process.c **** 			
 443:ble_process.c **** 			#ifdef ENABLE_CENTRAL_DISCOVERY
 444:ble_process.c **** 			deviceConnected = TRUE;
 445:ble_process.c **** 			#ifdef DEBUG_ENABLED
 446:ble_process.c **** 				UART_UartPutString("CYBLE_EVT_GATTC_DISCOVERY_COMPLETE ");
 447:ble_process.c **** 				SendBLEStatetoUART(CyBle_GetState());
 448:ble_process.c **** 				UART_UartPutCRLF(' ');
 449:ble_process.c **** 			#endif
 450:ble_process.c **** 			
 451:ble_process.c **** 			/* Write the Data Counter value */
 452:ble_process.c **** 			writeADVcounterdata.attrHandle = CYBLE_RGB_DATA_COUNT_CHAR_HANDLE;
 453:ble_process.c **** 			writeADVcounterdata.value.val = &dataADVCounter;
 454:ble_process.c **** 			writeADVcounterdata.value.len = 1;
ARM GAS  C:\Users\ASUS\AppData\Local\Temp\ccKl44WS.s 			page 14


 455:ble_process.c **** 			CyBle_GattcWriteWithoutResponse(cyBle_connHandle, &writeADVcounterdata);
 456:ble_process.c **** 		
 457:ble_process.c **** 			/* Write the RGB LED Value */
 458:ble_process.c **** 			writeRGBdata.attrHandle = CYBLE_RGB_LED_CONTROL_CHAR_HANDLE;
 459:ble_process.c **** 			writeRGBdata.value.val = RGBData;
 460:ble_process.c **** 			writeRGBdata.value.len = RGB_LED_DATA_LEN;
 461:ble_process.c **** 			CyBle_GattcWriteCharacteristicValue(cyBle_connHandle, &writeRGBdata);
 462:ble_process.c **** 			#endif
 463:ble_process.c **** 		break;
 464:ble_process.c **** 			
 465:ble_process.c **** 		case CYBLE_EVT_GATTC_WRITE_RSP:
 466:ble_process.c **** 			/* This event is generated when the Client device receives a response
 467:ble_process.c **** 			* as part of the Write request sent earlier. This indicates that
 468:ble_process.c **** 			* the RGB LED data was written successfully */
 469:ble_process.c **** 			#ifdef DEBUG_ENABLED
 470:ble_process.c **** 				UART_UartPutString("CYBLE_EVT_GATTC_WRITE_RSP ");
 471:ble_process.c **** 				SendBLEStatetoUART(CyBle_GetState());
 472:ble_process.c **** 				UART_UartPutCRLF(' ');
 473:ble_process.c **** 			#endif
 474:ble_process.c **** 			
 475:ble_process.c **** 			/* Disconnect the existing connection and restart scanning */
 476:ble_process.c **** 			if((cyBle_connHandle.bdHandle != 0))
 477:ble_process.c **** 			{
 478:ble_process.c **** 				CyBle_GapDisconnect(cyBle_connHandle.bdHandle);
 479:ble_process.c **** 				
 480:ble_process.c **** 				restartScanning = TRUE;
 481:ble_process.c **** 				#ifdef DEBUG_ENABLED
 482:ble_process.c **** 				UART_UartPutString("Disconnect from CYBLE_EVT_GATTC_WRITE_RSP ");
 483:ble_process.c **** 				SendBLEStatetoUART(CyBle_GetState());
 484:ble_process.c **** 				UART_UartPutCRLF(' ');
 485:ble_process.c **** 				#endif
 486:ble_process.c **** 			}
 487:ble_process.c **** 		break;
 488:ble_process.c **** 
 489:ble_process.c **** 		case CYBLE_EVT_GAP_DEVICE_DISCONNECTED:
 490:ble_process.c **** 			/* This event is generated when the device disconnects from an 
 491:ble_process.c **** 			* existing connection */
 492:ble_process.c **** 			deviceConnected = FALSE;
 493:ble_process.c **** 			
 494:ble_process.c **** 			#ifdef DEBUG_ENABLED
 495:ble_process.c **** 				UART_UartPutString("CYBLE_EVT_GAP_DEVICE_DISCONNECTED ");
 496:ble_process.c **** 				SendBLEStatetoUART(CyBle_GetState());
 497:ble_process.c **** 				UART_UartPutCRLF(' ');
 498:ble_process.c **** 			#endif
 499:ble_process.c **** 			
 500:ble_process.c **** 			if((ble_gap_state == BLE_PERIPHERAL) && (switch_Role != TRUE))
 501:ble_process.c **** 			{
 502:ble_process.c **** 				/* If the current role of this system was Peripheral and the role
 503:ble_process.c **** 				* is not to be switched, then restart advertisement */
 504:ble_process.c **** 				if(CYBLE_STATE_DISCONNECTED == CyBle_GetState())
 505:ble_process.c **** 				{
 506:ble_process.c **** 					CyBle_GappStartAdvertisement(CYBLE_ADVERTISING_FAST);	
 507:ble_process.c **** 					#ifdef DEBUG_ENABLED
 508:ble_process.c **** 					UART_UartPutString("Restart Advertisement ");
 509:ble_process.c **** 					SendBLEStatetoUART(CyBle_GetState());
 510:ble_process.c **** 					UART_UartPutCRLF(' ');
 511:ble_process.c **** 					#endif
ARM GAS  C:\Users\ASUS\AppData\Local\Temp\ccKl44WS.s 			page 15


 512:ble_process.c **** 				}
 513:ble_process.c **** 			}
 514:ble_process.c **** 			else if((ble_gap_state == BLE_CENTRAL) && (switch_Role != TRUE))
 515:ble_process.c **** 			{
 516:ble_process.c **** 				/* If the current role of this system was Central and the role
 517:ble_process.c **** 				* is not to be switched, then restart scanning */
 518:ble_process.c **** 				if(CYBLE_STATE_DISCONNECTED == CyBle_GetState())
 519:ble_process.c **** 				{
 520:ble_process.c **** 					CyBle_GapcStartScan(CYBLE_SCANNING_FAST);	
 521:ble_process.c **** 					#ifdef DEBUG_ENABLED
 522:ble_process.c **** 					UART_UartPutString("Restart Scanning ");
 523:ble_process.c **** 					SendBLEStatetoUART(CyBle_GetState());
 524:ble_process.c **** 					UART_UartPutCRLF(' ');
 525:ble_process.c **** 					#endif
 526:ble_process.c **** 				}	
 527:ble_process.c **** 			}
 528:ble_process.c **** 		break;
 529:ble_process.c **** 			
 530:ble_process.c **** 		default:
 531:ble_process.c **** 			eventParam = eventParam;
 532:ble_process.c **** 		break;
 204              		.loc 1 532 0
 205 0022 34E3     		b	.L1
 206              	.L6:
  72:ble_process.c **** 	{
 207              		.loc 1 72 0
 208 0024 272B     		cmp	r3, #39
 209 0026 00D1     		bne	.LCB33
 210 0028 48E2     		b	.L9	@long jump
 211              	.LCB33:
 212 002a 282B     		cmp	r3, #40
 213 002c 00D1     		bne	.LCB35
 214 002e D9E2     		b	.L10	@long jump
 215              	.LCB35:
 216              		.loc 1 532 0
 217 0030 2DE3     		b	.L1
 218              	.L4:
  72:ble_process.c **** 	{
 219              		.loc 1 72 0
 220 0032 4C2B     		cmp	r3, #76
 221 0034 64D0     		beq	.L11
 222 0036 04D8     		bhi	.L12
 223 0038 412B     		cmp	r3, #65
 224 003a 51D0     		beq	.L13
 225 003c 422B     		cmp	r3, #66
 226 003e 57D0     		beq	.L14
 227              		.loc 1 532 0
 228 0040 25E3     		b	.L1
 229              	.L12:
  72:ble_process.c **** 	{
 230              		.loc 1 72 0
 231 0042 4E2B     		cmp	r3, #78
 232 0044 00D1     		bne	.LCB53
 233 0046 E5E0     		b	.L15	@long jump
 234              	.LCB53:
 235 0048 00D2     		bcs	.LCB55
 236 004a A6E2     		b	.L16	@long jump
ARM GAS  C:\Users\ASUS\AppData\Local\Temp\ccKl44WS.s 			page 16


 237              	.LCB55:
 238 004c 8922     		movs	r2, #137
 239 004e 5200     		lsls	r2, r2, #1
 240 0050 9342     		cmp	r3, r2
 241 0052 00D1     		bne	.LCB59
 242 0054 0EE3     		b	.L35	@long jump
 243              	.LCB59:
 244              		.loc 1 532 0
 245 0056 1AE3     		b	.L1
 246              	.L7:
  76:ble_process.c **** 			UART_UartPutCRLF(' ');
 247              		.loc 1 76 0
 248 0058 BA4B     		ldr	r3, .L42
 249 005a 1800     		movs	r0, r3
 250 005c FFF7FEFF 		bl	UART_UartPutString
  77:ble_process.c **** 			#endif
 251              		.loc 1 77 0
 252 0060 2020     		movs	r0, #32
 253 0062 FFF7FEFF 		bl	UART_UartPutCRLF
  80:ble_process.c **** 		break;
 254              		.loc 1 80 0
 255 0066 0020     		movs	r0, #0
 256 0068 FFF7FEFF 		bl	CyBle_GappStartAdvertisement
  81:ble_process.c **** 			
 257              		.loc 1 81 0
 258 006c 0FE3     		b	.L1
 259              	.L5:
  86:ble_process.c **** 			SendBLEStatetoUART(CyBle_GetState());
 260              		.loc 1 86 0
 261 006e B64B     		ldr	r3, .L42+4
 262 0070 1800     		movs	r0, r3
 263 0072 FFF7FEFF 		bl	UART_UartPutString
  87:ble_process.c **** 			UART_UartPutCRLF(' ');
 264              		.loc 1 87 0
 265 0076 B54B     		ldr	r3, .L42+8
 266 0078 1B78     		ldrb	r3, [r3]
 267 007a 1800     		movs	r0, r3
 268 007c FFF7FEFF 		bl	SendBLEStatetoUART
  88:ble_process.c **** 			#endif
 269              		.loc 1 88 0
 270 0080 2020     		movs	r0, #32
 271 0082 FFF7FEFF 		bl	UART_UartPutCRLF
  91:ble_process.c **** 			{
 272              		.loc 1 91 0
 273 0086 B14B     		ldr	r3, .L42+8
 274 0088 1B78     		ldrb	r3, [r3]
 275 008a 062B     		cmp	r3, #6
 276 008c 00D0     		beq	.LCB87
 277 008e F3E2     		b	.L36	@long jump
 278              	.LCB87:
  91:ble_process.c **** 			{
 279              		.loc 1 91 0 is_stmt 0 discriminator 1
 280 0090 AF4B     		ldr	r3, .L42+12
 281 0092 1B78     		ldrb	r3, [r3]
 282 0094 002B     		cmp	r3, #0
 283 0096 00D0     		beq	.LCB91
 284 0098 EEE2     		b	.L36	@long jump
ARM GAS  C:\Users\ASUS\AppData\Local\Temp\ccKl44WS.s 			page 17


 285              	.LCB91:
  97:ble_process.c **** 				
 286              		.loc 1 97 0 is_stmt 1
 287 009a 0020     		movs	r0, #0
 288 009c FFF7FEFF 		bl	CyBle_GappStartAdvertisement
  99:ble_process.c **** 				{
 289              		.loc 1 99 0
 290 00a0 5C23     		movs	r3, #92
 291 00a2 FB18     		adds	r3, r7, r3
 292 00a4 1B88     		ldrh	r3, [r3]
 293 00a6 002B     		cmp	r3, #0
 294 00a8 00D0     		beq	.LCB98
 295 00aa E5E2     		b	.L36	@long jump
 296              	.LCB98:
 102:ble_process.c **** 					SendBLEStatetoUART(CyBle_GetState());
 297              		.loc 1 102 0
 298 00ac A94B     		ldr	r3, .L42+16
 299 00ae 1800     		movs	r0, r3
 300 00b0 FFF7FEFF 		bl	UART_UartPutString
 103:ble_process.c **** 					UART_UartPutCRLF(' ');
 301              		.loc 1 103 0
 302 00b4 A54B     		ldr	r3, .L42+8
 303 00b6 1B78     		ldrb	r3, [r3]
 304 00b8 1800     		movs	r0, r3
 305 00ba FFF7FEFF 		bl	SendBLEStatetoUART
 104:ble_process.c **** 					#endif
 306              		.loc 1 104 0
 307 00be 2020     		movs	r0, #32
 308 00c0 FFF7FEFF 		bl	UART_UartPutCRLF
 108:ble_process.c **** 			
 309              		.loc 1 108 0
 310 00c4 D8E2     		b	.L36
 311              	.L3:
 113:ble_process.c **** 			SendBLEStatetoUART(CyBle_GetState());
 312              		.loc 1 113 0
 313 00c6 A44B     		ldr	r3, .L42+20
 314 00c8 1800     		movs	r0, r3
 315 00ca FFF7FEFF 		bl	UART_UartPutString
 114:ble_process.c **** 			UART_UartPutCRLF(' ');
 316              		.loc 1 114 0
 317 00ce 9F4B     		ldr	r3, .L42+8
 318 00d0 1B78     		ldrb	r3, [r3]
 319 00d2 1800     		movs	r0, r3
 320 00d4 FFF7FEFF 		bl	SendBLEStatetoUART
 115:ble_process.c **** 			#endif
 321              		.loc 1 115 0
 322 00d8 2020     		movs	r0, #32
 323 00da FFF7FEFF 		bl	UART_UartPutCRLF
 117:ble_process.c **** 			
 324              		.loc 1 117 0
 325 00de D6E2     		b	.L1
 326              	.L13:
 123:ble_process.c **** 			UART_UartPutCRLF(' ');
 327              		.loc 1 123 0
 328 00e0 9E4B     		ldr	r3, .L42+24
 329 00e2 1800     		movs	r0, r3
 330 00e4 FFF7FEFF 		bl	UART_UartPutString
ARM GAS  C:\Users\ASUS\AppData\Local\Temp\ccKl44WS.s 			page 18


 124:ble_process.c **** 			#endif
 331              		.loc 1 124 0
 332 00e8 2020     		movs	r0, #32
 333 00ea FFF7FEFF 		bl	UART_UartPutCRLF
 126:ble_process.c **** 		
 334              		.loc 1 126 0
 335 00ee CEE2     		b	.L1
 336              	.L14:
 132:ble_process.c **** 			UART_UartPutCRLF(' ');
 337              		.loc 1 132 0
 338 00f0 9B4B     		ldr	r3, .L42+28
 339 00f2 1800     		movs	r0, r3
 340 00f4 FFF7FEFF 		bl	UART_UartPutString
 133:ble_process.c **** 			#endif
 341              		.loc 1 133 0
 342 00f8 2020     		movs	r0, #32
 343 00fa FFF7FEFF 		bl	UART_UartPutCRLF
 135:ble_process.c **** 			
 344              		.loc 1 135 0
 345 00fe C6E2     		b	.L1
 346              	.L11:
 141:ble_process.c **** 
 347              		.loc 1 141 0
 348 0100 4C23     		movs	r3, #76
 349 0102 FB18     		adds	r3, r7, r3
 350 0104 3A68     		ldr	r2, [r7]
 351 0106 13CA     		ldmia	r2!, {r0, r1, r4}
 352 0108 13C3     		stmia	r3!, {r0, r1, r4}
 353 010a 1268     		ldr	r2, [r2]
 354 010c 1A60     		str	r2, [r3]
 143:ble_process.c **** 			{
 355              		.loc 1 143 0
 356 010e 4C23     		movs	r3, #76
 357 0110 FB18     		adds	r3, r7, r3
 358 0112 9B89     		ldrh	r3, [r3, #12]
 359 0114 0E2B     		cmp	r3, #14
 360 0116 6ED1     		bne	.L20
 147:ble_process.c **** 				{
 361              		.loc 1 147 0
 362 0118 4C23     		movs	r3, #76
 363 011a FB18     		adds	r3, r7, r3
 364 011c 1B89     		ldrh	r3, [r3, #8]
 365 011e 052B     		cmp	r3, #5
 366 0120 60D1     		bne	.L21
 150:ble_process.c **** 						UART_UartPutCRLF(' ');
 367              		.loc 1 150 0
 368 0122 904B     		ldr	r3, .L42+32
 369 0124 1800     		movs	r0, r3
 370 0126 FFF7FEFF 		bl	UART_UartPutString
 151:ble_process.c **** 					#endif
 371              		.loc 1 151 0
 372 012a 2020     		movs	r0, #32
 373 012c FFF7FEFF 		bl	UART_UartPutCRLF
 155:ble_process.c **** 					RGBData[RGB_GREEN_INDEX] = writeReqData.handleValPair.value.val[1];
 374              		.loc 1 155 0
 375 0130 4C23     		movs	r3, #76
 376 0132 FB18     		adds	r3, r7, r3
ARM GAS  C:\Users\ASUS\AppData\Local\Temp\ccKl44WS.s 			page 19


 377 0134 5B68     		ldr	r3, [r3, #4]
 378 0136 1A78     		ldrb	r2, [r3]
 379 0138 8B4B     		ldr	r3, .L42+36
 380 013a 1A70     		strb	r2, [r3]
 156:ble_process.c **** 					RGBData[RGB_BLUE_INDEX] = writeReqData.handleValPair.value.val[2];
 381              		.loc 1 156 0
 382 013c 4C23     		movs	r3, #76
 383 013e FB18     		adds	r3, r7, r3
 384 0140 5B68     		ldr	r3, [r3, #4]
 385 0142 5A78     		ldrb	r2, [r3, #1]
 386 0144 884B     		ldr	r3, .L42+36
 387 0146 5A70     		strb	r2, [r3, #1]
 157:ble_process.c **** 					RGBData[RGB_INTENSITY_INDEX] = writeReqData.handleValPair.value.val[3];
 388              		.loc 1 157 0
 389 0148 4C23     		movs	r3, #76
 390 014a FB18     		adds	r3, r7, r3
 391 014c 5B68     		ldr	r3, [r3, #4]
 392 014e 9A78     		ldrb	r2, [r3, #2]
 393 0150 854B     		ldr	r3, .L42+36
 394 0152 9A70     		strb	r2, [r3, #2]
 158:ble_process.c ****                     
 395              		.loc 1 158 0
 396 0154 4C23     		movs	r3, #76
 397 0156 FB18     		adds	r3, r7, r3
 398 0158 5B68     		ldr	r3, [r3, #4]
 399 015a DA78     		ldrb	r2, [r3, #3]
 400 015c 824B     		ldr	r3, .L42+36
 401 015e DA70     		strb	r2, [r3, #3]
 160:ble_process.c ****                     NUM_EXCEEDED_WAITING_TIME = 0;
 402              		.loc 1 160 0
 403 0160 4C23     		movs	r3, #76
 404 0162 FB18     		adds	r3, r7, r3
 405 0164 5B68     		ldr	r3, [r3, #4]
 406 0166 0433     		adds	r3, r3, #4
 407 0168 1B78     		ldrb	r3, [r3]
 408 016a 1A00     		movs	r2, r3
 409 016c 7F4B     		ldr	r3, .L42+40
 410 016e 1A60     		str	r2, [r3]
 161:ble_process.c **** 					
 411              		.loc 1 161 0
 412 0170 7F4B     		ldr	r3, .L42+44
 413 0172 0022     		movs	r2, #0
 414 0174 1A60     		str	r2, [r3]
 171:ble_process.c ****                     UART_UartPutString(TEXT_BUF);
 415              		.loc 1 171 0
 416 0176 7D4B     		ldr	r3, .L42+40
 417 0178 1A68     		ldr	r2, [r3]
 418 017a 7E49     		ldr	r1, .L42+48
 419 017c 7E4B     		ldr	r3, .L42+52
 420 017e 1800     		movs	r0, r3
 421 0180 FFF7FEFF 		bl	sprintf
 172:ble_process.c ****                     
 422              		.loc 1 172 0
 423 0184 7C4B     		ldr	r3, .L42+52
 424 0186 1800     		movs	r0, r3
 425 0188 FFF7FEFF 		bl	UART_UartPutString
 174:ble_process.c ****                     
ARM GAS  C:\Users\ASUS\AppData\Local\Temp\ccKl44WS.s 			page 20


 426              		.loc 1 174 0
 427 018c FFF7FEFF 		bl	restart_peripheral_waiting_time
 177:ble_process.c **** 					
 428              		.loc 1 177 0
 429 0190 754B     		ldr	r3, .L42+36
 430 0192 0521     		movs	r1, #5
 431 0194 1800     		movs	r0, r3
 432 0196 FFF7FEFF 		bl	UpdateRGBled
 181:ble_process.c ****                         CYBLE_GATT_DB_LOCALLY_INITIATED);
 433              		.loc 1 181 0
 434 019a 784A     		ldr	r2, .L42+56
 435 019c 4C23     		movs	r3, #76
 436 019e FB18     		adds	r3, r7, r3
 437 01a0 181D     		adds	r0, r3, #4
 438 01a2 0023     		movs	r3, #0
 439 01a4 0021     		movs	r1, #0
 440 01a6 FFF7FEFF 		bl	CyBle_GattsWriteAttributeValue
 187:ble_process.c **** 					#endif
 441              		.loc 1 187 0
 442 01aa 754B     		ldr	r3, .L42+60
 443 01ac 1B78     		ldrb	r3, [r3]
 444 01ae 0133     		adds	r3, r3, #1
 445 01b0 DAB2     		uxtb	r2, r3
 446 01b2 734B     		ldr	r3, .L42+60
 447 01b4 1A70     		strb	r2, [r3]
 191:ble_process.c ****     					PrintNum(dataADVCounter);
 448              		.loc 1 191 0
 449 01b6 734B     		ldr	r3, .L42+64
 450 01b8 1800     		movs	r0, r3
 451 01ba FFF7FEFF 		bl	UART_UartPutString
 192:ble_process.c ****     					UART_UartPutCRLF(' ');
 452              		.loc 1 192 0
 453 01be 704B     		ldr	r3, .L42+60
 454 01c0 1B78     		ldrb	r3, [r3]
 455 01c2 1800     		movs	r0, r3
 456 01c4 FFF7FEFF 		bl	PrintNum
 193:ble_process.c **** 					#endif
 457              		.loc 1 193 0
 458 01c8 2020     		movs	r0, #32
 459 01ca FFF7FEFF 		bl	UART_UartPutCRLF
 198:ble_process.c **** 					
 460              		.loc 1 198 0
 461 01ce 604B     		ldr	r3, .L42+12
 462 01d0 0122     		movs	r2, #1
 463 01d2 1A70     		strb	r2, [r3]
 201:ble_process.c **** 					UART_UartPutCRLF(' ');
 464              		.loc 1 201 0
 465 01d4 6C4B     		ldr	r3, .L42+68
 466 01d6 1800     		movs	r0, r3
 467 01d8 FFF7FEFF 		bl	UART_UartPutString
 202:ble_process.c **** 					#endif
 468              		.loc 1 202 0
 469 01dc 2020     		movs	r0, #32
 470 01de FFF7FEFF 		bl	UART_UartPutCRLF
 471 01e2 08E0     		b	.L20
 472              	.L21:
 208:ble_process.c **** 									writeReqData.handleValPair.attrHandle, 
ARM GAS  C:\Users\ASUS\AppData\Local\Temp\ccKl44WS.s 			page 21


 473              		.loc 1 208 0
 474 01e4 4C23     		movs	r3, #76
 475 01e6 FB18     		adds	r3, r7, r3
 476 01e8 9B89     		ldrh	r3, [r3, #12]
 477 01ea 0D22     		movs	r2, #13
 478 01ec 1900     		movs	r1, r3
 479 01ee 1220     		movs	r0, #18
 480 01f0 FFF7FEFF 		bl	SendErrorCode
 481 01f4 4BE2     		b	.L1
 482              	.L20:
 219:ble_process.c **** 		break;
 483              		.loc 1 219 0
 484 01f6 614B     		ldr	r3, .L42+56
 485 01f8 1A78     		ldrb	r2, [r3]
 486 01fa 5B78     		ldrb	r3, [r3, #1]
 487 01fc 1B02     		lsls	r3, r3, #8
 488 01fe 1A43     		orrs	r2, r3
 489 0200 0023     		movs	r3, #0
 490 0202 1204     		lsls	r2, r2, #16
 491 0204 120C     		lsrs	r2, r2, #16
 492 0206 1B0C     		lsrs	r3, r3, #16
 493 0208 1B04     		lsls	r3, r3, #16
 494 020a 1343     		orrs	r3, r2
 495 020c 1800     		movs	r0, r3
 496 020e FFF7FEFF 		bl	CyBle_GattsWriteRsp
 220:ble_process.c **** 			
 497              		.loc 1 220 0
 498 0212 3CE2     		b	.L1
 499              	.L15:
 226:ble_process.c **** 			
 500              		.loc 1 226 0
 501 0214 1C23     		movs	r3, #28
 502 0216 FB18     		adds	r3, r7, r3
 503 0218 3A68     		ldr	r2, [r7]
 504 021a 13CA     		ldmia	r2!, {r0, r1, r4}
 505 021c 13C3     		stmia	r3!, {r0, r1, r4}
 506 021e 1268     		ldr	r2, [r2]
 507 0220 1A60     		str	r2, [r3]
 229:ble_process.c **** 			{
 508              		.loc 1 229 0
 509 0222 1C23     		movs	r3, #28
 510 0224 FB18     		adds	r3, r7, r3
 511 0226 9B89     		ldrh	r3, [r3, #12]
 512 0228 112B     		cmp	r3, #17
 513 022a 00D0     		beq	.LCB285
 514 022c 26E2     		b	.L37	@long jump
 515              	.LCB285:
 232:ble_process.c **** 				{
 516              		.loc 1 232 0
 517 022e 1C23     		movs	r3, #28
 518 0230 FB18     		adds	r3, r7, r3
 519 0232 1B89     		ldrh	r3, [r3, #8]
 520 0234 012B     		cmp	r3, #1
 521 0236 00D0     		beq	.LCB290
 522 0238 20E2     		b	.L37	@long jump
 523              	.LCB290:
 235:ble_process.c **** 					
ARM GAS  C:\Users\ASUS\AppData\Local\Temp\ccKl44WS.s 			page 22


 524              		.loc 1 235 0
 525 023a 1C23     		movs	r3, #28
 526 023c FB18     		adds	r3, r7, r3
 527 023e 5B68     		ldr	r3, [r3, #4]
 528 0240 1A78     		ldrb	r2, [r3]
 529 0242 4F4B     		ldr	r3, .L42+60
 530 0244 1A70     		strb	r2, [r3]
 238:ble_process.c **** 					
 531              		.loc 1 238 0
 532 0246 4E4B     		ldr	r3, .L42+60
 533 0248 1B78     		ldrb	r3, [r3]
 534 024a 013B     		subs	r3, r3, #1
 535 024c DAB2     		uxtb	r2, r3
 536 024e 4C4B     		ldr	r3, .L42+60
 537 0250 1A70     		strb	r2, [r3]
 242:ble_process.c **** 													0,
 538              		.loc 1 242 0
 539 0252 4A4A     		ldr	r2, .L42+56
 540 0254 1C23     		movs	r3, #28
 541 0256 FB18     		adds	r3, r7, r3
 542 0258 181D     		adds	r0, r3, #4
 543 025a 0023     		movs	r3, #0
 544 025c 0021     		movs	r1, #0
 545 025e FFF7FEFF 		bl	CyBle_GattsWriteAttributeValue
 248:ble_process.c **** 					PrintNum(dataADVCounter);
 546              		.loc 1 248 0
 547 0262 4A4B     		ldr	r3, .L42+72
 548 0264 1800     		movs	r0, r3
 549 0266 FFF7FEFF 		bl	UART_UartPutString
 249:ble_process.c **** 					UART_UartPutCRLF(' ');
 550              		.loc 1 249 0
 551 026a 454B     		ldr	r3, .L42+60
 552 026c 1B78     		ldrb	r3, [r3]
 553 026e 1800     		movs	r0, r3
 554 0270 FFF7FEFF 		bl	PrintNum
 250:ble_process.c **** 					#endif
 555              		.loc 1 250 0
 556 0274 2020     		movs	r0, #32
 557 0276 FFF7FEFF 		bl	UART_UartPutCRLF
 254:ble_process.c **** 		
 558              		.loc 1 254 0
 559 027a FFE1     		b	.L37
 560              	.L8:
 259:ble_process.c **** 			{
 561              		.loc 1 259 0
 562 027c 334B     		ldr	r3, .L42+8
 563 027e 1B78     		ldrb	r3, [r3]
 564 0280 022B     		cmp	r3, #2
 565 0282 00D1     		bne	.LCB326
 566 0284 FCE1     		b	.L38	@long jump
 567              	.LCB326:
 263:ble_process.c **** 				
 568              		.loc 1 263 0
 569 0286 2C23     		movs	r3, #44
 570 0288 FB18     		adds	r3, r7, r3
 571 028a 3A68     		ldr	r2, [r7]
 572 028c 13CA     		ldmia	r2!, {r0, r1, r4}
ARM GAS  C:\Users\ASUS\AppData\Local\Temp\ccKl44WS.s 			page 23


 573 028e 13C3     		stmia	r3!, {r0, r1, r4}
 574 0290 03CA     		ldmia	r2!, {r0, r1}
 575 0292 03C3     		stmia	r3!, {r0, r1}
 266:ble_process.c **** 					UART_UartPutCRLF(' ');
 576              		.loc 1 266 0
 577 0294 3E4B     		ldr	r3, .L42+76
 578 0296 1800     		movs	r0, r3
 579 0298 FFF7FEFF 		bl	UART_UartPutString
 267:ble_process.c **** 				#endif
 580              		.loc 1 267 0
 581 029c 2020     		movs	r0, #32
 582 029e FFF7FEFF 		bl	UART_UartPutCRLF
 275:ble_process.c **** 				{
 583              		.loc 1 275 0
 584 02a2 2C23     		movs	r3, #44
 585 02a4 FB18     		adds	r3, r7, r3
 586 02a6 1B78     		ldrb	r3, [r3]
 587 02a8 002B     		cmp	r3, #0
 588 02aa 00D0     		beq	.LCB341
 589 02ac 94E0     		b	.L25	@long jump
 590              	.LCB341:
 279:ble_process.c **** 					{
 591              		.loc 1 279 0
 592 02ae 2C23     		movs	r3, #44
 593 02b0 FB18     		adds	r3, r7, r3
 594 02b2 1A7A     		ldrb	r2, [r3, #8]
 595 02b4 374B     		ldr	r3, .L42+80
 596 02b6 DB7F     		ldrb	r3, [r3, #31]
 597 02b8 9A42     		cmp	r2, r3
 598 02ba 00D0     		beq	.LCB348
 599 02bc 8CE0     		b	.L25	@long jump
 600              	.LCB348:
 283:ble_process.c **** 						{
 601              		.loc 1 283 0
 602 02be 2C23     		movs	r3, #44
 603 02c0 FB18     		adds	r3, r7, r3
 604 02c2 DA68     		ldr	r2, [r3, #12]
 605 02c4 2C23     		movs	r3, #44
 606 02c6 FB18     		adds	r3, r7, r3
 607 02c8 1B7A     		ldrb	r3, [r3, #8]
 608 02ca 023B     		subs	r3, r3, #2
 609 02cc D318     		adds	r3, r2, r3
 610 02ce 1B78     		ldrb	r3, [r3]
 611 02d0 012B     		cmp	r3, #1
 612 02d2 00D0     		beq	.LCB359
 613 02d4 80E0     		b	.L25	@long jump
 614              	.LCB359:
 288:ble_process.c **** 							((scan_report.data[scan_report.dataLen-1] == 255) && (dataADVCounter == 0)))
 615              		.loc 1 288 0
 616 02d6 2C23     		movs	r3, #44
 617 02d8 FB18     		adds	r3, r7, r3
 618 02da DA68     		ldr	r2, [r3, #12]
 619 02dc 2C23     		movs	r3, #44
 620 02de FB18     		adds	r3, r7, r3
 621 02e0 1B7A     		ldrb	r3, [r3, #8]
 622 02e2 013B     		subs	r3, r3, #1
 623 02e4 D318     		adds	r3, r2, r3
ARM GAS  C:\Users\ASUS\AppData\Local\Temp\ccKl44WS.s 			page 24


 624 02e6 1A78     		ldrb	r2, [r3]
 625 02e8 254B     		ldr	r3, .L42+60
 626 02ea 1B78     		ldrb	r3, [r3]
 627 02ec 9A42     		cmp	r2, r3
 628 02ee 0ED1     		bne	.L26
 289:ble_process.c **** 							{
 629              		.loc 1 289 0 discriminator 1
 630 02f0 2C23     		movs	r3, #44
 631 02f2 FB18     		adds	r3, r7, r3
 632 02f4 DA68     		ldr	r2, [r3, #12]
 633 02f6 2C23     		movs	r3, #44
 634 02f8 FB18     		adds	r3, r7, r3
 635 02fa 1B7A     		ldrb	r3, [r3, #8]
 636 02fc 013B     		subs	r3, r3, #1
 637 02fe D318     		adds	r3, r2, r3
 638 0300 1B78     		ldrb	r3, [r3]
 288:ble_process.c **** 							((scan_report.data[scan_report.dataLen-1] == 255) && (dataADVCounter == 0)))
 639              		.loc 1 288 0 discriminator 1
 640 0302 FF2B     		cmp	r3, #255
 641 0304 50D1     		bne	.L27
 289:ble_process.c **** 							{
 642              		.loc 1 289 0
 643 0306 1E4B     		ldr	r3, .L42+60
 644 0308 1B78     		ldrb	r3, [r3]
 645 030a 002B     		cmp	r3, #0
 646 030c 4CD1     		bne	.L27
 647              	.L26:
 292:ble_process.c **** 								/* Save the advertising peripheral address and type*/
 648              		.loc 1 292 0
 649 030e 224B     		ldr	r3, .L42+84
 650 0310 0122     		movs	r2, #1
 651 0312 1A70     		strb	r2, [r3]
 294:ble_process.c **** 								potential_node_bdAddrType = scan_report.peerAddrType;
 652              		.loc 1 294 0
 653 0314 2C23     		movs	r3, #44
 654 0316 FB18     		adds	r3, r7, r3
 655 0318 5B68     		ldr	r3, [r3, #4]
 656 031a 204A     		ldr	r2, .L42+88
 657 031c 1000     		movs	r0, r2
 658 031e 1900     		movs	r1, r3
 659 0320 0623     		movs	r3, #6
 660 0322 1A00     		movs	r2, r3
 661 0324 FFF7FEFF 		bl	memcpy
 295:ble_process.c **** 								
 662              		.loc 1 295 0
 663 0328 2C23     		movs	r3, #44
 664 032a FB18     		adds	r3, r7, r3
 665 032c 5A78     		ldrb	r2, [r3, #1]
 666 032e 1C4B     		ldr	r3, .L42+92
 667 0330 1A70     		strb	r2, [r3]
 298:ble_process.c **** 								UART_UartPutCRLF(' ');
 668              		.loc 1 298 0
 669 0332 1C4B     		ldr	r3, .L42+96
 670 0334 1800     		movs	r0, r3
 671 0336 FFF7FEFF 		bl	UART_UartPutString
 299:ble_process.c **** 								#endif
 672              		.loc 1 299 0
ARM GAS  C:\Users\ASUS\AppData\Local\Temp\ccKl44WS.s 			page 25


 673 033a 2020     		movs	r0, #32
 674 033c FFF7FEFF 		bl	UART_UartPutCRLF
 675 0340 4AE0     		b	.L25
 676              	.L43:
 677 0342 C046     		.align	2
 678              	.L42:
 679 0344 00000000 		.word	.LC0
 680 0348 14000000 		.word	.LC2
 681 034c 00000000 		.word	cyBle_state
 682 0350 00000000 		.word	switch_Role
 683 0354 40000000 		.word	.LC6
 684 0358 58000000 		.word	.LC8
 685 035c 78000000 		.word	.LC10
 686 0360 94000000 		.word	.LC12
 687 0364 B4000000 		.word	.LC14
 688 0368 00000000 		.word	RGBData
 689 036c 00000000 		.word	DEVICE_INDEX
 690 0370 00000000 		.word	NUM_EXCEEDED_WAITING_TIME
 691 0374 D4000000 		.word	.LC19
 692 0378 00000000 		.word	TEXT_BUF
 693 037c 00000000 		.word	cyBle_connHandle
 694 0380 00000000 		.word	dataADVCounter
 695 0384 10010000 		.word	.LC24
 696 0388 50010000 		.word	.LC26
 697 038c 68010000 		.word	.LC28
 698 0390 A0010000 		.word	.LC30
 699 0394 00000000 		.word	new_advData
 700 0398 00000000 		.word	potential_node_found
 701 039c 00000000 		.word	potential_node_bdAddr
 702 03a0 00000000 		.word	potential_node_bdAddrType
 703 03a4 C8010000 		.word	.LC36
 704              	.L27:
 308:ble_process.c **** 								
 705              		.loc 1 308 0
 706 03a8 BA4B     		ldr	r3, .L44
 707 03aa 0022     		movs	r2, #0
 708 03ac 1A70     		strb	r2, [r3]
 310:ble_process.c **** 								
 709              		.loc 1 310 0
 710 03ae BA4B     		ldr	r3, .L44+4
 711 03b0 0022     		movs	r2, #0
 712 03b2 1A70     		strb	r2, [r3]
 312:ble_process.c **** 								potential_node_bdAddr[1] = 0x00;
 713              		.loc 1 312 0
 714 03b4 B94B     		ldr	r3, .L44+8
 715 03b6 0022     		movs	r2, #0
 716 03b8 1A70     		strb	r2, [r3]
 313:ble_process.c **** 								potential_node_bdAddr[2] = 0x00;
 717              		.loc 1 313 0
 718 03ba B84B     		ldr	r3, .L44+8
 719 03bc 0022     		movs	r2, #0
 720 03be 5A70     		strb	r2, [r3, #1]
 314:ble_process.c **** 								potential_node_bdAddr[3] = 0x00;
 721              		.loc 1 314 0
 722 03c0 B64B     		ldr	r3, .L44+8
 723 03c2 0022     		movs	r2, #0
 724 03c4 9A70     		strb	r2, [r3, #2]
ARM GAS  C:\Users\ASUS\AppData\Local\Temp\ccKl44WS.s 			page 26


 315:ble_process.c **** 								potential_node_bdAddr[4] = 0x00;
 725              		.loc 1 315 0
 726 03c6 B54B     		ldr	r3, .L44+8
 727 03c8 0022     		movs	r2, #0
 728 03ca DA70     		strb	r2, [r3, #3]
 316:ble_process.c **** 								potential_node_bdAddr[5] = 0x00;
 729              		.loc 1 316 0
 730 03cc B34B     		ldr	r3, .L44+8
 731 03ce 0022     		movs	r2, #0
 732 03d0 1A71     		strb	r2, [r3, #4]
 317:ble_process.c **** 							}
 733              		.loc 1 317 0
 734 03d2 B24B     		ldr	r3, .L44+8
 735 03d4 0022     		movs	r2, #0
 736 03d6 5A71     		strb	r2, [r3, #5]
 737              	.L25:
 325:ble_process.c **** 				{
 738              		.loc 1 325 0
 739 03d8 2C23     		movs	r3, #44
 740 03da FB18     		adds	r3, r7, r3
 741 03dc 1B78     		ldrb	r3, [r3]
 742 03de 042B     		cmp	r3, #4
 743 03e0 00D0     		beq	.LCB475
 744 03e2 4DE1     		b	.L38	@long jump
 745              	.LCB475:
 329:ble_process.c **** 					{
 746              		.loc 1 329 0
 747 03e4 2C23     		movs	r3, #44
 748 03e6 FB18     		adds	r3, r7, r3
 749 03e8 1B7A     		ldrb	r3, [r3, #8]
 750 03ea 142B     		cmp	r3, #20
 751 03ec 00D0     		beq	.LCB480
 752 03ee 47E1     		b	.L38	@long jump
 753              	.LCB480:
 335:ble_process.c **** 						{
 754              		.loc 1 335 0
 755 03f0 A84B     		ldr	r3, .L44
 756 03f2 1B78     		ldrb	r3, [r3]
 757 03f4 002B     		cmp	r3, #0
 758 03f6 00D1     		bne	.LCB484
 759 03f8 42E1     		b	.L38	@long jump
 760              	.LCB484:
 338:ble_process.c **** 								&& (potential_node_bdAddrType == scan_report.peerAddrType))
 761              		.loc 1 338 0
 762 03fa 2C23     		movs	r3, #44
 763 03fc FB18     		adds	r3, r7, r3
 764 03fe 5B68     		ldr	r3, [r3, #4]
 765 0400 A649     		ldr	r1, .L44+8
 766 0402 0622     		movs	r2, #6
 767 0404 1800     		movs	r0, r3
 768 0406 FFF7FEFF 		bl	memcmp
 769 040a 031E     		subs	r3, r0, #0
 770 040c 00D0     		beq	.LCB494
 771 040e 37E1     		b	.L38	@long jump
 772              	.LCB494:
 339:ble_process.c **** 							{
 773              		.loc 1 339 0
ARM GAS  C:\Users\ASUS\AppData\Local\Temp\ccKl44WS.s 			page 27


 774 0410 2C23     		movs	r3, #44
 775 0412 FB18     		adds	r3, r7, r3
 776 0414 5A78     		ldrb	r2, [r3, #1]
 777 0416 A04B     		ldr	r3, .L44+4
 778 0418 1B78     		ldrb	r3, [r3]
 779 041a 9A42     		cmp	r2, r3
 780 041c 00D0     		beq	.LCB501
 781 041e 2FE1     		b	.L38	@long jump
 782              	.LCB501:
 344:ble_process.c **** 								{
 783              		.loc 1 344 0
 784 0420 2C23     		movs	r3, #44
 785 0422 FB18     		adds	r3, r7, r3
 786 0424 D868     		ldr	r0, [r3, #12]
 787 0426 2C23     		movs	r3, #44
 788 0428 FB18     		adds	r3, r7, r3
 789 042a 1B7A     		ldrb	r3, [r3, #8]
 790 042c 1A00     		movs	r2, r3
 791 042e 9C4B     		ldr	r3, .L44+12
 792 0430 1900     		movs	r1, r3
 793 0432 FFF7FEFF 		bl	memcmp
 794 0436 031E     		subs	r3, r0, #0
 795 0438 00D0     		beq	.LCB514
 796 043a 21E1     		b	.L38	@long jump
 797              	.LCB514:
 347:ble_process.c **** 									UART_UartPutCRLF(' ');
 798              		.loc 1 347 0
 799 043c 994B     		ldr	r3, .L44+16
 800 043e 1800     		movs	r0, r3
 801 0440 FFF7FEFF 		bl	UART_UartPutString
 348:ble_process.c **** 									#endif
 802              		.loc 1 348 0
 803 0444 2020     		movs	r0, #32
 804 0446 FFF7FEFF 		bl	UART_UartPutCRLF
 351:ble_process.c **** 									#ifdef DEBUG_ENABLED
 805              		.loc 1 351 0
 806 044a FFF7FEFF 		bl	CyBle_GapcStopScan
 353:ble_process.c **** 									UART_UartPutCRLF(' ');
 807              		.loc 1 353 0
 808 044e 964B     		ldr	r3, .L44+20
 809 0450 1800     		movs	r0, r3
 810 0452 FFF7FEFF 		bl	UART_UartPutString
 354:ble_process.c **** 									#endif
 811              		.loc 1 354 0
 812 0456 2020     		movs	r0, #32
 813 0458 FFF7FEFF 		bl	UART_UartPutCRLF
 358:ble_process.c **** 									peripAddr.bdAddr[0] = scan_report.peerBdAddr[0];
 814              		.loc 1 358 0
 815 045c 2C23     		movs	r3, #44
 816 045e FB18     		adds	r3, r7, r3
 817 0460 5A78     		ldrb	r2, [r3, #1]
 818 0462 924B     		ldr	r3, .L44+24
 819 0464 9A71     		strb	r2, [r3, #6]
 359:ble_process.c **** 									peripAddr.bdAddr[1] = scan_report.peerBdAddr[1];
 820              		.loc 1 359 0
 821 0466 2C23     		movs	r3, #44
 822 0468 FB18     		adds	r3, r7, r3
ARM GAS  C:\Users\ASUS\AppData\Local\Temp\ccKl44WS.s 			page 28


 823 046a 5B68     		ldr	r3, [r3, #4]
 824 046c 1A78     		ldrb	r2, [r3]
 825 046e 8F4B     		ldr	r3, .L44+24
 826 0470 1A70     		strb	r2, [r3]
 360:ble_process.c **** 									peripAddr.bdAddr[2] = scan_report.peerBdAddr[2];
 827              		.loc 1 360 0
 828 0472 2C23     		movs	r3, #44
 829 0474 FB18     		adds	r3, r7, r3
 830 0476 5B68     		ldr	r3, [r3, #4]
 831 0478 5A78     		ldrb	r2, [r3, #1]
 832 047a 8C4B     		ldr	r3, .L44+24
 833 047c 5A70     		strb	r2, [r3, #1]
 361:ble_process.c **** 									peripAddr.bdAddr[3] = scan_report.peerBdAddr[3];
 834              		.loc 1 361 0
 835 047e 2C23     		movs	r3, #44
 836 0480 FB18     		adds	r3, r7, r3
 837 0482 5B68     		ldr	r3, [r3, #4]
 838 0484 9A78     		ldrb	r2, [r3, #2]
 839 0486 894B     		ldr	r3, .L44+24
 840 0488 9A70     		strb	r2, [r3, #2]
 362:ble_process.c **** 									peripAddr.bdAddr[4] = scan_report.peerBdAddr[4];
 841              		.loc 1 362 0
 842 048a 2C23     		movs	r3, #44
 843 048c FB18     		adds	r3, r7, r3
 844 048e 5B68     		ldr	r3, [r3, #4]
 845 0490 DA78     		ldrb	r2, [r3, #3]
 846 0492 864B     		ldr	r3, .L44+24
 847 0494 DA70     		strb	r2, [r3, #3]
 363:ble_process.c **** 									peripAddr.bdAddr[5] = scan_report.peerBdAddr[5];
 848              		.loc 1 363 0
 849 0496 2C23     		movs	r3, #44
 850 0498 FB18     		adds	r3, r7, r3
 851 049a 5B68     		ldr	r3, [r3, #4]
 852 049c 1A79     		ldrb	r2, [r3, #4]
 853 049e 834B     		ldr	r3, .L44+24
 854 04a0 1A71     		strb	r2, [r3, #4]
 364:ble_process.c **** 
 855              		.loc 1 364 0
 856 04a2 2C23     		movs	r3, #44
 857 04a4 FB18     		adds	r3, r7, r3
 858 04a6 5B68     		ldr	r3, [r3, #4]
 859 04a8 5A79     		ldrb	r2, [r3, #5]
 860 04aa 804B     		ldr	r3, .L44+24
 861 04ac 5A71     		strb	r2, [r3, #5]
 368:ble_process.c **** 									
 862              		.loc 1 368 0
 863 04ae 804B     		ldr	r3, .L44+28
 864 04b0 0122     		movs	r2, #1
 865 04b2 1A70     		strb	r2, [r3]
 372:ble_process.c **** 									#endif
 866              		.loc 1 372 0
 867 04b4 774B     		ldr	r3, .L44
 868 04b6 0022     		movs	r2, #0
 869 04b8 1A70     		strb	r2, [r3]
 383:ble_process.c **** 			
 870              		.loc 1 383 0
 871 04ba E1E0     		b	.L38
ARM GAS  C:\Users\ASUS\AppData\Local\Temp\ccKl44WS.s 			page 29


 872              	.L9:
 387:ble_process.c **** 			{
 873              		.loc 1 387 0
 874 04bc 7D4B     		ldr	r3, .L44+32
 875 04be 1B78     		ldrb	r3, [r3]
 876 04c0 022B     		cmp	r3, #2
 877 04c2 00D0     		beq	.LCB580
 878 04c4 DEE0     		b	.L39	@long jump
 879              	.LCB580:
 880              	.LBB2:
 403:ble_process.c **** 					
 881              		.loc 1 403 0
 882 04c6 7C4B     		ldr	r3, .L44+36
 883 04c8 0122     		movs	r2, #1
 884 04ca 1A70     		strb	r2, [r3]
 406:ble_process.c **** 						SendBLEStatetoUART(CyBle_GetState());
 885              		.loc 1 406 0
 886 04cc 7B4B     		ldr	r3, .L44+40
 887 04ce 1800     		movs	r0, r3
 888 04d0 FFF7FEFF 		bl	UART_UartPutString
 407:ble_process.c **** 						UART_UartPutCRLF(' ');
 889              		.loc 1 407 0
 890 04d4 7A4B     		ldr	r3, .L44+44
 891 04d6 1B78     		ldrb	r3, [r3]
 892 04d8 1800     		movs	r0, r3
 893 04da FFF7FEFF 		bl	SendBLEStatetoUART
 408:ble_process.c **** 					#endif
 894              		.loc 1 408 0
 895 04de 2020     		movs	r0, #32
 896 04e0 FFF7FEFF 		bl	UART_UartPutCRLF
 412:ble_process.c **** 					writeADVcounterdata.value.val = &dataADVCounter;
 897              		.loc 1 412 0
 898 04e4 4023     		movs	r3, #64
 899 04e6 FB18     		adds	r3, r7, r3
 900 04e8 1122     		movs	r2, #17
 901 04ea 1A81     		strh	r2, [r3, #8]
 413:ble_process.c **** 					writeADVcounterdata.value.len = 1;
 902              		.loc 1 413 0
 903 04ec 4023     		movs	r3, #64
 904 04ee FB18     		adds	r3, r7, r3
 905 04f0 744A     		ldr	r2, .L44+48
 906 04f2 1A60     		str	r2, [r3]
 414:ble_process.c **** 					CyBle_GattcWriteWithoutResponse(cyBle_connHandle, &writeADVcounterdata);
 907              		.loc 1 414 0
 908 04f4 4023     		movs	r3, #64
 909 04f6 FB18     		adds	r3, r7, r3
 910 04f8 0122     		movs	r2, #1
 911 04fa 9A80     		strh	r2, [r3, #4]
 415:ble_process.c **** 				    
 912              		.loc 1 415 0
 913 04fc 4023     		movs	r3, #64
 914 04fe F918     		adds	r1, r7, r3
 915 0500 714B     		ldr	r3, .L44+52
 916 0502 1A78     		ldrb	r2, [r3]
 917 0504 5B78     		ldrb	r3, [r3, #1]
 918 0506 1B02     		lsls	r3, r3, #8
 919 0508 1A43     		orrs	r2, r3
ARM GAS  C:\Users\ASUS\AppData\Local\Temp\ccKl44WS.s 			page 30


 920 050a 0023     		movs	r3, #0
 921 050c 1204     		lsls	r2, r2, #16
 922 050e 120C     		lsrs	r2, r2, #16
 923 0510 1B0C     		lsrs	r3, r3, #16
 924 0512 1B04     		lsls	r3, r3, #16
 925 0514 1343     		orrs	r3, r2
 926 0516 1800     		movs	r0, r3
 927 0518 FFF7FEFF 		bl	CyBle_GattcWriteWithoutResponse
 418:ble_process.c ****                     
 928              		.loc 1 418 0
 929 051c 0823     		movs	r3, #8
 930 051e FA18     		adds	r2, r7, r3
 931 0520 6A4B     		ldr	r3, .L44+56
 932 0522 1000     		movs	r0, r2
 933 0524 1900     		movs	r1, r3
 934 0526 0423     		movs	r3, #4
 935 0528 1A00     		movs	r2, r3
 936 052a FFF7FEFF 		bl	memcpy
 421:ble_process.c ****                     {
 937              		.loc 1 421 0
 938 052e 684B     		ldr	r3, .L44+60
 939 0530 1B68     		ldr	r3, [r3]
 940 0532 002B     		cmp	r3, #0
 941 0534 09D1     		bne	.L29
 423:ble_process.c ****                     }
 942              		.loc 1 423 0
 943 0536 674B     		ldr	r3, .L44+64
 944 0538 1B78     		ldrb	r3, [r3]
 945 053a 5A1C     		adds	r2, r3, #1
 946 053c D1B2     		uxtb	r1, r2
 947 053e 654A     		ldr	r2, .L44+64
 948 0540 1170     		strb	r1, [r2]
 949 0542 5F22     		movs	r2, #95
 950 0544 BA18     		adds	r2, r7, r2
 951 0546 1370     		strb	r3, [r2]
 952 0548 03E0     		b	.L30
 953              	.L29:
 427:ble_process.c ****                     }
 954              		.loc 1 427 0
 955 054a 5F23     		movs	r3, #95
 956 054c FB18     		adds	r3, r7, r3
 957 054e FF22     		movs	r2, #255
 958 0550 1A70     		strb	r2, [r3]
 959              	.L30:
 429:ble_process.c ****                     
 960              		.loc 1 429 0
 961 0552 0823     		movs	r3, #8
 962 0554 FB18     		adds	r3, r7, r3
 963 0556 5F22     		movs	r2, #95
 964 0558 BA18     		adds	r2, r7, r2
 965 055a 1278     		ldrb	r2, [r2]
 966 055c 1A71     		strb	r2, [r3, #4]
 432:ble_process.c **** 					writeRGBdata.value.val = RGBData2;
 967              		.loc 1 432 0
 968 055e 1023     		movs	r3, #16
 969 0560 FB18     		adds	r3, r7, r3
 970 0562 0E22     		movs	r2, #14
ARM GAS  C:\Users\ASUS\AppData\Local\Temp\ccKl44WS.s 			page 31


 971 0564 1A81     		strh	r2, [r3, #8]
 433:ble_process.c **** 					writeRGBdata.value.len = RGB_LED_DATA_LEN;
 972              		.loc 1 433 0
 973 0566 1023     		movs	r3, #16
 974 0568 FB18     		adds	r3, r7, r3
 975 056a 0822     		movs	r2, #8
 976 056c BA18     		adds	r2, r7, r2
 977 056e 1A60     		str	r2, [r3]
 434:ble_process.c **** 					CyBle_GattcWriteCharacteristicValue(cyBle_connHandle, &writeRGBdata);
 978              		.loc 1 434 0
 979 0570 1023     		movs	r3, #16
 980 0572 FB18     		adds	r3, r7, r3
 981 0574 0522     		movs	r2, #5
 982 0576 9A80     		strh	r2, [r3, #4]
 435:ble_process.c **** 				#endif
 983              		.loc 1 435 0
 984 0578 1023     		movs	r3, #16
 985 057a F918     		adds	r1, r7, r3
 986 057c 524B     		ldr	r3, .L44+52
 987 057e 1A78     		ldrb	r2, [r3]
 988 0580 5B78     		ldrb	r3, [r3, #1]
 989 0582 1B02     		lsls	r3, r3, #8
 990 0584 1A43     		orrs	r2, r3
 991 0586 0023     		movs	r3, #0
 992 0588 1204     		lsls	r2, r2, #16
 993 058a 120C     		lsrs	r2, r2, #16
 994 058c 1B0C     		lsrs	r3, r3, #16
 995 058e 1B04     		lsls	r3, r3, #16
 996 0590 1343     		orrs	r3, r2
 997 0592 1800     		movs	r0, r3
 998 0594 FFF7FEFF 		bl	CyBle_GattcWriteCharacteristicValue
 999              	.LBE2:
 438:ble_process.c **** 			
 1000              		.loc 1 438 0
 1001 0598 74E0     		b	.L39
 1002              	.L16:
 470:ble_process.c **** 				SendBLEStatetoUART(CyBle_GetState());
 1003              		.loc 1 470 0
 1004 059a 4F4B     		ldr	r3, .L44+68
 1005 059c 1800     		movs	r0, r3
 1006 059e FFF7FEFF 		bl	UART_UartPutString
 471:ble_process.c **** 				UART_UartPutCRLF(' ');
 1007              		.loc 1 471 0
 1008 05a2 474B     		ldr	r3, .L44+44
 1009 05a4 1B78     		ldrb	r3, [r3]
 1010 05a6 1800     		movs	r0, r3
 1011 05a8 FFF7FEFF 		bl	SendBLEStatetoUART
 472:ble_process.c **** 			#endif
 1012              		.loc 1 472 0
 1013 05ac 2020     		movs	r0, #32
 1014 05ae FFF7FEFF 		bl	UART_UartPutCRLF
 476:ble_process.c **** 			{
 1015              		.loc 1 476 0
 1016 05b2 454B     		ldr	r3, .L44+52
 1017 05b4 1B78     		ldrb	r3, [r3]
 1018 05b6 002B     		cmp	r3, #0
 1019 05b8 66D0     		beq	.L40
ARM GAS  C:\Users\ASUS\AppData\Local\Temp\ccKl44WS.s 			page 32


 478:ble_process.c **** 				
 1020              		.loc 1 478 0
 1021 05ba 434B     		ldr	r3, .L44+52
 1022 05bc 1B78     		ldrb	r3, [r3]
 1023 05be 1800     		movs	r0, r3
 1024 05c0 FFF7FEFF 		bl	CyBle_GapDisconnect
 480:ble_process.c **** 				#ifdef DEBUG_ENABLED
 1025              		.loc 1 480 0
 1026 05c4 454B     		ldr	r3, .L44+72
 1027 05c6 0122     		movs	r2, #1
 1028 05c8 1A70     		strb	r2, [r3]
 482:ble_process.c **** 				SendBLEStatetoUART(CyBle_GetState());
 1029              		.loc 1 482 0
 1030 05ca 454B     		ldr	r3, .L44+76
 1031 05cc 1800     		movs	r0, r3
 1032 05ce FFF7FEFF 		bl	UART_UartPutString
 483:ble_process.c **** 				UART_UartPutCRLF(' ');
 1033              		.loc 1 483 0
 1034 05d2 3B4B     		ldr	r3, .L44+44
 1035 05d4 1B78     		ldrb	r3, [r3]
 1036 05d6 1800     		movs	r0, r3
 1037 05d8 FFF7FEFF 		bl	SendBLEStatetoUART
 484:ble_process.c **** 				#endif
 1038              		.loc 1 484 0
 1039 05dc 2020     		movs	r0, #32
 1040 05de FFF7FEFF 		bl	UART_UartPutCRLF
 487:ble_process.c **** 
 1041              		.loc 1 487 0
 1042 05e2 51E0     		b	.L40
 1043              	.L10:
 492:ble_process.c **** 			
 1044              		.loc 1 492 0
 1045 05e4 344B     		ldr	r3, .L44+36
 1046 05e6 0022     		movs	r2, #0
 1047 05e8 1A70     		strb	r2, [r3]
 495:ble_process.c **** 				SendBLEStatetoUART(CyBle_GetState());
 1048              		.loc 1 495 0
 1049 05ea 3E4B     		ldr	r3, .L44+80
 1050 05ec 1800     		movs	r0, r3
 1051 05ee FFF7FEFF 		bl	UART_UartPutString
 496:ble_process.c **** 				UART_UartPutCRLF(' ');
 1052              		.loc 1 496 0
 1053 05f2 334B     		ldr	r3, .L44+44
 1054 05f4 1B78     		ldrb	r3, [r3]
 1055 05f6 1800     		movs	r0, r3
 1056 05f8 FFF7FEFF 		bl	SendBLEStatetoUART
 497:ble_process.c **** 			#endif
 1057              		.loc 1 497 0
 1058 05fc 2020     		movs	r0, #32
 1059 05fe FFF7FEFF 		bl	UART_UartPutCRLF
 500:ble_process.c **** 			{
 1060              		.loc 1 500 0
 1061 0602 2C4B     		ldr	r3, .L44+32
 1062 0604 1B78     		ldrb	r3, [r3]
 1063 0606 012B     		cmp	r3, #1
 1064 0608 17D1     		bne	.L32
 500:ble_process.c **** 			{
ARM GAS  C:\Users\ASUS\AppData\Local\Temp\ccKl44WS.s 			page 33


 1065              		.loc 1 500 0 is_stmt 0 discriminator 1
 1066 060a 374B     		ldr	r3, .L44+84
 1067 060c 1B78     		ldrb	r3, [r3]
 1068 060e 012B     		cmp	r3, #1
 1069 0610 13D0     		beq	.L32
 504:ble_process.c **** 				{
 1070              		.loc 1 504 0 is_stmt 1
 1071 0612 2B4B     		ldr	r3, .L44+44
 1072 0614 1B78     		ldrb	r3, [r3]
 1073 0616 062B     		cmp	r3, #6
 1074 0618 2BD1     		bne	.L34
 506:ble_process.c **** 					#ifdef DEBUG_ENABLED
 1075              		.loc 1 506 0
 1076 061a 0020     		movs	r0, #0
 1077 061c FFF7FEFF 		bl	CyBle_GappStartAdvertisement
 508:ble_process.c **** 					SendBLEStatetoUART(CyBle_GetState());
 1078              		.loc 1 508 0
 1079 0620 324B     		ldr	r3, .L44+88
 1080 0622 1800     		movs	r0, r3
 1081 0624 FFF7FEFF 		bl	UART_UartPutString
 509:ble_process.c **** 					UART_UartPutCRLF(' ');
 1082              		.loc 1 509 0
 1083 0628 254B     		ldr	r3, .L44+44
 1084 062a 1B78     		ldrb	r3, [r3]
 1085 062c 1800     		movs	r0, r3
 1086 062e FFF7FEFF 		bl	SendBLEStatetoUART
 510:ble_process.c **** 					#endif
 1087              		.loc 1 510 0
 1088 0632 2020     		movs	r0, #32
 1089 0634 FFF7FEFF 		bl	UART_UartPutCRLF
 504:ble_process.c **** 				{
 1090              		.loc 1 504 0
 1091 0638 1BE0     		b	.L34
 1092              	.L32:
 514:ble_process.c **** 			{
 1093              		.loc 1 514 0
 1094 063a 1E4B     		ldr	r3, .L44+32
 1095 063c 1B78     		ldrb	r3, [r3]
 1096 063e 022B     		cmp	r3, #2
 1097 0640 24D1     		bne	.L41
 514:ble_process.c **** 			{
 1098              		.loc 1 514 0 is_stmt 0 discriminator 1
 1099 0642 294B     		ldr	r3, .L44+84
 1100 0644 1B78     		ldrb	r3, [r3]
 1101 0646 012B     		cmp	r3, #1
 1102 0648 20D0     		beq	.L41
 518:ble_process.c **** 				{
 1103              		.loc 1 518 0 is_stmt 1
 1104 064a 1D4B     		ldr	r3, .L44+44
 1105 064c 1B78     		ldrb	r3, [r3]
 1106 064e 062B     		cmp	r3, #6
 1107 0650 1CD1     		bne	.L41
 520:ble_process.c **** 					#ifdef DEBUG_ENABLED
 1108              		.loc 1 520 0
 1109 0652 0020     		movs	r0, #0
 1110 0654 FFF7FEFF 		bl	CyBle_GapcStartScan
 522:ble_process.c **** 					SendBLEStatetoUART(CyBle_GetState());
ARM GAS  C:\Users\ASUS\AppData\Local\Temp\ccKl44WS.s 			page 34


 1111              		.loc 1 522 0
 1112 0658 254B     		ldr	r3, .L44+92
 1113 065a 1800     		movs	r0, r3
 1114 065c FFF7FEFF 		bl	UART_UartPutString
 523:ble_process.c **** 					UART_UartPutCRLF(' ');
 1115              		.loc 1 523 0
 1116 0660 174B     		ldr	r3, .L44+44
 1117 0662 1B78     		ldrb	r3, [r3]
 1118 0664 1800     		movs	r0, r3
 1119 0666 FFF7FEFF 		bl	SendBLEStatetoUART
 524:ble_process.c **** 					#endif
 1120              		.loc 1 524 0
 1121 066a 2020     		movs	r0, #32
 1122 066c FFF7FEFF 		bl	UART_UartPutCRLF
 528:ble_process.c **** 			
 1123              		.loc 1 528 0
 1124 0670 0CE0     		b	.L41
 1125              	.L34:
 528:ble_process.c **** 			
 1126              		.loc 1 528 0 is_stmt 0 discriminator 8
 1127 0672 0BE0     		b	.L41
 1128              	.L35:
 463:ble_process.c **** 			
 1129              		.loc 1 463 0 is_stmt 1
 1130 0674 C046     		nop
 1131 0676 0AE0     		b	.L1
 1132              	.L36:
 108:ble_process.c **** 			
 1133              		.loc 1 108 0
 1134 0678 C046     		nop
 1135 067a 08E0     		b	.L1
 1136              	.L37:
 254:ble_process.c **** 		
 1137              		.loc 1 254 0
 1138 067c C046     		nop
 1139 067e 06E0     		b	.L1
 1140              	.L38:
 383:ble_process.c **** 			
 1141              		.loc 1 383 0
 1142 0680 C046     		nop
 1143 0682 04E0     		b	.L1
 1144              	.L39:
 438:ble_process.c **** 			
 1145              		.loc 1 438 0
 1146 0684 C046     		nop
 1147 0686 02E0     		b	.L1
 1148              	.L40:
 487:ble_process.c **** 
 1149              		.loc 1 487 0
 1150 0688 C046     		nop
 1151 068a 00E0     		b	.L1
 1152              	.L41:
 528:ble_process.c **** 			
 1153              		.loc 1 528 0
 1154 068c C046     		nop
 1155              	.L1:
 533:ble_process.c **** 	}
ARM GAS  C:\Users\ASUS\AppData\Local\Temp\ccKl44WS.s 			page 35


 534:ble_process.c **** }
 1156              		.loc 1 534 0
 1157 068e BD46     		mov	sp, r7
 1158 0690 19B0     		add	sp, sp, #100
 1159              		@ sp needed
 1160 0692 90BD     		pop	{r4, r7, pc}
 1161              	.L45:
 1162              		.align	2
 1163              	.L44:
 1164 0694 00000000 		.word	potential_node_found
 1165 0698 00000000 		.word	potential_node_bdAddrType
 1166 069c 00000000 		.word	potential_node_bdAddr
 1167 06a0 00000000 		.word	scan_tag
 1168 06a4 E0010000 		.word	.LC39
 1169 06a8 F0010000 		.word	.LC41
 1170 06ac 00000000 		.word	peripAddr
 1171 06b0 00000000 		.word	clientConnectToDevice
 1172 06b4 00000000 		.word	ble_gap_state
 1173 06b8 00000000 		.word	deviceConnected
 1174 06bc 04020000 		.word	.LC47
 1175 06c0 00000000 		.word	cyBle_state
 1176 06c4 00000000 		.word	dataADVCounter
 1177 06c8 00000000 		.word	cyBle_connHandle
 1178 06cc 00000000 		.word	RGBData
 1179 06d0 00000000 		.word	DEVICE_INDEX
 1180 06d4 00000000 		.word	NEXT_NEIGHBOUR_INDEX
 1181 06d8 2C020000 		.word	.LC50
 1182 06dc 00000000 		.word	restartScanning
 1183 06e0 48020000 		.word	.LC53
 1184 06e4 74020000 		.word	.LC55
 1185 06e8 00000000 		.word	switch_Role
 1186 06ec 40000000 		.word	.LC6
 1187 06f0 98020000 		.word	.LC57
 1188              		.cfi_endproc
 1189              	.LFE36:
 1190              		.size	GenericEventHandler, .-GenericEventHandler
 1191              		.section	.rodata
 1192 02aa 0000     		.align	2
 1193              	.LC61:
 1194 02ac 50657269 		.ascii	"Peripheral closed connection \000"
 1194      70686572 
 1194      616C2063 
 1194      6C6F7365 
 1194      6420636F 
 1195 02ca 0000     		.align	2
 1196              	.LC65:
 1197 02cc 50657269 		.ascii	"Peripheral Advertisment Stopped \000"
 1197      70686572 
 1197      616C2041 
 1197      64766572 
 1197      7469736D 
 1198 02ed 000000   		.align	2
 1199              	.LC67:
 1200 02f0 53746172 		.ascii	"Start Scan API called \000"
 1200      74205363 
 1200      616E2041 
 1200      50492063 
ARM GAS  C:\Users\ASUS\AppData\Local\Temp\ccKl44WS.s 			page 36


 1200      616C6C65 
 1201 0307 00       		.align	2
 1202              	.LC71:
 1203 0308 53746172 		.ascii	"Start Scan API failed \000"
 1203      74205363 
 1203      616E2041 
 1203      50492066 
 1203      61696C65 
 1204 031f 00       		.align	2
 1205              	.LC73:
 1206 0320 43656E74 		.ascii	"Central Scan stopped \000"
 1206      72616C20 
 1206      5363616E 
 1206      2073746F 
 1206      70706564 
 1207 0336 0000     		.align	2
 1208              	.LC78:
 1209 0338 55706461 		.ascii	"Updated ADV data = \000"
 1209      74656420 
 1209      41445620 
 1209      64617461 
 1209      203D2000 
 1210              		.align	2
 1211              	.LC81:
 1212 034c 50657269 		.ascii	"Peripheral Advertisment called \000"
 1212      70686572 
 1212      616C2041 
 1212      64766572 
 1212      7469736D 
 1213              		.align	2
 1214              	.LC83:
 1215 036c 53746172 		.ascii	"Start Peripheral Advertisment Failed \000"
 1215      74205065 
 1215      72697068 
 1215      6572616C 
 1215      20416476 
 1216              		.section	.text.SwitchRole,"ax",%progbits
 1217              		.align	2
 1218              		.global	SwitchRole
 1219              		.code	16
 1220              		.thumb_func
 1221              		.type	SwitchRole, %function
 1222              	SwitchRole:
 1223              	.LFB37:
 535:ble_process.c **** 
 536:ble_process.c **** /*******************************************************************************
 537:ble_process.c **** * Function Name: SwitchRole
 538:ble_process.c **** ********************************************************************************
 539:ble_process.c **** * Summary:
 540:ble_process.c **** *        This function switches the role between Central and Peripheral. If device 
 541:ble_process.c **** * is connected while switching role, then it is first disconnected.
 542:ble_process.c **** *
 543:ble_process.c **** * Parameters:
 544:ble_process.c **** *  void
 545:ble_process.c **** *
 546:ble_process.c **** * Return:
 547:ble_process.c **** *  void
ARM GAS  C:\Users\ASUS\AppData\Local\Temp\ccKl44WS.s 			page 37


 548:ble_process.c **** *
 549:ble_process.c **** *******************************************************************************/
 550:ble_process.c **** void SwitchRole(void)
 551:ble_process.c **** {
 1224              		.loc 1 551 0
 1225              		.cfi_startproc
 1226              		@ args = 0, pretend = 0, frame = 8
 1227              		@ frame_needed = 1, uses_anonymous_args = 0
 1228 0000 90B5     		push	{r4, r7, lr}
 1229              		.cfi_def_cfa_offset 12
 1230              		.cfi_offset 4, -12
 1231              		.cfi_offset 7, -8
 1232              		.cfi_offset 14, -4
 1233 0002 83B0     		sub	sp, sp, #12
 1234              		.cfi_def_cfa_offset 24
 1235 0004 00AF     		add	r7, sp, #0
 1236              		.cfi_def_cfa_register 7
 552:ble_process.c **** 	CYBLE_API_RESULT_T  apiResult;
 553:ble_process.c **** 	
 554:ble_process.c **** 	/* if the switch role flag is set... */
 555:ble_process.c **** 	if(switch_Role == TRUE)
 1237              		.loc 1 555 0
 1238 0006 684B     		ldr	r3, .L59
 1239 0008 1B78     		ldrb	r3, [r3]
 1240 000a 012B     		cmp	r3, #1
 1241 000c 00D0     		beq	.LCB882
 1242 000e C6E0     		b	.L58	@long jump
 1243              	.LCB882:
 556:ble_process.c **** 	{	
 557:ble_process.c **** 		/* Process pending BLE events */
 558:ble_process.c **** 		CyBle_ProcessEvents();
 1244              		.loc 1 558 0
 1245 0010 FFF7FEFF 		bl	CyBle_ProcessEvents
 559:ble_process.c **** 		
 560:ble_process.c **** 		/* If there is an existing connection, then disconnect before switching
 561:ble_process.c **** 		* role. */
 562:ble_process.c **** 		if((cyBle_connHandle.bdHandle != 0))
 1246              		.loc 1 562 0
 1247 0014 654B     		ldr	r3, .L59+4
 1248 0016 1B78     		ldrb	r3, [r3]
 1249 0018 002B     		cmp	r3, #0
 1250 001a 12D0     		beq	.L48
 563:ble_process.c **** 		{
 564:ble_process.c **** 			/* Disconnect the device and process the event */
 565:ble_process.c **** 			CyBle_GapDisconnect(cyBle_connHandle.bdHandle);
 1251              		.loc 1 565 0
 1252 001c 634B     		ldr	r3, .L59+4
 1253 001e 1B78     		ldrb	r3, [r3]
 1254 0020 1800     		movs	r0, r3
 1255 0022 FFF7FEFF 		bl	CyBle_GapDisconnect
 566:ble_process.c **** 			CyBle_ProcessEvents();
 1256              		.loc 1 566 0
 1257 0026 FFF7FEFF 		bl	CyBle_ProcessEvents
 567:ble_process.c **** 			#ifdef DEBUG_ENABLED
 568:ble_process.c **** 			UART_UartPutString("Peripheral closed connection ");
 1258              		.loc 1 568 0
 1259 002a 614B     		ldr	r3, .L59+8
ARM GAS  C:\Users\ASUS\AppData\Local\Temp\ccKl44WS.s 			page 38


 1260 002c 1800     		movs	r0, r3
 1261 002e FFF7FEFF 		bl	UART_UartPutString
 569:ble_process.c **** 			SendBLEStatetoUART(CyBle_GetState());
 1262              		.loc 1 569 0
 1263 0032 604B     		ldr	r3, .L59+12
 1264 0034 1B78     		ldrb	r3, [r3]
 1265 0036 1800     		movs	r0, r3
 1266 0038 FFF7FEFF 		bl	SendBLEStatetoUART
 570:ble_process.c **** 			UART_UartPutCRLF(' ');
 1267              		.loc 1 570 0
 1268 003c 2020     		movs	r0, #32
 1269 003e FFF7FEFF 		bl	UART_UartPutCRLF
 1270              	.L48:
 571:ble_process.c **** 			#endif
 572:ble_process.c **** 		}		
 573:ble_process.c **** 		
 574:ble_process.c **** 		switch(ble_gap_state)
 1271              		.loc 1 574 0
 1272 0042 5D4B     		ldr	r3, .L59+16
 1273 0044 1B78     		ldrb	r3, [r3]
 1274 0046 012B     		cmp	r3, #1
 1275 0048 02D0     		beq	.L50
 1276 004a 022B     		cmp	r3, #2
 1277 004c 4CD0     		beq	.L51
 575:ble_process.c **** 		{
 576:ble_process.c **** 			case BLE_PERIPHERAL:
 577:ble_process.c **** 				/* If the current role is Peripheral and system is advertising,
 578:ble_process.c **** 				* then stop advertisement before switching role */
 579:ble_process.c **** 				if(CyBle_GetState() == CYBLE_STATE_ADVERTISING)
 580:ble_process.c **** 				{
 581:ble_process.c **** 					CyBle_GappStopAdvertisement();
 582:ble_process.c **** 					CyBle_ProcessEvents();
 583:ble_process.c **** 
 584:ble_process.c **** 					#ifdef DEBUG_ENABLED
 585:ble_process.c **** 						UART_UartPutString("Peripheral Advertisment Stopped ");
 586:ble_process.c **** 						SendBLEStatetoUART(CyBle_GetState());
 587:ble_process.c **** 						UART_UartPutCRLF(' ');
 588:ble_process.c **** 					#endif
 589:ble_process.c **** 				}
 590:ble_process.c **** 				
 591:ble_process.c **** 				if(CyBle_GetState() == CYBLE_STATE_DISCONNECTED)
 592:ble_process.c **** 				{
 593:ble_process.c **** 					/* Switch BLE role by starting scan. This way, the system is set
 594:ble_process.c **** 					* to Central role */
 595:ble_process.c **** 					apiResult = CyBle_GapcStartScan(CYBLE_SCANNING_FAST);
 596:ble_process.c **** 					
 597:ble_process.c **** 					if(CYBLE_ERROR_OK == apiResult)
 598:ble_process.c **** 					{
 599:ble_process.c **** 						#ifdef DEBUG_ENABLED
 600:ble_process.c **** 						UART_UartPutString("Start Scan API called ");
 601:ble_process.c **** 						SendBLEStatetoUART(CyBle_GetState());
 602:ble_process.c **** 						UART_UartPutCRLF(' ');
 603:ble_process.c **** 						#endif
 604:ble_process.c **** 						
 605:ble_process.c **** 						/* Record the time at which Central role was started. This will be 
 606:ble_process.c **** 						* used for timeout and switching to Peripheral operation*/
 607:ble_process.c **** 						centralStartedTime = WatchDog_CurrentCount();
ARM GAS  C:\Users\ASUS\AppData\Local\Temp\ccKl44WS.s 			page 39


 608:ble_process.c **** 						
 609:ble_process.c **** 						/* Update the current BLE role to Central */
 610:ble_process.c **** 						ble_gap_state = BLE_CENTRAL;
 611:ble_process.c **** 						
 612:ble_process.c **** 						/* Reset the switch role flag*/
 613:ble_process.c **** 						switch_Role = FALSE;
 614:ble_process.c **** 					}
 615:ble_process.c **** 					else
 616:ble_process.c **** 					{
 617:ble_process.c **** 						/* If scanning did not start, maintain the current role and retry later */
 618:ble_process.c **** 						ble_gap_state = BLE_PERIPHERAL;
 619:ble_process.c **** 						
 620:ble_process.c **** 						#ifdef DEBUG_ENABLED
 621:ble_process.c **** 						UART_UartPutString("Start Scan API failed ");
 622:ble_process.c **** 						SendBLEStatetoUART(CyBle_GetState());
 623:ble_process.c **** 						UART_UartPutCRLF(' ');
 624:ble_process.c **** 						#endif
 625:ble_process.c **** 					}
 626:ble_process.c **** 				}
 627:ble_process.c **** 				
 628:ble_process.c **** 				/* Process Pending BLE Events */
 629:ble_process.c **** 				CyBle_ProcessEvents();
 630:ble_process.c **** 				
 631:ble_process.c **** 			break;
 632:ble_process.c **** 			
 633:ble_process.c **** 			case BLE_CENTRAL:
 634:ble_process.c **** 				/* If the current role is Central and system is scanning,
 635:ble_process.c **** 				* then stop scanning before switching role */
 636:ble_process.c **** 				if(CyBle_GetState() == CYBLE_STATE_SCANNING)
 637:ble_process.c **** 				{
 638:ble_process.c **** 					CyBle_GapcStopScan();
 639:ble_process.c **** 					CyBle_ProcessEvents();
 640:ble_process.c **** 					
 641:ble_process.c **** 					#ifdef DEBUG_ENABLED
 642:ble_process.c **** 						UART_UartPutString("Central Scan stopped ");
 643:ble_process.c **** 						UART_UartPutCRLF(' ');
 644:ble_process.c **** 					#endif
 645:ble_process.c **** 				}
 646:ble_process.c **** 				
 647:ble_process.c **** 				if(CyBle_GetState() == CYBLE_STATE_DISCONNECTED)
 648:ble_process.c **** 				{
 649:ble_process.c **** 					#ifdef ENABLE_ADV_DATA_COUNTER
 650:ble_process.c **** 					/* Increment data counter */
 651:ble_process.c **** 					new_advData.advData[new_advData.advDataLen - 1] = dataADVCounter;
 652:ble_process.c **** 					
 653:ble_process.c **** 					cyBle_discoveryModeInfo.advData = &new_advData;
 654:ble_process.c **** 					
 655:ble_process.c **** 					#ifdef DEBUG_ENABLED
 656:ble_process.c **** 						UART_UartPutString("Updated ADV data = ");
 657:ble_process.c **** 						PrintNum(dataADVCounter);
 658:ble_process.c **** 						UART_UartPutCRLF(' ');
 659:ble_process.c **** 					#endif
 660:ble_process.c **** 					#endif
 661:ble_process.c **** 					
 662:ble_process.c **** 					/* Switch BLE role by starting advertisement. This way, the system is 
 663:ble_process.c **** 					* set to Peripheral role */
 664:ble_process.c **** 					apiResult = CyBle_GappStartAdvertisement(CYBLE_ADVERTISING_FAST);
ARM GAS  C:\Users\ASUS\AppData\Local\Temp\ccKl44WS.s 			page 40


 665:ble_process.c **** 					
 666:ble_process.c **** 					if(apiResult == CYBLE_ERROR_OK)
 667:ble_process.c **** 					{
 668:ble_process.c **** 						/* If advertisement started successfully, set the BLE state and
 669:ble_process.c **** 						* reset the switch role flag*/
 670:ble_process.c **** 						ble_gap_state = BLE_PERIPHERAL;
 671:ble_process.c **** 						clientConnectToDevice = FALSE;	
 672:ble_process.c **** 						switch_Role = FALSE;
 673:ble_process.c **** 						
 674:ble_process.c **** 						#ifdef DEBUG_ENABLED
 675:ble_process.c **** 						UART_UartPutString("Peripheral Advertisment called ");
 676:ble_process.c **** 						SendBLEStatetoUART(CyBle_GetState());
 677:ble_process.c **** 						UART_UartPutCRLF(' ');
 678:ble_process.c **** 						#endif
 679:ble_process.c **** 					}
 680:ble_process.c **** 					else
 681:ble_process.c **** 					{
 682:ble_process.c **** 						/* If advertisement did not start, maintain the current role and retry later */
 683:ble_process.c **** 						ble_gap_state = BLE_CENTRAL;
 684:ble_process.c **** 						
 685:ble_process.c **** 						#ifdef DEBUG_ENABLED
 686:ble_process.c **** 						UART_UartPutString("Start Peripheral Advertisment Failed ");
 687:ble_process.c **** 						SendBLEStatetoUART(CyBle_GetState());
 688:ble_process.c **** 						UART_UartPutCRLF(' ');
 689:ble_process.c **** 						#endif					
 690:ble_process.c **** 					}
 691:ble_process.c **** 				}
 692:ble_process.c **** 				
 693:ble_process.c **** 				/* Process Pending BLE Events */
 694:ble_process.c **** 				CyBle_ProcessEvents();
 695:ble_process.c **** 			break;
 696:ble_process.c **** 			
 697:ble_process.c **** 			default:
 698:ble_process.c **** 			
 699:ble_process.c **** 			break;
 1278              		.loc 1 699 0
 1279 004e A6E0     		b	.L47
 1280              	.L50:
 579:ble_process.c **** 				{
 1281              		.loc 1 579 0
 1282 0050 584B     		ldr	r3, .L59+12
 1283 0052 1B78     		ldrb	r3, [r3]
 1284 0054 032B     		cmp	r3, #3
 1285 0056 0FD1     		bne	.L52
 581:ble_process.c **** 					CyBle_ProcessEvents();
 1286              		.loc 1 581 0
 1287 0058 FFF7FEFF 		bl	CyBle_GappStopAdvertisement
 582:ble_process.c **** 
 1288              		.loc 1 582 0
 1289 005c FFF7FEFF 		bl	CyBle_ProcessEvents
 585:ble_process.c **** 						SendBLEStatetoUART(CyBle_GetState());
 1290              		.loc 1 585 0
 1291 0060 564B     		ldr	r3, .L59+20
 1292 0062 1800     		movs	r0, r3
 1293 0064 FFF7FEFF 		bl	UART_UartPutString
 586:ble_process.c **** 						UART_UartPutCRLF(' ');
 1294              		.loc 1 586 0
ARM GAS  C:\Users\ASUS\AppData\Local\Temp\ccKl44WS.s 			page 41


 1295 0068 524B     		ldr	r3, .L59+12
 1296 006a 1B78     		ldrb	r3, [r3]
 1297 006c 1800     		movs	r0, r3
 1298 006e FFF7FEFF 		bl	SendBLEStatetoUART
 587:ble_process.c **** 					#endif
 1299              		.loc 1 587 0
 1300 0072 2020     		movs	r0, #32
 1301 0074 FFF7FEFF 		bl	UART_UartPutCRLF
 1302              	.L52:
 591:ble_process.c **** 				{
 1303              		.loc 1 591 0
 1304 0078 4E4B     		ldr	r3, .L59+12
 1305 007a 1B78     		ldrb	r3, [r3]
 1306 007c 062B     		cmp	r3, #6
 1307 007e 30D1     		bne	.L53
 595:ble_process.c **** 					
 1308              		.loc 1 595 0
 1309 0080 BC1D     		adds	r4, r7, #6
 1310 0082 0020     		movs	r0, #0
 1311 0084 FFF7FEFF 		bl	CyBle_GapcStartScan
 1312 0088 0300     		movs	r3, r0
 1313 008a 2380     		strh	r3, [r4]
 597:ble_process.c **** 					{
 1314              		.loc 1 597 0
 1315 008c BB1D     		adds	r3, r7, #6
 1316 008e 1B88     		ldrh	r3, [r3]
 1317 0090 002B     		cmp	r3, #0
 1318 0092 17D1     		bne	.L54
 600:ble_process.c **** 						SendBLEStatetoUART(CyBle_GetState());
 1319              		.loc 1 600 0
 1320 0094 4A4B     		ldr	r3, .L59+24
 1321 0096 1800     		movs	r0, r3
 1322 0098 FFF7FEFF 		bl	UART_UartPutString
 601:ble_process.c **** 						UART_UartPutCRLF(' ');
 1323              		.loc 1 601 0
 1324 009c 454B     		ldr	r3, .L59+12
 1325 009e 1B78     		ldrb	r3, [r3]
 1326 00a0 1800     		movs	r0, r3
 1327 00a2 FFF7FEFF 		bl	SendBLEStatetoUART
 602:ble_process.c **** 						#endif
 1328              		.loc 1 602 0
 1329 00a6 2020     		movs	r0, #32
 1330 00a8 FFF7FEFF 		bl	UART_UartPutCRLF
 607:ble_process.c **** 						
 1331              		.loc 1 607 0
 1332 00ac 454B     		ldr	r3, .L59+28
 1333 00ae 1B88     		ldrh	r3, [r3]
 1334 00b0 9AB2     		uxth	r2, r3
 1335 00b2 454B     		ldr	r3, .L59+32
 1336 00b4 1A80     		strh	r2, [r3]
 610:ble_process.c **** 						
 1337              		.loc 1 610 0
 1338 00b6 404B     		ldr	r3, .L59+16
 1339 00b8 0222     		movs	r2, #2
 1340 00ba 1A70     		strb	r2, [r3]
 613:ble_process.c **** 					}
 1341              		.loc 1 613 0
ARM GAS  C:\Users\ASUS\AppData\Local\Temp\ccKl44WS.s 			page 42


 1342 00bc 3A4B     		ldr	r3, .L59
 1343 00be 0022     		movs	r2, #0
 1344 00c0 1A70     		strb	r2, [r3]
 1345 00c2 0EE0     		b	.L53
 1346              	.L54:
 618:ble_process.c **** 						
 1347              		.loc 1 618 0
 1348 00c4 3C4B     		ldr	r3, .L59+16
 1349 00c6 0122     		movs	r2, #1
 1350 00c8 1A70     		strb	r2, [r3]
 621:ble_process.c **** 						SendBLEStatetoUART(CyBle_GetState());
 1351              		.loc 1 621 0
 1352 00ca 404B     		ldr	r3, .L59+36
 1353 00cc 1800     		movs	r0, r3
 1354 00ce FFF7FEFF 		bl	UART_UartPutString
 622:ble_process.c **** 						UART_UartPutCRLF(' ');
 1355              		.loc 1 622 0
 1356 00d2 384B     		ldr	r3, .L59+12
 1357 00d4 1B78     		ldrb	r3, [r3]
 1358 00d6 1800     		movs	r0, r3
 1359 00d8 FFF7FEFF 		bl	SendBLEStatetoUART
 623:ble_process.c **** 						#endif
 1360              		.loc 1 623 0
 1361 00dc 2020     		movs	r0, #32
 1362 00de FFF7FEFF 		bl	UART_UartPutCRLF
 1363              	.L53:
 629:ble_process.c **** 				
 1364              		.loc 1 629 0
 1365 00e2 FFF7FEFF 		bl	CyBle_ProcessEvents
 631:ble_process.c **** 			
 1366              		.loc 1 631 0
 1367 00e6 5AE0     		b	.L47
 1368              	.L51:
 636:ble_process.c **** 				{
 1369              		.loc 1 636 0
 1370 00e8 324B     		ldr	r3, .L59+12
 1371 00ea 1B78     		ldrb	r3, [r3]
 1372 00ec 042B     		cmp	r3, #4
 1373 00ee 0AD1     		bne	.L55
 638:ble_process.c **** 					CyBle_ProcessEvents();
 1374              		.loc 1 638 0
 1375 00f0 FFF7FEFF 		bl	CyBle_GapcStopScan
 639:ble_process.c **** 					
 1376              		.loc 1 639 0
 1377 00f4 FFF7FEFF 		bl	CyBle_ProcessEvents
 642:ble_process.c **** 						UART_UartPutCRLF(' ');
 1378              		.loc 1 642 0
 1379 00f8 354B     		ldr	r3, .L59+40
 1380 00fa 1800     		movs	r0, r3
 1381 00fc FFF7FEFF 		bl	UART_UartPutString
 643:ble_process.c **** 					#endif
 1382              		.loc 1 643 0
 1383 0100 2020     		movs	r0, #32
 1384 0102 FFF7FEFF 		bl	UART_UartPutCRLF
 1385              	.L55:
 647:ble_process.c **** 				{
 1386              		.loc 1 647 0
ARM GAS  C:\Users\ASUS\AppData\Local\Temp\ccKl44WS.s 			page 43


 1387 0106 2B4B     		ldr	r3, .L59+12
 1388 0108 1B78     		ldrb	r3, [r3]
 1389 010a 062B     		cmp	r3, #6
 1390 010c 44D1     		bne	.L56
 651:ble_process.c **** 					
 1391              		.loc 1 651 0
 1392 010e 314B     		ldr	r3, .L59+44
 1393 0110 DB7F     		ldrb	r3, [r3, #31]
 1394 0112 013B     		subs	r3, r3, #1
 1395 0114 304A     		ldr	r2, .L59+48
 1396 0116 1178     		ldrb	r1, [r2]
 1397 0118 2E4A     		ldr	r2, .L59+44
 1398 011a D154     		strb	r1, [r2, r3]
 653:ble_process.c **** 					
 1399              		.loc 1 653 0
 1400 011c 2F4B     		ldr	r3, .L59+52
 1401 011e 2D4A     		ldr	r2, .L59+44
 1402 0120 9A60     		str	r2, [r3, #8]
 656:ble_process.c **** 						PrintNum(dataADVCounter);
 1403              		.loc 1 656 0
 1404 0122 2F4B     		ldr	r3, .L59+56
 1405 0124 1800     		movs	r0, r3
 1406 0126 FFF7FEFF 		bl	UART_UartPutString
 657:ble_process.c **** 						UART_UartPutCRLF(' ');
 1407              		.loc 1 657 0
 1408 012a 2B4B     		ldr	r3, .L59+48
 1409 012c 1B78     		ldrb	r3, [r3]
 1410 012e 1800     		movs	r0, r3
 1411 0130 FFF7FEFF 		bl	PrintNum
 658:ble_process.c **** 					#endif
 1412              		.loc 1 658 0
 1413 0134 2020     		movs	r0, #32
 1414 0136 FFF7FEFF 		bl	UART_UartPutCRLF
 664:ble_process.c **** 					
 1415              		.loc 1 664 0
 1416 013a BC1D     		adds	r4, r7, #6
 1417 013c 0020     		movs	r0, #0
 1418 013e FFF7FEFF 		bl	CyBle_GappStartAdvertisement
 1419 0142 0300     		movs	r3, r0
 1420 0144 2380     		strh	r3, [r4]
 666:ble_process.c **** 					{
 1421              		.loc 1 666 0
 1422 0146 BB1D     		adds	r3, r7, #6
 1423 0148 1B88     		ldrh	r3, [r3]
 1424 014a 002B     		cmp	r3, #0
 1425 014c 15D1     		bne	.L57
 670:ble_process.c **** 						clientConnectToDevice = FALSE;	
 1426              		.loc 1 670 0
 1427 014e 1A4B     		ldr	r3, .L59+16
 1428 0150 0122     		movs	r2, #1
 1429 0152 1A70     		strb	r2, [r3]
 671:ble_process.c **** 						switch_Role = FALSE;
 1430              		.loc 1 671 0
 1431 0154 234B     		ldr	r3, .L59+60
 1432 0156 0022     		movs	r2, #0
 1433 0158 1A70     		strb	r2, [r3]
 672:ble_process.c **** 						
ARM GAS  C:\Users\ASUS\AppData\Local\Temp\ccKl44WS.s 			page 44


 1434              		.loc 1 672 0
 1435 015a 134B     		ldr	r3, .L59
 1436 015c 0022     		movs	r2, #0
 1437 015e 1A70     		strb	r2, [r3]
 675:ble_process.c **** 						SendBLEStatetoUART(CyBle_GetState());
 1438              		.loc 1 675 0
 1439 0160 214B     		ldr	r3, .L59+64
 1440 0162 1800     		movs	r0, r3
 1441 0164 FFF7FEFF 		bl	UART_UartPutString
 676:ble_process.c **** 						UART_UartPutCRLF(' ');
 1442              		.loc 1 676 0
 1443 0168 124B     		ldr	r3, .L59+12
 1444 016a 1B78     		ldrb	r3, [r3]
 1445 016c 1800     		movs	r0, r3
 1446 016e FFF7FEFF 		bl	SendBLEStatetoUART
 677:ble_process.c **** 						#endif
 1447              		.loc 1 677 0
 1448 0172 2020     		movs	r0, #32
 1449 0174 FFF7FEFF 		bl	UART_UartPutCRLF
 1450 0178 0EE0     		b	.L56
 1451              	.L57:
 683:ble_process.c **** 						
 1452              		.loc 1 683 0
 1453 017a 0F4B     		ldr	r3, .L59+16
 1454 017c 0222     		movs	r2, #2
 1455 017e 1A70     		strb	r2, [r3]
 686:ble_process.c **** 						SendBLEStatetoUART(CyBle_GetState());
 1456              		.loc 1 686 0
 1457 0180 1A4B     		ldr	r3, .L59+68
 1458 0182 1800     		movs	r0, r3
 1459 0184 FFF7FEFF 		bl	UART_UartPutString
 687:ble_process.c **** 						UART_UartPutCRLF(' ');
 1460              		.loc 1 687 0
 1461 0188 0A4B     		ldr	r3, .L59+12
 1462 018a 1B78     		ldrb	r3, [r3]
 1463 018c 1800     		movs	r0, r3
 1464 018e FFF7FEFF 		bl	SendBLEStatetoUART
 688:ble_process.c **** 						#endif					
 1465              		.loc 1 688 0
 1466 0192 2020     		movs	r0, #32
 1467 0194 FFF7FEFF 		bl	UART_UartPutCRLF
 1468              	.L56:
 694:ble_process.c **** 			break;
 1469              		.loc 1 694 0
 1470 0198 FFF7FEFF 		bl	CyBle_ProcessEvents
 695:ble_process.c **** 			
 1471              		.loc 1 695 0
 1472 019c C046     		nop
 1473              	.L47:
 1474              	.L58:
 700:ble_process.c **** 			
 701:ble_process.c **** 		}
 702:ble_process.c **** 	}
 703:ble_process.c **** }
 1475              		.loc 1 703 0
 1476 019e C046     		nop
 1477 01a0 BD46     		mov	sp, r7
ARM GAS  C:\Users\ASUS\AppData\Local\Temp\ccKl44WS.s 			page 45


 1478 01a2 03B0     		add	sp, sp, #12
 1479              		@ sp needed
 1480 01a4 90BD     		pop	{r4, r7, pc}
 1481              	.L60:
 1482 01a6 C046     		.align	2
 1483              	.L59:
 1484 01a8 00000000 		.word	switch_Role
 1485 01ac 00000000 		.word	cyBle_connHandle
 1486 01b0 AC020000 		.word	.LC61
 1487 01b4 00000000 		.word	cyBle_state
 1488 01b8 00000000 		.word	ble_gap_state
 1489 01bc CC020000 		.word	.LC65
 1490 01c0 F0020000 		.word	.LC67
 1491 01c4 00000000 		.word	current_watchdog_counter
 1492 01c8 00000000 		.word	centralStartedTime
 1493 01cc 08030000 		.word	.LC71
 1494 01d0 20030000 		.word	.LC73
 1495 01d4 00000000 		.word	new_advData
 1496 01d8 00000000 		.word	dataADVCounter
 1497 01dc 00000000 		.word	cyBle_discoveryModeInfo
 1498 01e0 38030000 		.word	.LC78
 1499 01e4 00000000 		.word	clientConnectToDevice
 1500 01e8 4C030000 		.word	.LC81
 1501 01ec 6C030000 		.word	.LC83
 1502              		.cfi_endproc
 1503              	.LFE37:
 1504              		.size	SwitchRole, .-SwitchRole
 1505              		.section	.rodata
 1506 0392 0000     		.align	2
 1507              	.LC88:
 1508 0394 436F6E6E 		.ascii	"Connect Request failed \000"
 1508      65637420 
 1508      52657175 
 1508      65737420 
 1508      6661696C 
 1509              		.align	2
 1510              	.LC90:
 1511 03ac 436F6E6E 		.ascii	"Connect Request Sent \000"
 1511      65637420 
 1511      52657175 
 1511      65737420 
 1511      53656E74 
 1512              		.section	.text.ConnectToPeripheralDevice,"ax",%progbits
 1513              		.align	2
 1514              		.global	ConnectToPeripheralDevice
 1515              		.code	16
 1516              		.thumb_func
 1517              		.type	ConnectToPeripheralDevice, %function
 1518              	ConnectToPeripheralDevice:
 1519              	.LFB38:
 704:ble_process.c **** 
 705:ble_process.c **** /*******************************************************************************
 706:ble_process.c **** * Function Name: ConnectToPeripheralDevice
 707:ble_process.c **** ********************************************************************************
 708:ble_process.c **** * Summary:
 709:ble_process.c **** *        Connects to Peripheral device with given BD Address.
 710:ble_process.c **** *
ARM GAS  C:\Users\ASUS\AppData\Local\Temp\ccKl44WS.s 			page 46


 711:ble_process.c **** * Parameters:
 712:ble_process.c **** *  void
 713:ble_process.c **** *
 714:ble_process.c **** * Return:
 715:ble_process.c **** *  void
 716:ble_process.c **** *
 717:ble_process.c **** *******************************************************************************/
 718:ble_process.c **** void ConnectToPeripheralDevice(void)
 719:ble_process.c **** {
 1520              		.loc 1 719 0
 1521              		.cfi_startproc
 1522              		@ args = 0, pretend = 0, frame = 8
 1523              		@ frame_needed = 1, uses_anonymous_args = 0
 1524 0000 90B5     		push	{r4, r7, lr}
 1525              		.cfi_def_cfa_offset 12
 1526              		.cfi_offset 4, -12
 1527              		.cfi_offset 7, -8
 1528              		.cfi_offset 14, -4
 1529 0002 83B0     		sub	sp, sp, #12
 1530              		.cfi_def_cfa_offset 24
 1531 0004 00AF     		add	r7, sp, #0
 1532              		.cfi_def_cfa_register 7
 720:ble_process.c **** 	CYBLE_API_RESULT_T  apiResult;
 721:ble_process.c **** 	
 722:ble_process.c **** 	/* If flag has been set to connect to a device... */
 723:ble_process.c **** 	if(clientConnectToDevice)
 1533              		.loc 1 723 0
 1534 0006 1B4B     		ldr	r3, .L66
 1535 0008 1B78     		ldrb	r3, [r3]
 1536 000a 002B     		cmp	r3, #0
 1537 000c 2ED0     		beq	.L65
 724:ble_process.c **** 	{
 725:ble_process.c **** 		/* Process pending BLE events */
 726:ble_process.c **** 		CyBle_ProcessEvents();
 1538              		.loc 1 726 0
 1539 000e FFF7FEFF 		bl	CyBle_ProcessEvents
 727:ble_process.c **** 			
 728:ble_process.c **** 		#if 0
 729:ble_process.c **** 		if(CYBLE_STATE_SCANNING == CyBle_GetState())
 730:ble_process.c **** 		{
 731:ble_process.c **** 			CyBle_GapcStopScan();
 732:ble_process.c **** 			#ifdef DEBUG_ENABLED
 733:ble_process.c **** 				UART_UartPutString("Stop Scan called from clientConnectToDevice ");
 734:ble_process.c **** 				SendBLEStatetoUART(CyBle_GetState());
 735:ble_process.c **** 				UART_UartPutCRLF(' ');
 736:ble_process.c **** 			#endif
 737:ble_process.c **** 			CyBle_ProcessEvents();
 738:ble_process.c **** 		}
 739:ble_process.c **** 		#endif
 740:ble_process.c **** 			
 741:ble_process.c **** 		if(CYBLE_STATE_DISCONNECTED == CyBle_GetState())
 1540              		.loc 1 741 0
 1541 0012 194B     		ldr	r3, .L66+4
 1542 0014 1B78     		ldrb	r3, [r3]
 1543 0016 062B     		cmp	r3, #6
 1544 0018 28D1     		bne	.L65
 742:ble_process.c **** 		{
ARM GAS  C:\Users\ASUS\AppData\Local\Temp\ccKl44WS.s 			page 47


 743:ble_process.c **** 			/* Reset the flag to connect to a device*/
 744:ble_process.c **** 			clientConnectToDevice = FALSE;
 1545              		.loc 1 744 0
 1546 001a 164B     		ldr	r3, .L66
 1547 001c 0022     		movs	r2, #0
 1548 001e 1A70     		strb	r2, [r3]
 745:ble_process.c **** 
 746:ble_process.c **** 			/* Connect to the device whose address has been saved as part of 
 747:ble_process.c **** 			* potential node search */
 748:ble_process.c **** 			apiResult = CyBle_GapcConnectDevice(&peripAddr);
 1549              		.loc 1 748 0
 1550 0020 BC1D     		adds	r4, r7, #6
 1551 0022 164B     		ldr	r3, .L66+8
 1552 0024 1800     		movs	r0, r3
 1553 0026 FFF7FEFF 		bl	CyBle_GapcConnectDevice
 1554 002a 0300     		movs	r3, r0
 1555 002c 2380     		strh	r3, [r4]
 749:ble_process.c **** 			
 750:ble_process.c **** 			if(apiResult != CYBLE_ERROR_OK)
 1556              		.loc 1 750 0
 1557 002e BB1D     		adds	r3, r7, #6
 1558 0030 1B88     		ldrh	r3, [r3]
 1559 0032 002B     		cmp	r3, #0
 1560 0034 0CD0     		beq	.L63
 751:ble_process.c **** 			{
 752:ble_process.c **** 				#ifdef DEBUG_ENABLED
 753:ble_process.c **** 					UART_UartPutString("Connect Request failed ");
 1561              		.loc 1 753 0
 1562 0036 124B     		ldr	r3, .L66+12
 1563 0038 1800     		movs	r0, r3
 1564 003a FFF7FEFF 		bl	UART_UartPutString
 754:ble_process.c **** 					SendBLEStatetoUART(CyBle_GetState());
 1565              		.loc 1 754 0
 1566 003e 0E4B     		ldr	r3, .L66+4
 1567 0040 1B78     		ldrb	r3, [r3]
 1568 0042 1800     		movs	r0, r3
 1569 0044 FFF7FEFF 		bl	SendBLEStatetoUART
 755:ble_process.c **** 					UART_UartPutCRLF(' ');
 1570              		.loc 1 755 0
 1571 0048 2020     		movs	r0, #32
 1572 004a FFF7FEFF 		bl	UART_UartPutCRLF
 1573 004e 0BE0     		b	.L64
 1574              	.L63:
 756:ble_process.c **** 				#endif
 757:ble_process.c **** 			}
 758:ble_process.c **** 			else
 759:ble_process.c **** 			{
 760:ble_process.c **** 				#ifdef DEBUG_ENABLED
 761:ble_process.c **** 					UART_UartPutString("Connect Request Sent ");
 1575              		.loc 1 761 0
 1576 0050 0C4B     		ldr	r3, .L66+16
 1577 0052 1800     		movs	r0, r3
 1578 0054 FFF7FEFF 		bl	UART_UartPutString
 762:ble_process.c **** 					SendBLEStatetoUART(CyBle_GetState());
 1579              		.loc 1 762 0
 1580 0058 074B     		ldr	r3, .L66+4
 1581 005a 1B78     		ldrb	r3, [r3]
ARM GAS  C:\Users\ASUS\AppData\Local\Temp\ccKl44WS.s 			page 48


 1582 005c 1800     		movs	r0, r3
 1583 005e FFF7FEFF 		bl	SendBLEStatetoUART
 763:ble_process.c **** 					UART_UartPutCRLF(' ');
 1584              		.loc 1 763 0
 1585 0062 2020     		movs	r0, #32
 1586 0064 FFF7FEFF 		bl	UART_UartPutCRLF
 1587              	.L64:
 764:ble_process.c **** 				#endif	
 765:ble_process.c **** 			}
 766:ble_process.c **** 		
 767:ble_process.c **** 			/* Process pending BLE events */
 768:ble_process.c **** 			CyBle_ProcessEvents();
 1588              		.loc 1 768 0
 1589 0068 FFF7FEFF 		bl	CyBle_ProcessEvents
 1590              	.L65:
 769:ble_process.c **** 		}
 770:ble_process.c **** 	}
 771:ble_process.c **** }
 1591              		.loc 1 771 0
 1592 006c C046     		nop
 1593 006e BD46     		mov	sp, r7
 1594 0070 03B0     		add	sp, sp, #12
 1595              		@ sp needed
 1596 0072 90BD     		pop	{r4, r7, pc}
 1597              	.L67:
 1598              		.align	2
 1599              	.L66:
 1600 0074 00000000 		.word	clientConnectToDevice
 1601 0078 00000000 		.word	cyBle_state
 1602 007c 00000000 		.word	peripAddr
 1603 0080 94030000 		.word	.LC88
 1604 0084 AC030000 		.word	.LC90
 1605              		.cfi_endproc
 1606              	.LFE38:
 1607              		.size	ConnectToPeripheralDevice, .-ConnectToPeripheralDevice
 1608              		.section	.rodata
 1609 03c2 0000     		.align	2
 1610              	.LC97:
 1611 03c4 73776974 		.ascii	"switchRole from restartScanning loop \000"
 1611      6368526F 
 1611      6C652066 
 1611      726F6D20 
 1611      72657374 
 1612 03ea 0000     		.align	2
 1613              	.LC100:
 1614 03ec 72657374 		.ascii	"restartScanning loop \000"
 1614      61727453 
 1614      63616E6E 
 1614      696E6720 
 1614      6C6F6F70 
 1615 0402 0000     		.align	2
 1616              	.LC102:
 1617 0404 53746172 		.ascii	"Start Scan from restartScanning loop \000"
 1617      74205363 
 1617      616E2066 
 1617      726F6D20 
 1617      72657374 
ARM GAS  C:\Users\ASUS\AppData\Local\Temp\ccKl44WS.s 			page 49


 1618              		.section	.text.RestartCentralScanning,"ax",%progbits
 1619              		.align	2
 1620              		.global	RestartCentralScanning
 1621              		.code	16
 1622              		.thumb_func
 1623              		.type	RestartCentralScanning, %function
 1624              	RestartCentralScanning:
 1625              	.LFB39:
 772:ble_process.c **** 
 773:ble_process.c **** /*******************************************************************************
 774:ble_process.c **** * Function Name: RestartCentralScanning
 775:ble_process.c **** ********************************************************************************
 776:ble_process.c **** * Summary:
 777:ble_process.c **** *        Restarts Central scanning. Also, if the time that the device has remained
 778:ble_process.c **** * in Central role exceeds pre-determined value, then the switch role flag is set.
 779:ble_process.c **** *
 780:ble_process.c **** * Parameters:
 781:ble_process.c **** *  void
 782:ble_process.c **** *
 783:ble_process.c **** * Return:
 784:ble_process.c **** *  void
 785:ble_process.c **** *
 786:ble_process.c **** *******************************************************************************/
 787:ble_process.c **** void RestartCentralScanning(void)
 788:ble_process.c **** {
 1626              		.loc 1 788 0
 1627              		.cfi_startproc
 1628              		@ args = 0, pretend = 0, frame = 0
 1629              		@ frame_needed = 1, uses_anonymous_args = 0
 1630 0000 80B5     		push	{r7, lr}
 1631              		.cfi_def_cfa_offset 8
 1632              		.cfi_offset 7, -8
 1633              		.cfi_offset 14, -4
 1634 0002 00AF     		add	r7, sp, #0
 1635              		.cfi_def_cfa_register 7
 789:ble_process.c **** 	/* If the current role is Central and the Central time has exceeded the preset time,
 790:ble_process.c **** 	* then set the flag to switch role to Peripheral */
 791:ble_process.c **** 	if((BLE_CENTRAL == ble_gap_state) && 
 1636              		.loc 1 791 0
 1637 0004 214B     		ldr	r3, .L72
 1638 0006 1B78     		ldrb	r3, [r3]
 1639 0008 022B     		cmp	r3, #2
 1640 000a 1CD1     		bne	.L69
 792:ble_process.c **** 		(WatchDog_CurrentCount() - centralStartedTime > CENTRAL_STATE_SPAN) &&
 1641              		.loc 1 792 0 discriminator 1
 1642 000c 204B     		ldr	r3, .L72+4
 1643 000e 1B88     		ldrh	r3, [r3]
 1644 0010 9BB2     		uxth	r3, r3
 1645 0012 1A00     		movs	r2, r3
 1646 0014 1F4B     		ldr	r3, .L72+8
 1647 0016 1B88     		ldrh	r3, [r3]
 1648 0018 9BB2     		uxth	r3, r3
 1649 001a D31A     		subs	r3, r2, r3
 791:ble_process.c **** 		(WatchDog_CurrentCount() - centralStartedTime > CENTRAL_STATE_SPAN) &&
 1650              		.loc 1 791 0 discriminator 1
 1651 001c 2D2B     		cmp	r3, #45
 1652 001e 12DD     		ble	.L69
ARM GAS  C:\Users\ASUS\AppData\Local\Temp\ccKl44WS.s 			page 50


 793:ble_process.c **** 		((CYBLE_STATE_DISCONNECTED == CyBle_GetState()) || (CYBLE_STATE_SCANNING == CyBle_GetState())))
 1653              		.loc 1 793 0
 1654 0020 1D4B     		ldr	r3, .L72+12
 1655 0022 1B78     		ldrb	r3, [r3]
 792:ble_process.c **** 		(WatchDog_CurrentCount() - centralStartedTime > CENTRAL_STATE_SPAN) &&
 1656              		.loc 1 792 0
 1657 0024 062B     		cmp	r3, #6
 1658 0026 03D0     		beq	.L70
 1659              		.loc 1 793 0
 1660 0028 1B4B     		ldr	r3, .L72+12
 1661 002a 1B78     		ldrb	r3, [r3]
 1662 002c 042B     		cmp	r3, #4
 1663 002e 0AD1     		bne	.L69
 1664              	.L70:
 794:ble_process.c **** 	{
 795:ble_process.c **** 		/* Switch role flag set */
 796:ble_process.c **** 		switch_Role = TRUE;
 1665              		.loc 1 796 0
 1666 0030 1A4B     		ldr	r3, .L72+16
 1667 0032 0122     		movs	r2, #1
 1668 0034 1A70     		strb	r2, [r3]
 797:ble_process.c **** 		#ifdef DEBUG_ENABLED
 798:ble_process.c **** 		UART_UartPutString("switchRole from restartScanning loop ");
 1669              		.loc 1 798 0
 1670 0036 1A4B     		ldr	r3, .L72+20
 1671 0038 1800     		movs	r0, r3
 1672 003a FFF7FEFF 		bl	UART_UartPutString
 799:ble_process.c **** 		UART_UartPutCRLF(' ');
 1673              		.loc 1 799 0
 1674 003e 2020     		movs	r0, #32
 1675 0040 FFF7FEFF 		bl	UART_UartPutCRLF
 800:ble_process.c **** 		#endif
 801:ble_process.c **** 		
 802:ble_process.c **** 		return;
 1676              		.loc 1 802 0
 1677 0044 1FE0     		b	.L68
 1678              	.L69:
 803:ble_process.c **** 	}
 804:ble_process.c **** 			
 805:ble_process.c **** 	/* If restart scanning flag is set, the restart the Central scanning */
 806:ble_process.c **** 	if(restartScanning)
 1679              		.loc 1 806 0
 1680 0046 174B     		ldr	r3, .L72+24
 1681 0048 1B78     		ldrb	r3, [r3]
 1682 004a 002B     		cmp	r3, #0
 1683 004c 1BD0     		beq	.L68
 807:ble_process.c **** 	{
 808:ble_process.c **** 		/* Process pending BLE events */
 809:ble_process.c **** 		CyBle_ProcessEvents();
 1684              		.loc 1 809 0
 1685 004e FFF7FEFF 		bl	CyBle_ProcessEvents
 810:ble_process.c **** 		if(CYBLE_STATE_DISCONNECTED == CyBle_GetState())
 1686              		.loc 1 810 0
 1687 0052 114B     		ldr	r3, .L72+12
 1688 0054 1B78     		ldrb	r3, [r3]
 1689 0056 062B     		cmp	r3, #6
 1690 0058 15D1     		bne	.L68
ARM GAS  C:\Users\ASUS\AppData\Local\Temp\ccKl44WS.s 			page 51


 811:ble_process.c **** 		{
 812:ble_process.c **** 			/* Reset the restart scanning flag */
 813:ble_process.c **** 			restartScanning = FALSE;
 1691              		.loc 1 813 0
 1692 005a 124B     		ldr	r3, .L72+24
 1693 005c 0022     		movs	r2, #0
 1694 005e 1A70     		strb	r2, [r3]
 814:ble_process.c **** 			#ifdef DEBUG_ENABLED
 815:ble_process.c **** 			UART_UartPutString("restartScanning loop ");
 1695              		.loc 1 815 0
 1696 0060 114B     		ldr	r3, .L72+28
 1697 0062 1800     		movs	r0, r3
 1698 0064 FFF7FEFF 		bl	UART_UartPutString
 816:ble_process.c **** 			UART_UartPutCRLF(' ');
 1699              		.loc 1 816 0
 1700 0068 2020     		movs	r0, #32
 1701 006a FFF7FEFF 		bl	UART_UartPutCRLF
 817:ble_process.c **** 			#endif
 818:ble_process.c **** 			
 819:ble_process.c **** 			/* Start Central scan and process the event */
 820:ble_process.c **** 			CyBle_GapcStartScan(CYBLE_SCANNING_FAST);
 1702              		.loc 1 820 0
 1703 006e 0020     		movs	r0, #0
 1704 0070 FFF7FEFF 		bl	CyBle_GapcStartScan
 821:ble_process.c **** 			CyBle_ProcessEvents();
 1705              		.loc 1 821 0
 1706 0074 FFF7FEFF 		bl	CyBle_ProcessEvents
 822:ble_process.c **** 			
 823:ble_process.c **** 			#ifdef DEBUG_ENABLED
 824:ble_process.c **** 			UART_UartPutString("Start Scan from restartScanning loop ");
 1707              		.loc 1 824 0
 1708 0078 0C4B     		ldr	r3, .L72+32
 1709 007a 1800     		movs	r0, r3
 1710 007c FFF7FEFF 		bl	UART_UartPutString
 825:ble_process.c **** 			UART_UartPutCRLF(' ');
 1711              		.loc 1 825 0
 1712 0080 2020     		movs	r0, #32
 1713 0082 FFF7FEFF 		bl	UART_UartPutCRLF
 1714              	.L68:
 826:ble_process.c **** 			#endif
 827:ble_process.c **** 		}
 828:ble_process.c **** 	}
 829:ble_process.c **** }	
 1715              		.loc 1 829 0
 1716 0086 BD46     		mov	sp, r7
 1717              		@ sp needed
 1718 0088 80BD     		pop	{r7, pc}
 1719              	.L73:
 1720 008a C046     		.align	2
 1721              	.L72:
 1722 008c 00000000 		.word	ble_gap_state
 1723 0090 00000000 		.word	current_watchdog_counter
 1724 0094 00000000 		.word	centralStartedTime
 1725 0098 00000000 		.word	cyBle_state
 1726 009c 00000000 		.word	switch_Role
 1727 00a0 C4030000 		.word	.LC97
 1728 00a4 00000000 		.word	restartScanning
ARM GAS  C:\Users\ASUS\AppData\Local\Temp\ccKl44WS.s 			page 52


 1729 00a8 EC030000 		.word	.LC100
 1730 00ac 04040000 		.word	.LC102
 1731              		.cfi_endproc
 1732              	.LFE39:
 1733              		.size	RestartCentralScanning, .-RestartCentralScanning
 1734              		.section	.text.SendErrorCode,"ax",%progbits
 1735              		.align	2
 1736              		.global	SendErrorCode
 1737              		.code	16
 1738              		.thumb_func
 1739              		.type	SendErrorCode, %function
 1740              	SendErrorCode:
 1741              	.LFB40:
 830:ble_process.c **** 
 831:ble_process.c **** /*******************************************************************************
 832:ble_process.c **** * Function Name: SendErrorCode
 833:ble_process.c **** ********************************************************************************
 834:ble_process.c **** * Summary:
 835:ble_process.c **** *        Send Error code at GATT Layer
 836:ble_process.c **** *
 837:ble_process.c **** * Parameters:
 838:ble_process.c **** *  uint8 opCode, 
 839:ble_process.c **** *  CYBLE_GATT_DB_ATTR_HANDLE_T  attrHandle, 
 840:ble_process.c **** *  CYBLE_GATT_ERR_CODE_T errorCode
 841:ble_process.c **** *
 842:ble_process.c **** * Return:
 843:ble_process.c **** *  void
 844:ble_process.c **** *
 845:ble_process.c **** *******************************************************************************/
 846:ble_process.c **** void SendErrorCode(uint8 opCode, CYBLE_GATT_DB_ATTR_HANDLE_T  attrHandle, CYBLE_GATT_ERR_CODE_T err
 847:ble_process.c **** {
 1742              		.loc 1 847 0
 1743              		.cfi_startproc
 1744              		@ args = 0, pretend = 0, frame = 16
 1745              		@ frame_needed = 1, uses_anonymous_args = 0
 1746 0000 90B5     		push	{r4, r7, lr}
 1747              		.cfi_def_cfa_offset 12
 1748              		.cfi_offset 4, -12
 1749              		.cfi_offset 7, -8
 1750              		.cfi_offset 14, -4
 1751 0002 85B0     		sub	sp, sp, #20
 1752              		.cfi_def_cfa_offset 32
 1753 0004 00AF     		add	r7, sp, #0
 1754              		.cfi_def_cfa_register 7
 1755 0006 0400     		movs	r4, r0
 1756 0008 0800     		movs	r0, r1
 1757 000a 1100     		movs	r1, r2
 1758 000c FB1D     		adds	r3, r7, #7
 1759 000e 221C     		adds	r2, r4, #0
 1760 0010 1A70     		strb	r2, [r3]
 1761 0012 3B1D     		adds	r3, r7, #4
 1762 0014 021C     		adds	r2, r0, #0
 1763 0016 1A80     		strh	r2, [r3]
 1764 0018 BB1D     		adds	r3, r7, #6
 1765 001a 0A1C     		adds	r2, r1, #0
 1766 001c 1A70     		strb	r2, [r3]
 848:ble_process.c **** 	CYBLE_GATTS_ERR_PARAM_T err_param;
ARM GAS  C:\Users\ASUS\AppData\Local\Temp\ccKl44WS.s 			page 53


 849:ble_process.c **** 		            
 850:ble_process.c ****     err_param.opcode = opCode;
 1767              		.loc 1 850 0
 1768 001e 0C23     		movs	r3, #12
 1769 0020 FB18     		adds	r3, r7, r3
 1770 0022 FA1D     		adds	r2, r7, #7
 1771 0024 1278     		ldrb	r2, [r2]
 1772 0026 9A70     		strb	r2, [r3, #2]
 851:ble_process.c ****     err_param.attrHandle = attrHandle;
 1773              		.loc 1 851 0
 1774 0028 0C23     		movs	r3, #12
 1775 002a FB18     		adds	r3, r7, r3
 1776 002c 3A1D     		adds	r2, r7, #4
 1777 002e 1288     		ldrh	r2, [r2]
 1778 0030 1A80     		strh	r2, [r3]
 852:ble_process.c ****     err_param.errorCode = errorCode;
 1779              		.loc 1 852 0
 1780 0032 0C23     		movs	r3, #12
 1781 0034 FB18     		adds	r3, r7, r3
 1782 0036 BA1D     		adds	r2, r7, #6
 1783 0038 1278     		ldrb	r2, [r2]
 1784 003a DA70     		strb	r2, [r3, #3]
 853:ble_process.c **** 
 854:ble_process.c ****     /* Send Error Response */
 855:ble_process.c ****     (void)CyBle_GattsErrorRsp(cyBle_connHandle, &err_param);
 1785              		.loc 1 855 0
 1786 003c 0C23     		movs	r3, #12
 1787 003e F918     		adds	r1, r7, r3
 1788 0040 084B     		ldr	r3, .L75
 1789 0042 1A78     		ldrb	r2, [r3]
 1790 0044 5B78     		ldrb	r3, [r3, #1]
 1791 0046 1B02     		lsls	r3, r3, #8
 1792 0048 1A43     		orrs	r2, r3
 1793 004a 0023     		movs	r3, #0
 1794 004c 1204     		lsls	r2, r2, #16
 1795 004e 120C     		lsrs	r2, r2, #16
 1796 0050 1B0C     		lsrs	r3, r3, #16
 1797 0052 1B04     		lsls	r3, r3, #16
 1798 0054 1343     		orrs	r3, r2
 1799 0056 1800     		movs	r0, r3
 1800 0058 FFF7FEFF 		bl	CyBle_GattsErrorRsp
 856:ble_process.c **** }
 1801              		.loc 1 856 0
 1802 005c C046     		nop
 1803 005e BD46     		mov	sp, r7
 1804 0060 05B0     		add	sp, sp, #20
 1805              		@ sp needed
 1806 0062 90BD     		pop	{r4, r7, pc}
 1807              	.L76:
 1808              		.align	2
 1809              	.L75:
 1810 0064 00000000 		.word	cyBle_connHandle
 1811              		.cfi_endproc
 1812              	.LFE40:
 1813              		.size	SendErrorCode, .-SendErrorCode
 1814              		.section	.text.sendColorDataToNetwork,"ax",%progbits
 1815              		.align	2
ARM GAS  C:\Users\ASUS\AppData\Local\Temp\ccKl44WS.s 			page 54


 1816              		.global	sendColorDataToNetwork
 1817              		.code	16
 1818              		.thumb_func
 1819              		.type	sendColorDataToNetwork, %function
 1820              	sendColorDataToNetwork:
 1821              	.LFB41:
 857:ble_process.c **** /* [] END OF FILE */
 858:ble_process.c **** 
 859:ble_process.c **** 
 860:ble_process.c **** void sendColorDataToNetwork(uint8 RGB_Collection[4]) {
 1822              		.loc 1 860 0
 1823              		.cfi_startproc
 1824              		@ args = 0, pretend = 0, frame = 24
 1825              		@ frame_needed = 1, uses_anonymous_args = 0
 1826 0000 80B5     		push	{r7, lr}
 1827              		.cfi_def_cfa_offset 8
 1828              		.cfi_offset 7, -8
 1829              		.cfi_offset 14, -4
 1830 0002 86B0     		sub	sp, sp, #24
 1831              		.cfi_def_cfa_offset 32
 1832 0004 00AF     		add	r7, sp, #0
 1833              		.cfi_def_cfa_register 7
 1834 0006 7860     		str	r0, [r7, #4]
 861:ble_process.c ****     RGBData[RGB_RED_INDEX] = RGB_Collection[0];
 1835              		.loc 1 861 0
 1836 0008 7B68     		ldr	r3, [r7, #4]
 1837 000a 1A78     		ldrb	r2, [r3]
 1838 000c 1F4B     		ldr	r3, .L78
 1839 000e 1A70     		strb	r2, [r3]
 862:ble_process.c ****     RGBData[RGB_BLUE_INDEX] = RGB_Collection[1];
 1840              		.loc 1 862 0
 1841 0010 7B68     		ldr	r3, [r7, #4]
 1842 0012 5A78     		ldrb	r2, [r3, #1]
 1843 0014 1D4B     		ldr	r3, .L78
 1844 0016 9A70     		strb	r2, [r3, #2]
 863:ble_process.c ****     RGBData[RGB_GREEN_INDEX] = RGB_Collection[2];
 1845              		.loc 1 863 0
 1846 0018 7B68     		ldr	r3, [r7, #4]
 1847 001a 9A78     		ldrb	r2, [r3, #2]
 1848 001c 1B4B     		ldr	r3, .L78
 1849 001e 5A70     		strb	r2, [r3, #1]
 864:ble_process.c ****     RGBData[RGB_INTENSITY_INDEX] = RGB_Collection[3];
 1850              		.loc 1 864 0
 1851 0020 7B68     		ldr	r3, [r7, #4]
 1852 0022 DA78     		ldrb	r2, [r3, #3]
 1853 0024 194B     		ldr	r3, .L78
 1854 0026 DA70     		strb	r2, [r3, #3]
 865:ble_process.c ****     
 866:ble_process.c **** 	/* Modify RGB Color my configuring the PrISM components with new density 
 867:ble_process.c **** 	* value*/
 868:ble_process.c **** 	UpdateRGBled(RGBData, RGB_LED_DATA_LEN);
 1855              		.loc 1 868 0
 1856 0028 184B     		ldr	r3, .L78
 1857 002a 0521     		movs	r1, #5
 1858 002c 1800     		movs	r0, r3
 1859 002e FFF7FEFF 		bl	UpdateRGBled
 869:ble_process.c ****     
ARM GAS  C:\Users\ASUS\AppData\Local\Temp\ccKl44WS.s 			page 55


 870:ble_process.c **** 	/* Update the RGB LED Control characteristic in GATT DB to allow
 871:ble_process.c **** 	* Client to read the latest RGB LED color value set */
 872:ble_process.c ****     CYBLE_GATT_HANDLE_VALUE_PAIR_T value_pair;
 873:ble_process.c ****     value_pair.attrHandle = CYBLE_RGB_LED_CONTROL_CHAR_HANDLE;
 1860              		.loc 1 873 0
 1861 0032 0C23     		movs	r3, #12
 1862 0034 FB18     		adds	r3, r7, r3
 1863 0036 0E22     		movs	r2, #14
 1864 0038 1A81     		strh	r2, [r3, #8]
 874:ble_process.c ****     value_pair.value.val = RGB_Collection;
 1865              		.loc 1 874 0
 1866 003a 0C23     		movs	r3, #12
 1867 003c FB18     		adds	r3, r7, r3
 1868 003e 7A68     		ldr	r2, [r7, #4]
 1869 0040 1A60     		str	r2, [r3]
 875:ble_process.c ****     value_pair.value.len = RGB_LED_DATA_LEN;
 1870              		.loc 1 875 0
 1871 0042 0C23     		movs	r3, #12
 1872 0044 FB18     		adds	r3, r7, r3
 1873 0046 0522     		movs	r2, #5
 1874 0048 9A80     		strh	r2, [r3, #4]
 876:ble_process.c **** 	CyBle_GattsWriteAttributeValue(&value_pair, 0, &cyBle_connHandle, CYBLE_GATT_DB_LOCALLY_INITIATED)
 1875              		.loc 1 876 0
 1876 004a 114A     		ldr	r2, .L78+4
 1877 004c 0C23     		movs	r3, #12
 1878 004e F818     		adds	r0, r7, r3
 1879 0050 0023     		movs	r3, #0
 1880 0052 0021     		movs	r1, #0
 1881 0054 FFF7FEFF 		bl	CyBle_GattsWriteAttributeValue
 877:ble_process.c **** 	//CyBle_GattcWriteCharacteristicValue(cyBle_connHandle, &value_pair);
 878:ble_process.c **** 	
 879:ble_process.c **** 	/* After receiveing the color value, set the switch role flag to allow the system
 880:ble_process.c **** 	* to switch role to Central role */
 881:ble_process.c **** 	switch_Role = TRUE;
 1882              		.loc 1 881 0
 1883 0058 0E4B     		ldr	r3, .L78+8
 1884 005a 0122     		movs	r2, #1
 1885 005c 1A70     		strb	r2, [r3]
 882:ble_process.c ****     
 883:ble_process.c ****     #ifdef ENABLE_ADV_DATA_COUNTER
 884:ble_process.c ****     /* Increment the ADV data counter so that scanning Central device knows
 885:ble_process.c ****     * if this device has updated RGB LED data or not */
 886:ble_process.c ****     dataADVCounter++;
 1886              		.loc 1 886 0
 1887 005e 0E4B     		ldr	r3, .L78+12
 1888 0060 1B78     		ldrb	r3, [r3]
 1889 0062 0133     		adds	r3, r3, #1
 1890 0064 DAB2     		uxtb	r2, r3
 1891 0066 0C4B     		ldr	r3, .L78+12
 1892 0068 1A70     		strb	r2, [r3]
 887:ble_process.c ****     #endif
 888:ble_process.c **** 
 889:ble_process.c ****     #ifdef DEBUG_ENABLED
 890:ble_process.c ****     UART_UartPutString("incremented dataADVCounter value in CYBLE_EVT_GATTS_WRITE_REQ= ");
 1893              		.loc 1 890 0
 1894 006a 0C4B     		ldr	r3, .L78+16
 1895 006c 1800     		movs	r0, r3
ARM GAS  C:\Users\ASUS\AppData\Local\Temp\ccKl44WS.s 			page 56


 1896 006e FFF7FEFF 		bl	UART_UartPutString
 891:ble_process.c ****     PrintNum(dataADVCounter);
 1897              		.loc 1 891 0
 1898 0072 094B     		ldr	r3, .L78+12
 1899 0074 1B78     		ldrb	r3, [r3]
 1900 0076 1800     		movs	r0, r3
 1901 0078 FFF7FEFF 		bl	PrintNum
 892:ble_process.c ****     UART_UartPutCRLF(' ');
 1902              		.loc 1 892 0
 1903 007c 2020     		movs	r0, #32
 1904 007e FFF7FEFF 		bl	UART_UartPutCRLF
 893:ble_process.c ****     #endif
 894:ble_process.c **** }
 1905              		.loc 1 894 0
 1906 0082 C046     		nop
 1907 0084 BD46     		mov	sp, r7
 1908 0086 06B0     		add	sp, sp, #24
 1909              		@ sp needed
 1910 0088 80BD     		pop	{r7, pc}
 1911              	.L79:
 1912 008a C046     		.align	2
 1913              	.L78:
 1914 008c 00000000 		.word	RGBData
 1915 0090 00000000 		.word	cyBle_connHandle
 1916 0094 00000000 		.word	switch_Role
 1917 0098 00000000 		.word	dataADVCounter
 1918 009c 10010000 		.word	.LC24
 1919              		.cfi_endproc
 1920              	.LFE41:
 1921              		.size	sendColorDataToNetwork, .-sendColorDataToNetwork
 1922              		.text
 1923              	.Letext0:
 1924              		.file 2 "Generated_Source\\PSoC4/cytypes.h"
 1925              		.file 3 "Generated_Source\\PSoC4/BLE_Stack.h"
 1926              		.file 4 "Generated_Source\\PSoC4/BLE_StackGap.h"
 1927              		.file 5 "Generated_Source\\PSoC4/BLE_StackGatt.h"
 1928              		.file 6 "Generated_Source\\PSoC4/BLE_StackGattServer.h"
 1929              		.file 7 "Generated_Source\\PSoC4/BLE_StackGattClient.h"
 1930              		.file 8 "Generated_Source\\PSoC4/BLE_eventHandler.h"
 1931              		.file 9 "Generated_Source\\PSoC4/BLE.h"
 1932              		.file 10 "./main.h"
 1933              		.section	.debug_info,"",%progbits
 1934              	.Ldebug_info0:
 1935 0000 C4140000 		.4byte	0x14c4
 1936 0004 0400     		.2byte	0x4
 1937 0006 00000000 		.4byte	.Ldebug_abbrev0
 1938 000a 04       		.byte	0x4
 1939 000b 01       		.uleb128 0x1
 1940 000c 3E0E0000 		.4byte	.LASF612
 1941 0010 0C       		.byte	0xc
 1942 0011 9E020000 		.4byte	.LASF613
 1943 0015 8A210000 		.4byte	.LASF614
 1944 0019 00000000 		.4byte	.Ldebug_ranges0+0
 1945 001d 00000000 		.4byte	0
 1946 0021 00000000 		.4byte	.Ldebug_line0
 1947 0025 02       		.uleb128 0x2
 1948 0026 01       		.byte	0x1
ARM GAS  C:\Users\ASUS\AppData\Local\Temp\ccKl44WS.s 			page 57


 1949 0027 06       		.byte	0x6
 1950 0028 EB250000 		.4byte	.LASF0
 1951 002c 02       		.uleb128 0x2
 1952 002d 01       		.byte	0x1
 1953 002e 08       		.byte	0x8
 1954 002f F60E0000 		.4byte	.LASF1
 1955 0033 02       		.uleb128 0x2
 1956 0034 02       		.byte	0x2
 1957 0035 05       		.byte	0x5
 1958 0036 DF450000 		.4byte	.LASF2
 1959 003a 02       		.uleb128 0x2
 1960 003b 02       		.byte	0x2
 1961 003c 07       		.byte	0x7
 1962 003d BE250000 		.4byte	.LASF3
 1963 0041 02       		.uleb128 0x2
 1964 0042 04       		.byte	0x4
 1965 0043 05       		.byte	0x5
 1966 0044 692A0000 		.4byte	.LASF4
 1967 0048 02       		.uleb128 0x2
 1968 0049 04       		.byte	0x4
 1969 004a 07       		.byte	0x7
 1970 004b 832E0000 		.4byte	.LASF5
 1971 004f 02       		.uleb128 0x2
 1972 0050 08       		.byte	0x8
 1973 0051 05       		.byte	0x5
 1974 0052 70400000 		.4byte	.LASF6
 1975 0056 02       		.uleb128 0x2
 1976 0057 08       		.byte	0x8
 1977 0058 07       		.byte	0x7
 1978 0059 453B0000 		.4byte	.LASF7
 1979 005d 03       		.uleb128 0x3
 1980 005e 04       		.byte	0x4
 1981 005f 05       		.byte	0x5
 1982 0060 696E7400 		.ascii	"int\000"
 1983 0064 02       		.uleb128 0x2
 1984 0065 04       		.byte	0x4
 1985 0066 07       		.byte	0x7
 1986 0067 65450000 		.4byte	.LASF8
 1987 006b 04       		.uleb128 0x4
 1988 006c 56080000 		.4byte	.LASF9
 1989 0070 02       		.byte	0x2
 1990 0071 E601     		.2byte	0x1e6
 1991 0073 2C000000 		.4byte	0x2c
 1992 0077 04       		.uleb128 0x4
 1993 0078 0E2E0000 		.4byte	.LASF10
 1994 007c 02       		.byte	0x2
 1995 007d E701     		.2byte	0x1e7
 1996 007f 3A000000 		.4byte	0x3a
 1997 0083 04       		.uleb128 0x4
 1998 0084 5D300000 		.4byte	.LASF11
 1999 0088 02       		.byte	0x2
 2000 0089 E801     		.2byte	0x1e8
 2001 008b 48000000 		.4byte	0x48
 2002 008f 04       		.uleb128 0x4
 2003 0090 E21E0000 		.4byte	.LASF12
 2004 0094 02       		.byte	0x2
 2005 0095 E901     		.2byte	0x1e9
ARM GAS  C:\Users\ASUS\AppData\Local\Temp\ccKl44WS.s 			page 58


 2006 0097 25000000 		.4byte	0x25
 2007 009b 02       		.uleb128 0x2
 2008 009c 04       		.byte	0x4
 2009 009d 04       		.byte	0x4
 2010 009e 920F0000 		.4byte	.LASF13
 2011 00a2 02       		.uleb128 0x2
 2012 00a3 08       		.byte	0x8
 2013 00a4 04       		.byte	0x4
 2014 00a5 E9350000 		.4byte	.LASF14
 2015 00a9 02       		.uleb128 0x2
 2016 00aa 01       		.byte	0x1
 2017 00ab 08       		.byte	0x8
 2018 00ac 9A2F0000 		.4byte	.LASF15
 2019 00b0 05       		.uleb128 0x5
 2020 00b1 77000000 		.4byte	0x77
 2021 00b5 02       		.uleb128 0x2
 2022 00b6 08       		.byte	0x8
 2023 00b7 04       		.byte	0x4
 2024 00b8 AC2D0000 		.4byte	.LASF16
 2025 00bc 02       		.uleb128 0x2
 2026 00bd 04       		.byte	0x4
 2027 00be 07       		.byte	0x7
 2028 00bf 42250000 		.4byte	.LASF17
 2029 00c3 06       		.uleb128 0x6
 2030 00c4 04       		.byte	0x4
 2031 00c5 07       		.uleb128 0x7
 2032 00c6 01       		.byte	0x1
 2033 00c7 2C000000 		.4byte	0x2c
 2034 00cb 03       		.byte	0x3
 2035 00cc 3501     		.2byte	0x135
 2036 00ce 83020000 		.4byte	0x283
 2037 00d2 08       		.uleb128 0x8
 2038 00d3 8D250000 		.4byte	.LASF18
 2039 00d7 00       		.byte	0
 2040 00d8 08       		.uleb128 0x8
 2041 00d9 5C040000 		.4byte	.LASF19
 2042 00dd 01       		.byte	0x1
 2043 00de 08       		.uleb128 0x8
 2044 00df 60150000 		.4byte	.LASF20
 2045 00e3 02       		.byte	0x2
 2046 00e4 08       		.uleb128 0x8
 2047 00e5 AD090000 		.4byte	.LASF21
 2048 00e9 03       		.byte	0x3
 2049 00ea 08       		.uleb128 0x8
 2050 00eb 1B050000 		.4byte	.LASF22
 2051 00ef 04       		.byte	0x4
 2052 00f0 08       		.uleb128 0x8
 2053 00f1 4D2C0000 		.4byte	.LASF23
 2054 00f5 05       		.byte	0x5
 2055 00f6 08       		.uleb128 0x8
 2056 00f7 951B0000 		.4byte	.LASF24
 2057 00fb 06       		.byte	0x6
 2058 00fc 08       		.uleb128 0x8
 2059 00fd 74140000 		.4byte	.LASF25
 2060 0101 20       		.byte	0x20
 2061 0102 08       		.uleb128 0x8
 2062 0103 82110000 		.4byte	.LASF26
ARM GAS  C:\Users\ASUS\AppData\Local\Temp\ccKl44WS.s 			page 59


 2063 0107 21       		.byte	0x21
 2064 0108 08       		.uleb128 0x8
 2065 0109 6C050000 		.4byte	.LASF27
 2066 010d 22       		.byte	0x22
 2067 010e 08       		.uleb128 0x8
 2068 010f 32460000 		.4byte	.LASF28
 2069 0113 23       		.byte	0x23
 2070 0114 08       		.uleb128 0x8
 2071 0115 CB010000 		.4byte	.LASF29
 2072 0119 24       		.byte	0x24
 2073 011a 08       		.uleb128 0x8
 2074 011b A0390000 		.4byte	.LASF30
 2075 011f 25       		.byte	0x25
 2076 0120 08       		.uleb128 0x8
 2077 0121 040F0000 		.4byte	.LASF31
 2078 0125 26       		.byte	0x26
 2079 0126 08       		.uleb128 0x8
 2080 0127 46240000 		.4byte	.LASF32
 2081 012b 27       		.byte	0x27
 2082 012c 08       		.uleb128 0x8
 2083 012d 672D0000 		.4byte	.LASF33
 2084 0131 28       		.byte	0x28
 2085 0132 08       		.uleb128 0x8
 2086 0133 29240000 		.4byte	.LASF34
 2087 0137 29       		.byte	0x29
 2088 0138 08       		.uleb128 0x8
 2089 0139 F93C0000 		.4byte	.LASF35
 2090 013d 2A       		.byte	0x2a
 2091 013e 08       		.uleb128 0x8
 2092 013f C3400000 		.4byte	.LASF36
 2093 0143 2B       		.byte	0x2b
 2094 0144 08       		.uleb128 0x8
 2095 0145 402B0000 		.4byte	.LASF37
 2096 0149 2C       		.byte	0x2c
 2097 014a 08       		.uleb128 0x8
 2098 014b AA3F0000 		.4byte	.LASF38
 2099 014f 2D       		.byte	0x2d
 2100 0150 08       		.uleb128 0x8
 2101 0151 03290000 		.4byte	.LASF39
 2102 0155 2E       		.byte	0x2e
 2103 0156 08       		.uleb128 0x8
 2104 0157 A9430000 		.4byte	.LASF40
 2105 015b 2F       		.byte	0x2f
 2106 015c 08       		.uleb128 0x8
 2107 015d 8C190000 		.4byte	.LASF41
 2108 0161 30       		.byte	0x30
 2109 0162 08       		.uleb128 0x8
 2110 0163 72450000 		.4byte	.LASF42
 2111 0167 31       		.byte	0x31
 2112 0168 08       		.uleb128 0x8
 2113 0169 F0070000 		.4byte	.LASF43
 2114 016d 32       		.byte	0x32
 2115 016e 08       		.uleb128 0x8
 2116 016f 0F0C0000 		.4byte	.LASF44
 2117 0173 33       		.byte	0x33
 2118 0174 08       		.uleb128 0x8
 2119 0175 81360000 		.4byte	.LASF45
ARM GAS  C:\Users\ASUS\AppData\Local\Temp\ccKl44WS.s 			page 60


 2120 0179 34       		.byte	0x34
 2121 017a 08       		.uleb128 0x8
 2122 017b 9B3C0000 		.4byte	.LASF46
 2123 017f 35       		.byte	0x35
 2124 0180 08       		.uleb128 0x8
 2125 0181 F53F0000 		.4byte	.LASF47
 2126 0185 36       		.byte	0x36
 2127 0186 08       		.uleb128 0x8
 2128 0187 EA360000 		.4byte	.LASF48
 2129 018b 37       		.byte	0x37
 2130 018c 08       		.uleb128 0x8
 2131 018d BD0D0000 		.4byte	.LASF49
 2132 0191 40       		.byte	0x40
 2133 0192 08       		.uleb128 0x8
 2134 0193 5C360000 		.4byte	.LASF50
 2135 0197 41       		.byte	0x41
 2136 0198 08       		.uleb128 0x8
 2137 0199 7F1E0000 		.4byte	.LASF51
 2138 019d 42       		.byte	0x42
 2139 019e 08       		.uleb128 0x8
 2140 019f 91330000 		.4byte	.LASF52
 2141 01a3 43       		.byte	0x43
 2142 01a4 08       		.uleb128 0x8
 2143 01a5 35060000 		.4byte	.LASF53
 2144 01a9 44       		.byte	0x44
 2145 01aa 08       		.uleb128 0x8
 2146 01ab 8D2C0000 		.4byte	.LASF54
 2147 01af 45       		.byte	0x45
 2148 01b0 08       		.uleb128 0x8
 2149 01b1 83420000 		.4byte	.LASF55
 2150 01b5 46       		.byte	0x46
 2151 01b6 08       		.uleb128 0x8
 2152 01b7 EF0F0000 		.4byte	.LASF56
 2153 01bb 47       		.byte	0x47
 2154 01bc 08       		.uleb128 0x8
 2155 01bd 5F290000 		.4byte	.LASF57
 2156 01c1 48       		.byte	0x48
 2157 01c2 08       		.uleb128 0x8
 2158 01c3 E7060000 		.4byte	.LASF58
 2159 01c7 49       		.byte	0x49
 2160 01c8 08       		.uleb128 0x8
 2161 01c9 311B0000 		.4byte	.LASF59
 2162 01cd 4A       		.byte	0x4a
 2163 01ce 08       		.uleb128 0x8
 2164 01cf 410D0000 		.4byte	.LASF60
 2165 01d3 4B       		.byte	0x4b
 2166 01d4 08       		.uleb128 0x8
 2167 01d5 08420000 		.4byte	.LASF61
 2168 01d9 4C       		.byte	0x4c
 2169 01da 08       		.uleb128 0x8
 2170 01db F42D0000 		.4byte	.LASF62
 2171 01df 4D       		.byte	0x4d
 2172 01e0 08       		.uleb128 0x8
 2173 01e1 E30C0000 		.4byte	.LASF63
 2174 01e5 4E       		.byte	0x4e
 2175 01e6 08       		.uleb128 0x8
 2176 01e7 A9310000 		.4byte	.LASF64
ARM GAS  C:\Users\ASUS\AppData\Local\Temp\ccKl44WS.s 			page 61


 2177 01eb 4F       		.byte	0x4f
 2178 01ec 08       		.uleb128 0x8
 2179 01ed CC1B0000 		.4byte	.LASF65
 2180 01f1 50       		.byte	0x50
 2181 01f2 08       		.uleb128 0x8
 2182 01f3 79260000 		.4byte	.LASF66
 2183 01f7 51       		.byte	0x51
 2184 01f8 08       		.uleb128 0x8
 2185 01f9 47170000 		.4byte	.LASF67
 2186 01fd 52       		.byte	0x52
 2187 01fe 08       		.uleb128 0x8
 2188 01ff 5A350000 		.4byte	.LASF68
 2189 0203 53       		.byte	0x53
 2190 0204 08       		.uleb128 0x8
 2191 0205 08410000 		.4byte	.LASF69
 2192 0209 54       		.byte	0x54
 2193 020a 08       		.uleb128 0x8
 2194 020b 98030000 		.4byte	.LASF70
 2195 020f 55       		.byte	0x55
 2196 0210 08       		.uleb128 0x8
 2197 0211 F52E0000 		.4byte	.LASF71
 2198 0215 56       		.byte	0x56
 2199 0216 08       		.uleb128 0x8
 2200 0217 AD3A0000 		.4byte	.LASF72
 2201 021b 57       		.byte	0x57
 2202 021c 08       		.uleb128 0x8
 2203 021d 22420000 		.4byte	.LASF73
 2204 0221 58       		.byte	0x58
 2205 0222 08       		.uleb128 0x8
 2206 0223 D63A0000 		.4byte	.LASF74
 2207 0227 70       		.byte	0x70
 2208 0228 08       		.uleb128 0x8
 2209 0229 2F200000 		.4byte	.LASF75
 2210 022d 71       		.byte	0x71
 2211 022e 08       		.uleb128 0x8
 2212 022f E70A0000 		.4byte	.LASF76
 2213 0233 72       		.byte	0x72
 2214 0234 08       		.uleb128 0x8
 2215 0235 47100000 		.4byte	.LASF77
 2216 0239 73       		.byte	0x73
 2217 023a 08       		.uleb128 0x8
 2218 023b DB2F0000 		.4byte	.LASF78
 2219 023f 74       		.byte	0x74
 2220 0240 08       		.uleb128 0x8
 2221 0241 F5100000 		.4byte	.LASF79
 2222 0245 75       		.byte	0x75
 2223 0246 08       		.uleb128 0x8
 2224 0247 AC300000 		.4byte	.LASF80
 2225 024b 76       		.byte	0x76
 2226 024c 08       		.uleb128 0x8
 2227 024d F5190000 		.4byte	.LASF81
 2228 0251 77       		.byte	0x77
 2229 0252 08       		.uleb128 0x8
 2230 0253 C1420000 		.4byte	.LASF82
 2231 0257 78       		.byte	0x78
 2232 0258 08       		.uleb128 0x8
 2233 0259 7A440000 		.4byte	.LASF83
ARM GAS  C:\Users\ASUS\AppData\Local\Temp\ccKl44WS.s 			page 62


 2234 025d 79       		.byte	0x79
 2235 025e 08       		.uleb128 0x8
 2236 025f 01170000 		.4byte	.LASF84
 2237 0263 7A       		.byte	0x7a
 2238 0264 08       		.uleb128 0x8
 2239 0265 6F250000 		.4byte	.LASF85
 2240 0269 FA       		.byte	0xfa
 2241 026a 08       		.uleb128 0x8
 2242 026b 73160000 		.4byte	.LASF86
 2243 026f FB       		.byte	0xfb
 2244 0270 08       		.uleb128 0x8
 2245 0271 8D0B0000 		.4byte	.LASF87
 2246 0275 FC       		.byte	0xfc
 2247 0276 08       		.uleb128 0x8
 2248 0277 003F0000 		.4byte	.LASF88
 2249 027b FD       		.byte	0xfd
 2250 027c 08       		.uleb128 0x8
 2251 027d 9D000000 		.4byte	.LASF89
 2252 0281 FF       		.byte	0xff
 2253 0282 00       		.byte	0
 2254 0283 07       		.uleb128 0x7
 2255 0284 02       		.byte	0x2
 2256 0285 3A000000 		.4byte	0x3a
 2257 0289 03       		.byte	0x3
 2258 028a EA03     		.2byte	0x3ea
 2259 028c 62030000 		.4byte	0x362
 2260 0290 08       		.uleb128 0x8
 2261 0291 6B020000 		.4byte	.LASF90
 2262 0295 00       		.byte	0
 2263 0296 08       		.uleb128 0x8
 2264 0297 EB090000 		.4byte	.LASF91
 2265 029b 01       		.byte	0x1
 2266 029c 08       		.uleb128 0x8
 2267 029d 3F300000 		.4byte	.LASF92
 2268 02a1 02       		.byte	0x2
 2269 02a2 08       		.uleb128 0x8
 2270 02a3 FC2C0000 		.4byte	.LASF93
 2271 02a7 03       		.byte	0x3
 2272 02a8 08       		.uleb128 0x8
 2273 02a9 2A2C0000 		.4byte	.LASF94
 2274 02ad 04       		.byte	0x4
 2275 02ae 08       		.uleb128 0x8
 2276 02af F2380000 		.4byte	.LASF95
 2277 02b3 05       		.byte	0x5
 2278 02b4 08       		.uleb128 0x8
 2279 02b5 DA2D0000 		.4byte	.LASF96
 2280 02b9 06       		.byte	0x6
 2281 02ba 08       		.uleb128 0x8
 2282 02bb 8F300000 		.4byte	.LASF97
 2283 02bf 07       		.byte	0x7
 2284 02c0 08       		.uleb128 0x8
 2285 02c1 B4160000 		.4byte	.LASF98
 2286 02c5 08       		.byte	0x8
 2287 02c6 08       		.uleb128 0x8
 2288 02c7 201D0000 		.4byte	.LASF99
 2289 02cb 09       		.byte	0x9
 2290 02cc 08       		.uleb128 0x8
ARM GAS  C:\Users\ASUS\AppData\Local\Temp\ccKl44WS.s 			page 63


 2291 02cd BF330000 		.4byte	.LASF100
 2292 02d1 0A       		.byte	0xa
 2293 02d2 08       		.uleb128 0x8
 2294 02d3 D1020000 		.4byte	.LASF101
 2295 02d7 0B       		.byte	0xb
 2296 02d8 08       		.uleb128 0x8
 2297 02d9 152E0000 		.4byte	.LASF102
 2298 02dd 0C       		.byte	0xc
 2299 02de 08       		.uleb128 0x8
 2300 02df 4D410000 		.4byte	.LASF103
 2301 02e3 0D       		.byte	0xd
 2302 02e4 08       		.uleb128 0x8
 2303 02e5 25000000 		.4byte	.LASF104
 2304 02e9 0E       		.byte	0xe
 2305 02ea 08       		.uleb128 0x8
 2306 02eb 012B0000 		.4byte	.LASF105
 2307 02ef 0F       		.byte	0xf
 2308 02f0 08       		.uleb128 0x8
 2309 02f1 F21C0000 		.4byte	.LASF106
 2310 02f5 10       		.byte	0x10
 2311 02f6 08       		.uleb128 0x8
 2312 02f7 E03B0000 		.4byte	.LASF107
 2313 02fb 11       		.byte	0x11
 2314 02fc 08       		.uleb128 0x8
 2315 02fd 8D130000 		.4byte	.LASF108
 2316 0301 12       		.byte	0x12
 2317 0302 08       		.uleb128 0x8
 2318 0303 C6040000 		.4byte	.LASF109
 2319 0307 13       		.byte	0x13
 2320 0308 08       		.uleb128 0x8
 2321 0309 9F1C0000 		.4byte	.LASF110
 2322 030d 27       		.byte	0x27
 2323 030e 08       		.uleb128 0x8
 2324 030f B83C0000 		.4byte	.LASF111
 2325 0313 28       		.byte	0x28
 2326 0314 08       		.uleb128 0x8
 2327 0315 141A0000 		.4byte	.LASF112
 2328 0319 29       		.byte	0x29
 2329 031a 08       		.uleb128 0x8
 2330 031b A4420000 		.4byte	.LASF113
 2331 031f 2A       		.byte	0x2a
 2332 0320 08       		.uleb128 0x8
 2333 0321 60470000 		.4byte	.LASF114
 2334 0325 2B       		.byte	0x2b
 2335 0326 08       		.uleb128 0x8
 2336 0327 BE2C0000 		.4byte	.LASF115
 2337 032b 2C       		.byte	0x2c
 2338 032c 08       		.uleb128 0x8
 2339 032d 583A0000 		.4byte	.LASF116
 2340 0331 2D       		.byte	0x2d
 2341 0332 08       		.uleb128 0x8
 2342 0333 5E0F0000 		.4byte	.LASF117
 2343 0337 FE       		.byte	0xfe
 2344 0338 08       		.uleb128 0x8
 2345 0339 AF330000 		.4byte	.LASF118
 2346 033d FF       		.byte	0xff
 2347 033e 09       		.uleb128 0x9
ARM GAS  C:\Users\ASUS\AppData\Local\Temp\ccKl44WS.s 			page 64


 2348 033f 72180000 		.4byte	.LASF119
 2349 0343 0001     		.2byte	0x100
 2350 0345 09       		.uleb128 0x9
 2351 0346 E7010000 		.4byte	.LASF120
 2352 034a 0101     		.2byte	0x101
 2353 034c 09       		.uleb128 0x9
 2354 034d FA080000 		.4byte	.LASF121
 2355 0351 0201     		.2byte	0x102
 2356 0353 09       		.uleb128 0x9
 2357 0354 D3290000 		.4byte	.LASF122
 2358 0358 0301     		.2byte	0x103
 2359 035a 09       		.uleb128 0x9
 2360 035b B0130000 		.4byte	.LASF123
 2361 035f 0401     		.2byte	0x104
 2362 0361 00       		.byte	0
 2363 0362 04       		.uleb128 0x4
 2364 0363 A6180000 		.4byte	.LASF124
 2365 0367 03       		.byte	0x3
 2366 0368 5C04     		.2byte	0x45c
 2367 036a 83020000 		.4byte	0x283
 2368 036e 0A       		.uleb128 0xa
 2369 036f 07       		.byte	0x7
 2370 0370 03       		.byte	0x3
 2371 0371 2A05     		.2byte	0x52a
 2372 0373 92030000 		.4byte	0x392
 2373 0377 0B       		.uleb128 0xb
 2374 0378 68170000 		.4byte	.LASF125
 2375 037c 03       		.byte	0x3
 2376 037d 2D05     		.2byte	0x52d
 2377 037f 92030000 		.4byte	0x392
 2378 0383 00       		.byte	0
 2379 0384 0B       		.uleb128 0xb
 2380 0385 D60B0000 		.4byte	.LASF126
 2381 0389 03       		.byte	0x3
 2382 038a 2F05     		.2byte	0x52f
 2383 038c 6B000000 		.4byte	0x6b
 2384 0390 06       		.byte	0x6
 2385 0391 00       		.byte	0
 2386 0392 0C       		.uleb128 0xc
 2387 0393 6B000000 		.4byte	0x6b
 2388 0397 A2030000 		.4byte	0x3a2
 2389 039b 0D       		.uleb128 0xd
 2390 039c BC000000 		.4byte	0xbc
 2391 03a0 05       		.byte	0x5
 2392 03a1 00       		.byte	0
 2393 03a2 04       		.uleb128 0x4
 2394 03a3 38370000 		.4byte	.LASF127
 2395 03a7 03       		.byte	0x3
 2396 03a8 3005     		.2byte	0x530
 2397 03aa 6E030000 		.4byte	0x36e
 2398 03ae 0E       		.uleb128 0xe
 2399 03af 04       		.byte	0x4
 2400 03b0 6B000000 		.4byte	0x6b
 2401 03b4 0F       		.uleb128 0xf
 2402 03b5 01       		.byte	0x1
 2403 03b6 2C000000 		.4byte	0x2c
 2404 03ba 04       		.byte	0x4
ARM GAS  C:\Users\ASUS\AppData\Local\Temp\ccKl44WS.s 			page 65


 2405 03bb E0       		.byte	0xe0
 2406 03bc DF030000 		.4byte	0x3df
 2407 03c0 08       		.uleb128 0x8
 2408 03c1 670B0000 		.4byte	.LASF128
 2409 03c5 00       		.byte	0
 2410 03c6 08       		.uleb128 0x8
 2411 03c7 3E130000 		.4byte	.LASF129
 2412 03cb 01       		.byte	0x1
 2413 03cc 08       		.uleb128 0x8
 2414 03cd 212D0000 		.4byte	.LASF130
 2415 03d1 02       		.byte	0x2
 2416 03d2 08       		.uleb128 0x8
 2417 03d3 952E0000 		.4byte	.LASF131
 2418 03d7 03       		.byte	0x3
 2419 03d8 08       		.uleb128 0x8
 2420 03d9 2A1F0000 		.4byte	.LASF132
 2421 03dd 04       		.byte	0x4
 2422 03de 00       		.byte	0
 2423 03df 10       		.uleb128 0x10
 2424 03e0 823A0000 		.4byte	.LASF133
 2425 03e4 04       		.byte	0x4
 2426 03e5 F0       		.byte	0xf0
 2427 03e6 B4030000 		.4byte	0x3b4
 2428 03ea 0F       		.uleb128 0xf
 2429 03eb 01       		.byte	0x1
 2430 03ec 2C000000 		.4byte	0x2c
 2431 03f0 04       		.byte	0x4
 2432 03f1 F4       		.byte	0xf4
 2433 03f2 15040000 		.4byte	0x415
 2434 03f6 08       		.uleb128 0x8
 2435 03f7 30050000 		.4byte	.LASF134
 2436 03fb 00       		.byte	0
 2437 03fc 08       		.uleb128 0x8
 2438 03fd 0F440000 		.4byte	.LASF135
 2439 0401 01       		.byte	0x1
 2440 0402 08       		.uleb128 0x8
 2441 0403 E4370000 		.4byte	.LASF136
 2442 0407 02       		.byte	0x2
 2443 0408 08       		.uleb128 0x8
 2444 0409 35440000 		.4byte	.LASF137
 2445 040d 03       		.byte	0x3
 2446 040e 08       		.uleb128 0x8
 2447 040f 05210000 		.4byte	.LASF138
 2448 0413 04       		.byte	0x4
 2449 0414 00       		.byte	0
 2450 0415 04       		.uleb128 0x4
 2451 0416 AA2F0000 		.4byte	.LASF139
 2452 041a 04       		.byte	0x4
 2453 041b 0401     		.2byte	0x104
 2454 041d EA030000 		.4byte	0x3ea
 2455 0421 0A       		.uleb128 0xa
 2456 0422 10       		.byte	0x10
 2457 0423 04       		.byte	0x4
 2458 0424 2102     		.2byte	0x221
 2459 0426 93040000 		.4byte	0x493
 2460 042a 0B       		.uleb128 0xb
 2461 042b 7A280000 		.4byte	.LASF140
ARM GAS  C:\Users\ASUS\AppData\Local\Temp\ccKl44WS.s 			page 66


 2462 042f 04       		.byte	0x4
 2463 0430 2702     		.2byte	0x227
 2464 0432 77000000 		.4byte	0x77
 2465 0436 00       		.byte	0
 2466 0437 0B       		.uleb128 0xb
 2467 0438 1F1F0000 		.4byte	.LASF141
 2468 043c 04       		.byte	0x4
 2469 043d 2D02     		.2byte	0x22d
 2470 043f 77000000 		.4byte	0x77
 2471 0443 02       		.byte	0x2
 2472 0444 0B       		.uleb128 0xb
 2473 0445 A8230000 		.4byte	.LASF142
 2474 0449 04       		.byte	0x4
 2475 044a 3602     		.2byte	0x236
 2476 044c DF030000 		.4byte	0x3df
 2477 0450 04       		.byte	0x4
 2478 0451 0B       		.uleb128 0xb
 2479 0452 FD180000 		.4byte	.LASF143
 2480 0456 04       		.byte	0x4
 2481 0457 3E02     		.2byte	0x23e
 2482 0459 6B000000 		.4byte	0x6b
 2483 045d 05       		.byte	0x5
 2484 045e 0B       		.uleb128 0xb
 2485 045f 0D060000 		.4byte	.LASF144
 2486 0463 04       		.byte	0x4
 2487 0464 4502     		.2byte	0x245
 2488 0466 6B000000 		.4byte	0x6b
 2489 046a 06       		.byte	0x6
 2490 046b 0B       		.uleb128 0xb
 2491 046c 263E0000 		.4byte	.LASF145
 2492 0470 04       		.byte	0x4
 2493 0471 4B02     		.2byte	0x24b
 2494 0473 92030000 		.4byte	0x392
 2495 0477 07       		.byte	0x7
 2496 0478 0B       		.uleb128 0xb
 2497 0479 FA400000 		.4byte	.LASF146
 2498 047d 04       		.byte	0x4
 2499 047e 5302     		.2byte	0x253
 2500 0480 6B000000 		.4byte	0x6b
 2501 0484 0D       		.byte	0xd
 2502 0485 0B       		.uleb128 0xb
 2503 0486 283C0000 		.4byte	.LASF147
 2504 048a 04       		.byte	0x4
 2505 048b 5F02     		.2byte	0x25f
 2506 048d 6B000000 		.4byte	0x6b
 2507 0491 0E       		.byte	0xe
 2508 0492 00       		.byte	0
 2509 0493 04       		.uleb128 0x4
 2510 0494 663D0000 		.4byte	.LASF148
 2511 0498 04       		.byte	0x4
 2512 0499 6102     		.2byte	0x261
 2513 049b 21040000 		.4byte	0x421
 2514 049f 0A       		.uleb128 0xa
 2515 04a0 20       		.byte	0x20
 2516 04a1 04       		.byte	0x4
 2517 04a2 6402     		.2byte	0x264
 2518 04a4 C3040000 		.4byte	0x4c3
ARM GAS  C:\Users\ASUS\AppData\Local\Temp\ccKl44WS.s 			page 67


 2519 04a8 0B       		.uleb128 0xb
 2520 04a9 CD240000 		.4byte	.LASF149
 2521 04ad 04       		.byte	0x4
 2522 04ae 6702     		.2byte	0x267
 2523 04b0 C3040000 		.4byte	0x4c3
 2524 04b4 00       		.byte	0
 2525 04b5 0B       		.uleb128 0xb
 2526 04b6 342F0000 		.4byte	.LASF150
 2527 04ba 04       		.byte	0x4
 2528 04bb 6A02     		.2byte	0x26a
 2529 04bd 6B000000 		.4byte	0x6b
 2530 04c1 1F       		.byte	0x1f
 2531 04c2 00       		.byte	0
 2532 04c3 0C       		.uleb128 0xc
 2533 04c4 6B000000 		.4byte	0x6b
 2534 04c8 D3040000 		.4byte	0x4d3
 2535 04cc 0D       		.uleb128 0xd
 2536 04cd BC000000 		.4byte	0xbc
 2537 04d1 1E       		.byte	0x1e
 2538 04d2 00       		.byte	0
 2539 04d3 04       		.uleb128 0x4
 2540 04d4 2C0F0000 		.4byte	.LASF151
 2541 04d8 04       		.byte	0x4
 2542 04d9 6C02     		.2byte	0x26c
 2543 04db 9F040000 		.4byte	0x49f
 2544 04df 0A       		.uleb128 0xa
 2545 04e0 20       		.byte	0x20
 2546 04e1 04       		.byte	0x4
 2547 04e2 6F02     		.2byte	0x26f
 2548 04e4 03050000 		.4byte	0x503
 2549 04e8 0B       		.uleb128 0xb
 2550 04e9 A1060000 		.4byte	.LASF152
 2551 04ed 04       		.byte	0x4
 2552 04ee 7302     		.2byte	0x273
 2553 04f0 C3040000 		.4byte	0x4c3
 2554 04f4 00       		.byte	0
 2555 04f5 0B       		.uleb128 0xb
 2556 04f6 C81A0000 		.4byte	.LASF153
 2557 04fa 04       		.byte	0x4
 2558 04fb 7602     		.2byte	0x276
 2559 04fd 6B000000 		.4byte	0x6b
 2560 0501 1F       		.byte	0x1f
 2561 0502 00       		.byte	0
 2562 0503 04       		.uleb128 0x4
 2563 0504 E71E0000 		.4byte	.LASF154
 2564 0508 04       		.byte	0x4
 2565 0509 7802     		.2byte	0x278
 2566 050b DF040000 		.4byte	0x4df
 2567 050f 0A       		.uleb128 0xa
 2568 0510 14       		.byte	0x14
 2569 0511 04       		.byte	0x4
 2570 0512 7B02     		.2byte	0x27b
 2571 0514 5A050000 		.4byte	0x55a
 2572 0518 0B       		.uleb128 0xb
 2573 0519 2C440000 		.4byte	.LASF155
 2574 051d 04       		.byte	0x4
 2575 051e 8302     		.2byte	0x283
ARM GAS  C:\Users\ASUS\AppData\Local\Temp\ccKl44WS.s 			page 68


 2576 0520 6B000000 		.4byte	0x6b
 2577 0524 00       		.byte	0
 2578 0525 0B       		.uleb128 0xb
 2579 0526 05320000 		.4byte	.LASF156
 2580 052a 04       		.byte	0x4
 2581 052b 8602     		.2byte	0x286
 2582 052d 5A050000 		.4byte	0x55a
 2583 0531 04       		.byte	0x4
 2584 0532 0B       		.uleb128 0xb
 2585 0533 CD240000 		.4byte	.LASF149
 2586 0537 04       		.byte	0x4
 2587 0538 8802     		.2byte	0x288
 2588 053a 60050000 		.4byte	0x560
 2589 053e 08       		.byte	0x8
 2590 053f 0B       		.uleb128 0xb
 2591 0540 A1060000 		.4byte	.LASF152
 2592 0544 04       		.byte	0x4
 2593 0545 8A02     		.2byte	0x28a
 2594 0547 66050000 		.4byte	0x566
 2595 054b 0C       		.byte	0xc
 2596 054c 0B       		.uleb128 0xb
 2597 054d E3120000 		.4byte	.LASF157
 2598 0551 04       		.byte	0x4
 2599 0552 9402     		.2byte	0x294
 2600 0554 77000000 		.4byte	0x77
 2601 0558 10       		.byte	0x10
 2602 0559 00       		.byte	0
 2603 055a 0E       		.uleb128 0xe
 2604 055b 04       		.byte	0x4
 2605 055c 93040000 		.4byte	0x493
 2606 0560 0E       		.uleb128 0xe
 2607 0561 04       		.byte	0x4
 2608 0562 D3040000 		.4byte	0x4d3
 2609 0566 0E       		.uleb128 0xe
 2610 0567 04       		.byte	0x4
 2611 0568 03050000 		.4byte	0x503
 2612 056c 04       		.uleb128 0x4
 2613 056d 45420000 		.4byte	.LASF158
 2614 0571 04       		.byte	0x4
 2615 0572 9602     		.2byte	0x296
 2616 0574 0F050000 		.4byte	0x50f
 2617 0578 0A       		.uleb128 0xa
 2618 0579 14       		.byte	0x14
 2619 057a 04       		.byte	0x4
 2620 057b 2403     		.2byte	0x324
 2621 057d D0050000 		.4byte	0x5d0
 2622 0581 0B       		.uleb128 0xb
 2623 0582 271B0000 		.4byte	.LASF159
 2624 0586 04       		.byte	0x4
 2625 0587 2D03     		.2byte	0x32d
 2626 0589 15040000 		.4byte	0x415
 2627 058d 00       		.byte	0
 2628 058e 0B       		.uleb128 0xb
 2629 058f B9040000 		.4byte	.LASF160
 2630 0593 04       		.byte	0x4
 2631 0594 3503     		.2byte	0x335
 2632 0596 6B000000 		.4byte	0x6b
ARM GAS  C:\Users\ASUS\AppData\Local\Temp\ccKl44WS.s 			page 69


 2633 059a 01       		.byte	0x1
 2634 059b 0B       		.uleb128 0xb
 2635 059c 56120000 		.4byte	.LASF161
 2636 05a0 04       		.byte	0x4
 2637 05a1 3903     		.2byte	0x339
 2638 05a3 AE030000 		.4byte	0x3ae
 2639 05a7 04       		.byte	0x4
 2640 05a8 0B       		.uleb128 0xb
 2641 05a9 4E120000 		.4byte	.LASF162
 2642 05ad 04       		.byte	0x4
 2643 05ae 3C03     		.2byte	0x33c
 2644 05b0 6B000000 		.4byte	0x6b
 2645 05b4 08       		.byte	0x8
 2646 05b5 0B       		.uleb128 0xb
 2647 05b6 4C370000 		.4byte	.LASF163
 2648 05ba 04       		.byte	0x4
 2649 05bb 3F03     		.2byte	0x33f
 2650 05bd AE030000 		.4byte	0x3ae
 2651 05c1 0C       		.byte	0xc
 2652 05c2 0B       		.uleb128 0xb
 2653 05c3 32320000 		.4byte	.LASF164
 2654 05c7 04       		.byte	0x4
 2655 05c8 4403     		.2byte	0x344
 2656 05ca 8F000000 		.4byte	0x8f
 2657 05ce 10       		.byte	0x10
 2658 05cf 00       		.byte	0
 2659 05d0 04       		.uleb128 0x4
 2660 05d1 E2400000 		.4byte	.LASF165
 2661 05d5 04       		.byte	0x4
 2662 05d6 4603     		.2byte	0x346
 2663 05d8 78050000 		.4byte	0x578
 2664 05dc 0F       		.uleb128 0xf
 2665 05dd 01       		.byte	0x1
 2666 05de 2C000000 		.4byte	0x2c
 2667 05e2 05       		.byte	0x5
 2668 05e3 49       		.byte	0x49
 2669 05e4 97060000 		.4byte	0x697
 2670 05e8 08       		.uleb128 0x8
 2671 05e9 521A0000 		.4byte	.LASF166
 2672 05ed 01       		.byte	0x1
 2673 05ee 08       		.uleb128 0x8
 2674 05ef B9180000 		.4byte	.LASF167
 2675 05f3 02       		.byte	0x2
 2676 05f4 08       		.uleb128 0x8
 2677 05f5 BF080000 		.4byte	.LASF168
 2678 05f9 03       		.byte	0x3
 2679 05fa 08       		.uleb128 0x8
 2680 05fb 1C060000 		.4byte	.LASF169
 2681 05ff 04       		.byte	0x4
 2682 0600 08       		.uleb128 0x8
 2683 0601 2D150000 		.4byte	.LASF170
 2684 0605 05       		.byte	0x5
 2685 0606 08       		.uleb128 0x8
 2686 0607 D8080000 		.4byte	.LASF171
 2687 060b 06       		.byte	0x6
 2688 060c 08       		.uleb128 0x8
 2689 060d D3190000 		.4byte	.LASF172
ARM GAS  C:\Users\ASUS\AppData\Local\Temp\ccKl44WS.s 			page 70


 2690 0611 07       		.byte	0x7
 2691 0612 08       		.uleb128 0x8
 2692 0613 32120000 		.4byte	.LASF173
 2693 0617 08       		.byte	0x8
 2694 0618 08       		.uleb128 0x8
 2695 0619 65240000 		.4byte	.LASF174
 2696 061d 09       		.byte	0x9
 2697 061e 08       		.uleb128 0x8
 2698 061f ED160000 		.4byte	.LASF175
 2699 0623 0A       		.byte	0xa
 2700 0624 08       		.uleb128 0x8
 2701 0625 6C270000 		.4byte	.LASF176
 2702 0629 0B       		.byte	0xb
 2703 062a 08       		.uleb128 0x8
 2704 062b D70D0000 		.4byte	.LASF177
 2705 062f 0C       		.byte	0xc
 2706 0630 08       		.uleb128 0x8
 2707 0631 79200000 		.4byte	.LASF178
 2708 0635 0D       		.byte	0xd
 2709 0636 08       		.uleb128 0x8
 2710 0637 172F0000 		.4byte	.LASF179
 2711 063b 0E       		.byte	0xe
 2712 063c 08       		.uleb128 0x8
 2713 063d 8D3F0000 		.4byte	.LASF180
 2714 0641 0F       		.byte	0xf
 2715 0642 08       		.uleb128 0x8
 2716 0643 010D0000 		.4byte	.LASF181
 2717 0647 10       		.byte	0x10
 2718 0648 08       		.uleb128 0x8
 2719 0649 021F0000 		.4byte	.LASF182
 2720 064d 11       		.byte	0x11
 2721 064e 08       		.uleb128 0x8
 2722 064f C1280000 		.4byte	.LASF183
 2723 0653 12       		.byte	0x12
 2724 0654 08       		.uleb128 0x8
 2725 0655 DD380000 		.4byte	.LASF184
 2726 0659 13       		.byte	0x13
 2727 065a 08       		.uleb128 0x8
 2728 065b 32100000 		.4byte	.LASF185
 2729 065f 52       		.byte	0x52
 2730 0660 08       		.uleb128 0x8
 2731 0661 FB330000 		.4byte	.LASF186
 2732 0665 16       		.byte	0x16
 2733 0666 08       		.uleb128 0x8
 2734 0667 48450000 		.4byte	.LASF187
 2735 066b 17       		.byte	0x17
 2736 066c 08       		.uleb128 0x8
 2737 066d 0A1B0000 		.4byte	.LASF188
 2738 0671 18       		.byte	0x18
 2739 0672 08       		.uleb128 0x8
 2740 0673 642B0000 		.4byte	.LASF189
 2741 0677 19       		.byte	0x19
 2742 0678 08       		.uleb128 0x8
 2743 0679 D1410000 		.4byte	.LASF190
 2744 067d 1B       		.byte	0x1b
 2745 067e 08       		.uleb128 0x8
 2746 067f 6F170000 		.4byte	.LASF191
ARM GAS  C:\Users\ASUS\AppData\Local\Temp\ccKl44WS.s 			page 71


 2747 0683 1D       		.byte	0x1d
 2748 0684 08       		.uleb128 0x8
 2749 0685 7B350000 		.4byte	.LASF192
 2750 0689 1E       		.byte	0x1e
 2751 068a 08       		.uleb128 0x8
 2752 068b AD190000 		.4byte	.LASF193
 2753 068f D2       		.byte	0xd2
 2754 0690 08       		.uleb128 0x8
 2755 0691 DA2E0000 		.4byte	.LASF194
 2756 0695 FF       		.byte	0xff
 2757 0696 00       		.byte	0
 2758 0697 0F       		.uleb128 0xf
 2759 0698 01       		.byte	0x1
 2760 0699 2C000000 		.4byte	0x2c
 2761 069d 05       		.byte	0x5
 2762 069e A5       		.byte	0xa5
 2763 069f 8E070000 		.4byte	0x78e
 2764 06a3 08       		.uleb128 0x8
 2765 06a4 6F1D0000 		.4byte	.LASF195
 2766 06a8 00       		.byte	0
 2767 06a9 08       		.uleb128 0x8
 2768 06aa F0300000 		.4byte	.LASF196
 2769 06ae 01       		.byte	0x1
 2770 06af 08       		.uleb128 0x8
 2771 06b0 10460000 		.4byte	.LASF197
 2772 06b4 02       		.byte	0x2
 2773 06b5 08       		.uleb128 0x8
 2774 06b6 952A0000 		.4byte	.LASF198
 2775 06ba 03       		.byte	0x3
 2776 06bb 08       		.uleb128 0x8
 2777 06bc 99110000 		.4byte	.LASF199
 2778 06c0 04       		.byte	0x4
 2779 06c1 08       		.uleb128 0x8
 2780 06c2 12360000 		.4byte	.LASF200
 2781 06c6 05       		.byte	0x5
 2782 06c7 08       		.uleb128 0x8
 2783 06c8 5D110000 		.4byte	.LASF201
 2784 06cc 06       		.byte	0x6
 2785 06cd 08       		.uleb128 0x8
 2786 06ce D5240000 		.4byte	.LASF202
 2787 06d2 07       		.byte	0x7
 2788 06d3 08       		.uleb128 0x8
 2789 06d4 18250000 		.4byte	.LASF203
 2790 06d8 08       		.byte	0x8
 2791 06d9 08       		.uleb128 0x8
 2792 06da BB120000 		.4byte	.LASF204
 2793 06de 09       		.byte	0x9
 2794 06df 08       		.uleb128 0x8
 2795 06e0 98140000 		.4byte	.LASF205
 2796 06e4 0A       		.byte	0xa
 2797 06e5 08       		.uleb128 0x8
 2798 06e6 301A0000 		.4byte	.LASF206
 2799 06ea 0B       		.byte	0xb
 2800 06eb 08       		.uleb128 0x8
 2801 06ec D0000000 		.4byte	.LASF207
 2802 06f0 0C       		.byte	0xc
 2803 06f1 08       		.uleb128 0x8
ARM GAS  C:\Users\ASUS\AppData\Local\Temp\ccKl44WS.s 			page 72


 2804 06f2 4B400000 		.4byte	.LASF208
 2805 06f6 0D       		.byte	0xd
 2806 06f7 08       		.uleb128 0x8
 2807 06f8 671A0000 		.4byte	.LASF209
 2808 06fc 0E       		.byte	0xe
 2809 06fd 08       		.uleb128 0x8
 2810 06fe B8450000 		.4byte	.LASF210
 2811 0702 0F       		.byte	0xf
 2812 0703 08       		.uleb128 0x8
 2813 0704 D62C0000 		.4byte	.LASF211
 2814 0708 10       		.byte	0x10
 2815 0709 08       		.uleb128 0x8
 2816 070a EA150000 		.4byte	.LASF212
 2817 070e 11       		.byte	0x11
 2818 070f 08       		.uleb128 0x8
 2819 0710 DB0B0000 		.4byte	.LASF213
 2820 0714 80       		.byte	0x80
 2821 0715 08       		.uleb128 0x8
 2822 0716 18220000 		.4byte	.LASF214
 2823 071a 80       		.byte	0x80
 2824 071b 08       		.uleb128 0x8
 2825 071c 7D410000 		.4byte	.LASF215
 2826 0720 80       		.byte	0x80
 2827 0721 08       		.uleb128 0x8
 2828 0722 65100000 		.4byte	.LASF216
 2829 0726 80       		.byte	0x80
 2830 0727 08       		.uleb128 0x8
 2831 0728 463D0000 		.4byte	.LASF217
 2832 072c 80       		.byte	0x80
 2833 072d 08       		.uleb128 0x8
 2834 072e 063A0000 		.4byte	.LASF218
 2835 0732 80       		.byte	0x80
 2836 0733 08       		.uleb128 0x8
 2837 0734 93380000 		.4byte	.LASF219
 2838 0738 80       		.byte	0x80
 2839 0739 08       		.uleb128 0x8
 2840 073a ED410000 		.4byte	.LASF220
 2841 073e 80       		.byte	0x80
 2842 073f 08       		.uleb128 0x8
 2843 0740 53060000 		.4byte	.LASF221
 2844 0744 81       		.byte	0x81
 2845 0745 08       		.uleb128 0x8
 2846 0746 850D0000 		.4byte	.LASF222
 2847 074a 81       		.byte	0x81
 2848 074b 08       		.uleb128 0x8
 2849 074c 430F0000 		.4byte	.LASF223
 2850 0750 81       		.byte	0x81
 2851 0751 08       		.uleb128 0x8
 2852 0752 341C0000 		.4byte	.LASF224
 2853 0756 81       		.byte	0x81
 2854 0757 08       		.uleb128 0x8
 2855 0758 BA390000 		.4byte	.LASF225
 2856 075c 82       		.byte	0x82
 2857 075d 08       		.uleb128 0x8
 2858 075e FC320000 		.4byte	.LASF226
 2859 0762 A0       		.byte	0xa0
 2860 0763 08       		.uleb128 0x8
ARM GAS  C:\Users\ASUS\AppData\Local\Temp\ccKl44WS.s 			page 73


 2861 0764 B0340000 		.4byte	.LASF227
 2862 0768 A0       		.byte	0xa0
 2863 0769 08       		.uleb128 0x8
 2864 076a 26270000 		.4byte	.LASF228
 2865 076e A1       		.byte	0xa1
 2866 076f 08       		.uleb128 0x8
 2867 0770 03380000 		.4byte	.LASF229
 2868 0774 A2       		.byte	0xa2
 2869 0775 08       		.uleb128 0x8
 2870 0776 FA110000 		.4byte	.LASF230
 2871 077a A3       		.byte	0xa3
 2872 077b 08       		.uleb128 0x8
 2873 077c CC0E0000 		.4byte	.LASF231
 2874 0780 FD       		.byte	0xfd
 2875 0781 08       		.uleb128 0x8
 2876 0782 EE040000 		.4byte	.LASF232
 2877 0786 FE       		.byte	0xfe
 2878 0787 08       		.uleb128 0x8
 2879 0788 39260000 		.4byte	.LASF233
 2880 078c FF       		.byte	0xff
 2881 078d 00       		.byte	0
 2882 078e 04       		.uleb128 0x4
 2883 078f 97460000 		.4byte	.LASF234
 2884 0793 05       		.byte	0x5
 2885 0794 5F01     		.2byte	0x15f
 2886 0796 97060000 		.4byte	0x697
 2887 079a 04       		.uleb128 0x4
 2888 079b E7440000 		.4byte	.LASF235
 2889 079f 05       		.byte	0x5
 2890 07a0 8901     		.2byte	0x189
 2891 07a2 77000000 		.4byte	0x77
 2892 07a6 0A       		.uleb128 0xa
 2893 07a7 02       		.byte	0x2
 2894 07a8 05       		.byte	0x5
 2895 07a9 9301     		.2byte	0x193
 2896 07ab CA070000 		.4byte	0x7ca
 2897 07af 0B       		.uleb128 0xb
 2898 07b0 86300000 		.4byte	.LASF236
 2899 07b4 05       		.byte	0x5
 2900 07b5 9A01     		.2byte	0x19a
 2901 07b7 6B000000 		.4byte	0x6b
 2902 07bb 00       		.byte	0
 2903 07bc 0B       		.uleb128 0xb
 2904 07bd 812B0000 		.4byte	.LASF237
 2905 07c1 05       		.byte	0x5
 2906 07c2 A001     		.2byte	0x1a0
 2907 07c4 6B000000 		.4byte	0x6b
 2908 07c8 01       		.byte	0x1
 2909 07c9 00       		.byte	0
 2910 07ca 04       		.uleb128 0x4
 2911 07cb 2C350000 		.4byte	.LASF238
 2912 07cf 05       		.byte	0x5
 2913 07d0 A201     		.2byte	0x1a2
 2914 07d2 A6070000 		.4byte	0x7a6
 2915 07d6 0A       		.uleb128 0xa
 2916 07d7 08       		.byte	0x8
 2917 07d8 05       		.byte	0x5
ARM GAS  C:\Users\ASUS\AppData\Local\Temp\ccKl44WS.s 			page 74


 2918 07d9 BE01     		.2byte	0x1be
 2919 07db 07080000 		.4byte	0x807
 2920 07df 11       		.uleb128 0x11
 2921 07e0 76616C00 		.ascii	"val\000"
 2922 07e4 05       		.byte	0x5
 2923 07e5 C101     		.2byte	0x1c1
 2924 07e7 AE030000 		.4byte	0x3ae
 2925 07eb 00       		.byte	0
 2926 07ec 11       		.uleb128 0x11
 2927 07ed 6C656E00 		.ascii	"len\000"
 2928 07f1 05       		.byte	0x5
 2929 07f2 C401     		.2byte	0x1c4
 2930 07f4 77000000 		.4byte	0x77
 2931 07f8 04       		.byte	0x4
 2932 07f9 0B       		.uleb128 0xb
 2933 07fa D6280000 		.4byte	.LASF239
 2934 07fe 05       		.byte	0x5
 2935 07ff CB01     		.2byte	0x1cb
 2936 0801 77000000 		.4byte	0x77
 2937 0805 06       		.byte	0x6
 2938 0806 00       		.byte	0
 2939 0807 04       		.uleb128 0x4
 2940 0808 740C0000 		.4byte	.LASF240
 2941 080c 05       		.byte	0x5
 2942 080d CD01     		.2byte	0x1cd
 2943 080f D6070000 		.4byte	0x7d6
 2944 0813 0A       		.uleb128 0xa
 2945 0814 0C       		.byte	0xc
 2946 0815 05       		.byte	0x5
 2947 0816 D001     		.2byte	0x1d0
 2948 0818 37080000 		.4byte	0x837
 2949 081c 0B       		.uleb128 0xb
 2950 081d 591D0000 		.4byte	.LASF241
 2951 0821 05       		.byte	0x5
 2952 0822 D301     		.2byte	0x1d3
 2953 0824 07080000 		.4byte	0x807
 2954 0828 00       		.byte	0
 2955 0829 0B       		.uleb128 0xb
 2956 082a DC440000 		.4byte	.LASF242
 2957 082e 05       		.byte	0x5
 2958 082f D601     		.2byte	0x1d6
 2959 0831 9A070000 		.4byte	0x79a
 2960 0835 08       		.byte	0x8
 2961 0836 00       		.byte	0
 2962 0837 04       		.uleb128 0x4
 2963 0838 A91A0000 		.4byte	.LASF243
 2964 083c 05       		.byte	0x5
 2965 083d D801     		.2byte	0x1d8
 2966 083f 13080000 		.4byte	0x813
 2967 0843 12       		.uleb128 0x12
 2968 0844 04       		.byte	0x4
 2969 0845 06       		.byte	0x6
 2970 0846 3A       		.byte	0x3a
 2971 0847 70080000 		.4byte	0x870
 2972 084b 13       		.uleb128 0x13
 2973 084c DC440000 		.4byte	.LASF242
 2974 0850 06       		.byte	0x6
ARM GAS  C:\Users\ASUS\AppData\Local\Temp\ccKl44WS.s 			page 75


 2975 0851 3D       		.byte	0x3d
 2976 0852 9A070000 		.4byte	0x79a
 2977 0856 00       		.byte	0
 2978 0857 13       		.uleb128 0x13
 2979 0858 66070000 		.4byte	.LASF244
 2980 085c 06       		.byte	0x6
 2981 085d 43       		.byte	0x43
 2982 085e 6B000000 		.4byte	0x6b
 2983 0862 02       		.byte	0x2
 2984 0863 13       		.uleb128 0x13
 2985 0864 81240000 		.4byte	.LASF245
 2986 0868 06       		.byte	0x6
 2987 0869 46       		.byte	0x46
 2988 086a 8E070000 		.4byte	0x78e
 2989 086e 03       		.byte	0x3
 2990 086f 00       		.byte	0
 2991 0870 10       		.uleb128 0x10
 2992 0871 85280000 		.4byte	.LASF246
 2993 0875 06       		.byte	0x6
 2994 0876 48       		.byte	0x48
 2995 0877 43080000 		.4byte	0x843
 2996 087b 12       		.uleb128 0x12
 2997 087c 10       		.byte	0x10
 2998 087d 06       		.byte	0x6
 2999 087e 8A       		.byte	0x8a
 3000 087f 9C080000 		.4byte	0x89c
 3001 0883 13       		.uleb128 0x13
 3002 0884 1B3E0000 		.4byte	.LASF247
 3003 0888 06       		.byte	0x6
 3004 0889 8D       		.byte	0x8d
 3005 088a CA070000 		.4byte	0x7ca
 3006 088e 00       		.byte	0
 3007 088f 13       		.uleb128 0x13
 3008 0890 C11C0000 		.4byte	.LASF248
 3009 0894 06       		.byte	0x6
 3010 0895 90       		.byte	0x90
 3011 0896 37080000 		.4byte	0x837
 3012 089a 04       		.byte	0x4
 3013 089b 00       		.byte	0
 3014 089c 10       		.uleb128 0x10
 3015 089d 200E0000 		.4byte	.LASF249
 3016 08a1 06       		.byte	0x6
 3017 08a2 92       		.byte	0x92
 3018 08a3 7B080000 		.4byte	0x87b
 3019 08a7 10       		.uleb128 0x10
 3020 08a8 BE3B0000 		.4byte	.LASF250
 3021 08ac 06       		.byte	0x6
 3022 08ad 95       		.byte	0x95
 3023 08ae 9C080000 		.4byte	0x89c
 3024 08b2 10       		.uleb128 0x10
 3025 08b3 7A0F0000 		.4byte	.LASF251
 3026 08b7 07       		.byte	0x7
 3027 08b8 7A       		.byte	0x7a
 3028 08b9 37080000 		.4byte	0x837
 3029 08bd 0F       		.uleb128 0xf
 3030 08be 02       		.byte	0x2
 3031 08bf 3A000000 		.4byte	0x3a
ARM GAS  C:\Users\ASUS\AppData\Local\Temp\ccKl44WS.s 			page 76


 3032 08c3 08       		.byte	0x8
 3033 08c4 B4       		.byte	0xb4
 3034 08c5 28110000 		.4byte	0x1128
 3035 08c9 09       		.uleb128 0x9
 3036 08ca 51140000 		.4byte	.LASF252
 3037 08ce 0001     		.2byte	0x100
 3038 08d0 09       		.uleb128 0x9
 3039 08d1 58440000 		.4byte	.LASF253
 3040 08d5 0101     		.2byte	0x101
 3041 08d7 09       		.uleb128 0x9
 3042 08d8 C01E0000 		.4byte	.LASF254
 3043 08dc 0201     		.2byte	0x102
 3044 08de 09       		.uleb128 0x9
 3045 08df FA0D0000 		.4byte	.LASF255
 3046 08e3 0301     		.2byte	0x103
 3047 08e5 09       		.uleb128 0x9
 3048 08e6 A0400000 		.4byte	.LASF256
 3049 08ea 0401     		.2byte	0x104
 3050 08ec 09       		.uleb128 0x9
 3051 08ed 29410000 		.4byte	.LASF257
 3052 08f1 0501     		.2byte	0x105
 3053 08f3 09       		.uleb128 0x9
 3054 08f4 313E0000 		.4byte	.LASF258
 3055 08f8 0601     		.2byte	0x106
 3056 08fa 09       		.uleb128 0x9
 3057 08fb D12B0000 		.4byte	.LASF259
 3058 08ff 0701     		.2byte	0x107
 3059 0901 09       		.uleb128 0x9
 3060 0902 C03E0000 		.4byte	.LASF260
 3061 0906 0801     		.2byte	0x108
 3062 0908 09       		.uleb128 0x9
 3063 0909 32160000 		.4byte	.LASF261
 3064 090d 0901     		.2byte	0x109
 3065 090f 09       		.uleb128 0x9
 3066 0910 65190000 		.4byte	.LASF262
 3067 0914 0A01     		.2byte	0x10a
 3068 0916 09       		.uleb128 0x9
 3069 0917 DE220000 		.4byte	.LASF263
 3070 091b 0B01     		.2byte	0x10b
 3071 091d 09       		.uleb128 0x9
 3072 091e 74370000 		.4byte	.LASF264
 3073 0922 0C01     		.2byte	0x10c
 3074 0924 09       		.uleb128 0x9
 3075 0925 18340000 		.4byte	.LASF265
 3076 0929 0D01     		.2byte	0x10d
 3077 092b 09       		.uleb128 0x9
 3078 092c 760A0000 		.4byte	.LASF266
 3079 0930 0E01     		.2byte	0x10e
 3080 0932 09       		.uleb128 0x9
 3081 0933 19210000 		.4byte	.LASF267
 3082 0937 0F01     		.2byte	0x10f
 3083 0939 09       		.uleb128 0x9
 3084 093a A60C0000 		.4byte	.LASF268
 3085 093e 1001     		.2byte	0x110
 3086 0940 09       		.uleb128 0x9
 3087 0941 96290000 		.4byte	.LASF269
 3088 0945 1101     		.2byte	0x111
ARM GAS  C:\Users\ASUS\AppData\Local\Temp\ccKl44WS.s 			page 77


 3089 0947 09       		.uleb128 0x9
 3090 0948 0F160000 		.4byte	.LASF270
 3091 094c 1201     		.2byte	0x112
 3092 094e 09       		.uleb128 0x9
 3093 094f AC020000 		.4byte	.LASF271
 3094 0953 1301     		.2byte	0x113
 3095 0955 09       		.uleb128 0x9
 3096 0956 29180000 		.4byte	.LASF272
 3097 095a 1401     		.2byte	0x114
 3098 095c 09       		.uleb128 0x9
 3099 095d 70380000 		.4byte	.LASF273
 3100 0961 1501     		.2byte	0x115
 3101 0963 09       		.uleb128 0x9
 3102 0964 090A0000 		.4byte	.LASF274
 3103 0968 1601     		.2byte	0x116
 3104 096a 09       		.uleb128 0x9
 3105 096b BB270000 		.4byte	.LASF275
 3106 096f 1701     		.2byte	0x117
 3107 0971 09       		.uleb128 0x9
 3108 0972 41010000 		.4byte	.LASF276
 3109 0976 1801     		.2byte	0x118
 3110 0978 09       		.uleb128 0x9
 3111 0979 DD3C0000 		.4byte	.LASF277
 3112 097d 1901     		.2byte	0x119
 3113 097f 09       		.uleb128 0x9
 3114 0980 9D440000 		.4byte	.LASF278
 3115 0984 1A01     		.2byte	0x11a
 3116 0986 09       		.uleb128 0x9
 3117 0987 590C0000 		.4byte	.LASF279
 3118 098b 1B01     		.2byte	0x11b
 3119 098d 09       		.uleb128 0x9
 3120 098e 92200000 		.4byte	.LASF280
 3121 0992 1C01     		.2byte	0x11c
 3122 0994 09       		.uleb128 0x9
 3123 0995 16110000 		.4byte	.LASF281
 3124 0999 1D01     		.2byte	0x11d
 3125 099b 09       		.uleb128 0x9
 3126 099c 223D0000 		.4byte	.LASF282
 3127 09a0 1E01     		.2byte	0x11e
 3128 09a2 09       		.uleb128 0x9
 3129 09a3 E2030000 		.4byte	.LASF283
 3130 09a7 1F01     		.2byte	0x11f
 3131 09a9 09       		.uleb128 0x9
 3132 09aa CC170000 		.4byte	.LASF284
 3133 09ae 2001     		.2byte	0x120
 3134 09b0 09       		.uleb128 0x9
 3135 09b1 581C0000 		.4byte	.LASF285
 3136 09b5 2101     		.2byte	0x121
 3137 09b7 09       		.uleb128 0x9
 3138 09b8 BC030000 		.4byte	.LASF286
 3139 09bc 2201     		.2byte	0x122
 3140 09be 09       		.uleb128 0x9
 3141 09bf D2160000 		.4byte	.LASF287
 3142 09c3 2301     		.2byte	0x123
 3143 09c5 09       		.uleb128 0x9
 3144 09c6 AD060000 		.4byte	.LASF288
 3145 09ca 2401     		.2byte	0x124
ARM GAS  C:\Users\ASUS\AppData\Local\Temp\ccKl44WS.s 			page 78


 3146 09cc 09       		.uleb128 0x9
 3147 09cd 9C100000 		.4byte	.LASF289
 3148 09d1 2501     		.2byte	0x125
 3149 09d3 09       		.uleb128 0x9
 3150 09d4 543C0000 		.4byte	.LASF290
 3151 09d8 2601     		.2byte	0x126
 3152 09da 09       		.uleb128 0x9
 3153 09db FF220000 		.4byte	.LASF291
 3154 09df 2701     		.2byte	0x127
 3155 09e1 09       		.uleb128 0x9
 3156 09e2 3D360000 		.4byte	.LASF292
 3157 09e6 2801     		.2byte	0x128
 3158 09e8 09       		.uleb128 0x9
 3159 09e9 1F1E0000 		.4byte	.LASF293
 3160 09ed 2901     		.2byte	0x129
 3161 09ef 09       		.uleb128 0x9
 3162 09f0 7B390000 		.4byte	.LASF294
 3163 09f4 2A01     		.2byte	0x12a
 3164 09f6 09       		.uleb128 0x9
 3165 09f7 262B0000 		.4byte	.LASF295
 3166 09fb 2B01     		.2byte	0x12b
 3167 09fd 09       		.uleb128 0x9
 3168 09fe 5C3B0000 		.4byte	.LASF296
 3169 0a02 2C01     		.2byte	0x12c
 3170 0a04 09       		.uleb128 0x9
 3171 0a05 472A0000 		.4byte	.LASF297
 3172 0a09 2D01     		.2byte	0x12d
 3173 0a0b 09       		.uleb128 0x9
 3174 0a0c 33080000 		.4byte	.LASF298
 3175 0a10 2E01     		.2byte	0x12e
 3176 0a12 09       		.uleb128 0x9
 3177 0a13 67210000 		.4byte	.LASF299
 3178 0a17 2F01     		.2byte	0x12f
 3179 0a19 09       		.uleb128 0x9
 3180 0a1a 9D280000 		.4byte	.LASF300
 3181 0a1e 3001     		.2byte	0x130
 3182 0a20 09       		.uleb128 0x9
 3183 0a21 56280000 		.4byte	.LASF301
 3184 0a25 3101     		.2byte	0x131
 3185 0a27 09       		.uleb128 0x9
 3186 0a28 00070000 		.4byte	.LASF302
 3187 0a2c 3201     		.2byte	0x132
 3188 0a2e 09       		.uleb128 0x9
 3189 0a2f 43290000 		.4byte	.LASF303
 3190 0a33 3301     		.2byte	0x133
 3191 0a35 09       		.uleb128 0x9
 3192 0a36 29400000 		.4byte	.LASF304
 3193 0a3a 3401     		.2byte	0x134
 3194 0a3c 09       		.uleb128 0x9
 3195 0a3d 4D380000 		.4byte	.LASF305
 3196 0a41 3501     		.2byte	0x135
 3197 0a43 09       		.uleb128 0x9
 3198 0a44 41090000 		.4byte	.LASF306
 3199 0a48 3601     		.2byte	0x136
 3200 0a4a 09       		.uleb128 0x9
 3201 0a4b 64300000 		.4byte	.LASF307
 3202 0a4f 3701     		.2byte	0x137
ARM GAS  C:\Users\ASUS\AppData\Local\Temp\ccKl44WS.s 			page 79


 3203 0a51 09       		.uleb128 0x9
 3204 0a52 783B0000 		.4byte	.LASF308
 3205 0a56 3801     		.2byte	0x138
 3206 0a58 09       		.uleb128 0x9
 3207 0a59 55260000 		.4byte	.LASF309
 3208 0a5d 3901     		.2byte	0x139
 3209 0a5f 09       		.uleb128 0x9
 3210 0a60 C12F0000 		.4byte	.LASF310
 3211 0a64 3A01     		.2byte	0x13a
 3212 0a66 09       		.uleb128 0x9
 3213 0a67 25170000 		.4byte	.LASF311
 3214 0a6b 3B01     		.2byte	0x13b
 3215 0a6d 09       		.uleb128 0x9
 3216 0a6e 94150000 		.4byte	.LASF312
 3217 0a72 3C01     		.2byte	0x13c
 3218 0a74 09       		.uleb128 0x9
 3219 0a75 072A0000 		.4byte	.LASF313
 3220 0a79 3D01     		.2byte	0x13d
 3221 0a7b 09       		.uleb128 0x9
 3222 0a7c B4110000 		.4byte	.LASF314
 3223 0a80 3E01     		.2byte	0x13e
 3224 0a82 09       		.uleb128 0x9
 3225 0a83 37320000 		.4byte	.LASF315
 3226 0a87 3F01     		.2byte	0x13f
 3227 0a89 09       		.uleb128 0x9
 3228 0a8a E4420000 		.4byte	.LASF316
 3229 0a8e 4001     		.2byte	0x140
 3230 0a90 09       		.uleb128 0x9
 3231 0a91 EB1B0000 		.4byte	.LASF317
 3232 0a95 4101     		.2byte	0x141
 3233 0a97 09       		.uleb128 0x9
 3234 0a98 600D0000 		.4byte	.LASF318
 3235 0a9c 4201     		.2byte	0x142
 3236 0a9e 09       		.uleb128 0x9
 3237 0a9f 6A230000 		.4byte	.LASF319
 3238 0aa3 4301     		.2byte	0x143
 3239 0aa5 09       		.uleb128 0x9
 3240 0aa6 15030000 		.4byte	.LASF320
 3241 0aaa 4401     		.2byte	0x144
 3242 0aac 09       		.uleb128 0x9
 3243 0aad 61420000 		.4byte	.LASF321
 3244 0ab1 4501     		.2byte	0x145
 3245 0ab3 09       		.uleb128 0x9
 3246 0ab4 BC260000 		.4byte	.LASF322
 3247 0ab8 4601     		.2byte	0x146
 3248 0aba 09       		.uleb128 0x9
 3249 0abb 33470000 		.4byte	.LASF323
 3250 0abf 4701     		.2byte	0x147
 3251 0ac1 09       		.uleb128 0x9
 3252 0ac2 5C080000 		.4byte	.LASF324
 3253 0ac6 4801     		.2byte	0x148
 3254 0ac8 09       		.uleb128 0x9
 3255 0ac9 452D0000 		.4byte	.LASF325
 3256 0acd 4901     		.2byte	0x149
 3257 0acf 09       		.uleb128 0x9
 3258 0ad0 98120000 		.4byte	.LASF326
 3259 0ad4 4A01     		.2byte	0x14a
ARM GAS  C:\Users\ASUS\AppData\Local\Temp\ccKl44WS.s 			page 80


 3260 0ad6 09       		.uleb128 0x9
 3261 0ad7 FC1D0000 		.4byte	.LASF327
 3262 0adb 4B01     		.2byte	0x14b
 3263 0add 09       		.uleb128 0x9
 3264 0ade EF340000 		.4byte	.LASF328
 3265 0ae2 4C01     		.2byte	0x14c
 3266 0ae4 09       		.uleb128 0x9
 3267 0ae5 0E310000 		.4byte	.LASF329
 3268 0ae9 4D01     		.2byte	0x14d
 3269 0aeb 09       		.uleb128 0x9
 3270 0aec C6090000 		.4byte	.LASF330
 3271 0af0 4E01     		.2byte	0x14e
 3272 0af2 09       		.uleb128 0x9
 3273 0af3 B8380000 		.4byte	.LASF331
 3274 0af7 4F01     		.2byte	0x14f
 3275 0af9 09       		.uleb128 0x9
 3276 0afa E0390000 		.4byte	.LASF332
 3277 0afe 5001     		.2byte	0x150
 3278 0b00 09       		.uleb128 0x9
 3279 0b01 C9370000 		.4byte	.LASF333
 3280 0b05 5101     		.2byte	0x151
 3281 0b07 09       		.uleb128 0x9
 3282 0b08 4C3E0000 		.4byte	.LASF334
 3283 0b0c 5201     		.2byte	0x152
 3284 0b0e 09       		.uleb128 0x9
 3285 0b0f CA060000 		.4byte	.LASF335
 3286 0b13 5301     		.2byte	0x153
 3287 0b15 09       		.uleb128 0x9
 3288 0b16 E71A0000 		.4byte	.LASF336
 3289 0b1a 5401     		.2byte	0x154
 3290 0b1c 09       		.uleb128 0x9
 3291 0b1d A7010000 		.4byte	.LASF337
 3292 0b21 5501     		.2byte	0x155
 3293 0b23 09       		.uleb128 0x9
 3294 0b24 9E0A0000 		.4byte	.LASF338
 3295 0b28 5601     		.2byte	0x156
 3296 0b2a 09       		.uleb128 0x9
 3297 0b2b B82A0000 		.4byte	.LASF339
 3298 0b2f 5701     		.2byte	0x157
 3299 0b31 09       		.uleb128 0x9
 3300 0b32 65090000 		.4byte	.LASF340
 3301 0b36 5801     		.2byte	0x158
 3302 0b38 09       		.uleb128 0x9
 3303 0b39 D3200000 		.4byte	.LASF341
 3304 0b3d 5901     		.2byte	0x159
 3305 0b3f 09       		.uleb128 0x9
 3306 0b40 7E400000 		.4byte	.LASF342
 3307 0b44 5A01     		.2byte	0x15a
 3308 0b46 09       		.uleb128 0x9
 3309 0b47 722A0000 		.4byte	.LASF343
 3310 0b4b 5B01     		.2byte	0x15b
 3311 0b4d 09       		.uleb128 0x9
 3312 0b4e 1B300000 		.4byte	.LASF344
 3313 0b52 5C01     		.2byte	0x15c
 3314 0b54 09       		.uleb128 0x9
 3315 0b55 F7250000 		.4byte	.LASF345
 3316 0b59 5D01     		.2byte	0x15d
ARM GAS  C:\Users\ASUS\AppData\Local\Temp\ccKl44WS.s 			page 81


 3317 0b5b 09       		.uleb128 0x9
 3318 0b5c 8E340000 		.4byte	.LASF346
 3319 0b60 5E01     		.2byte	0x15e
 3320 0b62 09       		.uleb128 0x9
 3321 0b63 E63E0000 		.4byte	.LASF347
 3322 0b67 5F01     		.2byte	0x15f
 3323 0b69 09       		.uleb128 0x9
 3324 0b6a DD3D0000 		.4byte	.LASF348
 3325 0b6e 6001     		.2byte	0x160
 3326 0b70 09       		.uleb128 0x9
 3327 0b71 B3240000 		.4byte	.LASF349
 3328 0b75 6101     		.2byte	0x161
 3329 0b77 09       		.uleb128 0x9
 3330 0b78 4A270000 		.4byte	.LASF350
 3331 0b7c 6201     		.2byte	0x162
 3332 0b7e 09       		.uleb128 0x9
 3333 0b7f 3A110000 		.4byte	.LASF351
 3334 0b83 6301     		.2byte	0x163
 3335 0b85 09       		.uleb128 0x9
 3336 0b86 51370000 		.4byte	.LASF352
 3337 0b8a 6401     		.2byte	0x164
 3338 0b8c 09       		.uleb128 0x9
 3339 0b8d 6A340000 		.4byte	.LASF353
 3340 0b91 6501     		.2byte	0x165
 3341 0b93 09       		.uleb128 0x9
 3342 0b94 D5140000 		.4byte	.LASF354
 3343 0b98 6601     		.2byte	0x166
 3344 0b9a 09       		.uleb128 0x9
 3345 0b9b 752F0000 		.4byte	.LASF355
 3346 0b9f 6701     		.2byte	0x167
 3347 0ba1 09       		.uleb128 0x9
 3348 0ba2 4E000000 		.4byte	.LASF356
 3349 0ba6 6801     		.2byte	0x168
 3350 0ba8 09       		.uleb128 0x9
 3351 0ba9 96040000 		.4byte	.LASF357
 3352 0bad 6901     		.2byte	0x169
 3353 0baf 09       		.uleb128 0x9
 3354 0bb0 76080000 		.4byte	.LASF358
 3355 0bb4 6A01     		.2byte	0x16a
 3356 0bb6 09       		.uleb128 0x9
 3357 0bb7 7F010000 		.4byte	.LASF359
 3358 0bbb 6B01     		.2byte	0x16b
 3359 0bbd 09       		.uleb128 0x9
 3360 0bbe 8B180000 		.4byte	.LASF360
 3361 0bc2 6C01     		.2byte	0x16c
 3362 0bc4 09       		.uleb128 0x9
 3363 0bc5 9B3D0000 		.4byte	.LASF361
 3364 0bc9 6D01     		.2byte	0x16d
 3365 0bcb 09       		.uleb128 0x9
 3366 0bcc E9450000 		.4byte	.LASF362
 3367 0bd0 6E01     		.2byte	0x16e
 3368 0bd2 09       		.uleb128 0x9
 3369 0bd3 B6320000 		.4byte	.LASF363
 3370 0bd7 6F01     		.2byte	0x16f
 3371 0bd9 09       		.uleb128 0x9
 3372 0bda 00020000 		.4byte	.LASF364
 3373 0bde 7001     		.2byte	0x170
ARM GAS  C:\Users\ASUS\AppData\Local\Temp\ccKl44WS.s 			page 82


 3374 0be0 09       		.uleb128 0x9
 3375 0be1 430B0000 		.4byte	.LASF365
 3376 0be5 7101     		.2byte	0x171
 3377 0be7 09       		.uleb128 0x9
 3378 0be8 A50F0000 		.4byte	.LASF366
 3379 0bec 7201     		.2byte	0x172
 3380 0bee 09       		.uleb128 0x9
 3381 0bef CE230000 		.4byte	.LASF367
 3382 0bf3 7301     		.2byte	0x173
 3383 0bf5 09       		.uleb128 0x9
 3384 0bf6 881F0000 		.4byte	.LASF368
 3385 0bfa 7401     		.2byte	0x174
 3386 0bfc 09       		.uleb128 0x9
 3387 0bfd F3050000 		.4byte	.LASF369
 3388 0c01 7501     		.2byte	0x175
 3389 0c03 09       		.uleb128 0x9
 3390 0c04 F9140000 		.4byte	.LASF370
 3391 0c08 7601     		.2byte	0x176
 3392 0c0a 09       		.uleb128 0x9
 3393 0c0b F5460000 		.4byte	.LASF371
 3394 0c0f 7701     		.2byte	0x177
 3395 0c11 09       		.uleb128 0x9
 3396 0c12 9D1E0000 		.4byte	.LASF372
 3397 0c16 7801     		.2byte	0x178
 3398 0c18 09       		.uleb128 0x9
 3399 0c19 692C0000 		.4byte	.LASF373
 3400 0c1d 7901     		.2byte	0x179
 3401 0c1f 09       		.uleb128 0x9
 3402 0c20 6A130000 		.4byte	.LASF374
 3403 0c24 7A01     		.2byte	0x17a
 3404 0c26 09       		.uleb128 0x9
 3405 0c27 25330000 		.4byte	.LASF375
 3406 0c2b 7B01     		.2byte	0x17b
 3407 0c2d 09       		.uleb128 0x9
 3408 0c2e F1020000 		.4byte	.LASF376
 3409 0c32 7C01     		.2byte	0x17c
 3410 0c34 09       		.uleb128 0x9
 3411 0c35 F3240000 		.4byte	.LASF377
 3412 0c39 7D01     		.2byte	0x17d
 3413 0c3b 09       		.uleb128 0x9
 3414 0c3c 11080000 		.4byte	.LASF378
 3415 0c40 7E01     		.2byte	0x17e
 3416 0c42 09       		.uleb128 0x9
 3417 0c43 7E060000 		.4byte	.LASF379
 3418 0c47 7F01     		.2byte	0x17f
 3419 0c49 09       		.uleb128 0x9
 3420 0c4a 6F040000 		.4byte	.LASF380
 3421 0c4e 8001     		.2byte	0x180
 3422 0c50 09       		.uleb128 0x9
 3423 0c51 183F0000 		.4byte	.LASF381
 3424 0c55 8101     		.2byte	0x181
 3425 0c57 09       		.uleb128 0x9
 3426 0c58 D4340000 		.4byte	.LASF382
 3427 0c5c 8201     		.2byte	0x182
 3428 0c5e 09       		.uleb128 0x9
 3429 0c5f 17470000 		.4byte	.LASF383
 3430 0c63 8301     		.2byte	0x183
ARM GAS  C:\Users\ASUS\AppData\Local\Temp\ccKl44WS.s 			page 83


 3431 0c65 09       		.uleb128 0x9
 3432 0c66 B4050000 		.4byte	.LASF384
 3433 0c6a 8401     		.2byte	0x184
 3434 0c6c 09       		.uleb128 0x9
 3435 0c6d BD360000 		.4byte	.LASF385
 3436 0c71 8501     		.2byte	0x185
 3437 0c73 09       		.uleb128 0x9
 3438 0c74 74460000 		.4byte	.LASF386
 3439 0c78 8601     		.2byte	0x186
 3440 0c7a 09       		.uleb128 0x9
 3441 0c7b 0E280000 		.4byte	.LASF387
 3442 0c7f 8701     		.2byte	0x187
 3443 0c81 09       		.uleb128 0x9
 3444 0c82 872B0000 		.4byte	.LASF388
 3445 0c86 8801     		.2byte	0x188
 3446 0c88 09       		.uleb128 0x9
 3447 0c89 76030000 		.4byte	.LASF389
 3448 0c8d 8901     		.2byte	0x189
 3449 0c8f 09       		.uleb128 0x9
 3450 0c90 CD300000 		.4byte	.LASF390
 3451 0c94 8A01     		.2byte	0x18a
 3452 0c96 09       		.uleb128 0x9
 3453 0c97 A8170000 		.4byte	.LASF391
 3454 0c9b 8B01     		.2byte	0x18b
 3455 0c9d 09       		.uleb128 0x9
 3456 0c9e 343A0000 		.4byte	.LASF392
 3457 0ca2 8C01     		.2byte	0x18c
 3458 0ca4 09       		.uleb128 0x9
 3459 0ca5 97350000 		.4byte	.LASF393
 3460 0ca9 8D01     		.2byte	0x18d
 3461 0cab 09       		.uleb128 0x9
 3462 0cac 563F0000 		.4byte	.LASF394
 3463 0cb0 8E01     		.2byte	0x18e
 3464 0cb2 09       		.uleb128 0x9
 3465 0cb3 D1250000 		.4byte	.LASF395
 3466 0cb7 8F01     		.2byte	0x18f
 3467 0cb9 09       		.uleb128 0x9
 3468 0cba 383C0000 		.4byte	.LASF396
 3469 0cbe 9001     		.2byte	0x190
 3470 0cc0 09       		.uleb128 0x9
 3471 0cc1 E3310000 		.4byte	.LASF397
 3472 0cc5 9101     		.2byte	0x191
 3473 0cc7 09       		.uleb128 0x9
 3474 0cc8 E0280000 		.4byte	.LASF398
 3475 0ccc 9201     		.2byte	0x192
 3476 0cce 09       		.uleb128 0x9
 3477 0ccf 3A340000 		.4byte	.LASF399
 3478 0cd3 9301     		.2byte	0x193
 3479 0cd5 09       		.uleb128 0x9
 3480 0cd6 4F1B0000 		.4byte	.LASF400
 3481 0cda 9401     		.2byte	0x194
 3482 0cdc 09       		.uleb128 0x9
 3483 0cdd 41070000 		.4byte	.LASF401
 3484 0ce1 9501     		.2byte	0x195
 3485 0ce3 09       		.uleb128 0x9
 3486 0ce4 AB410000 		.4byte	.LASF402
 3487 0ce8 9601     		.2byte	0x196
ARM GAS  C:\Users\ASUS\AppData\Local\Temp\ccKl44WS.s 			page 84


 3488 0cea 09       		.uleb128 0x9
 3489 0ceb 08430000 		.4byte	.LASF403
 3490 0cef 9701     		.2byte	0x197
 3491 0cf1 09       		.uleb128 0x9
 3492 0cf2 F6210000 		.4byte	.LASF404
 3493 0cf6 9801     		.2byte	0x198
 3494 0cf8 09       		.uleb128 0x9
 3495 0cf9 D1350000 		.4byte	.LASF405
 3496 0cfd 9901     		.2byte	0x199
 3497 0cff 09       		.uleb128 0x9
 3498 0d00 AD1F0000 		.4byte	.LASF406
 3499 0d04 9A01     		.2byte	0x19a
 3500 0d06 09       		.uleb128 0x9
 3501 0d07 80270000 		.4byte	.LASF407
 3502 0d0b 9B01     		.2byte	0x19b
 3503 0d0d 09       		.uleb128 0x9
 3504 0d0e 4F2E0000 		.4byte	.LASF408
 3505 0d12 9C01     		.2byte	0x19c
 3506 0d14 09       		.uleb128 0x9
 3507 0d15 86430000 		.4byte	.LASF409
 3508 0d19 9D01     		.2byte	0x19d
 3509 0d1b 09       		.uleb128 0x9
 3510 0d1c 4B250000 		.4byte	.LASF410
 3511 0d20 9E01     		.2byte	0x19e
 3512 0d22 09       		.uleb128 0x9
 3513 0d23 D6110000 		.4byte	.LASF411
 3514 0d27 9F01     		.2byte	0x19f
 3515 0d29 09       		.uleb128 0x9
 3516 0d2a CA0F0000 		.4byte	.LASF412
 3517 0d2e A001     		.2byte	0x1a0
 3518 0d30 09       		.uleb128 0x9
 3519 0d31 F9000000 		.4byte	.LASF413
 3520 0d35 A101     		.2byte	0x1a1
 3521 0d37 09       		.uleb128 0x9
 3522 0d38 00000000 		.4byte	.LASF414
 3523 0d3c A201     		.2byte	0x1a2
 3524 0d3e 09       		.uleb128 0x9
 3525 0d3f D2430000 		.4byte	.LASF415
 3526 0d43 A301     		.2byte	0x1a3
 3527 0d45 09       		.uleb128 0x9
 3528 0d46 592F0000 		.4byte	.LASF416
 3529 0d4a A401     		.2byte	0x1a4
 3530 0d4c 09       		.uleb128 0x9
 3531 0d4d D33F0000 		.4byte	.LASF417
 3532 0d51 A501     		.2byte	0x1a5
 3533 0d53 09       		.uleb128 0x9
 3534 0d54 BB220000 		.4byte	.LASF418
 3535 0d58 A601     		.2byte	0x1a6
 3536 0d5a 09       		.uleb128 0x9
 3537 0d5b 1D090000 		.4byte	.LASF419
 3538 0d5f A701     		.2byte	0x1a7
 3539 0d61 09       		.uleb128 0x9
 3540 0d62 CF1C0000 		.4byte	.LASF420
 3541 0d66 A801     		.2byte	0x1a8
 3542 0d68 09       		.uleb128 0x9
 3543 0d69 0F1C0000 		.4byte	.LASF421
 3544 0d6d A901     		.2byte	0x1a9
ARM GAS  C:\Users\ASUS\AppData\Local\Temp\ccKl44WS.s 			page 85


 3545 0d6f 09       		.uleb128 0x9
 3546 0d70 55200000 		.4byte	.LASF422
 3547 0d74 AA01     		.2byte	0x1aa
 3548 0d76 09       		.uleb128 0x9
 3549 0d77 80320000 		.4byte	.LASF423
 3550 0d7b AB01     		.2byte	0x1ab
 3551 0d7d 09       		.uleb128 0x9
 3552 0d7e 2B2A0000 		.4byte	.LASF424
 3553 0d82 AC01     		.2byte	0x1ac
 3554 0d84 09       		.uleb128 0x9
 3555 0d85 92160000 		.4byte	.LASF425
 3556 0d89 AD01     		.2byte	0x1ad
 3557 0d8b 09       		.uleb128 0x9
 3558 0d8c 9B3B0000 		.4byte	.LASF426
 3559 0d90 AE01     		.2byte	0x1ae
 3560 0d92 09       		.uleb128 0x9
 3561 0d93 D2460000 		.4byte	.LASF427
 3562 0d97 AF01     		.2byte	0x1af
 3563 0d99 09       		.uleb128 0x9
 3564 0d9a 47020000 		.4byte	.LASF428
 3565 0d9e B001     		.2byte	0x1b0
 3566 0da0 09       		.uleb128 0x9
 3567 0da1 CA1F0000 		.4byte	.LASF429
 3568 0da5 B101     		.2byte	0x1b1
 3569 0da7 09       		.uleb128 0x9
 3570 0da8 AD460000 		.4byte	.LASF430
 3571 0dac B201     		.2byte	0x1b2
 3572 0dae 09       		.uleb128 0x9
 3573 0daf 6D070000 		.4byte	.LASF431
 3574 0db3 B301     		.2byte	0x1b3
 3575 0db5 09       		.uleb128 0x9
 3576 0db6 0C200000 		.4byte	.LASF432
 3577 0dba B401     		.2byte	0x1b4
 3578 0dbc 09       		.uleb128 0x9
 3579 0dbd 351D0000 		.4byte	.LASF433
 3580 0dc1 B501     		.2byte	0x1b5
 3581 0dc3 09       		.uleb128 0x9
 3582 0dc4 8F070000 		.4byte	.LASF434
 3583 0dc8 B601     		.2byte	0x1b6
 3584 0dca 09       		.uleb128 0x9
 3585 0dcb 25070000 		.4byte	.LASF435
 3586 0dcf B701     		.2byte	0x1b7
 3587 0dd1 09       		.uleb128 0x9
 3588 0dd2 46150000 		.4byte	.LASF436
 3589 0dd6 B801     		.2byte	0x1b8
 3590 0dd8 09       		.uleb128 0x9
 3591 0dd9 F0350000 		.4byte	.LASF437
 3592 0ddd B901     		.2byte	0x1b9
 3593 0ddf 09       		.uleb128 0x9
 3594 0de0 4F180000 		.4byte	.LASF438
 3595 0de4 BA01     		.2byte	0x1ba
 3596 0de6 09       		.uleb128 0x9
 3597 0de7 06240000 		.4byte	.LASF439
 3598 0deb BB01     		.2byte	0x1bb
 3599 0ded 09       		.uleb128 0x9
 3600 0dee 84230000 		.4byte	.LASF440
 3601 0df2 BC01     		.2byte	0x1bc
ARM GAS  C:\Users\ASUS\AppData\Local\Temp\ccKl44WS.s 			page 86


 3602 0df4 09       		.uleb128 0x9
 3603 0df5 EE1F0000 		.4byte	.LASF441
 3604 0df9 BD01     		.2byte	0x1bd
 3605 0dfb 09       		.uleb128 0x9
 3606 0dfc 40350000 		.4byte	.LASF442
 3607 0e00 BE01     		.2byte	0x1be
 3608 0e02 09       		.uleb128 0x9
 3609 0e03 B82D0000 		.4byte	.LASF443
 3610 0e07 BF01     		.2byte	0x1bf
 3611 0e09 09       		.uleb128 0x9
 3612 0e0a D2180000 		.4byte	.LASF444
 3613 0e0e C001     		.2byte	0x1c0
 3614 0e10 09       		.uleb128 0x9
 3615 0e11 53030000 		.4byte	.LASF445
 3616 0e15 C101     		.2byte	0x1c1
 3617 0e17 09       		.uleb128 0x9
 3618 0e18 360C0000 		.4byte	.LASF446
 3619 0e1c C201     		.2byte	0x1c2
 3620 0e1e 09       		.uleb128 0x9
 3621 0e1f 1D010000 		.4byte	.LASF447
 3622 0e23 C301     		.2byte	0x1c3
 3623 0e25 09       		.uleb128 0x9
 3624 0e26 B5200000 		.4byte	.LASF448
 3625 0e2a C401     		.2byte	0x1c4
 3626 0e2c 09       		.uleb128 0x9
 3627 0e2d 25040000 		.4byte	.LASF449
 3628 0e31 C501     		.2byte	0x1c5
 3629 0e33 09       		.uleb128 0x9
 3630 0e34 07040000 		.4byte	.LASF450
 3631 0e38 C601     		.2byte	0x1c6
 3632 0e3a 09       		.uleb128 0x9
 3633 0e3b 99220000 		.4byte	.LASF451
 3634 0e3f C701     		.2byte	0x1c7
 3635 0e41 09       		.uleb128 0x9
 3636 0e42 EC430000 		.4byte	.LASF452
 3637 0e46 C801     		.2byte	0x1c8
 3638 0e48 09       		.uleb128 0x9
 3639 0e49 D3100000 		.4byte	.LASF453
 3640 0e4d C901     		.2byte	0x1c9
 3641 0e4f 09       		.uleb128 0x9
 3642 0e50 33390000 		.4byte	.LASF454
 3643 0e54 CA01     		.2byte	0x1ca
 3644 0e56 09       		.uleb128 0x9
 3645 0e57 062C0000 		.4byte	.LASF455
 3646 0e5b CB01     		.2byte	0x1cb
 3647 0e5d 09       		.uleb128 0x9
 3648 0e5e 89090000 		.4byte	.LASF456
 3649 0e62 CC01     		.2byte	0x1cc
 3650 0e64 09       		.uleb128 0x9
 3651 0e65 31280000 		.4byte	.LASF457
 3652 0e69 CD01     		.2byte	0x1cd
 3653 0e6b 09       		.uleb128 0x9
 3654 0e6c A4250000 		.4byte	.LASF458
 3655 0e70 CE01     		.2byte	0x1ce
 3656 0e72 09       		.uleb128 0x9
 3657 0e73 290B0000 		.4byte	.LASF459
 3658 0e77 CF01     		.2byte	0x1cf
ARM GAS  C:\Users\ASUS\AppData\Local\Temp\ccKl44WS.s 			page 87


 3659 0e79 09       		.uleb128 0x9
 3660 0e7a 27290000 		.4byte	.LASF460
 3661 0e7e D001     		.2byte	0x1d0
 3662 0e80 09       		.uleb128 0x9
 3663 0e81 F93D0000 		.4byte	.LASF461
 3664 0e85 D101     		.2byte	0x1d1
 3665 0e87 09       		.uleb128 0x9
 3666 0e88 D9320000 		.4byte	.LASF462
 3667 0e8c D201     		.2byte	0x1d2
 3668 0e8e 09       		.uleb128 0x9
 3669 0e8f EC130000 		.4byte	.LASF463
 3670 0e93 D301     		.2byte	0x1d3
 3671 0e95 09       		.uleb128 0x9
 3672 0e96 520A0000 		.4byte	.LASF464
 3673 0e9a D401     		.2byte	0x1d4
 3674 0e9c 09       		.uleb128 0x9
 3675 0e9d 1E0D0000 		.4byte	.LASF465
 3676 0ea1 D501     		.2byte	0x1d5
 3677 0ea3 09       		.uleb128 0x9
 3678 0ea4 731B0000 		.4byte	.LASF466
 3679 0ea8 D601     		.2byte	0x1d6
 3680 0eaa 09       		.uleb128 0x9
 3681 0eab 25450000 		.4byte	.LASF467
 3682 0eaf D701     		.2byte	0x1d7
 3683 0eb1 09       		.uleb128 0x9
 3684 0eb2 02270000 		.4byte	.LASF468
 3685 0eb6 D801     		.2byte	0x1d8
 3686 0eb8 09       		.uleb128 0x9
 3687 0eb9 933A0000 		.4byte	.LASF469
 3688 0ebd D901     		.2byte	0x1d9
 3689 0ebf 09       		.uleb128 0x9
 3690 0ec0 C8310000 		.4byte	.LASF470
 3691 0ec4 DA01     		.2byte	0x1da
 3692 0ec6 09       		.uleb128 0x9
 3693 0ec7 4E220000 		.4byte	.LASF471
 3694 0ecb DB01     		.2byte	0x1db
 3695 0ecd 09       		.uleb128 0x9
 3696 0ece 31030000 		.4byte	.LASF472
 3697 0ed2 DC01     		.2byte	0x1dc
 3698 0ed4 09       		.uleb128 0x9
 3699 0ed5 9F0B0000 		.4byte	.LASF473
 3700 0ed9 DD01     		.2byte	0x1dd
 3701 0edb 09       		.uleb128 0x9
 3702 0edc 783C0000 		.4byte	.LASF474
 3703 0ee0 DE01     		.2byte	0x1de
 3704 0ee2 09       		.uleb128 0x9
 3705 0ee3 74000000 		.4byte	.LASF475
 3706 0ee7 DF01     		.2byte	0x1df
 3707 0ee9 09       		.uleb128 0x9
 3708 0eea DD2A0000 		.4byte	.LASF476
 3709 0eee E001     		.2byte	0x1e0
 3710 0ef0 09       		.uleb128 0x9
 3711 0ef1 AE1B0000 		.4byte	.LASF477
 3712 0ef5 E101     		.2byte	0x1e1
 3713 0ef7 09       		.uleb128 0x9
 3714 0ef8 AB000000 		.4byte	.LASF478
 3715 0efc E201     		.2byte	0x1e2
ARM GAS  C:\Users\ASUS\AppData\Local\Temp\ccKl44WS.s 			page 88


 3716 0efe 09       		.uleb128 0x9
 3717 0eff 41210000 		.4byte	.LASF479
 3718 0f03 E301     		.2byte	0x1e3
 3719 0f05 09       		.uleb128 0x9
 3720 0f06 BF2E0000 		.4byte	.LASF480
 3721 0f0a E401     		.2byte	0x1e4
 3722 0f0c 09       		.uleb128 0x9
 3723 0f0d 4D310000 		.4byte	.LASF481
 3724 0f11 E501     		.2byte	0x1e5
 3725 0f13 09       		.uleb128 0x9
 3726 0f14 5C010000 		.4byte	.LASF482
 3727 0f18 E601     		.2byte	0x1e6
 3728 0f1a 09       		.uleb128 0x9
 3729 0f1b 851A0000 		.4byte	.LASF483
 3730 0f1f E701     		.2byte	0x1e7
 3731 0f21 09       		.uleb128 0x9
 3732 0f22 2D0A0000 		.4byte	.LASF484
 3733 0f26 E801     		.2byte	0x1e8
 3734 0f28 09       		.uleb128 0x9
 3735 0f29 912D0000 		.4byte	.LASF485
 3736 0f2d E901     		.2byte	0x1e9
 3737 0f2f 09       		.uleb128 0x9
 3738 0f30 C20A0000 		.4byte	.LASF486
 3739 0f34 EA01     		.2byte	0x1ea
 3740 0f36 09       		.uleb128 0x9
 3741 0f37 AB2B0000 		.4byte	.LASF487
 3742 0f3b EB01     		.2byte	0x1eb
 3743 0f3d 09       		.uleb128 0x9
 3744 0f3e FC3A0000 		.4byte	.LASF488
 3745 0f42 EC01     		.2byte	0x1ec
 3746 0f44 09       		.uleb128 0x9
 3747 0f45 551F0000 		.4byte	.LASF489
 3748 0f49 ED01     		.2byte	0x1ed
 3749 0f4b 09       		.uleb128 0x9
 3750 0f4c 0D100000 		.4byte	.LASF490
 3751 0f50 EE01     		.2byte	0x1ee
 3752 0f52 09       		.uleb128 0x9
 3753 0f53 7E3D0000 		.4byte	.LASF491
 3754 0f57 EF01     		.2byte	0x1ef
 3755 0f59 09       		.uleb128 0x9
 3756 0f5a 23130000 		.4byte	.LASF492
 3757 0f5e F001     		.2byte	0x1f0
 3758 0f60 09       		.uleb128 0x9
 3759 0f61 24230000 		.4byte	.LASF493
 3760 0f65 F101     		.2byte	0x1f1
 3761 0f67 09       		.uleb128 0x9
 3762 0f68 EB170000 		.4byte	.LASF494
 3763 0f6c F201     		.2byte	0x1f2
 3764 0f6e 09       		.uleb128 0x9
 3765 0f6f 62430000 		.4byte	.LASF495
 3766 0f73 F301     		.2byte	0x1f3
 3767 0f75 09       		.uleb128 0x9
 3768 0f76 C5150000 		.4byte	.LASF496
 3769 0f7a F401     		.2byte	0x1f4
 3770 0f7c 09       		.uleb128 0x9
 3771 0f7d 15150000 		.4byte	.LASF497
 3772 0f81 F501     		.2byte	0x1f5
ARM GAS  C:\Users\ASUS\AppData\Local\Temp\ccKl44WS.s 			page 89


 3773 0f83 09       		.uleb128 0x9
 3774 0f84 6C330000 		.4byte	.LASF498
 3775 0f88 F601     		.2byte	0x1f6
 3776 0f8a 09       		.uleb128 0x9
 3777 0f8b 1F3B0000 		.4byte	.LASF499
 3778 0f8f F701     		.2byte	0x1f7
 3779 0f91 09       		.uleb128 0x9
 3780 0f92 A6370000 		.4byte	.LASF500
 3781 0f96 F801     		.2byte	0x1f8
 3782 0f98 09       		.uleb128 0x9
 3783 0f99 29380000 		.4byte	.LASF501
 3784 0f9d F901     		.2byte	0x1f9
 3785 0f9f 09       		.uleb128 0x9
 3786 0fa0 8B240000 		.4byte	.LASF502
 3787 0fa4 FA01     		.2byte	0x1fa
 3788 0fa6 09       		.uleb128 0x9
 3789 0fa7 32310000 		.4byte	.LASF503
 3790 0fab FB01     		.2byte	0x1fb
 3791 0fad 09       		.uleb128 0x9
 3792 0fae 8B170000 		.4byte	.LASF504
 3793 0fb2 FC01     		.2byte	0x1fc
 3794 0fb4 09       		.uleb128 0x9
 3795 0fb5 8C3E0000 		.4byte	.LASF505
 3796 0fb9 FD01     		.2byte	0x1fd
 3797 0fbb 09       		.uleb128 0x9
 3798 0fbc 5C1E0000 		.4byte	.LASF506
 3799 0fc0 FE01     		.2byte	0x1fe
 3800 0fc2 09       		.uleb128 0x9
 3801 0fc3 0E320000 		.4byte	.LASF507
 3802 0fc7 FF01     		.2byte	0x1ff
 3803 0fc9 09       		.uleb128 0x9
 3804 0fca FF120000 		.4byte	.LASF508
 3805 0fce 0002     		.2byte	0x200
 3806 0fd0 09       		.uleb128 0x9
 3807 0fd1 B83D0000 		.4byte	.LASF509
 3808 0fd5 0102     		.2byte	0x201
 3809 0fd7 09       		.uleb128 0x9
 3810 0fd8 870C0000 		.4byte	.LASF510
 3811 0fdc 0202     		.2byte	0x202
 3812 0fde 09       		.uleb128 0x9
 3813 0fdf 10390000 		.4byte	.LASF511
 3814 0fe3 0302     		.2byte	0x203
 3815 0fe5 09       		.uleb128 0x9
 3816 0fe6 47330000 		.4byte	.LASF512
 3817 0fea 0402     		.2byte	0x204
 3818 0fec 09       		.uleb128 0x9
 3819 0fed 5A320000 		.4byte	.LASF513
 3820 0ff1 0502     		.2byte	0x205
 3821 0ff3 09       		.uleb128 0x9
 3822 0ff4 61120000 		.4byte	.LASF514
 3823 0ff8 0602     		.2byte	0x206
 3824 0ffa 09       		.uleb128 0x9
 3825 0ffb 0F140000 		.4byte	.LASF515
 3826 0fff 0702     		.2byte	0x207
 3827 1001 09       		.uleb128 0x9
 3828 1002 90050000 		.4byte	.LASF516
 3829 1006 0802     		.2byte	0x208
ARM GAS  C:\Users\ASUS\AppData\Local\Temp\ccKl44WS.s 			page 90


 3830 1008 09       		.uleb128 0x9
 3831 1009 2C140000 		.4byte	.LASF517
 3832 100d 0902     		.2byte	0x209
 3833 100f 09       		.uleb128 0x9
 3834 1010 98260000 		.4byte	.LASF518
 3835 1014 0A02     		.2byte	0x20a
 3836 1016 09       		.uleb128 0x9
 3837 1017 CE050000 		.4byte	.LASF519
 3838 101b 0B02     		.2byte	0x20b
 3839 101d 09       		.uleb128 0x9
 3840 101e 6A310000 		.4byte	.LASF520
 3841 1022 0C02     		.2byte	0x20c
 3842 1024 09       		.uleb128 0x9
 3843 1025 03450000 		.4byte	.LASF521
 3844 1029 0D02     		.2byte	0x20d
 3845 102b 09       		.uleb128 0x9
 3846 102c 24020000 		.4byte	.LASF522
 3847 1030 0E02     		.2byte	0x20e
 3848 1032 09       		.uleb128 0x9
 3849 1033 A9070000 		.4byte	.LASF523
 3850 1037 0F02     		.2byte	0x20f
 3851 1039 09       		.uleb128 0x9
 3852 103a 72150000 		.4byte	.LASF524
 3853 103e 1002     		.2byte	0x210
 3854 1040 09       		.uleb128 0x9
 3855 1041 2C2E0000 		.4byte	.LASF525
 3856 1045 1102     		.2byte	0x211
 3857 1047 09       		.uleb128 0x9
 3858 1048 09190000 		.4byte	.LASF526
 3859 104c 1202     		.2byte	0x212
 3860 104e 09       		.uleb128 0x9
 3861 104f 043C0000 		.4byte	.LASF527
 3862 1053 1302     		.2byte	0x213
 3863 1055 09       		.uleb128 0x9
 3864 1056 9A080000 		.4byte	.LASF528
 3865 105a 1402     		.2byte	0x214
 3866 105c 09       		.uleb128 0x9
 3867 105d 1F370000 		.4byte	.LASF529
 3868 1061 1502     		.2byte	0x215
 3869 1063 09       		.uleb128 0x9
 3870 1064 0F180000 		.4byte	.LASF530
 3871 1068 1602     		.2byte	0x216
 3872 106a 09       		.uleb128 0x9
 3873 106b BB140000 		.4byte	.LASF531
 3874 106f 1702     		.2byte	0x217
 3875 1071 09       		.uleb128 0x9
 3876 1072 58460000 		.4byte	.LASF532
 3877 1076 1802     		.2byte	0x218
 3878 1078 09       		.uleb128 0x9
 3879 1079 96450000 		.4byte	.LASF533
 3880 107d 1902     		.2byte	0x219
 3881 107f 09       		.uleb128 0x9
 3882 1080 DF260000 		.4byte	.LASF534
 3883 1084 1A02     		.2byte	0x21a
 3884 1086 09       		.uleb128 0x9
 3885 1087 86310000 		.4byte	.LASF535
 3886 108b 1B02     		.2byte	0x21b
ARM GAS  C:\Users\ASUS\AppData\Local\Temp\ccKl44WS.s 			page 91


 3887 108d 09       		.uleb128 0x9
 3888 108e 831D0000 		.4byte	.LASF536
 3889 1092 1C02     		.2byte	0x21c
 3890 1094 09       		.uleb128 0x9
 3891 1095 B0230000 		.4byte	.LASF537
 3892 1099 1D02     		.2byte	0x21d
 3893 109b 09       		.uleb128 0x9
 3894 109c C7130000 		.4byte	.LASF538
 3895 10a0 1E02     		.2byte	0x21e
 3896 10a2 09       		.uleb128 0x9
 3897 10a3 030B0000 		.4byte	.LASF539
 3898 10a7 1F02     		.2byte	0x21f
 3899 10a9 09       		.uleb128 0x9
 3900 10aa 47230000 		.4byte	.LASF540
 3901 10ae 2002     		.2byte	0x220
 3902 10b0 09       		.uleb128 0x9
 3903 10b1 323F0000 		.4byte	.LASF541
 3904 10b5 2102     		.2byte	0x221
 3905 10b7 09       		.uleb128 0x9
 3906 10b8 56390000 		.4byte	.LASF542
 3907 10bc 2202     		.2byte	0x222
 3908 10be 09       		.uleb128 0x9
 3909 10bf F92F0000 		.4byte	.LASF543
 3910 10c3 2302     		.2byte	0x223
 3911 10c5 09       		.uleb128 0x9
 3912 10c6 703F0000 		.4byte	.LASF544
 3913 10ca 2402     		.2byte	0x224
 3914 10cc 09       		.uleb128 0x9
 3915 10cd 58160000 		.4byte	.LASF545
 3916 10d1 2502     		.2byte	0x225
 3917 10d3 09       		.uleb128 0x9
 3918 10d4 99360000 		.4byte	.LASF546
 3919 10d8 2602     		.2byte	0x226
 3920 10da 09       		.uleb128 0x9
 3921 10db CD070000 		.4byte	.LASF547
 3922 10df 2702     		.2byte	0x227
 3923 10e1 09       		.uleb128 0x9
 3924 10e2 3E430000 		.4byte	.LASF548
 3925 10e6 2802     		.2byte	0x228
 3926 10e8 09       		.uleb128 0x9
 3927 10e9 673E0000 		.4byte	.LASF549
 3928 10ed 2902     		.2byte	0x229
 3929 10ef 09       		.uleb128 0x9
 3930 10f0 D9330000 		.4byte	.LASF550
 3931 10f4 2A02     		.2byte	0x22a
 3932 10f6 09       		.uleb128 0x9
 3933 10f7 A71D0000 		.4byte	.LASF551
 3934 10fb 2B02     		.2byte	0x22b
 3935 10fd 09       		.uleb128 0x9
 3936 10fe 2D190000 		.4byte	.LASF552
 3937 1102 2C02     		.2byte	0x22c
 3938 1104 09       		.uleb128 0x9
 3939 1105 ED290000 		.4byte	.LASF553
 3940 1109 2D02     		.2byte	0x22d
 3941 110b 09       		.uleb128 0x9
 3942 110c BA440000 		.4byte	.LASF554
 3943 1110 2E02     		.2byte	0x22e
ARM GAS  C:\Users\ASUS\AppData\Local\Temp\ccKl44WS.s 			page 92


 3944 1112 09       		.uleb128 0x9
 3945 1113 68220000 		.4byte	.LASF555
 3946 1117 2F02     		.2byte	0x22f
 3947 1119 09       		.uleb128 0x9
 3948 111a D81D0000 		.4byte	.LASF556
 3949 111e 3002     		.2byte	0x230
 3950 1120 09       		.uleb128 0x9
 3951 1121 BC0B0000 		.4byte	.LASF557
 3952 1125 00E0     		.2byte	0xe000
 3953 1127 00       		.byte	0
 3954 1128 07       		.uleb128 0x7
 3955 1129 01       		.byte	0x1
 3956 112a 2C000000 		.4byte	0x2c
 3957 112e 08       		.byte	0x8
 3958 112f A808     		.2byte	0x8a8
 3959 1131 60110000 		.4byte	0x1160
 3960 1135 08       		.uleb128 0x8
 3961 1136 51190000 		.4byte	.LASF558
 3962 113a 00       		.byte	0
 3963 113b 08       		.uleb128 0x8
 3964 113c A73E0000 		.4byte	.LASF559
 3965 1140 01       		.byte	0x1
 3966 1141 08       		.uleb128 0x8
 3967 1142 E9120000 		.4byte	.LASF560
 3968 1146 02       		.byte	0x2
 3969 1147 08       		.uleb128 0x8
 3970 1148 86020000 		.4byte	.LASF561
 3971 114c 03       		.byte	0x3
 3972 114d 08       		.uleb128 0x8
 3973 114e 7D1C0000 		.4byte	.LASF562
 3974 1152 04       		.byte	0x4
 3975 1153 08       		.uleb128 0x8
 3976 1154 A60D0000 		.4byte	.LASF563
 3977 1158 05       		.byte	0x5
 3978 1159 08       		.uleb128 0x8
 3979 115a 431E0000 		.4byte	.LASF564
 3980 115e 06       		.byte	0x6
 3981 115f 00       		.byte	0
 3982 1160 04       		.uleb128 0x4
 3983 1161 8B220000 		.4byte	.LASF565
 3984 1165 08       		.byte	0x8
 3985 1166 B608     		.2byte	0x8b6
 3986 1168 28110000 		.4byte	0x1128
 3987 116c 07       		.uleb128 0x7
 3988 116d 01       		.byte	0x1
 3989 116e 2C000000 		.4byte	0x2c
 3990 1172 08       		.byte	0x8
 3991 1173 EB08     		.2byte	0x8eb
 3992 1175 98110000 		.4byte	0x1198
 3993 1179 08       		.uleb128 0x8
 3994 117a 791F0000 		.4byte	.LASF566
 3995 117e 00       		.byte	0
 3996 117f 08       		.uleb128 0x8
 3997 1180 5F1D0000 		.4byte	.LASF567
 3998 1184 01       		.byte	0x1
 3999 1185 08       		.uleb128 0x8
 4000 1186 C0100000 		.4byte	.LASF568
ARM GAS  C:\Users\ASUS\AppData\Local\Temp\ccKl44WS.s 			page 93


 4001 118a 02       		.byte	0x2
 4002 118b 08       		.uleb128 0x8
 4003 118c E0270000 		.4byte	.LASF569
 4004 1190 02       		.byte	0x2
 4005 1191 08       		.uleb128 0x8
 4006 1192 95370000 		.4byte	.LASF570
 4007 1196 03       		.byte	0x3
 4008 1197 00       		.byte	0
 4009 1198 14       		.uleb128 0x14
 4010 1199 F2230000 		.4byte	.LASF581
 4011 119d 01       		.byte	0x1
 4012 119e 3E       		.byte	0x3e
 4013 119f 00000000 		.4byte	.LFB36
 4014 11a3 F4060000 		.4byte	.LFE36-.LFB36
 4015 11a7 01       		.uleb128 0x1
 4016 11a8 9C       		.byte	0x9c
 4017 11a9 4C120000 		.4byte	0x124c
 4018 11ad 15       		.uleb128 0x15
 4019 11ae 97000000 		.4byte	.LASF571
 4020 11b2 01       		.byte	0x1
 4021 11b3 3E       		.byte	0x3e
 4022 11b4 83000000 		.4byte	0x83
 4023 11b8 03       		.uleb128 0x3
 4024 11b9 91       		.byte	0x91
 4025 11ba 947F     		.sleb128 -108
 4026 11bc 15       		.uleb128 0x15
 4027 11bd 9F2F0000 		.4byte	.LASF572
 4028 11c1 01       		.byte	0x1
 4029 11c2 3E       		.byte	0x3e
 4030 11c3 C3000000 		.4byte	0xc3
 4031 11c7 03       		.uleb128 0x3
 4032 11c8 91       		.byte	0x91
 4033 11c9 907F     		.sleb128 -112
 4034 11cb 16       		.uleb128 0x16
 4035 11cc 980F0000 		.4byte	.LASF573
 4036 11d0 01       		.byte	0x1
 4037 11d1 41       		.byte	0x41
 4038 11d2 9C080000 		.4byte	0x89c
 4039 11d6 02       		.uleb128 0x2
 4040 11d7 91       		.byte	0x91
 4041 11d8 5C       		.sleb128 -36
 4042 11d9 16       		.uleb128 0x16
 4043 11da 4F050000 		.4byte	.LASF574
 4044 11de 01       		.byte	0x1
 4045 11df 42       		.byte	0x42
 4046 11e0 B2080000 		.4byte	0x8b2
 4047 11e4 02       		.uleb128 0x2
 4048 11e5 91       		.byte	0x91
 4049 11e6 50       		.sleb128 -48
 4050 11e7 16       		.uleb128 0x16
 4051 11e8 04460000 		.4byte	.LASF575
 4052 11ec 01       		.byte	0x1
 4053 11ed 43       		.byte	0x43
 4054 11ee D0050000 		.4byte	0x5d0
 4055 11f2 03       		.uleb128 0x3
 4056 11f3 91       		.byte	0x91
 4057 11f4 BC7F     		.sleb128 -68
ARM GAS  C:\Users\ASUS\AppData\Local\Temp\ccKl44WS.s 			page 94


 4058 11f6 16       		.uleb128 0x16
 4059 11f7 5D340000 		.4byte	.LASF576
 4060 11fb 01       		.byte	0x1
 4061 11fc 44       		.byte	0x44
 4062 11fd A7080000 		.4byte	0x8a7
 4063 1201 03       		.uleb128 0x3
 4064 1202 91       		.byte	0x91
 4065 1203 AC7F     		.sleb128 -84
 4066 1205 16       		.uleb128 0x16
 4067 1206 C9190000 		.4byte	.LASF577
 4068 120a 01       		.byte	0x1
 4069 120b 45       		.byte	0x45
 4070 120c 62030000 		.4byte	0x362
 4071 1210 02       		.uleb128 0x2
 4072 1211 91       		.byte	0x91
 4073 1212 6C       		.sleb128 -20
 4074 1213 16       		.uleb128 0x16
 4075 1214 F8200000 		.4byte	.LASF578
 4076 1218 01       		.byte	0x1
 4077 1219 46       		.byte	0x46
 4078 121a B2080000 		.4byte	0x8b2
 4079 121e 03       		.uleb128 0x3
 4080 121f 91       		.byte	0x91
 4081 1220 A07F     		.sleb128 -96
 4082 1222 17       		.uleb128 0x17
 4083 1223 C6040000 		.4byte	.LBB2
 4084 1227 D2000000 		.4byte	.LBE2-.LBB2
 4085 122b 18       		.uleb128 0x18
 4086 122c BC350000 		.4byte	.LASF579
 4087 1230 01       		.byte	0x1
 4088 1231 A101     		.2byte	0x1a1
 4089 1233 4C120000 		.4byte	0x124c
 4090 1237 03       		.uleb128 0x3
 4091 1238 91       		.byte	0x91
 4092 1239 987F     		.sleb128 -104
 4093 123b 18       		.uleb128 0x18
 4094 123c F00D0000 		.4byte	.LASF580
 4095 1240 01       		.byte	0x1
 4096 1241 A401     		.2byte	0x1a4
 4097 1243 6B000000 		.4byte	0x6b
 4098 1247 02       		.uleb128 0x2
 4099 1248 91       		.byte	0x91
 4100 1249 6F       		.sleb128 -17
 4101 124a 00       		.byte	0
 4102 124b 00       		.byte	0
 4103 124c 0C       		.uleb128 0xc
 4104 124d 6B000000 		.4byte	0x6b
 4105 1251 5C120000 		.4byte	0x125c
 4106 1255 0D       		.uleb128 0xd
 4107 1256 BC000000 		.4byte	0xbc
 4108 125a 04       		.byte	0x4
 4109 125b 00       		.byte	0
 4110 125c 19       		.uleb128 0x19
 4111 125d 72410000 		.4byte	.LASF582
 4112 1261 01       		.byte	0x1
 4113 1262 2602     		.2byte	0x226
 4114 1264 00000000 		.4byte	.LFB37
ARM GAS  C:\Users\ASUS\AppData\Local\Temp\ccKl44WS.s 			page 95


 4115 1268 F0010000 		.4byte	.LFE37-.LFB37
 4116 126c 01       		.uleb128 0x1
 4117 126d 9C       		.byte	0x9c
 4118 126e 82120000 		.4byte	0x1282
 4119 1272 18       		.uleb128 0x18
 4120 1273 C9190000 		.4byte	.LASF577
 4121 1277 01       		.byte	0x1
 4122 1278 2802     		.2byte	0x228
 4123 127a 62030000 		.4byte	0x362
 4124 127e 02       		.uleb128 0x2
 4125 127f 91       		.byte	0x91
 4126 1280 6E       		.sleb128 -18
 4127 1281 00       		.byte	0
 4128 1282 19       		.uleb128 0x19
 4129 1283 12350000 		.4byte	.LASF583
 4130 1287 01       		.byte	0x1
 4131 1288 CE02     		.2byte	0x2ce
 4132 128a 00000000 		.4byte	.LFB38
 4133 128e 88000000 		.4byte	.LFE38-.LFB38
 4134 1292 01       		.uleb128 0x1
 4135 1293 9C       		.byte	0x9c
 4136 1294 A8120000 		.4byte	0x12a8
 4137 1298 18       		.uleb128 0x18
 4138 1299 C9190000 		.4byte	.LASF577
 4139 129d 01       		.byte	0x1
 4140 129e D002     		.2byte	0x2d0
 4141 12a0 62030000 		.4byte	0x362
 4142 12a4 02       		.uleb128 0x2
 4143 12a5 91       		.byte	0x91
 4144 12a6 6E       		.sleb128 -18
 4145 12a7 00       		.byte	0
 4146 12a8 1A       		.uleb128 0x1a
 4147 12a9 F7270000 		.4byte	.LASF615
 4148 12ad 01       		.byte	0x1
 4149 12ae 1303     		.2byte	0x313
 4150 12b0 00000000 		.4byte	.LFB39
 4151 12b4 B0000000 		.4byte	.LFE39-.LFB39
 4152 12b8 01       		.uleb128 0x1
 4153 12b9 9C       		.byte	0x9c
 4154 12ba 19       		.uleb128 0x19
 4155 12bb B7150000 		.4byte	.LASF584
 4156 12bf 01       		.byte	0x1
 4157 12c0 4E03     		.2byte	0x34e
 4158 12c2 00000000 		.4byte	.LFB40
 4159 12c6 68000000 		.4byte	.LFE40-.LFB40
 4160 12ca 01       		.uleb128 0x1
 4161 12cb 9C       		.byte	0x9c
 4162 12cc 0D130000 		.4byte	0x130d
 4163 12d0 1B       		.uleb128 0x1b
 4164 12d1 14300000 		.4byte	.LASF585
 4165 12d5 01       		.byte	0x1
 4166 12d6 4E03     		.2byte	0x34e
 4167 12d8 6B000000 		.4byte	0x6b
 4168 12dc 02       		.uleb128 0x2
 4169 12dd 91       		.byte	0x91
 4170 12de 67       		.sleb128 -25
 4171 12df 1B       		.uleb128 0x1b
ARM GAS  C:\Users\ASUS\AppData\Local\Temp\ccKl44WS.s 			page 96


 4172 12e0 DC440000 		.4byte	.LASF242
 4173 12e4 01       		.byte	0x1
 4174 12e5 4E03     		.2byte	0x34e
 4175 12e7 9A070000 		.4byte	0x79a
 4176 12eb 02       		.uleb128 0x2
 4177 12ec 91       		.byte	0x91
 4178 12ed 64       		.sleb128 -28
 4179 12ee 1B       		.uleb128 0x1b
 4180 12ef 81240000 		.4byte	.LASF245
 4181 12f3 01       		.byte	0x1
 4182 12f4 4E03     		.2byte	0x34e
 4183 12f6 8E070000 		.4byte	0x78e
 4184 12fa 02       		.uleb128 0x2
 4185 12fb 91       		.byte	0x91
 4186 12fc 66       		.sleb128 -26
 4187 12fd 18       		.uleb128 0x18
 4188 12fe B42C0000 		.4byte	.LASF586
 4189 1302 01       		.byte	0x1
 4190 1303 5003     		.2byte	0x350
 4191 1305 70080000 		.4byte	0x870
 4192 1309 02       		.uleb128 0x2
 4193 130a 91       		.byte	0x91
 4194 130b 6C       		.sleb128 -20
 4195 130c 00       		.byte	0
 4196 130d 19       		.uleb128 0x19
 4197 130e 6C2E0000 		.4byte	.LASF587
 4198 1312 01       		.byte	0x1
 4199 1313 5C03     		.2byte	0x35c
 4200 1315 00000000 		.4byte	.LFB41
 4201 1319 A0000000 		.4byte	.LFE41-.LFB41
 4202 131d 01       		.uleb128 0x1
 4203 131e 9C       		.byte	0x9c
 4204 131f 42130000 		.4byte	0x1342
 4205 1323 1B       		.uleb128 0x1b
 4206 1324 F72B0000 		.4byte	.LASF588
 4207 1328 01       		.byte	0x1
 4208 1329 5C03     		.2byte	0x35c
 4209 132b AE030000 		.4byte	0x3ae
 4210 132f 02       		.uleb128 0x2
 4211 1330 91       		.byte	0x91
 4212 1331 64       		.sleb128 -28
 4213 1332 18       		.uleb128 0x18
 4214 1333 DF360000 		.4byte	.LASF589
 4215 1337 01       		.byte	0x1
 4216 1338 6803     		.2byte	0x368
 4217 133a 37080000 		.4byte	0x837
 4218 133e 02       		.uleb128 0x2
 4219 133f 91       		.byte	0x91
 4220 1340 6C       		.sleb128 -20
 4221 1341 00       		.byte	0
 4222 1342 1C       		.uleb128 0x1c
 4223 1343 BB290000 		.4byte	.LASF590
 4224 1347 09       		.byte	0x9
 4225 1348 B602     		.2byte	0x2b6
 4226 134a 6C050000 		.4byte	0x56c
 4227 134e 1C       		.uleb128 0x1c
 4228 134f 7A020000 		.4byte	.LASF591
ARM GAS  C:\Users\ASUS\AppData\Local\Temp\ccKl44WS.s 			page 97


 4229 1353 08       		.byte	0x8
 4230 1354 160B     		.2byte	0xb16
 4231 1356 60110000 		.4byte	0x1160
 4232 135a 1C       		.uleb128 0x1c
 4233 135b A5320000 		.4byte	.LASF592
 4234 135f 08       		.byte	0x8
 4235 1360 170B     		.2byte	0xb17
 4236 1362 CA070000 		.4byte	0x7ca
 4237 1366 1D       		.uleb128 0x1d
 4238 1367 A2270000 		.4byte	.LASF593
 4239 136b 0A       		.byte	0xa
 4240 136c 22       		.byte	0x22
 4241 136d B0000000 		.4byte	0xb0
 4242 1371 05       		.uleb128 0x5
 4243 1372 03       		.byte	0x3
 4244 1373 00000000 		.4byte	current_watchdog_counter
 4245 1377 1E       		.uleb128 0x1e
 4246 1378 921C0000 		.4byte	.LASF594
 4247 137c 0A       		.byte	0xa
 4248 137d 25       		.byte	0x25
 4249 137e 5D000000 		.4byte	0x5d
 4250 1382 1E       		.uleb128 0x1e
 4251 1383 24260000 		.4byte	.LASF595
 4252 1387 0A       		.byte	0xa
 4253 1388 26       		.byte	0x26
 4254 1389 6B000000 		.4byte	0x6b
 4255 138d 1E       		.uleb128 0x1e
 4256 138e 3F2F0000 		.4byte	.LASF596
 4257 1392 0A       		.byte	0xa
 4258 1393 27       		.byte	0x27
 4259 1394 5D000000 		.4byte	0x5d
 4260 1398 0C       		.uleb128 0xc
 4261 1399 A9000000 		.4byte	0xa9
 4262 139d A8130000 		.4byte	0x13a8
 4263 13a1 0D       		.uleb128 0xd
 4264 13a2 BC000000 		.4byte	0xbc
 4265 13a6 31       		.byte	0x31
 4266 13a7 00       		.byte	0
 4267 13a8 1D       		.uleb128 0x1d
 4268 13a9 57470000 		.4byte	.LASF597
 4269 13ad 01       		.byte	0x1
 4270 13ae 15       		.byte	0x15
 4271 13af 98130000 		.4byte	0x1398
 4272 13b3 05       		.uleb128 0x5
 4273 13b4 03       		.byte	0x3
 4274 13b5 00000000 		.4byte	TEXT_BUF
 4275 13b9 0C       		.uleb128 0xc
 4276 13ba 6B000000 		.4byte	0x6b
 4277 13be C9130000 		.4byte	0x13c9
 4278 13c2 0D       		.uleb128 0xd
 4279 13c3 BC000000 		.4byte	0xbc
 4280 13c7 03       		.byte	0x3
 4281 13c8 00       		.byte	0
 4282 13c9 1D       		.uleb128 0x1d
 4283 13ca 892D0000 		.4byte	.LASF598
 4284 13ce 01       		.byte	0x1
 4285 13cf 17       		.byte	0x17
ARM GAS  C:\Users\ASUS\AppData\Local\Temp\ccKl44WS.s 			page 98


 4286 13d0 B9130000 		.4byte	0x13b9
 4287 13d4 05       		.uleb128 0x5
 4288 13d5 03       		.byte	0x3
 4289 13d6 00000000 		.4byte	RGBData
 4290 13da 1D       		.uleb128 0x1d
 4291 13db 89120000 		.4byte	.LASF599
 4292 13df 01       		.byte	0x1
 4293 13e0 18       		.byte	0x18
 4294 13e1 6B000000 		.4byte	0x6b
 4295 13e5 05       		.uleb128 0x5
 4296 13e6 03       		.byte	0x3
 4297 13e7 00000000 		.4byte	dataADVCounter
 4298 13eb 1D       		.uleb128 0x1d
 4299 13ec 18260000 		.4byte	.LASF600
 4300 13f0 01       		.byte	0x1
 4301 13f1 19       		.byte	0x19
 4302 13f2 6B000000 		.4byte	0x6b
 4303 13f6 05       		.uleb128 0x5
 4304 13f7 03       		.byte	0x3
 4305 13f8 00000000 		.4byte	switch_Role
 4306 13fc 1D       		.uleb128 0x1d
 4307 13fd C5350000 		.4byte	.LASF601
 4308 1401 01       		.byte	0x1
 4309 1402 1C       		.byte	0x1c
 4310 1403 D3040000 		.4byte	0x4d3
 4311 1407 05       		.uleb128 0x5
 4312 1408 03       		.byte	0x3
 4313 1409 00000000 		.4byte	new_advData
 4314 140d 1D       		.uleb128 0x1d
 4315 140e CE0C0000 		.4byte	.LASF602
 4316 1412 01       		.byte	0x1
 4317 1413 1D       		.byte	0x1d
 4318 1414 6B000000 		.4byte	0x6b
 4319 1418 05       		.uleb128 0x5
 4320 1419 03       		.byte	0x3
 4321 141a 00000000 		.4byte	potential_node_found
 4322 141e 1D       		.uleb128 0x1d
 4323 141f 1C120000 		.4byte	.LASF603
 4324 1423 01       		.byte	0x1
 4325 1424 1E       		.byte	0x1e
 4326 1425 92030000 		.4byte	0x392
 4327 1429 05       		.uleb128 0x5
 4328 142a 03       		.byte	0x3
 4329 142b 00000000 		.4byte	potential_node_bdAddr
 4330 142f 1D       		.uleb128 0x1d
 4331 1430 42040000 		.4byte	.LASF604
 4332 1434 01       		.byte	0x1
 4333 1435 1F       		.byte	0x1f
 4334 1436 6B000000 		.4byte	0x6b
 4335 143a 05       		.uleb128 0x5
 4336 143b 03       		.byte	0x3
 4337 143c 00000000 		.4byte	potential_node_bdAddrType
 4338 1440 0C       		.uleb128 0xc
 4339 1441 6B000000 		.4byte	0x6b
 4340 1445 50140000 		.4byte	0x1450
 4341 1449 0D       		.uleb128 0xd
 4342 144a BC000000 		.4byte	0xbc
ARM GAS  C:\Users\ASUS\AppData\Local\Temp\ccKl44WS.s 			page 99


 4343 144e 13       		.byte	0x13
 4344 144f 00       		.byte	0
 4345 1450 1D       		.uleb128 0x1d
 4346 1451 63050000 		.4byte	.LASF605
 4347 1455 01       		.byte	0x1
 4348 1456 22       		.byte	0x22
 4349 1457 40140000 		.4byte	0x1440
 4350 145b 05       		.uleb128 0x5
 4351 145c 03       		.byte	0x3
 4352 145d 00000000 		.4byte	scan_tag
 4353 1461 1D       		.uleb128 0x1d
 4354 1462 77360000 		.4byte	.LASF606
 4355 1466 01       		.byte	0x1
 4356 1467 26       		.byte	0x26
 4357 1468 A2030000 		.4byte	0x3a2
 4358 146c 05       		.uleb128 0x5
 4359 146d 03       		.byte	0x3
 4360 146e 00000000 		.4byte	peripAddr
 4361 1472 1D       		.uleb128 0x1d
 4362 1473 28430000 		.4byte	.LASF607
 4363 1477 01       		.byte	0x1
 4364 1478 27       		.byte	0x27
 4365 1479 6B000000 		.4byte	0x6b
 4366 147d 05       		.uleb128 0x5
 4367 147e 03       		.byte	0x3
 4368 147f 00000000 		.4byte	clientConnectToDevice
 4369 1483 1D       		.uleb128 0x1d
 4370 1484 CA1D0000 		.4byte	.LASF608
 4371 1488 01       		.byte	0x1
 4372 1489 28       		.byte	0x28
 4373 148a 6B000000 		.4byte	0x6b
 4374 148e 05       		.uleb128 0x5
 4375 148f 03       		.byte	0x3
 4376 1490 00000000 		.4byte	ble_gap_state
 4377 1494 1D       		.uleb128 0x1d
 4378 1495 86290000 		.4byte	.LASF609
 4379 1499 01       		.byte	0x1
 4380 149a 2A       		.byte	0x2a
 4381 149b 6B000000 		.4byte	0x6b
 4382 149f 05       		.uleb128 0x5
 4383 14a0 03       		.byte	0x3
 4384 14a1 00000000 		.4byte	deviceConnected
 4385 14a5 1D       		.uleb128 0x1d
 4386 14a6 D71A0000 		.4byte	.LASF610
 4387 14aa 01       		.byte	0x1
 4388 14ab 2B       		.byte	0x2b
 4389 14ac 6B000000 		.4byte	0x6b
 4390 14b0 05       		.uleb128 0x5
 4391 14b1 03       		.byte	0x3
 4392 14b2 00000000 		.4byte	restartScanning
 4393 14b6 1D       		.uleb128 0x1d
 4394 14b7 16400000 		.4byte	.LASF611
 4395 14bb 01       		.byte	0x1
 4396 14bc 2C       		.byte	0x2c
 4397 14bd B0000000 		.4byte	0xb0
 4398 14c1 05       		.uleb128 0x5
 4399 14c2 03       		.byte	0x3
ARM GAS  C:\Users\ASUS\AppData\Local\Temp\ccKl44WS.s 			page 100


 4400 14c3 00000000 		.4byte	centralStartedTime
 4401 14c7 00       		.byte	0
 4402              		.section	.debug_abbrev,"",%progbits
 4403              	.Ldebug_abbrev0:
 4404 0000 01       		.uleb128 0x1
 4405 0001 11       		.uleb128 0x11
 4406 0002 01       		.byte	0x1
 4407 0003 25       		.uleb128 0x25
 4408 0004 0E       		.uleb128 0xe
 4409 0005 13       		.uleb128 0x13
 4410 0006 0B       		.uleb128 0xb
 4411 0007 03       		.uleb128 0x3
 4412 0008 0E       		.uleb128 0xe
 4413 0009 1B       		.uleb128 0x1b
 4414 000a 0E       		.uleb128 0xe
 4415 000b 55       		.uleb128 0x55
 4416 000c 17       		.uleb128 0x17
 4417 000d 11       		.uleb128 0x11
 4418 000e 01       		.uleb128 0x1
 4419 000f 10       		.uleb128 0x10
 4420 0010 17       		.uleb128 0x17
 4421 0011 00       		.byte	0
 4422 0012 00       		.byte	0
 4423 0013 02       		.uleb128 0x2
 4424 0014 24       		.uleb128 0x24
 4425 0015 00       		.byte	0
 4426 0016 0B       		.uleb128 0xb
 4427 0017 0B       		.uleb128 0xb
 4428 0018 3E       		.uleb128 0x3e
 4429 0019 0B       		.uleb128 0xb
 4430 001a 03       		.uleb128 0x3
 4431 001b 0E       		.uleb128 0xe
 4432 001c 00       		.byte	0
 4433 001d 00       		.byte	0
 4434 001e 03       		.uleb128 0x3
 4435 001f 24       		.uleb128 0x24
 4436 0020 00       		.byte	0
 4437 0021 0B       		.uleb128 0xb
 4438 0022 0B       		.uleb128 0xb
 4439 0023 3E       		.uleb128 0x3e
 4440 0024 0B       		.uleb128 0xb
 4441 0025 03       		.uleb128 0x3
 4442 0026 08       		.uleb128 0x8
 4443 0027 00       		.byte	0
 4444 0028 00       		.byte	0
 4445 0029 04       		.uleb128 0x4
 4446 002a 16       		.uleb128 0x16
 4447 002b 00       		.byte	0
 4448 002c 03       		.uleb128 0x3
 4449 002d 0E       		.uleb128 0xe
 4450 002e 3A       		.uleb128 0x3a
 4451 002f 0B       		.uleb128 0xb
 4452 0030 3B       		.uleb128 0x3b
 4453 0031 05       		.uleb128 0x5
 4454 0032 49       		.uleb128 0x49
 4455 0033 13       		.uleb128 0x13
 4456 0034 00       		.byte	0
ARM GAS  C:\Users\ASUS\AppData\Local\Temp\ccKl44WS.s 			page 101


 4457 0035 00       		.byte	0
 4458 0036 05       		.uleb128 0x5
 4459 0037 35       		.uleb128 0x35
 4460 0038 00       		.byte	0
 4461 0039 49       		.uleb128 0x49
 4462 003a 13       		.uleb128 0x13
 4463 003b 00       		.byte	0
 4464 003c 00       		.byte	0
 4465 003d 06       		.uleb128 0x6
 4466 003e 0F       		.uleb128 0xf
 4467 003f 00       		.byte	0
 4468 0040 0B       		.uleb128 0xb
 4469 0041 0B       		.uleb128 0xb
 4470 0042 00       		.byte	0
 4471 0043 00       		.byte	0
 4472 0044 07       		.uleb128 0x7
 4473 0045 04       		.uleb128 0x4
 4474 0046 01       		.byte	0x1
 4475 0047 0B       		.uleb128 0xb
 4476 0048 0B       		.uleb128 0xb
 4477 0049 49       		.uleb128 0x49
 4478 004a 13       		.uleb128 0x13
 4479 004b 3A       		.uleb128 0x3a
 4480 004c 0B       		.uleb128 0xb
 4481 004d 3B       		.uleb128 0x3b
 4482 004e 05       		.uleb128 0x5
 4483 004f 01       		.uleb128 0x1
 4484 0050 13       		.uleb128 0x13
 4485 0051 00       		.byte	0
 4486 0052 00       		.byte	0
 4487 0053 08       		.uleb128 0x8
 4488 0054 28       		.uleb128 0x28
 4489 0055 00       		.byte	0
 4490 0056 03       		.uleb128 0x3
 4491 0057 0E       		.uleb128 0xe
 4492 0058 1C       		.uleb128 0x1c
 4493 0059 0B       		.uleb128 0xb
 4494 005a 00       		.byte	0
 4495 005b 00       		.byte	0
 4496 005c 09       		.uleb128 0x9
 4497 005d 28       		.uleb128 0x28
 4498 005e 00       		.byte	0
 4499 005f 03       		.uleb128 0x3
 4500 0060 0E       		.uleb128 0xe
 4501 0061 1C       		.uleb128 0x1c
 4502 0062 05       		.uleb128 0x5
 4503 0063 00       		.byte	0
 4504 0064 00       		.byte	0
 4505 0065 0A       		.uleb128 0xa
 4506 0066 13       		.uleb128 0x13
 4507 0067 01       		.byte	0x1
 4508 0068 0B       		.uleb128 0xb
 4509 0069 0B       		.uleb128 0xb
 4510 006a 3A       		.uleb128 0x3a
 4511 006b 0B       		.uleb128 0xb
 4512 006c 3B       		.uleb128 0x3b
 4513 006d 05       		.uleb128 0x5
ARM GAS  C:\Users\ASUS\AppData\Local\Temp\ccKl44WS.s 			page 102


 4514 006e 01       		.uleb128 0x1
 4515 006f 13       		.uleb128 0x13
 4516 0070 00       		.byte	0
 4517 0071 00       		.byte	0
 4518 0072 0B       		.uleb128 0xb
 4519 0073 0D       		.uleb128 0xd
 4520 0074 00       		.byte	0
 4521 0075 03       		.uleb128 0x3
 4522 0076 0E       		.uleb128 0xe
 4523 0077 3A       		.uleb128 0x3a
 4524 0078 0B       		.uleb128 0xb
 4525 0079 3B       		.uleb128 0x3b
 4526 007a 05       		.uleb128 0x5
 4527 007b 49       		.uleb128 0x49
 4528 007c 13       		.uleb128 0x13
 4529 007d 38       		.uleb128 0x38
 4530 007e 0B       		.uleb128 0xb
 4531 007f 00       		.byte	0
 4532 0080 00       		.byte	0
 4533 0081 0C       		.uleb128 0xc
 4534 0082 01       		.uleb128 0x1
 4535 0083 01       		.byte	0x1
 4536 0084 49       		.uleb128 0x49
 4537 0085 13       		.uleb128 0x13
 4538 0086 01       		.uleb128 0x1
 4539 0087 13       		.uleb128 0x13
 4540 0088 00       		.byte	0
 4541 0089 00       		.byte	0
 4542 008a 0D       		.uleb128 0xd
 4543 008b 21       		.uleb128 0x21
 4544 008c 00       		.byte	0
 4545 008d 49       		.uleb128 0x49
 4546 008e 13       		.uleb128 0x13
 4547 008f 2F       		.uleb128 0x2f
 4548 0090 0B       		.uleb128 0xb
 4549 0091 00       		.byte	0
 4550 0092 00       		.byte	0
 4551 0093 0E       		.uleb128 0xe
 4552 0094 0F       		.uleb128 0xf
 4553 0095 00       		.byte	0
 4554 0096 0B       		.uleb128 0xb
 4555 0097 0B       		.uleb128 0xb
 4556 0098 49       		.uleb128 0x49
 4557 0099 13       		.uleb128 0x13
 4558 009a 00       		.byte	0
 4559 009b 00       		.byte	0
 4560 009c 0F       		.uleb128 0xf
 4561 009d 04       		.uleb128 0x4
 4562 009e 01       		.byte	0x1
 4563 009f 0B       		.uleb128 0xb
 4564 00a0 0B       		.uleb128 0xb
 4565 00a1 49       		.uleb128 0x49
 4566 00a2 13       		.uleb128 0x13
 4567 00a3 3A       		.uleb128 0x3a
 4568 00a4 0B       		.uleb128 0xb
 4569 00a5 3B       		.uleb128 0x3b
 4570 00a6 0B       		.uleb128 0xb
ARM GAS  C:\Users\ASUS\AppData\Local\Temp\ccKl44WS.s 			page 103


 4571 00a7 01       		.uleb128 0x1
 4572 00a8 13       		.uleb128 0x13
 4573 00a9 00       		.byte	0
 4574 00aa 00       		.byte	0
 4575 00ab 10       		.uleb128 0x10
 4576 00ac 16       		.uleb128 0x16
 4577 00ad 00       		.byte	0
 4578 00ae 03       		.uleb128 0x3
 4579 00af 0E       		.uleb128 0xe
 4580 00b0 3A       		.uleb128 0x3a
 4581 00b1 0B       		.uleb128 0xb
 4582 00b2 3B       		.uleb128 0x3b
 4583 00b3 0B       		.uleb128 0xb
 4584 00b4 49       		.uleb128 0x49
 4585 00b5 13       		.uleb128 0x13
 4586 00b6 00       		.byte	0
 4587 00b7 00       		.byte	0
 4588 00b8 11       		.uleb128 0x11
 4589 00b9 0D       		.uleb128 0xd
 4590 00ba 00       		.byte	0
 4591 00bb 03       		.uleb128 0x3
 4592 00bc 08       		.uleb128 0x8
 4593 00bd 3A       		.uleb128 0x3a
 4594 00be 0B       		.uleb128 0xb
 4595 00bf 3B       		.uleb128 0x3b
 4596 00c0 05       		.uleb128 0x5
 4597 00c1 49       		.uleb128 0x49
 4598 00c2 13       		.uleb128 0x13
 4599 00c3 38       		.uleb128 0x38
 4600 00c4 0B       		.uleb128 0xb
 4601 00c5 00       		.byte	0
 4602 00c6 00       		.byte	0
 4603 00c7 12       		.uleb128 0x12
 4604 00c8 13       		.uleb128 0x13
 4605 00c9 01       		.byte	0x1
 4606 00ca 0B       		.uleb128 0xb
 4607 00cb 0B       		.uleb128 0xb
 4608 00cc 3A       		.uleb128 0x3a
 4609 00cd 0B       		.uleb128 0xb
 4610 00ce 3B       		.uleb128 0x3b
 4611 00cf 0B       		.uleb128 0xb
 4612 00d0 01       		.uleb128 0x1
 4613 00d1 13       		.uleb128 0x13
 4614 00d2 00       		.byte	0
 4615 00d3 00       		.byte	0
 4616 00d4 13       		.uleb128 0x13
 4617 00d5 0D       		.uleb128 0xd
 4618 00d6 00       		.byte	0
 4619 00d7 03       		.uleb128 0x3
 4620 00d8 0E       		.uleb128 0xe
 4621 00d9 3A       		.uleb128 0x3a
 4622 00da 0B       		.uleb128 0xb
 4623 00db 3B       		.uleb128 0x3b
 4624 00dc 0B       		.uleb128 0xb
 4625 00dd 49       		.uleb128 0x49
 4626 00de 13       		.uleb128 0x13
 4627 00df 38       		.uleb128 0x38
ARM GAS  C:\Users\ASUS\AppData\Local\Temp\ccKl44WS.s 			page 104


 4628 00e0 0B       		.uleb128 0xb
 4629 00e1 00       		.byte	0
 4630 00e2 00       		.byte	0
 4631 00e3 14       		.uleb128 0x14
 4632 00e4 2E       		.uleb128 0x2e
 4633 00e5 01       		.byte	0x1
 4634 00e6 3F       		.uleb128 0x3f
 4635 00e7 19       		.uleb128 0x19
 4636 00e8 03       		.uleb128 0x3
 4637 00e9 0E       		.uleb128 0xe
 4638 00ea 3A       		.uleb128 0x3a
 4639 00eb 0B       		.uleb128 0xb
 4640 00ec 3B       		.uleb128 0x3b
 4641 00ed 0B       		.uleb128 0xb
 4642 00ee 27       		.uleb128 0x27
 4643 00ef 19       		.uleb128 0x19
 4644 00f0 11       		.uleb128 0x11
 4645 00f1 01       		.uleb128 0x1
 4646 00f2 12       		.uleb128 0x12
 4647 00f3 06       		.uleb128 0x6
 4648 00f4 40       		.uleb128 0x40
 4649 00f5 18       		.uleb128 0x18
 4650 00f6 9642     		.uleb128 0x2116
 4651 00f8 19       		.uleb128 0x19
 4652 00f9 01       		.uleb128 0x1
 4653 00fa 13       		.uleb128 0x13
 4654 00fb 00       		.byte	0
 4655 00fc 00       		.byte	0
 4656 00fd 15       		.uleb128 0x15
 4657 00fe 05       		.uleb128 0x5
 4658 00ff 00       		.byte	0
 4659 0100 03       		.uleb128 0x3
 4660 0101 0E       		.uleb128 0xe
 4661 0102 3A       		.uleb128 0x3a
 4662 0103 0B       		.uleb128 0xb
 4663 0104 3B       		.uleb128 0x3b
 4664 0105 0B       		.uleb128 0xb
 4665 0106 49       		.uleb128 0x49
 4666 0107 13       		.uleb128 0x13
 4667 0108 02       		.uleb128 0x2
 4668 0109 18       		.uleb128 0x18
 4669 010a 00       		.byte	0
 4670 010b 00       		.byte	0
 4671 010c 16       		.uleb128 0x16
 4672 010d 34       		.uleb128 0x34
 4673 010e 00       		.byte	0
 4674 010f 03       		.uleb128 0x3
 4675 0110 0E       		.uleb128 0xe
 4676 0111 3A       		.uleb128 0x3a
 4677 0112 0B       		.uleb128 0xb
 4678 0113 3B       		.uleb128 0x3b
 4679 0114 0B       		.uleb128 0xb
 4680 0115 49       		.uleb128 0x49
 4681 0116 13       		.uleb128 0x13
 4682 0117 02       		.uleb128 0x2
 4683 0118 18       		.uleb128 0x18
 4684 0119 00       		.byte	0
ARM GAS  C:\Users\ASUS\AppData\Local\Temp\ccKl44WS.s 			page 105


 4685 011a 00       		.byte	0
 4686 011b 17       		.uleb128 0x17
 4687 011c 0B       		.uleb128 0xb
 4688 011d 01       		.byte	0x1
 4689 011e 11       		.uleb128 0x11
 4690 011f 01       		.uleb128 0x1
 4691 0120 12       		.uleb128 0x12
 4692 0121 06       		.uleb128 0x6
 4693 0122 00       		.byte	0
 4694 0123 00       		.byte	0
 4695 0124 18       		.uleb128 0x18
 4696 0125 34       		.uleb128 0x34
 4697 0126 00       		.byte	0
 4698 0127 03       		.uleb128 0x3
 4699 0128 0E       		.uleb128 0xe
 4700 0129 3A       		.uleb128 0x3a
 4701 012a 0B       		.uleb128 0xb
 4702 012b 3B       		.uleb128 0x3b
 4703 012c 05       		.uleb128 0x5
 4704 012d 49       		.uleb128 0x49
 4705 012e 13       		.uleb128 0x13
 4706 012f 02       		.uleb128 0x2
 4707 0130 18       		.uleb128 0x18
 4708 0131 00       		.byte	0
 4709 0132 00       		.byte	0
 4710 0133 19       		.uleb128 0x19
 4711 0134 2E       		.uleb128 0x2e
 4712 0135 01       		.byte	0x1
 4713 0136 3F       		.uleb128 0x3f
 4714 0137 19       		.uleb128 0x19
 4715 0138 03       		.uleb128 0x3
 4716 0139 0E       		.uleb128 0xe
 4717 013a 3A       		.uleb128 0x3a
 4718 013b 0B       		.uleb128 0xb
 4719 013c 3B       		.uleb128 0x3b
 4720 013d 05       		.uleb128 0x5
 4721 013e 27       		.uleb128 0x27
 4722 013f 19       		.uleb128 0x19
 4723 0140 11       		.uleb128 0x11
 4724 0141 01       		.uleb128 0x1
 4725 0142 12       		.uleb128 0x12
 4726 0143 06       		.uleb128 0x6
 4727 0144 40       		.uleb128 0x40
 4728 0145 18       		.uleb128 0x18
 4729 0146 9642     		.uleb128 0x2116
 4730 0148 19       		.uleb128 0x19
 4731 0149 01       		.uleb128 0x1
 4732 014a 13       		.uleb128 0x13
 4733 014b 00       		.byte	0
 4734 014c 00       		.byte	0
 4735 014d 1A       		.uleb128 0x1a
 4736 014e 2E       		.uleb128 0x2e
 4737 014f 00       		.byte	0
 4738 0150 3F       		.uleb128 0x3f
 4739 0151 19       		.uleb128 0x19
 4740 0152 03       		.uleb128 0x3
 4741 0153 0E       		.uleb128 0xe
ARM GAS  C:\Users\ASUS\AppData\Local\Temp\ccKl44WS.s 			page 106


 4742 0154 3A       		.uleb128 0x3a
 4743 0155 0B       		.uleb128 0xb
 4744 0156 3B       		.uleb128 0x3b
 4745 0157 05       		.uleb128 0x5
 4746 0158 27       		.uleb128 0x27
 4747 0159 19       		.uleb128 0x19
 4748 015a 11       		.uleb128 0x11
 4749 015b 01       		.uleb128 0x1
 4750 015c 12       		.uleb128 0x12
 4751 015d 06       		.uleb128 0x6
 4752 015e 40       		.uleb128 0x40
 4753 015f 18       		.uleb128 0x18
 4754 0160 9642     		.uleb128 0x2116
 4755 0162 19       		.uleb128 0x19
 4756 0163 00       		.byte	0
 4757 0164 00       		.byte	0
 4758 0165 1B       		.uleb128 0x1b
 4759 0166 05       		.uleb128 0x5
 4760 0167 00       		.byte	0
 4761 0168 03       		.uleb128 0x3
 4762 0169 0E       		.uleb128 0xe
 4763 016a 3A       		.uleb128 0x3a
 4764 016b 0B       		.uleb128 0xb
 4765 016c 3B       		.uleb128 0x3b
 4766 016d 05       		.uleb128 0x5
 4767 016e 49       		.uleb128 0x49
 4768 016f 13       		.uleb128 0x13
 4769 0170 02       		.uleb128 0x2
 4770 0171 18       		.uleb128 0x18
 4771 0172 00       		.byte	0
 4772 0173 00       		.byte	0
 4773 0174 1C       		.uleb128 0x1c
 4774 0175 34       		.uleb128 0x34
 4775 0176 00       		.byte	0
 4776 0177 03       		.uleb128 0x3
 4777 0178 0E       		.uleb128 0xe
 4778 0179 3A       		.uleb128 0x3a
 4779 017a 0B       		.uleb128 0xb
 4780 017b 3B       		.uleb128 0x3b
 4781 017c 05       		.uleb128 0x5
 4782 017d 49       		.uleb128 0x49
 4783 017e 13       		.uleb128 0x13
 4784 017f 3F       		.uleb128 0x3f
 4785 0180 19       		.uleb128 0x19
 4786 0181 3C       		.uleb128 0x3c
 4787 0182 19       		.uleb128 0x19
 4788 0183 00       		.byte	0
 4789 0184 00       		.byte	0
 4790 0185 1D       		.uleb128 0x1d
 4791 0186 34       		.uleb128 0x34
 4792 0187 00       		.byte	0
 4793 0188 03       		.uleb128 0x3
 4794 0189 0E       		.uleb128 0xe
 4795 018a 3A       		.uleb128 0x3a
 4796 018b 0B       		.uleb128 0xb
 4797 018c 3B       		.uleb128 0x3b
 4798 018d 0B       		.uleb128 0xb
ARM GAS  C:\Users\ASUS\AppData\Local\Temp\ccKl44WS.s 			page 107


 4799 018e 49       		.uleb128 0x49
 4800 018f 13       		.uleb128 0x13
 4801 0190 3F       		.uleb128 0x3f
 4802 0191 19       		.uleb128 0x19
 4803 0192 02       		.uleb128 0x2
 4804 0193 18       		.uleb128 0x18
 4805 0194 00       		.byte	0
 4806 0195 00       		.byte	0
 4807 0196 1E       		.uleb128 0x1e
 4808 0197 34       		.uleb128 0x34
 4809 0198 00       		.byte	0
 4810 0199 03       		.uleb128 0x3
 4811 019a 0E       		.uleb128 0xe
 4812 019b 3A       		.uleb128 0x3a
 4813 019c 0B       		.uleb128 0xb
 4814 019d 3B       		.uleb128 0x3b
 4815 019e 0B       		.uleb128 0xb
 4816 019f 49       		.uleb128 0x49
 4817 01a0 13       		.uleb128 0x13
 4818 01a1 3F       		.uleb128 0x3f
 4819 01a2 19       		.uleb128 0x19
 4820 01a3 3C       		.uleb128 0x3c
 4821 01a4 19       		.uleb128 0x19
 4822 01a5 00       		.byte	0
 4823 01a6 00       		.byte	0
 4824 01a7 00       		.byte	0
 4825              		.section	.debug_aranges,"",%progbits
 4826 0000 44000000 		.4byte	0x44
 4827 0004 0200     		.2byte	0x2
 4828 0006 00000000 		.4byte	.Ldebug_info0
 4829 000a 04       		.byte	0x4
 4830 000b 00       		.byte	0
 4831 000c 0000     		.2byte	0
 4832 000e 0000     		.2byte	0
 4833 0010 00000000 		.4byte	.LFB36
 4834 0014 F4060000 		.4byte	.LFE36-.LFB36
 4835 0018 00000000 		.4byte	.LFB37
 4836 001c F0010000 		.4byte	.LFE37-.LFB37
 4837 0020 00000000 		.4byte	.LFB38
 4838 0024 88000000 		.4byte	.LFE38-.LFB38
 4839 0028 00000000 		.4byte	.LFB39
 4840 002c B0000000 		.4byte	.LFE39-.LFB39
 4841 0030 00000000 		.4byte	.LFB40
 4842 0034 68000000 		.4byte	.LFE40-.LFB40
 4843 0038 00000000 		.4byte	.LFB41
 4844 003c A0000000 		.4byte	.LFE41-.LFB41
 4845 0040 00000000 		.4byte	0
 4846 0044 00000000 		.4byte	0
 4847              		.section	.debug_ranges,"",%progbits
 4848              	.Ldebug_ranges0:
 4849 0000 00000000 		.4byte	.LFB36
 4850 0004 F4060000 		.4byte	.LFE36
 4851 0008 00000000 		.4byte	.LFB37
 4852 000c F0010000 		.4byte	.LFE37
 4853 0010 00000000 		.4byte	.LFB38
 4854 0014 88000000 		.4byte	.LFE38
 4855 0018 00000000 		.4byte	.LFB39
ARM GAS  C:\Users\ASUS\AppData\Local\Temp\ccKl44WS.s 			page 108


 4856 001c B0000000 		.4byte	.LFE39
 4857 0020 00000000 		.4byte	.LFB40
 4858 0024 68000000 		.4byte	.LFE40
 4859 0028 00000000 		.4byte	.LFB41
 4860 002c A0000000 		.4byte	.LFE41
 4861 0030 00000000 		.4byte	0
 4862 0034 00000000 		.4byte	0
 4863              		.section	.debug_line,"",%progbits
 4864              	.Ldebug_line0:
 4865 0000 C8020000 		.section	.debug_str,"MS",%progbits,1
 4865      0200D900 
 4865      00000201 
 4865      FB0E0D00 
 4865      01010101 
 4866              	.LASF414:
 4867 0000 4359424C 		.ascii	"CYBLE_EVT_HPSS_NOTIFICATION_DISABLED\000"
 4867      455F4556 
 4867      545F4850 
 4867      53535F4E 
 4867      4F544946 
 4868              	.LASF104:
 4869 0025 4359424C 		.ascii	"CYBLE_ERROR_L2CAP_PSM_ALREADY_REGISTERED\000"
 4869      455F4552 
 4869      524F525F 
 4869      4C324341 
 4869      505F5053 
 4870              	.LASF356:
 4871 004e 4359424C 		.ascii	"CYBLE_EVT_CSCSS_NOTIFICATION_DISABLED\000"
 4871      455F4556 
 4871      545F4353 
 4871      4353535F 
 4871      4E4F5449 
 4872              	.LASF475:
 4873 0074 4359424C 		.ascii	"CYBLE_EVT_OTSC_READ_DESCR_RESPONSE\000"
 4873      455F4556 
 4873      545F4F54 
 4873      53435F52 
 4873      4541445F 
 4874              	.LASF571:
 4875 0097 6576656E 		.ascii	"event\000"
 4875      7400
 4876              	.LASF89:
 4877 009d 4359424C 		.ascii	"CYBLE_EVT_MAX\000"
 4877      455F4556 
 4877      545F4D41 
 4877      5800
 4878              	.LASF478:
 4879 00ab 4359424C 		.ascii	"CYBLE_EVT_PASSS_NOTIFICATION_ENABLED\000"
 4879      455F4556 
 4879      545F5041 
 4879      5353535F 
 4879      4E4F5449 
 4880              	.LASF207:
 4881 00d0 4359424C 		.ascii	"CYBLE_GATT_ERR_INSUFFICIENT_ENC_KEY_SIZE\000"
 4881      455F4741 
 4881      54545F45 
 4881      52525F49 
ARM GAS  C:\Users\ASUS\AppData\Local\Temp\ccKl44WS.s 			page 109


 4881      4E535546 
 4882              	.LASF413:
 4883 00f9 4359424C 		.ascii	"CYBLE_EVT_HPSS_NOTIFICATION_ENABLED\000"
 4883      455F4556 
 4883      545F4850 
 4883      53535F4E 
 4883      4F544946 
 4884              	.LASF447:
 4885 011d 4359424C 		.ascii	"CYBLE_EVT_IPSC_WRITE_DESCR_RESPONSE\000"
 4885      455F4556 
 4885      545F4950 
 4885      53435F57 
 4885      52495445 
 4886              	.LASF276:
 4887 0141 4359424C 		.ascii	"CYBLE_EVT_AIOSS_CHAR_WRITE\000"
 4887      455F4556 
 4887      545F4149 
 4887      4F53535F 
 4887      43484152 
 4888              	.LASF482:
 4889 015c 4359424C 		.ascii	"CYBLE_EVT_PASSC_READ_CHAR_RESPONSE\000"
 4889      455F4556 
 4889      545F5041 
 4889      5353435F 
 4889      52454144 
 4890              	.LASF359:
 4891 017f 4359424C 		.ascii	"CYBLE_EVT_CSCSS_INDICATION_CONFIRMATION\000"
 4891      455F4556 
 4891      545F4353 
 4891      4353535F 
 4891      494E4449 
 4892              	.LASF337:
 4893 01a7 4359424C 		.ascii	"CYBLE_EVT_CGMSC_WRITE_CHAR_RESPONSE\000"
 4893      455F4556 
 4893      545F4347 
 4893      4D53435F 
 4893      57524954 
 4894              	.LASF29:
 4895 01cb 4359424C 		.ascii	"CYBLE_EVT_GAP_AUTH_COMPLETE\000"
 4895      455F4556 
 4895      545F4741 
 4895      505F4155 
 4895      54485F43 
 4896              	.LASF120:
 4897 01e7 4359424C 		.ascii	"CYBLE_ERROR_IND_DISABLED\000"
 4897      455F4552 
 4897      524F525F 
 4897      494E445F 
 4897      44495341 
 4898              	.LASF364:
 4899 0200 4359424C 		.ascii	"CYBLE_EVT_CSCSC_WRITE_CHAR_RESPONSE\000"
 4899      455F4556 
 4899      545F4353 
 4899      4353435F 
 4899      57524954 
 4900              	.LASF522:
 4901 0224 4359424C 		.ascii	"CYBLE_EVT_TPSC_READ_DESCR_RESPONSE\000"
ARM GAS  C:\Users\ASUS\AppData\Local\Temp\ccKl44WS.s 			page 110


 4901      455F4556 
 4901      545F5450 
 4901      53435F52 
 4901      4541445F 
 4902              	.LASF428:
 4903 0247 4359424C 		.ascii	"CYBLE_EVT_HRSC_WRITE_DESCR_RESPONSE\000"
 4903      455F4556 
 4903      545F4852 
 4903      53435F57 
 4903      52495445 
 4904              	.LASF90:
 4905 026b 4359424C 		.ascii	"CYBLE_ERROR_OK\000"
 4905      455F4552 
 4905      524F525F 
 4905      4F4B00
 4906              	.LASF591:
 4907 027a 6379426C 		.ascii	"cyBle_state\000"
 4907      655F7374 
 4907      61746500 
 4908              	.LASF561:
 4909 0286 4359424C 		.ascii	"CYBLE_STATE_ADVERTISING\000"
 4909      455F5354 
 4909      4154455F 
 4909      41445645 
 4909      52544953 
 4910              	.LASF613:
 4911 029e 626C655F 		.ascii	"ble_process.c\000"
 4911      70726F63 
 4911      6573732E 
 4911      6300
 4912              	.LASF271:
 4913 02ac 4359424C 		.ascii	"CYBLE_EVT_AIOSS_NOTIFICATION_ENABLED\000"
 4913      455F4556 
 4913      545F4149 
 4913      4F53535F 
 4913      4E4F5449 
 4914              	.LASF101:
 4915 02d1 4359424C 		.ascii	"CYBLE_ERROR_BT_ON_NOT_COMPLETED\000"
 4915      455F4552 
 4915      524F525F 
 4915      42545F4F 
 4915      4E5F4E4F 
 4916              	.LASF376:
 4917 02f1 4359424C 		.ascii	"CYBLE_EVT_ESSS_NOTIFICATION_ENABLED\000"
 4917      455F4556 
 4917      545F4553 
 4917      53535F4E 
 4917      4F544946 
 4918              	.LASF320:
 4919 0315 4359424C 		.ascii	"CYBLE_EVT_BLSC_NOTIFICATION\000"
 4919      455F4556 
 4919      545F424C 
 4919      53435F4E 
 4919      4F544946 
 4920              	.LASF472:
 4921 0331 4359424C 		.ascii	"CYBLE_EVT_OTSC_READ_CHAR_RESPONSE\000"
 4921      455F4556 
ARM GAS  C:\Users\ASUS\AppData\Local\Temp\ccKl44WS.s 			page 111


 4921      545F4F54 
 4921      53435F52 
 4921      4541445F 
 4922              	.LASF445:
 4923 0353 4359424C 		.ascii	"CYBLE_EVT_IPSC_WRITE_CHAR_RESPONSE\000"
 4923      455F4556 
 4923      545F4950 
 4923      53435F57 
 4923      52495445 
 4924              	.LASF389:
 4925 0376 4359424C 		.ascii	"CYBLE_EVT_GLSS_INDICATION_ENABLED\000"
 4925      455F4556 
 4925      545F474C 
 4925      53535F49 
 4925      4E444943 
 4926              	.LASF70:
 4927 0398 4359424C 		.ascii	"CYBLE_EVT_GATTS_DATA_SIGNED_CMD_REQ\000"
 4927      455F4556 
 4927      545F4741 
 4927      5454535F 
 4927      44415441 
 4928              	.LASF286:
 4929 03bc 4359424C 		.ascii	"CYBLE_EVT_ANCSS_NOTIFICATION_DISABLED\000"
 4929      455F4556 
 4929      545F414E 
 4929      4353535F 
 4929      4E4F5449 
 4930              	.LASF283:
 4931 03e2 4359424C 		.ascii	"CYBLE_EVT_AIOSC_WRITE_DESCR_RESPONSE\000"
 4931      455F4556 
 4931      545F4149 
 4931      4F53435F 
 4931      57524954 
 4932              	.LASF450:
 4933 0407 4359424C 		.ascii	"CYBLE_EVT_LLSS_WRITE_CHAR_REQ\000"
 4933      455F4556 
 4933      545F4C4C 
 4933      53535F57 
 4933      52495445 
 4934              	.LASF449:
 4935 0425 4359424C 		.ascii	"CYBLE_EVT_IPSC_READ_BLOB_RSP\000"
 4935      455F4556 
 4935      545F4950 
 4935      53435F52 
 4935      4541445F 
 4936              	.LASF604:
 4937 0442 706F7465 		.ascii	"potential_node_bdAddrType\000"
 4937      6E746961 
 4937      6C5F6E6F 
 4937      64655F62 
 4937      64416464 
 4938              	.LASF19:
 4939 045c 4359424C 		.ascii	"CYBLE_EVT_STACK_ON\000"
 4939      455F4556 
 4939      545F5354 
 4939      41434B5F 
 4939      4F4E00
ARM GAS  C:\Users\ASUS\AppData\Local\Temp\ccKl44WS.s 			page 112


 4940              	.LASF380:
 4941 046f 4359424C 		.ascii	"CYBLE_EVT_ESSS_INDICATION_CONFIRMATION\000"
 4941      455F4556 
 4941      545F4553 
 4941      53535F49 
 4941      4E444943 
 4942              	.LASF357:
 4943 0496 4359424C 		.ascii	"CYBLE_EVT_CSCSS_INDICATION_ENABLED\000"
 4943      455F4556 
 4943      545F4353 
 4943      4353535F 
 4943      494E4449 
 4944              	.LASF160:
 4945 04b9 70656572 		.ascii	"peerAddrType\000"
 4945      41646472 
 4945      54797065 
 4945      00
 4946              	.LASF109:
 4947 04c6 4359424C 		.ascii	"CYBLE_ERROR_GATT_DB_INVALID_ATTR_HANDLE\000"
 4947      455F4552 
 4947      524F525F 
 4947      47415454 
 4947      5F44425F 
 4948              	.LASF232:
 4949 04ee 4359424C 		.ascii	"CYBLE_GATT_ERR_PROCEDURE_ALREADY_IN_PROGRESS\000"
 4949      455F4741 
 4949      54545F45 
 4949      52525F50 
 4949      524F4345 
 4950              	.LASF22:
 4951 051b 4359424C 		.ascii	"CYBLE_EVT_HCI_STATUS\000"
 4951      455F4556 
 4951      545F4843 
 4951      495F5354 
 4951      41545553 
 4952              	.LASF134:
 4953 0530 4359424C 		.ascii	"CYBLE_GAPC_CONN_UNDIRECTED_ADV\000"
 4953      455F4741 
 4953      50435F43 
 4953      4F4E4E5F 
 4953      554E4449 
 4954              	.LASF574:
 4955 054f 77726974 		.ascii	"writeADVcounterdata\000"
 4955      65414456 
 4955      636F756E 
 4955      74657264 
 4955      61746100 
 4956              	.LASF605:
 4957 0563 7363616E 		.ascii	"scan_tag\000"
 4957      5F746167 
 4957      00
 4958              	.LASF27:
 4959 056c 4359424C 		.ascii	"CYBLE_EVT_GAP_PASSKEY_ENTRY_REQUEST\000"
 4959      455F4556 
 4959      545F4741 
 4959      505F5041 
 4959      53534B45 
ARM GAS  C:\Users\ASUS\AppData\Local\Temp\ccKl44WS.s 			page 113


 4960              	.LASF516:
 4961 0590 4359424C 		.ascii	"CYBLE_EVT_SCPSC_READ_DESCR_RESPONSE\000"
 4961      455F4556 
 4961      545F5343 
 4961      5053435F 
 4961      52454144 
 4962              	.LASF384:
 4963 05b4 4359424C 		.ascii	"CYBLE_EVT_ESSC_INDICATION\000"
 4963      455F4556 
 4963      545F4553 
 4963      53435F49 
 4963      4E444943 
 4964              	.LASF519:
 4965 05ce 4359424C 		.ascii	"CYBLE_EVT_TPSS_NOTIFICATION_DISABLED\000"
 4965      455F4556 
 4965      545F5450 
 4965      53535F4E 
 4965      4F544946 
 4966              	.LASF369:
 4967 05f3 4359424C 		.ascii	"CYBLE_EVT_CTSS_CHAR_WRITE\000"
 4967      455F4556 
 4967      545F4354 
 4967      53535F43 
 4967      4841525F 
 4968              	.LASF144:
 4969 060d 64697265 		.ascii	"directAddrType\000"
 4969      63744164 
 4969      64725479 
 4969      706500
 4970              	.LASF169:
 4971 061c 4359424C 		.ascii	"CYBLE_GATT_FIND_INFO_REQ\000"
 4971      455F4741 
 4971      54545F46 
 4971      494E445F 
 4971      494E464F 
 4972              	.LASF53:
 4973 0635 4359424C 		.ascii	"CYBLE_EVT_GATTC_XCHNG_MTU_RSP\000"
 4973      455F4556 
 4973      545F4741 
 4973      5454435F 
 4973      5843484E 
 4974              	.LASF221:
 4975 0653 4359424C 		.ascii	"CYBLE_GATTS_ERR_CCCD_IMPROPERLY_CONFIGURED\000"
 4975      455F4741 
 4975      5454535F 
 4975      4552525F 
 4975      43434344 
 4976              	.LASF379:
 4977 067e 4359424C 		.ascii	"CYBLE_EVT_ESSS_INDICATION_DISABLED\000"
 4977      455F4556 
 4977      545F4553 
 4977      53535F49 
 4977      4E444943 
 4978              	.LASF152:
 4979 06a1 7363616E 		.ascii	"scanRspData\000"
 4979      52737044 
 4979      61746100 
ARM GAS  C:\Users\ASUS\AppData\Local\Temp\ccKl44WS.s 			page 114


 4980              	.LASF288:
 4981 06ad 4359424C 		.ascii	"CYBLE_EVT_ANCSC_NOTIFICATION\000"
 4981      455F4556 
 4981      545F414E 
 4981      4353435F 
 4981      4E4F5449 
 4982              	.LASF335:
 4983 06ca 4359424C 		.ascii	"CYBLE_EVT_CGMSC_NOTIFICATION\000"
 4983      455F4556 
 4983      545F4347 
 4983      4D53435F 
 4983      4E4F5449 
 4984              	.LASF58:
 4985 06e7 4359424C 		.ascii	"CYBLE_EVT_GATTC_READ_RSP\000"
 4985      455F4556 
 4985      545F4741 
 4985      5454435F 
 4985      52454144 
 4986              	.LASF302:
 4987 0700 4359424C 		.ascii	"CYBLE_EVT_BASS_NOTIFICATION_DISABLED\000"
 4987      455F4556 
 4987      545F4241 
 4987      53535F4E 
 4987      4F544946 
 4988              	.LASF435:
 4989 0725 4359424C 		.ascii	"CYBLE_EVT_HTSC_NOTIFICATION\000"
 4989      455F4556 
 4989      545F4854 
 4989      53435F4E 
 4989      4F544946 
 4990              	.LASF401:
 4991 0741 4359424C 		.ascii	"CYBLE_EVT_HIDSS_NOTIFICATION_ENABLED\000"
 4991      455F4556 
 4991      545F4849 
 4991      4453535F 
 4991      4E4F5449 
 4992              	.LASF244:
 4993 0766 6F70636F 		.ascii	"opcode\000"
 4993      646500
 4994              	.LASF431:
 4995 076d 4359424C 		.ascii	"CYBLE_EVT_HTSS_INDICATION_ENABLED\000"
 4995      455F4556 
 4995      545F4854 
 4995      53535F49 
 4995      4E444943 
 4996              	.LASF434:
 4997 078f 4359424C 		.ascii	"CYBLE_EVT_HTSS_CHAR_WRITE\000"
 4997      455F4556 
 4997      545F4854 
 4997      53535F43 
 4997      4841525F 
 4998              	.LASF523:
 4999 07a9 4359424C 		.ascii	"CYBLE_EVT_TPSC_WRITE_DESCR_RESPONSE\000"
 4999      455F4556 
 4999      545F5450 
 4999      53435F57 
 4999      52495445 
ARM GAS  C:\Users\ASUS\AppData\Local\Temp\ccKl44WS.s 			page 115


 5000              	.LASF547:
 5001 07cd 4359424C 		.ascii	"CYBLE_EVT_WPTSC_READ_CHAR_RESPONSE\000"
 5001      455F4556 
 5001      545F5750 
 5001      5453435F 
 5001      52454144 
 5002              	.LASF43:
 5003 07f0 4359424C 		.ascii	"CYBLE_EVT_GAPC_DIRECT_ADV_REPORT\000"
 5003      455F4556 
 5003      545F4741 
 5003      50435F44 
 5003      49524543 
 5004              	.LASF378:
 5005 0811 4359424C 		.ascii	"CYBLE_EVT_ESSS_INDICATION_ENABLED\000"
 5005      455F4556 
 5005      545F4553 
 5005      53535F49 
 5005      4E444943 
 5006              	.LASF298:
 5007 0833 4359424C 		.ascii	"CYBLE_EVT_ANSC_WRITE_CHAR_RESPONSE\000"
 5007      455F4556 
 5007      545F414E 
 5007      53435F57 
 5007      52495445 
 5008              	.LASF9:
 5009 0856 75696E74 		.ascii	"uint8\000"
 5009      3800
 5010              	.LASF324:
 5011 085c 4359424C 		.ascii	"CYBLE_EVT_BMSS_WRITE_CHAR\000"
 5011      455F4556 
 5011      545F424D 
 5011      53535F57 
 5011      52495445 
 5012              	.LASF358:
 5013 0876 4359424C 		.ascii	"CYBLE_EVT_CSCSS_INDICATION_DISABLED\000"
 5013      455F4556 
 5013      545F4353 
 5013      4353535F 
 5013      494E4449 
 5014              	.LASF528:
 5015 089a 4359424C 		.ascii	"CYBLE_EVT_UDSS_NOTIFICATION_DISABLED\000"
 5015      455F4556 
 5015      545F5544 
 5015      53535F4E 
 5015      4F544946 
 5016              	.LASF168:
 5017 08bf 4359424C 		.ascii	"CYBLE_GATT_XCHNG_MTU_RSP\000"
 5017      455F4741 
 5017      54545F58 
 5017      43484E47 
 5017      5F4D5455 
 5018              	.LASF171:
 5019 08d8 4359424C 		.ascii	"CYBLE_GATT_FIND_BY_TYPE_VALUE_REQ\000"
 5019      455F4741 
 5019      54545F46 
 5019      494E445F 
 5019      42595F54 
ARM GAS  C:\Users\ASUS\AppData\Local\Temp\ccKl44WS.s 			page 116


 5020              	.LASF121:
 5021 08fa 4359424C 		.ascii	"CYBLE_ERROR_CHAR_IS_NOT_DISCOVERED\000"
 5021      455F4552 
 5021      524F525F 
 5021      43484152 
 5021      5F49535F 
 5022              	.LASF419:
 5023 091d 4359424C 		.ascii	"CYBLE_EVT_HPSC_WRITE_DESCR_RESPONSE\000"
 5023      455F4556 
 5023      545F4850 
 5023      53435F57 
 5023      52495445 
 5024              	.LASF306:
 5025 0941 4359424C 		.ascii	"CYBLE_EVT_BASC_WRITE_DESCR_RESPONSE\000"
 5025      455F4556 
 5025      545F4241 
 5025      53435F57 
 5025      52495445 
 5026              	.LASF340:
 5027 0965 4359424C 		.ascii	"CYBLE_EVT_CPSS_NOTIFICATION_ENABLED\000"
 5027      455F4556 
 5027      545F4350 
 5027      53535F4E 
 5027      4F544946 
 5028              	.LASF456:
 5029 0989 4359424C 		.ascii	"CYBLE_EVT_LNSS_NOTIFICATION_ENABLED\000"
 5029      455F4556 
 5029      545F4C4E 
 5029      53535F4E 
 5029      4F544946 
 5030              	.LASF21:
 5031 09ad 4359424C 		.ascii	"CYBLE_EVT_HARDWARE_ERROR\000"
 5031      455F4556 
 5031      545F4841 
 5031      52445741 
 5031      52455F45 
 5032              	.LASF330:
 5033 09c6 4359424C 		.ascii	"CYBLE_EVT_CGMSS_INDICATION_CONFIRMED\000"
 5033      455F4556 
 5033      545F4347 
 5033      4D53535F 
 5033      494E4449 
 5034              	.LASF91:
 5035 09eb 4359424C 		.ascii	"CYBLE_ERROR_INVALID_PARAMETER\000"
 5035      455F4552 
 5035      524F525F 
 5035      494E5641 
 5035      4C49445F 
 5036              	.LASF274:
 5037 0a09 4359424C 		.ascii	"CYBLE_EVT_AIOSS_INDICATION_DISABLED\000"
 5037      455F4556 
 5037      545F4149 
 5037      4F53535F 
 5037      494E4449 
 5038              	.LASF484:
 5039 0a2d 4359424C 		.ascii	"CYBLE_EVT_PASSC_WRITE_DESCR_RESPONSE\000"
 5039      455F4556 
ARM GAS  C:\Users\ASUS\AppData\Local\Temp\ccKl44WS.s 			page 117


 5039      545F5041 
 5039      5353435F 
 5039      57524954 
 5040              	.LASF464:
 5041 0a52 4359424C 		.ascii	"CYBLE_EVT_LNSC_WRITE_DESCR_RESPONSE\000"
 5041      455F4556 
 5041      545F4C4E 
 5041      53435F57 
 5041      52495445 
 5042              	.LASF266:
 5043 0a76 4359424C 		.ascii	"CYBLE_EVT_GATTC_SRVC_DISCOVERY_COMPLETE\000"
 5043      455F4556 
 5043      545F4741 
 5043      5454435F 
 5043      53525643 
 5044              	.LASF338:
 5045 0a9e 4359424C 		.ascii	"CYBLE_EVT_CGMSC_READ_DESCR_RESPONSE\000"
 5045      455F4556 
 5045      545F4347 
 5045      4D53435F 
 5045      52454144 
 5046              	.LASF486:
 5047 0ac2 4359424C 		.ascii	"CYBLE_EVT_PLXSS_NOTIFICATION_ENABLED\000"
 5047      455F4556 
 5047      545F504C 
 5047      5853535F 
 5047      4E4F5449 
 5048              	.LASF76:
 5049 0ae7 4359424C 		.ascii	"CYBLE_EVT_L2CAP_COMMAND_REJ\000"
 5049      455F4556 
 5049      545F4C32 
 5049      4341505F 
 5049      434F4D4D 
 5050              	.LASF539:
 5051 0b03 4359424C 		.ascii	"CYBLE_EVT_WPTSS_NOTIFICATION_DISABLED\000"
 5051      455F4556 
 5051      545F5750 
 5051      5453535F 
 5051      4E4F5449 
 5052              	.LASF459:
 5053 0b29 4359424C 		.ascii	"CYBLE_EVT_LNSC_INDICATION\000"
 5053      455F4556 
 5053      545F4C4E 
 5053      53435F49 
 5053      4E444943 
 5054              	.LASF365:
 5055 0b43 4359424C 		.ascii	"CYBLE_EVT_CSCSC_READ_DESCR_RESPONSE\000"
 5055      455F4556 
 5055      545F4353 
 5055      4353435F 
 5055      52454144 
 5056              	.LASF128:
 5057 0b67 4359424C 		.ascii	"CYBLE_GAPP_CONNECTABLE_UNDIRECTED_ADV\000"
 5057      455F4741 
 5057      50505F43 
 5057      4F4E4E45 
 5057      43544142 
ARM GAS  C:\Users\ASUS\AppData\Local\Temp\ccKl44WS.s 			page 118


 5058              	.LASF87:
 5059 0b8d 4359424C 		.ascii	"CYBLE_EVT_HCI_PKT\000"
 5059      455F4556 
 5059      545F4843 
 5059      495F504B 
 5059      5400
 5060              	.LASF473:
 5061 0b9f 4359424C 		.ascii	"CYBLE_EVT_OTSC_READ_BLOB_RSP\000"
 5061      455F4556 
 5061      545F4F54 
 5061      53435F52 
 5061      4541445F 
 5062              	.LASF557:
 5063 0bbc 4359424C 		.ascii	"CYBLE_DEBUG_EVT_BLESS_INT\000"
 5063      455F4445 
 5063      4255475F 
 5063      4556545F 
 5063      424C4553 
 5064              	.LASF126:
 5065 0bd6 74797065 		.ascii	"type\000"
 5065      00
 5066              	.LASF213:
 5067 0bdb 4359424C 		.ascii	"CYBLE_GATT_ERR_TRIGGER_CODITION_VALUE_NOT_SUPPORTED"
 5067      455F4741 
 5067      54545F45 
 5067      52525F54 
 5067      52494747 
 5068 0c0e 00       		.ascii	"\000"
 5069              	.LASF44:
 5070 0c0f 4359424C 		.ascii	"CYBLE_EVT_GAP_SMP_NEGOTIATED_AUTH_INFO\000"
 5070      455F4556 
 5070      545F4741 
 5070      505F534D 
 5070      505F4E45 
 5071              	.LASF446:
 5072 0c36 4359424C 		.ascii	"CYBLE_EVT_IPSC_READ_DESCR_RESPONSE\000"
 5072      455F4556 
 5072      545F4950 
 5072      53435F52 
 5072      4541445F 
 5073              	.LASF279:
 5074 0c59 4359424C 		.ascii	"CYBLE_EVT_AIOSC_INDICATION\000"
 5074      455F4556 
 5074      545F4149 
 5074      4F53435F 
 5074      494E4449 
 5075              	.LASF240:
 5076 0c74 4359424C 		.ascii	"CYBLE_GATT_VALUE_T\000"
 5076      455F4741 
 5076      54545F56 
 5076      414C5545 
 5076      5F5400
 5077              	.LASF510:
 5078 0c87 4359424C 		.ascii	"CYBLE_EVT_RTUSS_WRITE_CHAR_CMD\000"
 5078      455F4556 
 5078      545F5254 
 5078      5553535F 
ARM GAS  C:\Users\ASUS\AppData\Local\Temp\ccKl44WS.s 			page 119


 5078      57524954 
 5079              	.LASF268:
 5080 0ca6 4359424C 		.ascii	"CYBLE_EVT_GATTC_CHAR_DISCOVERY_COMPLETE\000"
 5080      455F4556 
 5080      545F4741 
 5080      5454435F 
 5080      43484152 
 5081              	.LASF602:
 5082 0cce 706F7465 		.ascii	"potential_node_found\000"
 5082      6E746961 
 5082      6C5F6E6F 
 5082      64655F66 
 5082      6F756E64 
 5083              	.LASF63:
 5084 0ce3 4359424C 		.ascii	"CYBLE_EVT_GATTS_WRITE_CMD_REQ\000"
 5084      455F4556 
 5084      545F4741 
 5084      5454535F 
 5084      57524954 
 5085              	.LASF181:
 5086 0d01 4359424C 		.ascii	"CYBLE_GATT_READ_BY_GROUP_REQ\000"
 5086      455F4741 
 5086      54545F52 
 5086      4541445F 
 5086      42595F47 
 5087              	.LASF465:
 5088 0d1e 4359424C 		.ascii	"CYBLE_EVT_NDCSC_READ_CHAR_RESPONSE\000"
 5088      455F4556 
 5088      545F4E44 
 5088      4353435F 
 5088      52454144 
 5089              	.LASF60:
 5090 0d41 4359424C 		.ascii	"CYBLE_EVT_GATTC_READ_MULTI_RSP\000"
 5090      455F4556 
 5090      545F4741 
 5090      5454435F 
 5090      52454144 
 5091              	.LASF318:
 5092 0d60 4359424C 		.ascii	"CYBLE_EVT_BLSS_NOTIFICATION_DISABLED\000"
 5092      455F4556 
 5092      545F424C 
 5092      53535F4E 
 5092      4F544946 
 5093              	.LASF222:
 5094 0d85 4359424C 		.ascii	"CYBLE_GATTS_ERR_OPERATION_FAILED\000"
 5094      455F4741 
 5094      5454535F 
 5094      4552525F 
 5094      4F504552 
 5095              	.LASF563:
 5096 0da6 4359424C 		.ascii	"CYBLE_STATE_CONNECTING\000"
 5096      455F5354 
 5096      4154455F 
 5096      434F4E4E 
 5096      45435449 
 5097              	.LASF49:
 5098 0dbd 4359424C 		.ascii	"CYBLE_EVT_GATTC_ERROR_RSP\000"
ARM GAS  C:\Users\ASUS\AppData\Local\Temp\ccKl44WS.s 			page 120


 5098      455F4556 
 5098      545F4741 
 5098      5454435F 
 5098      4552524F 
 5099              	.LASF177:
 5100 0dd7 4359424C 		.ascii	"CYBLE_GATT_READ_BLOB_REQ\000"
 5100      455F4741 
 5100      54545F52 
 5100      4541445F 
 5100      424C4F42 
 5101              	.LASF580:
 5102 0df0 73656E64 		.ascii	"sendIndex\000"
 5102      496E6465 
 5102      7800
 5103              	.LASF255:
 5104 0dfa 4359424C 		.ascii	"CYBLE_KEY_EXCHANGE_INFO_REQUEST_REPLY\000"
 5104      455F4B45 
 5104      595F4558 
 5104      4348414E 
 5104      47455F49 
 5105              	.LASF249:
 5106 0e20 4359424C 		.ascii	"CYBLE_GATTS_WRITE_REQ_PARAM_T\000"
 5106      455F4741 
 5106      5454535F 
 5106      57524954 
 5106      455F5245 
 5107              	.LASF612:
 5108 0e3e 474E5520 		.ascii	"GNU C11 5.4.1 20160609 (release) [ARM/embedded-5-br"
 5108      43313120 
 5108      352E342E 
 5108      31203230 
 5108      31363036 
 5109 0e71 616E6368 		.ascii	"anch revision 237715] -mcpu=cortex-m0 -mthumb -g -O"
 5109      20726576 
 5109      6973696F 
 5109      6E203233 
 5109      37373135 
 5110 0ea4 30202D66 		.ascii	"0 -ffunction-sections -ffat-lto-objects\000"
 5110      66756E63 
 5110      74696F6E 
 5110      2D736563 
 5110      74696F6E 
 5111              	.LASF231:
 5112 0ecc 4359424C 		.ascii	"CYBLE_GATT_ERR_CCCD_IMPROPERLY_CONFIGURED\000"
 5112      455F4741 
 5112      54545F45 
 5112      52525F43 
 5112      4343445F 
 5113              	.LASF1:
 5114 0ef6 756E7369 		.ascii	"unsigned char\000"
 5114      676E6564 
 5114      20636861 
 5114      7200
 5115              	.LASF31:
 5116 0f04 4359424C 		.ascii	"CYBLE_EVT_GAPP_ADVERTISEMENT_START_STOP\000"
 5116      455F4556 
 5116      545F4741 
ARM GAS  C:\Users\ASUS\AppData\Local\Temp\ccKl44WS.s 			page 121


 5116      50505F41 
 5116      44564552 
 5117              	.LASF151:
 5118 0f2c 4359424C 		.ascii	"CYBLE_GAPP_DISC_DATA_T\000"
 5118      455F4741 
 5118      50505F44 
 5118      4953435F 
 5118      44415441 
 5119              	.LASF223:
 5120 0f43 4359424C 		.ascii	"CYBLE_GATT_ERR_INVALID_CRC\000"
 5120      455F4741 
 5120      54545F45 
 5120      52525F49 
 5120      4E56414C 
 5121              	.LASF117:
 5122 0f5e 4359424C 		.ascii	"CYBLE_ERROR_CONTROLLER_BUSY\000"
 5122      455F4552 
 5122      524F525F 
 5122      434F4E54 
 5122      524F4C4C 
 5123              	.LASF251:
 5124 0f7a 4359424C 		.ascii	"CYBLE_GATTC_WRITE_REQ_T\000"
 5124      455F4741 
 5124      5454435F 
 5124      57524954 
 5124      455F5245 
 5125              	.LASF13:
 5126 0f92 666C6F61 		.ascii	"float\000"
 5126      7400
 5127              	.LASF573:
 5128 0f98 77726974 		.ascii	"writeReqData\000"
 5128      65526571 
 5128      44617461 
 5128      00
 5129              	.LASF366:
 5130 0fa5 4359424C 		.ascii	"CYBLE_EVT_CSCSC_WRITE_DESCR_RESPONSE\000"
 5130      455F4556 
 5130      545F4353 
 5130      4353435F 
 5130      57524954 
 5131              	.LASF412:
 5132 0fca 4359424C 		.ascii	"CYBLE_EVT_HIDSC_WRITE_DESCR_RESPONSE\000"
 5132      455F4556 
 5132      545F4849 
 5132      4453435F 
 5132      57524954 
 5133              	.LASF56:
 5134 0fef 4359424C 		.ascii	"CYBLE_EVT_GATTC_FIND_INFO_RSP\000"
 5134      455F4556 
 5134      545F4741 
 5134      5454435F 
 5134      46494E44 
 5135              	.LASF490:
 5136 100d 4359424C 		.ascii	"CYBLE_EVT_PLXSS_INDICATION_CONFIRMED\000"
 5136      455F4556 
 5136      545F504C 
 5136      5853535F 
ARM GAS  C:\Users\ASUS\AppData\Local\Temp\ccKl44WS.s 			page 122


 5136      494E4449 
 5137              	.LASF185:
 5138 1032 4359424C 		.ascii	"CYBLE_GATT_WRITE_CMD\000"
 5138      455F4741 
 5138      54545F57 
 5138      52495445 
 5138      5F434D44 
 5139              	.LASF77:
 5140 1047 4359424C 		.ascii	"CYBLE_EVT_L2CAP_CBFC_CONN_IND\000"
 5140      455F4556 
 5140      545F4C32 
 5140      4341505F 
 5140      43424643 
 5141              	.LASF216:
 5142 1065 4359424C 		.ascii	"CYBLE_GATT_ERR_CPS_INAPPROPRIATE_CONNECTION_PARAMET"
 5142      455F4741 
 5142      54545F45 
 5142      52525F43 
 5142      50535F49 
 5143 1098 45525300 		.ascii	"ERS\000"
 5144              	.LASF289:
 5145 109c 4359424C 		.ascii	"CYBLE_EVT_ANCSC_WRITE_CHAR_RESPONSE\000"
 5145      455F4556 
 5145      545F414E 
 5145      4353435F 
 5145      57524954 
 5146              	.LASF568:
 5147 10c0 4359424C 		.ascii	"CYBLE_SRVI_CUSTOMS\000"
 5147      455F5352 
 5147      56495F43 
 5147      5553544F 
 5147      4D5300
 5148              	.LASF453:
 5149 10d3 4359424C 		.ascii	"CYBLE_EVT_LNSS_INDICATION_ENABLED\000"
 5149      455F4556 
 5149      545F4C4E 
 5149      53535F49 
 5149      4E444943 
 5150              	.LASF79:
 5151 10f5 4359424C 		.ascii	"CYBLE_EVT_L2CAP_CBFC_DISCONN_IND\000"
 5151      455F4556 
 5151      545F4C32 
 5151      4341505F 
 5151      43424643 
 5152              	.LASF281:
 5153 1116 4359424C 		.ascii	"CYBLE_EVT_AIOSC_WRITE_CHAR_RESPONSE\000"
 5153      455F4556 
 5153      545F4149 
 5153      4F53435F 
 5153      57524954 
 5154              	.LASF351:
 5155 113a 4359424C 		.ascii	"CYBLE_EVT_CPSC_WRITE_CHAR_RESPONSE\000"
 5155      455F4556 
 5155      545F4350 
 5155      53435F57 
 5155      52495445 
 5156              	.LASF201:
ARM GAS  C:\Users\ASUS\AppData\Local\Temp\ccKl44WS.s 			page 123


 5157 115d 4359424C 		.ascii	"CYBLE_GATT_ERR_REQUEST_NOT_SUPPORTED\000"
 5157      455F4741 
 5157      54545F45 
 5157      52525F52 
 5157      45515545 
 5158              	.LASF26:
 5159 1182 4359424C 		.ascii	"CYBLE_EVT_GAP_AUTH_REQ\000"
 5159      455F4556 
 5159      545F4741 
 5159      505F4155 
 5159      54485F52 
 5160              	.LASF199:
 5161 1199 4359424C 		.ascii	"CYBLE_GATT_ERR_INVALID_PDU\000"
 5161      455F4741 
 5161      54545F45 
 5161      52525F49 
 5161      4E56414C 
 5162              	.LASF314:
 5163 11b4 4359424C 		.ascii	"CYBLE_EVT_BLSS_INDICATION_ENABLED\000"
 5163      455F4556 
 5163      545F424C 
 5163      53535F49 
 5163      4E444943 
 5164              	.LASF411:
 5165 11d6 4359424C 		.ascii	"CYBLE_EVT_HIDSC_READ_DESCR_RESPONSE\000"
 5165      455F4556 
 5165      545F4849 
 5165      4453435F 
 5165      52454144 
 5166              	.LASF230:
 5167 11fa 4359424C 		.ascii	"CYBLE_GATT_ERR_ANCS_ACTION_FAILED\000"
 5167      455F4741 
 5167      54545F45 
 5167      52525F41 
 5167      4E43535F 
 5168              	.LASF603:
 5169 121c 706F7465 		.ascii	"potential_node_bdAddr\000"
 5169      6E746961 
 5169      6C5F6E6F 
 5169      64655F62 
 5169      64416464 
 5170              	.LASF173:
 5171 1232 4359424C 		.ascii	"CYBLE_GATT_READ_BY_TYPE_REQ\000"
 5171      455F4741 
 5171      54545F52 
 5171      4541445F 
 5171      42595F54 
 5172              	.LASF162:
 5173 124e 64617461 		.ascii	"dataLen\000"
 5173      4C656E00 
 5174              	.LASF161:
 5175 1256 70656572 		.ascii	"peerBdAddr\000"
 5175      42644164 
 5175      647200
 5176              	.LASF514:
 5177 1261 4359424C 		.ascii	"CYBLE_EVT_SCPSS_SCAN_INT_WIN_CHAR_WRITE\000"
 5177      455F4556 
ARM GAS  C:\Users\ASUS\AppData\Local\Temp\ccKl44WS.s 			page 124


 5177      545F5343 
 5177      5053535F 
 5177      5343414E 
 5178              	.LASF599:
 5179 1289 64617461 		.ascii	"dataADVCounter\000"
 5179      41445643 
 5179      6F756E74 
 5179      657200
 5180              	.LASF326:
 5181 1298 4359424C 		.ascii	"CYBLE_EVT_BMSC_WRITE_CHAR_RESPONSE\000"
 5181      455F4556 
 5181      545F424D 
 5181      53435F57 
 5181      52495445 
 5182              	.LASF204:
 5183 12bb 4359424C 		.ascii	"CYBLE_GATT_ERR_PREPARE_WRITE_QUEUE_FULL\000"
 5183      455F4741 
 5183      54545F45 
 5183      52525F50 
 5183      52455041 
 5184              	.LASF157:
 5185 12e3 61647654 		.ascii	"advTo\000"
 5185      6F00
 5186              	.LASF560:
 5187 12e9 4359424C 		.ascii	"CYBLE_STATE_CONNECTED\000"
 5187      455F5354 
 5187      4154455F 
 5187      434F4E4E 
 5187      45435445 
 5188              	.LASF508:
 5189 12ff 4359424C 		.ascii	"CYBLE_EVT_RSCSC_READ_DESCR_RESPONSE\000"
 5189      455F4556 
 5189      545F5253 
 5189      4353435F 
 5189      52454144 
 5190              	.LASF492:
 5191 1323 4359424C 		.ascii	"CYBLE_EVT_PLXSC_INDICATION\000"
 5191      455F4556 
 5191      545F504C 
 5191      5853435F 
 5191      494E4449 
 5192              	.LASF129:
 5193 133e 4359424C 		.ascii	"CYBLE_GAPP_CONNECTABLE_HIGH_DC_DIRECTED_ADV\000"
 5193      455F4741 
 5193      50505F43 
 5193      4F4E4E45 
 5193      43544142 
 5194              	.LASF374:
 5195 136a 4359424C 		.ascii	"CYBLE_EVT_CTSC_WRITE_CHAR_RESPONSE\000"
 5195      455F4556 
 5195      545F4354 
 5195      53435F57 
 5195      52495445 
 5196              	.LASF108:
 5197 138d 4359424C 		.ascii	"CYBLE_ERROR_L2CAP_PSM_NOT_IN_RANGE\000"
 5197      455F4552 
 5197      524F525F 
ARM GAS  C:\Users\ASUS\AppData\Local\Temp\ccKl44WS.s 			page 125


 5197      4C324341 
 5197      505F5053 
 5198              	.LASF123:
 5199 13b0 4359424C 		.ascii	"CYBLE_ERROR_STACK_BUSY\000"
 5199      455F4552 
 5199      524F525F 
 5199      53544143 
 5199      4B5F4255 
 5200              	.LASF538:
 5201 13c7 4359424C 		.ascii	"CYBLE_EVT_WPTSS_NOTIFICATION_ENABLED\000"
 5201      455F4556 
 5201      545F5750 
 5201      5453535F 
 5201      4E4F5449 
 5202              	.LASF463:
 5203 13ec 4359424C 		.ascii	"CYBLE_EVT_LNSC_READ_DESCR_RESPONSE\000"
 5203      455F4556 
 5203      545F4C4E 
 5203      53435F52 
 5203      4541445F 
 5204              	.LASF515:
 5205 140f 4359424C 		.ascii	"CYBLE_EVT_SCPSC_NOTIFICATION\000"
 5205      455F4556 
 5205      545F5343 
 5205      5053435F 
 5205      4E4F5449 
 5206              	.LASF517:
 5207 142c 4359424C 		.ascii	"CYBLE_EVT_SCPSC_WRITE_DESCR_RESPONSE\000"
 5207      455F4556 
 5207      545F5343 
 5207      5053435F 
 5207      57524954 
 5208              	.LASF252:
 5209 1451 4359424C 		.ascii	"CYBLE_AUTHENTICATION_REQUEST_REPLY\000"
 5209      455F4155 
 5209      5448454E 
 5209      54494341 
 5209      54494F4E 
 5210              	.LASF25:
 5211 1474 4359424C 		.ascii	"CYBLE_EVT_GAPC_SCAN_PROGRESS_RESULT\000"
 5211      455F4556 
 5211      545F4741 
 5211      50435F53 
 5211      43414E5F 
 5212              	.LASF205:
 5213 1498 4359424C 		.ascii	"CYBLE_GATT_ERR_ATTRIBUTE_NOT_FOUND\000"
 5213      455F4741 
 5213      54545F45 
 5213      52525F41 
 5213      54545249 
 5214              	.LASF531:
 5215 14bb 4359424C 		.ascii	"CYBLE_EVT_UDSC_INDICATION\000"
 5215      455F4556 
 5215      545F5544 
 5215      53435F49 
 5215      4E444943 
 5216              	.LASF354:
ARM GAS  C:\Users\ASUS\AppData\Local\Temp\ccKl44WS.s 			page 126


 5217 14d5 4359424C 		.ascii	"CYBLE_EVT_CPSC_SCAN_PROGRESS_RESULT\000"
 5217      455F4556 
 5217      545F4350 
 5217      53435F53 
 5217      43414E5F 
 5218              	.LASF370:
 5219 14f9 4359424C 		.ascii	"CYBLE_EVT_CTSC_NOTIFICATION\000"
 5219      455F4556 
 5219      545F4354 
 5219      53435F4E 
 5219      4F544946 
 5220              	.LASF497:
 5221 1515 4359424C 		.ascii	"CYBLE_EVT_PLXSC_TIMEOUT\000"
 5221      455F4556 
 5221      545F504C 
 5221      5853435F 
 5221      54494D45 
 5222              	.LASF170:
 5223 152d 4359424C 		.ascii	"CYBLE_GATT_FIND_INFO_RSP\000"
 5223      455F4741 
 5223      54545F46 
 5223      494E445F 
 5223      494E464F 
 5224              	.LASF436:
 5225 1546 4359424C 		.ascii	"CYBLE_EVT_HTSC_INDICATION\000"
 5225      455F4556 
 5225      545F4854 
 5225      53435F49 
 5225      4E444943 
 5226              	.LASF20:
 5227 1560 4359424C 		.ascii	"CYBLE_EVT_TIMEOUT\000"
 5227      455F4556 
 5227      545F5449 
 5227      4D454F55 
 5227      5400
 5228              	.LASF524:
 5229 1572 4359424C 		.ascii	"CYBLE_EVT_UDSS_INDICATION_ENABLED\000"
 5229      455F4556 
 5229      545F5544 
 5229      53535F49 
 5229      4E444943 
 5230              	.LASF312:
 5231 1594 4359424C 		.ascii	"CYBLE_EVT_BCSC_READ_DESCR_RESPONSE\000"
 5231      455F4556 
 5231      545F4243 
 5231      53435F52 
 5231      4541445F 
 5232              	.LASF584:
 5233 15b7 53656E64 		.ascii	"SendErrorCode\000"
 5233      4572726F 
 5233      72436F64 
 5233      6500
 5234              	.LASF496:
 5235 15c5 4359424C 		.ascii	"CYBLE_EVT_PLXSC_WRITE_DESCR_RESPONSE\000"
 5235      455F4556 
 5235      545F504C 
 5235      5853435F 
ARM GAS  C:\Users\ASUS\AppData\Local\Temp\ccKl44WS.s 			page 127


 5235      57524954 
 5236              	.LASF212:
 5237 15ea 4359424C 		.ascii	"CYBLE_GATT_ERR_INSUFFICIENT_RESOURCE\000"
 5237      455F4741 
 5237      54545F45 
 5237      52525F49 
 5237      4E535546 
 5238              	.LASF270:
 5239 160f 4359424C 		.ascii	"CYBLE_EVT_GATTC_DISCOVERY_COMPLETE\000"
 5239      455F4556 
 5239      545F4741 
 5239      5454435F 
 5239      44495343 
 5240              	.LASF261:
 5241 1632 4359424C 		.ascii	"CYBLE_EVT_GATTC_CHAR_DISCOVERY_FAILED\000"
 5241      455F4556 
 5241      545F4741 
 5241      5454435F 
 5241      43484152 
 5242              	.LASF545:
 5243 1658 4359424C 		.ascii	"CYBLE_EVT_WPTSC_INDICATION\000"
 5243      455F4556 
 5243      545F5750 
 5243      5453435F 
 5243      494E4449 
 5244              	.LASF86:
 5245 1673 4359424C 		.ascii	"CYBLE_EVT_LE_PING_AUTH_TIMEOUT\000"
 5245      455F4556 
 5245      545F4C45 
 5245      5F50494E 
 5245      475F4155 
 5246              	.LASF425:
 5247 1692 4359424C 		.ascii	"CYBLE_EVT_HRSC_READ_CHAR_RESPONSE\000"
 5247      455F4556 
 5247      545F4852 
 5247      53435F52 
 5247      4541445F 
 5248              	.LASF98:
 5249 16b4 4359424C 		.ascii	"CYBLE_ERROR_REPEATED_ATTEMPTS\000"
 5249      455F4552 
 5249      524F525F 
 5249      52455045 
 5249      41544544 
 5250              	.LASF287:
 5251 16d2 4359424C 		.ascii	"CYBLE_EVT_ANCSS_WRITE_CHAR\000"
 5251      455F4556 
 5251      545F414E 
 5251      4353535F 
 5251      57524954 
 5252              	.LASF175:
 5253 16ed 4359424C 		.ascii	"CYBLE_GATT_READ_REQ\000"
 5253      455F4741 
 5253      54545F52 
 5253      4541445F 
 5253      52455100 
 5254              	.LASF84:
 5255 1701 4359424C 		.ascii	"CYBLE_EVT_L2CAP_CBFC_DATA_WRITE_IND\000"
ARM GAS  C:\Users\ASUS\AppData\Local\Temp\ccKl44WS.s 			page 128


 5255      455F4556 
 5255      545F4C32 
 5255      4341505F 
 5255      43424643 
 5256              	.LASF311:
 5257 1725 4359424C 		.ascii	"CYBLE_EVT_BCSC_READ_CHAR_RESPONSE\000"
 5257      455F4556 
 5257      545F4243 
 5257      53435F52 
 5257      4541445F 
 5258              	.LASF67:
 5259 1747 4359424C 		.ascii	"CYBLE_EVT_GATTC_HANDLE_VALUE_NTF\000"
 5259      455F4556 
 5259      545F4741 
 5259      5454435F 
 5259      48414E44 
 5260              	.LASF125:
 5261 1768 62644164 		.ascii	"bdAddr\000"
 5261      647200
 5262              	.LASF191:
 5263 176f 4359424C 		.ascii	"CYBLE_GATT_HANDLE_VALUE_IND\000"
 5263      455F4741 
 5263      54545F48 
 5263      414E444C 
 5263      455F5641 
 5264              	.LASF504:
 5265 178b 4359424C 		.ascii	"CYBLE_EVT_RSCSC_NOTIFICATION\000"
 5265      455F4556 
 5265      545F5253 
 5265      4353435F 
 5265      4E4F5449 
 5266              	.LASF391:
 5267 17a8 4359424C 		.ascii	"CYBLE_EVT_GLSS_INDICATION_CONFIRMED\000"
 5267      455F4556 
 5267      545F474C 
 5267      53535F49 
 5267      4E444943 
 5268              	.LASF284:
 5269 17cc 4359424C 		.ascii	"CYBLE_EVT_AIOSC_ERROR_RESPONSE\000"
 5269      455F4556 
 5269      545F4149 
 5269      4F53435F 
 5269      4552524F 
 5270              	.LASF494:
 5271 17eb 4359424C 		.ascii	"CYBLE_EVT_PLXSC_WRITE_CHAR_RESPONSE\000"
 5271      455F4556 
 5271      545F504C 
 5271      5853435F 
 5271      57524954 
 5272              	.LASF530:
 5273 180f 4359424C 		.ascii	"CYBLE_EVT_UDSS_WRITE_CHAR\000"
 5273      455F4556 
 5273      545F5544 
 5273      53535F57 
 5273      52495445 
 5274              	.LASF272:
 5275 1829 4359424C 		.ascii	"CYBLE_EVT_AIOSS_NOTIFICATION_DISABLED\000"
ARM GAS  C:\Users\ASUS\AppData\Local\Temp\ccKl44WS.s 			page 129


 5275      455F4556 
 5275      545F4149 
 5275      4F53535F 
 5275      4E4F5449 
 5276              	.LASF438:
 5277 184f 4359424C 		.ascii	"CYBLE_EVT_HTSC_WRITE_CHAR_RESPONSE\000"
 5277      455F4556 
 5277      545F4854 
 5277      53435F57 
 5277      52495445 
 5278              	.LASF119:
 5279 1872 4359424C 		.ascii	"CYBLE_ERROR_NTF_DISABLED\000"
 5279      455F4552 
 5279      524F525F 
 5279      4E54465F 
 5279      44495341 
 5280              	.LASF360:
 5281 188b 4359424C 		.ascii	"CYBLE_EVT_CSCSS_CHAR_WRITE\000"
 5281      455F4556 
 5281      545F4353 
 5281      4353535F 
 5281      43484152 
 5282              	.LASF124:
 5283 18a6 4359424C 		.ascii	"CYBLE_API_RESULT_T\000"
 5283      455F4150 
 5283      495F5245 
 5283      53554C54 
 5283      5F5400
 5284              	.LASF167:
 5285 18b9 4359424C 		.ascii	"CYBLE_GATT_XCNHG_MTU_REQ\000"
 5285      455F4741 
 5285      54545F58 
 5285      434E4847 
 5285      5F4D5455 
 5286              	.LASF444:
 5287 18d2 4359424C 		.ascii	"CYBLE_EVT_IPSC_READ_MULTIPLE_CHAR_RESPONSE\000"
 5287      455F4556 
 5287      545F4950 
 5287      53435F52 
 5287      4541445F 
 5288              	.LASF143:
 5289 18fd 6F776E41 		.ascii	"ownAddrType\000"
 5289      64647254 
 5289      79706500 
 5290              	.LASF526:
 5291 1909 4359424C 		.ascii	"CYBLE_EVT_UDSS_INDICATION_CONFIRMED\000"
 5291      455F4556 
 5291      545F5544 
 5291      53535F49 
 5291      4E444943 
 5292              	.LASF552:
 5293 192d 4359424C 		.ascii	"CYBLE_EVT_WSSS_INDICATION_CONFIRMED\000"
 5293      455F4556 
 5293      545F5753 
 5293      53535F49 
 5293      4E444943 
 5294              	.LASF558:
ARM GAS  C:\Users\ASUS\AppData\Local\Temp\ccKl44WS.s 			page 130


 5295 1951 4359424C 		.ascii	"CYBLE_STATE_STOPPED\000"
 5295      455F5354 
 5295      4154455F 
 5295      53544F50 
 5295      50454400 
 5296              	.LASF262:
 5297 1965 4359424C 		.ascii	"CYBLE_EVT_GATTC_DESCR_DISCOVERY_FAILED\000"
 5297      455F4556 
 5297      545F4741 
 5297      5454435F 
 5297      44455343 
 5298              	.LASF41:
 5299 198c 4359424C 		.ascii	"CYBLE_EVT_GAP_DATA_LENGTH_CHANGE\000"
 5299      455F4556 
 5299      545F4741 
 5299      505F4441 
 5299      54415F4C 
 5300              	.LASF193:
 5301 19ad 4359424C 		.ascii	"CYBLE_GATT_SIGNED_WRITE_CMD\000"
 5301      455F4741 
 5301      54545F53 
 5301      49474E45 
 5301      445F5752 
 5302              	.LASF577:
 5303 19c9 61706952 		.ascii	"apiResult\000"
 5303      6573756C 
 5303      7400
 5304              	.LASF172:
 5305 19d3 4359424C 		.ascii	"CYBLE_GATT_FIND_BY_TYPE_VALUE_RSP\000"
 5305      455F4741 
 5305      54545F46 
 5305      494E445F 
 5305      42595F54 
 5306              	.LASF81:
 5307 19f5 4359424C 		.ascii	"CYBLE_EVT_L2CAP_CBFC_DATA_READ\000"
 5307      455F4556 
 5307      545F4C32 
 5307      4341505F 
 5307      43424643 
 5308              	.LASF112:
 5309 1a14 4359424C 		.ascii	"CYBLE_ERROR_MIC_AUTH_FAILED\000"
 5309      455F4552 
 5309      524F525F 
 5309      4D49435F 
 5309      41555448 
 5310              	.LASF206:
 5311 1a30 4359424C 		.ascii	"CYBLE_GATT_ERR_ATTRIBUTE_NOT_LONG\000"
 5311      455F4741 
 5311      54545F45 
 5311      52525F41 
 5311      54545249 
 5312              	.LASF166:
 5313 1a52 4359424C 		.ascii	"CYBLE_GATT_ERROR_RSP\000"
 5313      455F4741 
 5313      54545F45 
 5313      52524F52 
 5313      5F525350 
ARM GAS  C:\Users\ASUS\AppData\Local\Temp\ccKl44WS.s 			page 131


 5314              	.LASF209:
 5315 1a67 4359424C 		.ascii	"CYBLE_GATT_ERR_UNLIKELY_ERROR\000"
 5315      455F4741 
 5315      54545F45 
 5315      52525F55 
 5315      4E4C494B 
 5316              	.LASF483:
 5317 1a85 4359424C 		.ascii	"CYBLE_EVT_PASSC_READ_DESCR_RESPONSE\000"
 5317      455F4556 
 5317      545F5041 
 5317      5353435F 
 5317      52454144 
 5318              	.LASF243:
 5319 1aa9 4359424C 		.ascii	"CYBLE_GATT_HANDLE_VALUE_PAIR_T\000"
 5319      455F4741 
 5319      54545F48 
 5319      414E444C 
 5319      455F5641 
 5320              	.LASF153:
 5321 1ac8 7363616E 		.ascii	"scanRspDataLen\000"
 5321      52737044 
 5321      6174614C 
 5321      656E00
 5322              	.LASF610:
 5323 1ad7 72657374 		.ascii	"restartScanning\000"
 5323      61727453 
 5323      63616E6E 
 5323      696E6700 
 5324              	.LASF336:
 5325 1ae7 4359424C 		.ascii	"CYBLE_EVT_CGMSC_READ_CHAR_RESPONSE\000"
 5325      455F4556 
 5325      545F4347 
 5325      4D53435F 
 5325      52454144 
 5326              	.LASF188:
 5327 1b0a 4359424C 		.ascii	"CYBLE_GATT_EXECUTE_WRITE_REQ\000"
 5327      455F4741 
 5327      54545F45 
 5327      58454355 
 5327      54455F57 
 5328              	.LASF159:
 5329 1b27 6576656E 		.ascii	"eventType\000"
 5329      74547970 
 5329      6500
 5330              	.LASF59:
 5331 1b31 4359424C 		.ascii	"CYBLE_EVT_GATTC_READ_BLOB_RSP\000"
 5331      455F4556 
 5331      545F4741 
 5331      5454435F 
 5331      52454144 
 5332              	.LASF400:
 5333 1b4f 4359424C 		.ascii	"CYBLE_EVT_GLSC_WRITE_DESCR_RESPONSE\000"
 5333      455F4556 
 5333      545F474C 
 5333      53435F57 
 5333      52495445 
 5334              	.LASF466:
ARM GAS  C:\Users\ASUS\AppData\Local\Temp\ccKl44WS.s 			page 132


 5335 1b73 4359424C 		.ascii	"CYBLE_EVT_OTSS_INDICATION_ENABLED\000"
 5335      455F4556 
 5335      545F4F54 
 5335      53535F49 
 5335      4E444943 
 5336              	.LASF24:
 5337 1b95 4359424C 		.ascii	"CYBLE_EVT_MEMORY_REQUEST\000"
 5337      455F4556 
 5337      545F4D45 
 5337      4D4F5259 
 5337      5F524551 
 5338              	.LASF477:
 5339 1bae 4359424C 		.ascii	"CYBLE_EVT_OTSC_ERROR_RESPONSE\000"
 5339      455F4556 
 5339      545F4F54 
 5339      53435F45 
 5339      52524F52 
 5340              	.LASF65:
 5341 1bcc 4359424C 		.ascii	"CYBLE_EVT_GATTS_EXEC_WRITE_REQ\000"
 5341      455F4556 
 5341      545F4741 
 5341      5454535F 
 5341      45584543 
 5342              	.LASF317:
 5343 1beb 4359424C 		.ascii	"CYBLE_EVT_BLSS_NOTIFICATION_ENABLED\000"
 5343      455F4556 
 5343      545F424C 
 5343      53535F4E 
 5343      4F544946 
 5344              	.LASF421:
 5345 1c0f 4359424C 		.ascii	"CYBLE_EVT_HRSS_ENERGY_EXPENDED_RESET\000"
 5345      455F4556 
 5345      545F4852 
 5345      53535F45 
 5345      4E455247 
 5346              	.LASF224:
 5347 1c34 4359424C 		.ascii	"CYBLE_GATTS_ERR_HPS_INVALID_REQUEST\000"
 5347      455F4741 
 5347      5454535F 
 5347      4552525F 
 5347      4850535F 
 5348              	.LASF285:
 5349 1c58 4359424C 		.ascii	"CYBLE_EVT_ANCSS_NOTIFICATION_ENABLED\000"
 5349      455F4556 
 5349      545F414E 
 5349      4353535F 
 5349      4E4F5449 
 5350              	.LASF562:
 5351 1c7d 4359424C 		.ascii	"CYBLE_STATE_SCANNING\000"
 5351      455F5354 
 5351      4154455F 
 5351      5343414E 
 5351      4E494E47 
 5352              	.LASF594:
 5353 1c92 44455649 		.ascii	"DEVICE_INDEX\000"
 5353      43455F49 
 5353      4E444558 
ARM GAS  C:\Users\ASUS\AppData\Local\Temp\ccKl44WS.s 			page 133


 5353      00
 5354              	.LASF110:
 5355 1c9f 4359424C 		.ascii	"CYBLE_ERROR_DEVICE_ALREADY_EXISTS\000"
 5355      455F4552 
 5355      524F525F 
 5355      44455649 
 5355      43455F41 
 5356              	.LASF248:
 5357 1cc1 68616E64 		.ascii	"handleValPair\000"
 5357      6C655661 
 5357      6C506169 
 5357      7200
 5358              	.LASF420:
 5359 1ccf 4359424C 		.ascii	"CYBLE_EVT_HPSC_WRITE_CHAR_RESPONSE\000"
 5359      455F4556 
 5359      545F4850 
 5359      53435F57 
 5359      52495445 
 5360              	.LASF106:
 5361 1cf2 4359424C 		.ascii	"CYBLE_ERROR_L2CAP_CONNECTION_ENTITY_NOT_FOUND\000"
 5361      455F4552 
 5361      524F525F 
 5361      4C324341 
 5361      505F434F 
 5362              	.LASF99:
 5363 1d20 4359424C 		.ascii	"CYBLE_ERROR_GAP_ROLE\000"
 5363      455F4552 
 5363      524F525F 
 5363      4741505F 
 5363      524F4C45 
 5364              	.LASF433:
 5365 1d35 4359424C 		.ascii	"CYBLE_EVT_HTSS_INDICATION_CONFIRMED\000"
 5365      455F4556 
 5365      545F4854 
 5365      53535F49 
 5365      4E444943 
 5366              	.LASF241:
 5367 1d59 76616C75 		.ascii	"value\000"
 5367      6500
 5368              	.LASF567:
 5369 1d5f 4359424C 		.ascii	"CYBLE_SRVI_GATT\000"
 5369      455F5352 
 5369      56495F47 
 5369      41545400 
 5370              	.LASF195:
 5371 1d6f 4359424C 		.ascii	"CYBLE_GATT_ERR_NONE\000"
 5371      455F4741 
 5371      54545F45 
 5371      52525F4E 
 5371      4F4E4500 
 5372              	.LASF536:
 5373 1d83 4359424C 		.ascii	"CYBLE_EVT_UDSC_WRITE_DESCR_RESPONSE\000"
 5373      455F4556 
 5373      545F5544 
 5373      53435F57 
 5373      52495445 
 5374              	.LASF551:
ARM GAS  C:\Users\ASUS\AppData\Local\Temp\ccKl44WS.s 			page 134


 5375 1da7 4359424C 		.ascii	"CYBLE_EVT_WSSS_INDICATION_DISABLED\000"
 5375      455F4556 
 5375      545F5753 
 5375      53535F49 
 5375      4E444943 
 5376              	.LASF608:
 5377 1dca 626C655F 		.ascii	"ble_gap_state\000"
 5377      6761705F 
 5377      73746174 
 5377      6500
 5378              	.LASF556:
 5379 1dd8 4359424C 		.ascii	"CYBLE_EVT_WSSC_WRITE_DESCR_RESPONSE\000"
 5379      455F4556 
 5379      545F5753 
 5379      53435F57 
 5379      52495445 
 5380              	.LASF327:
 5381 1dfc 4359424C 		.ascii	"CYBLE_EVT_BMSC_READ_DESCR_RESPONSE\000"
 5381      455F4556 
 5381      545F424D 
 5381      53435F52 
 5381      4541445F 
 5382              	.LASF293:
 5383 1e1f 4359424C 		.ascii	"CYBLE_EVT_ANSS_NOTIFICATION_ENABLED\000"
 5383      455F4556 
 5383      545F414E 
 5383      53535F4E 
 5383      4F544946 
 5384              	.LASF564:
 5385 1e43 4359424C 		.ascii	"CYBLE_STATE_DISCONNECTED\000"
 5385      455F5354 
 5385      4154455F 
 5385      44495343 
 5385      4F4E4E45 
 5386              	.LASF506:
 5387 1e5c 4359424C 		.ascii	"CYBLE_EVT_RSCSC_READ_CHAR_RESPONSE\000"
 5387      455F4556 
 5387      545F5253 
 5387      4353435F 
 5387      52454144 
 5388              	.LASF51:
 5389 1e7f 4359424C 		.ascii	"CYBLE_EVT_GATT_DISCONNECT_IND\000"
 5389      455F4556 
 5389      545F4741 
 5389      54545F44 
 5389      4953434F 
 5390              	.LASF372:
 5391 1e9d 4359424C 		.ascii	"CYBLE_EVT_CTSC_READ_DESCR_RESPONSE\000"
 5391      455F4556 
 5391      545F4354 
 5391      53435F52 
 5391      4541445F 
 5392              	.LASF254:
 5393 1ec0 4359424C 		.ascii	"CYBLE_LONG_TERM_KEY_REQUEST_REPLY\000"
 5393      455F4C4F 
 5393      4E475F54 
 5393      45524D5F 
ARM GAS  C:\Users\ASUS\AppData\Local\Temp\ccKl44WS.s 			page 135


 5393      4B45595F 
 5394              	.LASF12:
 5395 1ee2 696E7438 		.ascii	"int8\000"
 5395      00
 5396              	.LASF154:
 5397 1ee7 4359424C 		.ascii	"CYBLE_GAPP_SCAN_RSP_DATA_T\000"
 5397      455F4741 
 5397      50505F53 
 5397      43414E5F 
 5397      5253505F 
 5398              	.LASF182:
 5399 1f02 4359424C 		.ascii	"CYBLE_GATT_READ_BY_GROUP_RSP\000"
 5399      455F4741 
 5399      54545F52 
 5399      4541445F 
 5399      42595F47 
 5400              	.LASF141:
 5401 1f1f 61647649 		.ascii	"advIntvMax\000"
 5401      6E74764D 
 5401      617800
 5402              	.LASF132:
 5403 1f2a 4359424C 		.ascii	"CYBLE_GAPP_CONNECTABLE_LOW_DC_DIRECTED_ADV\000"
 5403      455F4741 
 5403      50505F43 
 5403      4F4E4E45 
 5403      43544142 
 5404              	.LASF489:
 5405 1f55 4359424C 		.ascii	"CYBLE_EVT_PLXSS_INDICATION_DISABLED\000"
 5405      455F4556 
 5405      545F504C 
 5405      5853535F 
 5405      494E4449 
 5406              	.LASF566:
 5407 1f79 4359424C 		.ascii	"CYBLE_SRVI_GAP\000"
 5407      455F5352 
 5407      56495F47 
 5407      415000
 5408              	.LASF368:
 5409 1f88 4359424C 		.ascii	"CYBLE_EVT_CTSS_NOTIFICATION_DISABLED\000"
 5409      455F4556 
 5409      545F4354 
 5409      53535F4E 
 5409      4F544946 
 5410              	.LASF406:
 5411 1fad 4359424C 		.ascii	"CYBLE_EVT_HIDSS_EXIT_SUSPEND\000"
 5411      455F4556 
 5411      545F4849 
 5411      4453535F 
 5411      45584954 
 5412              	.LASF429:
 5413 1fca 4359424C 		.ascii	"CYBLE_EVT_HTSS_NOTIFICATION_ENABLED\000"
 5413      455F4556 
 5413      545F4854 
 5413      53535F4E 
 5413      4F544946 
 5414              	.LASF441:
 5415 1fee 4359424C 		.ascii	"CYBLE_EVT_IASS_WRITE_CHAR_CMD\000"
ARM GAS  C:\Users\ASUS\AppData\Local\Temp\ccKl44WS.s 			page 136


 5415      455F4556 
 5415      545F4941 
 5415      53535F57 
 5415      52495445 
 5416              	.LASF432:
 5417 200c 4359424C 		.ascii	"CYBLE_EVT_HTSS_INDICATION_DISABLED\000"
 5417      455F4556 
 5417      545F4854 
 5417      53535F49 
 5417      4E444943 
 5418              	.LASF75:
 5419 202f 4359424C 		.ascii	"CYBLE_EVT_L2CAP_CONN_PARAM_UPDATE_RSP\000"
 5419      455F4556 
 5419      545F4C32 
 5419      4341505F 
 5419      434F4E4E 
 5420              	.LASF422:
 5421 2055 4359424C 		.ascii	"CYBLE_EVT_HRSS_NOTIFICATION_ENABLED\000"
 5421      455F4556 
 5421      545F4852 
 5421      53535F4E 
 5421      4F544946 
 5422              	.LASF178:
 5423 2079 4359424C 		.ascii	"CYBLE_GATT_READ_BLOB_RSP\000"
 5423      455F4741 
 5423      54545F52 
 5423      4541445F 
 5423      424C4F42 
 5424              	.LASF280:
 5425 2092 4359424C 		.ascii	"CYBLE_EVT_AIOSC_READ_CHAR_RESPONSE\000"
 5425      455F4556 
 5425      545F4149 
 5425      4F53435F 
 5425      52454144 
 5426              	.LASF448:
 5427 20b5 4359424C 		.ascii	"CYBLE_EVT_IPSC_ERROR_RESPONSE\000"
 5427      455F4556 
 5427      545F4950 
 5427      53435F45 
 5427      52524F52 
 5428              	.LASF341:
 5429 20d3 4359424C 		.ascii	"CYBLE_EVT_CPSS_NOTIFICATION_DISABLED\000"
 5429      455F4556 
 5429      545F4350 
 5429      53535F4E 
 5429      4F544946 
 5430              	.LASF578:
 5431 20f8 77726974 		.ascii	"writeRGBdata\000"
 5431      65524742 
 5431      64617461 
 5431      00
 5432              	.LASF138:
 5433 2105 4359424C 		.ascii	"CYBLE_GAPC_SCAN_RSP\000"
 5433      455F4741 
 5433      50435F53 
 5433      43414E5F 
 5433      52535000 
ARM GAS  C:\Users\ASUS\AppData\Local\Temp\ccKl44WS.s 			page 137


 5434              	.LASF267:
 5435 2119 4359424C 		.ascii	"CYBLE_EVT_GATTC_INCL_DISCOVERY_COMPLETE\000"
 5435      455F4556 
 5435      545F4741 
 5435      5454435F 
 5435      494E434C 
 5436              	.LASF479:
 5437 2141 4359424C 		.ascii	"CYBLE_EVT_PASSS_NOTIFICATION_DISABLED\000"
 5437      455F4556 
 5437      545F5041 
 5437      5353535F 
 5437      4E4F5449 
 5438              	.LASF299:
 5439 2167 4359424C 		.ascii	"CYBLE_EVT_ANSC_READ_DESCR_RESPONSE\000"
 5439      455F4556 
 5439      545F414E 
 5439      53435F52 
 5439      4541445F 
 5440              	.LASF614:
 5441 218a 443A5C75 		.ascii	"D:\\ucu\\2_course1_term\\POC\\programs\\my_works\\S"
 5441      63755C32 
 5441      5F636F75 
 5441      72736531 
 5441      5F746572 
 5442 21b7 6D617274 		.ascii	"mart_lightning_system\\Mesh_Flood_Main_Auto_Reassig"
 5442      5F6C6967 
 5442      68746E69 
 5442      6E675F73 
 5442      79737465 
 5443 21e9 6E6D656E 		.ascii	"nment2.cydsn\000"
 5443      74322E63 
 5443      7964736E 
 5443      00
 5444              	.LASF404:
 5445 21f6 4359424C 		.ascii	"CYBLE_EVT_HIDSS_REPORT_MODE_ENTER\000"
 5445      455F4556 
 5445      545F4849 
 5445      4453535F 
 5445      5245504F 
 5446              	.LASF214:
 5447 2218 4359424C 		.ascii	"CYBLE_GATT_ERR_HEART_RATE_CONTROL_POINT_NOT_SUPPORT"
 5447      455F4741 
 5447      54545F45 
 5447      52525F48 
 5447      45415254 
 5448 224b 454400   		.ascii	"ED\000"
 5449              	.LASF471:
 5450 224e 4359424C 		.ascii	"CYBLE_EVT_OTSC_INDICATION\000"
 5450      455F4556 
 5450      545F4F54 
 5450      53435F49 
 5450      4E444943 
 5451              	.LASF555:
 5452 2268 4359424C 		.ascii	"CYBLE_EVT_WSSC_READ_DESCR_RESPONSE\000"
 5452      455F4556 
 5452      545F5753 
 5452      53435F52 
ARM GAS  C:\Users\ASUS\AppData\Local\Temp\ccKl44WS.s 			page 138


 5452      4541445F 
 5453              	.LASF565:
 5454 228b 4359424C 		.ascii	"CYBLE_STATE_T\000"
 5454      455F5354 
 5454      4154455F 
 5454      5400
 5455              	.LASF451:
 5456 2299 4359424C 		.ascii	"CYBLE_EVT_LLSC_READ_CHAR_RESPONSE\000"
 5456      455F4556 
 5456      545F4C4C 
 5456      53435F52 
 5456      4541445F 
 5457              	.LASF418:
 5458 22bb 4359424C 		.ascii	"CYBLE_EVT_HPSC_READ_DESCR_RESPONSE\000"
 5458      455F4556 
 5458      545F4850 
 5458      53435F52 
 5458      4541445F 
 5459              	.LASF263:
 5460 22de 4359424C 		.ascii	"CYBLE_EVT_GATTC_SRVC_DUPLICATION\000"
 5460      455F4556 
 5460      545F4741 
 5460      5454435F 
 5460      53525643 
 5461              	.LASF291:
 5462 22ff 4359424C 		.ascii	"CYBLE_EVT_ANCSC_WRITE_DESCR_RESPONSE\000"
 5462      455F4556 
 5462      545F414E 
 5462      4353435F 
 5462      57524954 
 5463              	.LASF493:
 5464 2324 4359424C 		.ascii	"CYBLE_EVT_PLXSC_READ_CHAR_RESPONSE\000"
 5464      455F4556 
 5464      545F504C 
 5464      5853435F 
 5464      52454144 
 5465              	.LASF540:
 5466 2347 4359424C 		.ascii	"CYBLE_EVT_WPTSS_INDICATION_ENABLED\000"
 5466      455F4556 
 5466      545F5750 
 5466      5453535F 
 5466      494E4449 
 5467              	.LASF319:
 5468 236a 4359424C 		.ascii	"CYBLE_EVT_BLSC_INDICATION\000"
 5468      455F4556 
 5468      545F424C 
 5468      53435F49 
 5468      4E444943 
 5469              	.LASF440:
 5470 2384 4359424C 		.ascii	"CYBLE_EVT_HTSC_WRITE_DESCR_RESPONSE\000"
 5470      455F4556 
 5470      545F4854 
 5470      53435F57 
 5470      52495445 
 5471              	.LASF142:
 5472 23a8 61647654 		.ascii	"advType\000"
 5472      79706500 
ARM GAS  C:\Users\ASUS\AppData\Local\Temp\ccKl44WS.s 			page 139


 5473              	.LASF537:
 5474 23b0 4359424C 		.ascii	"CYBLE_EVT_UDSC_ERROR_RESPONSE\000"
 5474      455F4556 
 5474      545F5544 
 5474      53435F45 
 5474      52524F52 
 5475              	.LASF367:
 5476 23ce 4359424C 		.ascii	"CYBLE_EVT_CTSS_NOTIFICATION_ENABLED\000"
 5476      455F4556 
 5476      545F4354 
 5476      53535F4E 
 5476      4F544946 
 5477              	.LASF581:
 5478 23f2 47656E65 		.ascii	"GenericEventHandler\000"
 5478      72696345 
 5478      76656E74 
 5478      48616E64 
 5478      6C657200 
 5479              	.LASF439:
 5480 2406 4359424C 		.ascii	"CYBLE_EVT_HTSC_READ_DESCR_RESPONSE\000"
 5480      455F4556 
 5480      545F4854 
 5480      53435F52 
 5480      4541445F 
 5481              	.LASF34:
 5482 2429 4359424C 		.ascii	"CYBLE_EVT_GAP_ENCRYPT_CHANGE\000"
 5482      455F4556 
 5482      545F4741 
 5482      505F454E 
 5482      43525950 
 5483              	.LASF32:
 5484 2446 4359424C 		.ascii	"CYBLE_EVT_GAP_DEVICE_CONNECTED\000"
 5484      455F4556 
 5484      545F4741 
 5484      505F4445 
 5484      56494345 
 5485              	.LASF174:
 5486 2465 4359424C 		.ascii	"CYBLE_GATT_READ_BY_TYPE_RSP\000"
 5486      455F4741 
 5486      54545F52 
 5486      4541445F 
 5486      42595F54 
 5487              	.LASF245:
 5488 2481 6572726F 		.ascii	"errorCode\000"
 5488      72436F64 
 5488      6500
 5489              	.LASF502:
 5490 248b 4359424C 		.ascii	"CYBLE_EVT_RSCSS_INDICATION_CONFIRMATION\000"
 5490      455F4556 
 5490      545F5253 
 5490      4353535F 
 5490      494E4449 
 5491              	.LASF349:
 5492 24b3 4359424C 		.ascii	"CYBLE_EVT_CPSC_INDICATION\000"
 5492      455F4556 
 5492      545F4350 
 5492      53435F49 
ARM GAS  C:\Users\ASUS\AppData\Local\Temp\ccKl44WS.s 			page 140


 5492      4E444943 
 5493              	.LASF149:
 5494 24cd 61647644 		.ascii	"advData\000"
 5494      61746100 
 5495              	.LASF202:
 5496 24d5 4359424C 		.ascii	"CYBLE_GATT_ERR_INVALID_OFFSET\000"
 5496      455F4741 
 5496      54545F45 
 5496      52525F49 
 5496      4E56414C 
 5497              	.LASF377:
 5498 24f3 4359424C 		.ascii	"CYBLE_EVT_ESSS_NOTIFICATION_DISABLED\000"
 5498      455F4556 
 5498      545F4553 
 5498      53535F4E 
 5498      4F544946 
 5499              	.LASF203:
 5500 2518 4359424C 		.ascii	"CYBLE_GATT_ERR_INSUFFICIENT_AUTHORIZATION\000"
 5500      455F4741 
 5500      54545F45 
 5500      52525F49 
 5500      4E535546 
 5501              	.LASF17:
 5502 2542 73697A65 		.ascii	"sizetype\000"
 5502      74797065 
 5502      00
 5503              	.LASF410:
 5504 254b 4359424C 		.ascii	"CYBLE_EVT_HIDSC_WRITE_CHAR_RESPONSE\000"
 5504      455F4556 
 5504      545F4849 
 5504      4453435F 
 5504      57524954 
 5505              	.LASF85:
 5506 256f 4359424C 		.ascii	"CYBLE_EVT_PENDING_FLASH_WRITE\000"
 5506      455F4556 
 5506      545F5045 
 5506      4E44494E 
 5506      475F464C 
 5507              	.LASF18:
 5508 258d 4359424C 		.ascii	"CYBLE_EVT_HOST_INVALID\000"
 5508      455F4556 
 5508      545F484F 
 5508      53545F49 
 5508      4E56414C 
 5509              	.LASF458:
 5510 25a4 4359424C 		.ascii	"CYBLE_EVT_LNSS_WRITE_CHAR\000"
 5510      455F4556 
 5510      545F4C4E 
 5510      53535F57 
 5510      52495445 
 5511              	.LASF3:
 5512 25be 73686F72 		.ascii	"short unsigned int\000"
 5512      7420756E 
 5512      7369676E 
 5512      65642069 
 5512      6E7400
 5513              	.LASF395:
ARM GAS  C:\Users\ASUS\AppData\Local\Temp\ccKl44WS.s 			page 141


 5514 25d1 4359424C 		.ascii	"CYBLE_EVT_GLSC_INDICATION\000"
 5514      455F4556 
 5514      545F474C 
 5514      53435F49 
 5514      4E444943 
 5515              	.LASF0:
 5516 25eb 7369676E 		.ascii	"signed char\000"
 5516      65642063 
 5516      68617200 
 5517              	.LASF345:
 5518 25f7 4359424C 		.ascii	"CYBLE_EVT_CPSS_BROADCAST_ENABLED\000"
 5518      455F4556 
 5518      545F4350 
 5518      53535F42 
 5518      524F4144 
 5519              	.LASF600:
 5520 2618 73776974 		.ascii	"switch_Role\000"
 5520      63685F52 
 5520      6F6C6500 
 5521              	.LASF595:
 5522 2624 4E455854 		.ascii	"NEXT_NEIGHBOUR_INDEX\000"
 5522      5F4E4549 
 5522      4748424F 
 5522      55525F49 
 5522      4E444558 
 5523              	.LASF233:
 5524 2639 4359424C 		.ascii	"CYBLE_GATT_ERR_OUT_OF_RANGE\000"
 5524      455F4741 
 5524      54545F45 
 5524      52525F4F 
 5524      55545F4F 
 5525              	.LASF309:
 5526 2655 4359424C 		.ascii	"CYBLE_EVT_BCSS_INDICATION_CONFIRMED\000"
 5526      455F4556 
 5526      545F4243 
 5526      53535F49 
 5526      4E444943 
 5527              	.LASF66:
 5528 2679 4359424C 		.ascii	"CYBLE_EVT_GATTC_EXEC_WRITE_RSP\000"
 5528      455F4556 
 5528      545F4741 
 5528      5454435F 
 5528      45584543 
 5529              	.LASF518:
 5530 2698 4359424C 		.ascii	"CYBLE_EVT_TPSS_NOTIFICATION_ENABLED\000"
 5530      455F4556 
 5530      545F5450 
 5530      53535F4E 
 5530      4F544946 
 5531              	.LASF322:
 5532 26bc 4359424C 		.ascii	"CYBLE_EVT_BLSC_READ_DESCR_RESPONSE\000"
 5532      455F4556 
 5532      545F424C 
 5532      53435F52 
 5532      4541445F 
 5533              	.LASF534:
 5534 26df 4359424C 		.ascii	"CYBLE_EVT_UDSC_WRITE_CHAR_RESPONSE\000"
ARM GAS  C:\Users\ASUS\AppData\Local\Temp\ccKl44WS.s 			page 142


 5534      455F4556 
 5534      545F5544 
 5534      53435F57 
 5534      52495445 
 5535              	.LASF468:
 5536 2702 4359424C 		.ascii	"CYBLE_EVT_OTSS_INDICATION_CONFIRMED\000"
 5536      455F4556 
 5536      545F4F54 
 5536      53535F49 
 5536      4E444943 
 5537              	.LASF228:
 5538 2726 4359424C 		.ascii	"CYBLE_GATT_ERR_ANCS_INVALID_COMMAND\000"
 5538      455F4741 
 5538      54545F45 
 5538      52525F41 
 5538      4E43535F 
 5539              	.LASF350:
 5540 274a 4359424C 		.ascii	"CYBLE_EVT_CPSC_READ_CHAR_RESPONSE\000"
 5540      455F4556 
 5540      545F4350 
 5540      53435F52 
 5540      4541445F 
 5541              	.LASF176:
 5542 276c 4359424C 		.ascii	"CYBLE_GATT_READ_RSP\000"
 5542      455F4741 
 5542      54545F52 
 5542      4541445F 
 5542      52535000 
 5543              	.LASF407:
 5544 2780 4359424C 		.ascii	"CYBLE_EVT_HIDSS_REPORT_CHAR_WRITE\000"
 5544      455F4556 
 5544      545F4849 
 5544      4453535F 
 5544      5245504F 
 5545              	.LASF593:
 5546 27a2 63757272 		.ascii	"current_watchdog_counter\000"
 5546      656E745F 
 5546      77617463 
 5546      68646F67 
 5546      5F636F75 
 5547              	.LASF275:
 5548 27bb 4359424C 		.ascii	"CYBLE_EVT_AIOSS_INDICATION_CONFIRMED\000"
 5548      455F4556 
 5548      545F4149 
 5548      4F53535F 
 5548      494E4449 
 5549              	.LASF569:
 5550 27e0 4359424C 		.ascii	"CYBLE_SRVI_CUSTOMS_END\000"
 5550      455F5352 
 5550      56495F43 
 5550      5553544F 
 5550      4D535F45 
 5551              	.LASF615:
 5552 27f7 52657374 		.ascii	"RestartCentralScanning\000"
 5552      61727443 
 5552      656E7472 
 5552      616C5363 
ARM GAS  C:\Users\ASUS\AppData\Local\Temp\ccKl44WS.s 			page 143


 5552      616E6E69 
 5553              	.LASF387:
 5554 280e 4359424C 		.ascii	"CYBLE_EVT_ESSC_READ_DESCR_RESPONSE\000"
 5554      455F4556 
 5554      545F4553 
 5554      53435F52 
 5554      4541445F 
 5555              	.LASF457:
 5556 2831 4359424C 		.ascii	"CYBLE_EVT_LNSS_NOTIFICATION_DISABLED\000"
 5556      455F4556 
 5556      545F4C4E 
 5556      53535F4E 
 5556      4F544946 
 5557              	.LASF301:
 5558 2856 4359424C 		.ascii	"CYBLE_EVT_BASS_NOTIFICATION_ENABLED\000"
 5558      455F4556 
 5558      545F4241 
 5558      53535F4E 
 5558      4F544946 
 5559              	.LASF140:
 5560 287a 61647649 		.ascii	"advIntvMin\000"
 5560      6E74764D 
 5560      696E00
 5561              	.LASF246:
 5562 2885 4359424C 		.ascii	"CYBLE_GATTS_ERR_PARAM_T\000"
 5562      455F4741 
 5562      5454535F 
 5562      4552525F 
 5562      50415241 
 5563              	.LASF300:
 5564 289d 4359424C 		.ascii	"CYBLE_EVT_ANSC_WRITE_DESCR_RESPONSE\000"
 5564      455F4556 
 5564      545F414E 
 5564      53435F57 
 5564      52495445 
 5565              	.LASF183:
 5566 28c1 4359424C 		.ascii	"CYBLE_GATT_WRITE_REQ\000"
 5566      455F4741 
 5566      54545F57 
 5566      52495445 
 5566      5F524551 
 5567              	.LASF239:
 5568 28d6 61637475 		.ascii	"actualLen\000"
 5568      616C4C65 
 5568      6E00
 5569              	.LASF398:
 5570 28e0 4359424C 		.ascii	"CYBLE_EVT_GLSC_WRITE_CHAR_RESPONSE\000"
 5570      455F4556 
 5570      545F474C 
 5570      53435F57 
 5570      52495445 
 5571              	.LASF39:
 5572 2903 4359424C 		.ascii	"CYBLE_EVT_GAP_KEYPRESS_NOTIFICATION\000"
 5572      455F4556 
 5572      545F4741 
 5572      505F4B45 
 5572      59505245 
ARM GAS  C:\Users\ASUS\AppData\Local\Temp\ccKl44WS.s 			page 144


 5573              	.LASF460:
 5574 2927 4359424C 		.ascii	"CYBLE_EVT_LNSC_NOTIFICATION\000"
 5574      455F4556 
 5574      545F4C4E 
 5574      53435F4E 
 5574      4F544946 
 5575              	.LASF303:
 5576 2943 4359424C 		.ascii	"CYBLE_EVT_BASC_NOTIFICATION\000"
 5576      455F4556 
 5576      545F4241 
 5576      53435F4E 
 5576      4F544946 
 5577              	.LASF57:
 5578 295f 4359424C 		.ascii	"CYBLE_EVT_GATTC_FIND_BY_TYPE_VALUE_RSP\000"
 5578      455F4556 
 5578      545F4741 
 5578      5454435F 
 5578      46494E44 
 5579              	.LASF609:
 5580 2986 64657669 		.ascii	"deviceConnected\000"
 5580      6365436F 
 5580      6E6E6563 
 5580      74656400 
 5581              	.LASF269:
 5582 2996 4359424C 		.ascii	"CYBLE_EVT_GATTC_DISC_SKIPPED_SERVICE\000"
 5582      455F4556 
 5582      545F4741 
 5582      5454435F 
 5582      44495343 
 5583              	.LASF590:
 5584 29bb 6379426C 		.ascii	"cyBle_discoveryModeInfo\000"
 5584      655F6469 
 5584      73636F76 
 5584      6572794D 
 5584      6F646549 
 5585              	.LASF122:
 5586 29d3 4359424C 		.ascii	"CYBLE_ERROR_INVALID_STATE\000"
 5586      455F4552 
 5586      524F525F 
 5586      494E5641 
 5586      4C49445F 
 5587              	.LASF553:
 5588 29ed 4359424C 		.ascii	"CYBLE_EVT_WSSC_INDICATION\000"
 5588      455F4556 
 5588      545F5753 
 5588      53435F49 
 5588      4E444943 
 5589              	.LASF313:
 5590 2a07 4359424C 		.ascii	"CYBLE_EVT_BCSC_WRITE_DESCR_RESPONSE\000"
 5590      455F4556 
 5590      545F4243 
 5590      53435F57 
 5590      52495445 
 5591              	.LASF424:
 5592 2a2b 4359424C 		.ascii	"CYBLE_EVT_HRSC_NOTIFICATION\000"
 5592      455F4556 
 5592      545F4852 
ARM GAS  C:\Users\ASUS\AppData\Local\Temp\ccKl44WS.s 			page 145


 5592      53435F4E 
 5592      4F544946 
 5593              	.LASF297:
 5594 2a47 4359424C 		.ascii	"CYBLE_EVT_ANSC_READ_CHAR_RESPONSE\000"
 5594      455F4556 
 5594      545F414E 
 5594      53435F52 
 5594      4541445F 
 5595              	.LASF4:
 5596 2a69 6C6F6E67 		.ascii	"long int\000"
 5596      20696E74 
 5596      00
 5597              	.LASF343:
 5598 2a72 4359424C 		.ascii	"CYBLE_EVT_CPSS_INDICATION_DISABLED\000"
 5598      455F4556 
 5598      545F4350 
 5598      53535F49 
 5598      4E444943 
 5599              	.LASF198:
 5600 2a95 4359424C 		.ascii	"CYBLE_GATT_ERR_WRITE_NOT_PERMITTED\000"
 5600      455F4741 
 5600      54545F45 
 5600      52525F57 
 5600      52495445 
 5601              	.LASF339:
 5602 2ab8 4359424C 		.ascii	"CYBLE_EVT_CGMSC_WRITE_DESCR_RESPONSE\000"
 5602      455F4556 
 5602      545F4347 
 5602      4D53435F 
 5602      57524954 
 5603              	.LASF476:
 5604 2add 4359424C 		.ascii	"CYBLE_EVT_OTSC_WRITE_DESCR_RESPONSE\000"
 5604      455F4556 
 5604      545F4F54 
 5604      53435F57 
 5604      52495445 
 5605              	.LASF105:
 5606 2b01 4359424C 		.ascii	"CYBLE_ERROR_L2CAP_PSM_NOT_REGISTERED\000"
 5606      455F4552 
 5606      524F525F 
 5606      4C324341 
 5606      505F5053 
 5607              	.LASF295:
 5608 2b26 4359424C 		.ascii	"CYBLE_EVT_ANSS_CHAR_WRITE\000"
 5608      455F4556 
 5608      545F414E 
 5608      53535F43 
 5608      4841525F 
 5609              	.LASF37:
 5610 2b40 4359424C 		.ascii	"CYBLE_EVT_GAP_KEYINFO_EXCHNGE_CMPLT\000"
 5610      455F4556 
 5610      545F4741 
 5610      505F4B45 
 5610      59494E46 
 5611              	.LASF189:
 5612 2b64 4359424C 		.ascii	"CYBLE_GATT_EXECUTE_WRITE_RSP\000"
 5612      455F4741 
ARM GAS  C:\Users\ASUS\AppData\Local\Temp\ccKl44WS.s 			page 146


 5612      54545F45 
 5612      58454355 
 5612      54455F57 
 5613              	.LASF237:
 5614 2b81 61747449 		.ascii	"attId\000"
 5614      6400
 5615              	.LASF388:
 5616 2b87 4359424C 		.ascii	"CYBLE_EVT_ESSC_WRITE_DESCR_RESPONSE\000"
 5616      455F4556 
 5616      545F4553 
 5616      53435F57 
 5616      52495445 
 5617              	.LASF487:
 5618 2bab 4359424C 		.ascii	"CYBLE_EVT_PLXSS_NOTIFICATION_DISABLED\000"
 5618      455F4556 
 5618      545F504C 
 5618      5853535F 
 5618      4E4F5449 
 5619              	.LASF259:
 5620 2bd1 4359424C 		.ascii	"CYBLE_EVT_GATTC_SRVC_DISCOVERY_FAILED\000"
 5620      455F4556 
 5620      545F4741 
 5620      5454435F 
 5620      53525643 
 5621              	.LASF588:
 5622 2bf7 5247425F 		.ascii	"RGB_Collection\000"
 5622      436F6C6C 
 5622      65637469 
 5622      6F6E00
 5623              	.LASF455:
 5624 2c06 4359424C 		.ascii	"CYBLE_EVT_LNSS_INDICATION_CONFIRMED\000"
 5624      455F4556 
 5624      545F4C4E 
 5624      53535F49 
 5624      4E444943 
 5625              	.LASF94:
 5626 2c2a 4359424C 		.ascii	"CYBLE_ERROR_INSUFFICIENT_RESOURCES\000"
 5626      455F4552 
 5626      524F525F 
 5626      494E5355 
 5626      46464943 
 5627              	.LASF23:
 5628 2c4d 4359424C 		.ascii	"CYBLE_EVT_STACK_BUSY_STATUS\000"
 5628      455F4556 
 5628      545F5354 
 5628      41434B5F 
 5628      42555359 
 5629              	.LASF373:
 5630 2c69 4359424C 		.ascii	"CYBLE_EVT_CTSC_WRITE_DESCR_RESPONSE\000"
 5630      455F4556 
 5630      545F4354 
 5630      53435F57 
 5630      52495445 
 5631              	.LASF54:
 5632 2c8d 4359424C 		.ascii	"CYBLE_EVT_GATTC_READ_BY_GROUP_TYPE_RSP\000"
 5632      455F4556 
 5632      545F4741 
ARM GAS  C:\Users\ASUS\AppData\Local\Temp\ccKl44WS.s 			page 147


 5632      5454435F 
 5632      52454144 
 5633              	.LASF586:
 5634 2cb4 6572725F 		.ascii	"err_param\000"
 5634      70617261 
 5634      6D00
 5635              	.LASF115:
 5636 2cbe 4359424C 		.ascii	"CYBLE_ERROR_FLASH_WRITE\000"
 5636      455F4552 
 5636      524F525F 
 5636      464C4153 
 5636      485F5752 
 5637              	.LASF211:
 5638 2cd6 4359424C 		.ascii	"CYBLE_GATT_ERR_UNSUPPORTED_GROUP_TYPE\000"
 5638      455F4741 
 5638      54545F45 
 5638      52525F55 
 5638      4E535550 
 5639              	.LASF93:
 5640 2cfc 4359424C 		.ascii	"CYBLE_ERROR_MEMORY_ALLOCATION_FAILED\000"
 5640      455F4552 
 5640      524F525F 
 5640      4D454D4F 
 5640      52595F41 
 5641              	.LASF130:
 5642 2d21 4359424C 		.ascii	"CYBLE_GAPP_SCANNABLE_UNDIRECTED_ADV\000"
 5642      455F4741 
 5642      50505F53 
 5642      43414E4E 
 5642      41424C45 
 5643              	.LASF325:
 5644 2d45 4359424C 		.ascii	"CYBLE_EVT_BMSC_READ_CHAR_RESPONSE\000"
 5644      455F4556 
 5644      545F424D 
 5644      53435F52 
 5644      4541445F 
 5645              	.LASF33:
 5646 2d67 4359424C 		.ascii	"CYBLE_EVT_GAP_DEVICE_DISCONNECTED\000"
 5646      455F4556 
 5646      545F4741 
 5646      505F4445 
 5646      56494345 
 5647              	.LASF598:
 5648 2d89 52474244 		.ascii	"RGBData\000"
 5648      61746100 
 5649              	.LASF485:
 5650 2d91 4359424C 		.ascii	"CYBLE_EVT_PLXSS_WRITE_CHAR\000"
 5650      455F4556 
 5650      545F504C 
 5650      5853535F 
 5650      57524954 
 5651              	.LASF16:
 5652 2dac 6C6F6E67 		.ascii	"long double\000"
 5652      20646F75 
 5652      626C6500 
 5653              	.LASF443:
 5654 2db8 4359424C 		.ascii	"CYBLE_EVT_IPSC_READ_CHAR_RESPONSE\000"
ARM GAS  C:\Users\ASUS\AppData\Local\Temp\ccKl44WS.s 			page 148


 5654      455F4556 
 5654      545F4950 
 5654      53435F52 
 5654      4541445F 
 5655              	.LASF96:
 5656 2dda 4359424C 		.ascii	"CYBLE_ERROR_NO_CONNECTION\000"
 5656      455F4552 
 5656      524F525F 
 5656      4E4F5F43 
 5656      4F4E4E45 
 5657              	.LASF62:
 5658 2df4 4359424C 		.ascii	"CYBLE_EVT_GATTC_WRITE_RSP\000"
 5658      455F4556 
 5658      545F4741 
 5658      5454435F 
 5658      57524954 
 5659              	.LASF10:
 5660 2e0e 75696E74 		.ascii	"uint16\000"
 5660      313600
 5661              	.LASF102:
 5662 2e15 4359424C 		.ascii	"CYBLE_ERROR_SEC_FAILED\000"
 5662      455F4552 
 5662      524F525F 
 5662      5345435F 
 5662      4641494C 
 5663              	.LASF525:
 5664 2e2c 4359424C 		.ascii	"CYBLE_EVT_UDSS_INDICATION_DISABLED\000"
 5664      455F4556 
 5664      545F5544 
 5664      53535F49 
 5664      4E444943 
 5665              	.LASF408:
 5666 2e4f 4359424C 		.ascii	"CYBLE_EVT_HIDSC_NOTIFICATION\000"
 5666      455F4556 
 5666      545F4849 
 5666      4453435F 
 5666      4E4F5449 
 5667              	.LASF587:
 5668 2e6c 73656E64 		.ascii	"sendColorDataToNetwork\000"
 5668      436F6C6F 
 5668      72446174 
 5668      61546F4E 
 5668      6574776F 
 5669              	.LASF5:
 5670 2e83 6C6F6E67 		.ascii	"long unsigned int\000"
 5670      20756E73 
 5670      69676E65 
 5670      6420696E 
 5670      7400
 5671              	.LASF131:
 5672 2e95 4359424C 		.ascii	"CYBLE_GAPP_NON_CONNECTABLE_UNDIRECTED_ADV\000"
 5672      455F4741 
 5672      50505F4E 
 5672      4F4E5F43 
 5672      4F4E4E45 
 5673              	.LASF480:
 5674 2ebf 4359424C 		.ascii	"CYBLE_EVT_PASSS_WRITE_CHAR\000"
ARM GAS  C:\Users\ASUS\AppData\Local\Temp\ccKl44WS.s 			page 149


 5674      455F4556 
 5674      545F5041 
 5674      5353535F 
 5674      57524954 
 5675              	.LASF194:
 5676 2eda 4359424C 		.ascii	"CYBLE_GATT_UNKNOWN_PDU_IND\000"
 5676      455F4741 
 5676      54545F55 
 5676      4E4B4E4F 
 5676      574E5F50 
 5677              	.LASF71:
 5678 2ef5 4359424C 		.ascii	"CYBLE_EVT_GATTC_STOP_CMD_COMPLETE\000"
 5678      455F4556 
 5678      545F4741 
 5678      5454435F 
 5678      53544F50 
 5679              	.LASF179:
 5680 2f17 4359424C 		.ascii	"CYBLE_GATT_READ_MULTIPLE_REQ\000"
 5680      455F4741 
 5680      54545F52 
 5680      4541445F 
 5680      4D554C54 
 5681              	.LASF150:
 5682 2f34 61647644 		.ascii	"advDataLen\000"
 5682      6174614C 
 5682      656E00
 5683              	.LASF596:
 5684 2f3f 4E554D5F 		.ascii	"NUM_EXCEEDED_WAITING_TIME\000"
 5684      45584345 
 5684      45444544 
 5684      5F574149 
 5684      54494E47 
 5685              	.LASF416:
 5686 2f59 4359424C 		.ascii	"CYBLE_EVT_HPSC_NOTIFICATION\000"
 5686      455F4556 
 5686      545F4850 
 5686      53435F4E 
 5686      4F544946 
 5687              	.LASF355:
 5688 2f75 4359424C 		.ascii	"CYBLE_EVT_CSCSS_NOTIFICATION_ENABLED\000"
 5688      455F4556 
 5688      545F4353 
 5688      4353535F 
 5688      4E4F5449 
 5689              	.LASF15:
 5690 2f9a 63686172 		.ascii	"char\000"
 5690      00
 5691              	.LASF572:
 5692 2f9f 6576656E 		.ascii	"eventParam\000"
 5692      74506172 
 5692      616D00
 5693              	.LASF139:
 5694 2faa 4359424C 		.ascii	"CYBLE_GAPC_ADV_EVENT_T\000"
 5694      455F4741 
 5694      50435F41 
 5694      44565F45 
 5694      56454E54 
ARM GAS  C:\Users\ASUS\AppData\Local\Temp\ccKl44WS.s 			page 150


 5695              	.LASF310:
 5696 2fc1 4359424C 		.ascii	"CYBLE_EVT_BCSC_INDICATION\000"
 5696      455F4556 
 5696      545F4243 
 5696      53435F49 
 5696      4E444943 
 5697              	.LASF78:
 5698 2fdb 4359424C 		.ascii	"CYBLE_EVT_L2CAP_CBFC_CONN_CNF\000"
 5698      455F4556 
 5698      545F4C32 
 5698      4341505F 
 5698      43424643 
 5699              	.LASF543:
 5700 2ff9 4359424C 		.ascii	"CYBLE_EVT_WPTSS_WRITE_CHAR\000"
 5700      455F4556 
 5700      545F5750 
 5700      5453535F 
 5700      57524954 
 5701              	.LASF585:
 5702 3014 6F70436F 		.ascii	"opCode\000"
 5702      646500
 5703              	.LASF344:
 5704 301b 4359424C 		.ascii	"CYBLE_EVT_CPSS_INDICATION_CONFIRMED\000"
 5704      455F4556 
 5704      545F4350 
 5704      53535F49 
 5704      4E444943 
 5705              	.LASF92:
 5706 303f 4359424C 		.ascii	"CYBLE_ERROR_INVALID_OPERATION\000"
 5706      455F4552 
 5706      524F525F 
 5706      494E5641 
 5706      4C49445F 
 5707              	.LASF11:
 5708 305d 75696E74 		.ascii	"uint32\000"
 5708      333200
 5709              	.LASF307:
 5710 3064 4359424C 		.ascii	"CYBLE_EVT_BCSS_INDICATION_ENABLED\000"
 5710      455F4556 
 5710      545F4243 
 5710      53535F49 
 5710      4E444943 
 5711              	.LASF236:
 5712 3086 62644861 		.ascii	"bdHandle\000"
 5712      6E646C65 
 5712      00
 5713              	.LASF97:
 5714 308f 4359424C 		.ascii	"CYBLE_ERROR_NO_DEVICE_ENTITY\000"
 5714      455F4552 
 5714      524F525F 
 5714      4E4F5F44 
 5714      45564943 
 5715              	.LASF80:
 5716 30ac 4359424C 		.ascii	"CYBLE_EVT_L2CAP_CBFC_DISCONN_CNF\000"
 5716      455F4556 
 5716      545F4C32 
 5716      4341505F 
ARM GAS  C:\Users\ASUS\AppData\Local\Temp\ccKl44WS.s 			page 151


 5716      43424643 
 5717              	.LASF390:
 5718 30cd 4359424C 		.ascii	"CYBLE_EVT_GLSS_INDICATION_DISABLED\000"
 5718      455F4556 
 5718      545F474C 
 5718      53535F49 
 5718      4E444943 
 5719              	.LASF196:
 5720 30f0 4359424C 		.ascii	"CYBLE_GATT_ERR_INVALID_HANDLE\000"
 5720      455F4741 
 5720      54545F45 
 5720      52525F49 
 5720      4E56414C 
 5721              	.LASF329:
 5722 310e 4359424C 		.ascii	"CYBLE_EVT_CGMSS_INDICATION_DISABLED\000"
 5722      455F4556 
 5722      545F4347 
 5722      4D53535F 
 5722      494E4449 
 5723              	.LASF503:
 5724 3132 4359424C 		.ascii	"CYBLE_EVT_RSCSS_CHAR_WRITE\000"
 5724      455F4556 
 5724      545F5253 
 5724      4353535F 
 5724      43484152 
 5725              	.LASF481:
 5726 314d 4359424C 		.ascii	"CYBLE_EVT_PASSC_NOTIFICATION\000"
 5726      455F4556 
 5726      545F5041 
 5726      5353435F 
 5726      4E4F5449 
 5727              	.LASF520:
 5728 316a 4359424C 		.ascii	"CYBLE_EVT_TPSC_NOTIFICATION\000"
 5728      455F4556 
 5728      545F5450 
 5728      53435F4E 
 5728      4F544946 
 5729              	.LASF535:
 5730 3186 4359424C 		.ascii	"CYBLE_EVT_UDSC_READ_DESCR_RESPONSE\000"
 5730      455F4556 
 5730      545F5544 
 5730      53435F52 
 5730      4541445F 
 5731              	.LASF64:
 5732 31a9 4359424C 		.ascii	"CYBLE_EVT_GATTS_PREP_WRITE_REQ\000"
 5732      455F4556 
 5732      545F4741 
 5732      5454535F 
 5732      50524550 
 5733              	.LASF470:
 5734 31c8 4359424C 		.ascii	"CYBLE_EVT_OTSS_WRITE_DESCR\000"
 5734      455F4556 
 5734      545F4F54 
 5734      53535F57 
 5734      52495445 
 5735              	.LASF397:
 5736 31e3 4359424C 		.ascii	"CYBLE_EVT_GLSC_READ_CHAR_RESPONSE\000"
ARM GAS  C:\Users\ASUS\AppData\Local\Temp\ccKl44WS.s 			page 152


 5736      455F4556 
 5736      545F474C 
 5736      53435F52 
 5736      4541445F 
 5737              	.LASF156:
 5738 3205 61647650 		.ascii	"advParam\000"
 5738      6172616D 
 5738      00
 5739              	.LASF507:
 5740 320e 4359424C 		.ascii	"CYBLE_EVT_RSCSC_WRITE_CHAR_RESPONSE\000"
 5740      455F4556 
 5740      545F5253 
 5740      4353435F 
 5740      57524954 
 5741              	.LASF164:
 5742 3232 72737369 		.ascii	"rssi\000"
 5742      00
 5743              	.LASF315:
 5744 3237 4359424C 		.ascii	"CYBLE_EVT_BLSS_INDICATION_DISABLED\000"
 5744      455F4556 
 5744      545F424C 
 5744      53535F49 
 5744      4E444943 
 5745              	.LASF513:
 5746 325a 4359424C 		.ascii	"CYBLE_EVT_SCPSS_NOTIFICATION_DISABLED\000"
 5746      455F4556 
 5746      545F5343 
 5746      5053535F 
 5746      4E4F5449 
 5747              	.LASF423:
 5748 3280 4359424C 		.ascii	"CYBLE_EVT_HRSS_NOTIFICATION_DISABLED\000"
 5748      455F4556 
 5748      545F4852 
 5748      53535F4E 
 5748      4F544946 
 5749              	.LASF592:
 5750 32a5 6379426C 		.ascii	"cyBle_connHandle\000"
 5750      655F636F 
 5750      6E6E4861 
 5750      6E646C65 
 5750      00
 5751              	.LASF363:
 5752 32b6 4359424C 		.ascii	"CYBLE_EVT_CSCSC_READ_CHAR_RESPONSE\000"
 5752      455F4556 
 5752      545F4353 
 5752      4353435F 
 5752      52454144 
 5753              	.LASF462:
 5754 32d9 4359424C 		.ascii	"CYBLE_EVT_LNSC_WRITE_CHAR_RESPONSE\000"
 5754      455F4556 
 5754      545F4C4E 
 5754      53435F57 
 5754      52495445 
 5755              	.LASF226:
 5756 32fc 4359424C 		.ascii	"CYBLE_GATT_ERR_ANS_COMMAND_NOT_SUPPORTED\000"
 5756      455F4741 
 5756      54545F45 
ARM GAS  C:\Users\ASUS\AppData\Local\Temp\ccKl44WS.s 			page 153


 5756      52525F41 
 5756      4E535F43 
 5757              	.LASF375:
 5758 3325 4359424C 		.ascii	"CYBLE_EVT_DISC_READ_CHAR_RESPONSE\000"
 5758      455F4556 
 5758      545F4449 
 5758      53435F52 
 5758      4541445F 
 5759              	.LASF512:
 5760 3347 4359424C 		.ascii	"CYBLE_EVT_SCPSS_NOTIFICATION_ENABLED\000"
 5760      455F4556 
 5760      545F5343 
 5760      5053535F 
 5760      4E4F5449 
 5761              	.LASF498:
 5762 336c 4359424C 		.ascii	"CYBLE_EVT_RSCSS_NOTIFICATION_ENABLED\000"
 5762      455F4556 
 5762      545F5253 
 5762      4353535F 
 5762      4E4F5449 
 5763              	.LASF52:
 5764 3391 4359424C 		.ascii	"CYBLE_EVT_GATTS_XCNHG_MTU_REQ\000"
 5764      455F4556 
 5764      545F4741 
 5764      5454535F 
 5764      58434E48 
 5765              	.LASF118:
 5766 33af 4359424C 		.ascii	"CYBLE_ERROR_MAX\000"
 5766      455F4552 
 5766      524F525F 
 5766      4D415800 
 5767              	.LASF100:
 5768 33bf 4359424C 		.ascii	"CYBLE_ERROR_TX_POWER_READ\000"
 5768      455F4552 
 5768      524F525F 
 5768      54585F50 
 5768      4F574552 
 5769              	.LASF550:
 5770 33d9 4359424C 		.ascii	"CYBLE_EVT_WSSS_INDICATION_ENABLED\000"
 5770      455F4556 
 5770      545F5753 
 5770      53535F49 
 5770      4E444943 
 5771              	.LASF186:
 5772 33fb 4359424C 		.ascii	"CYBLE_GATT_PREPARE_WRITE_REQ\000"
 5772      455F4741 
 5772      54545F50 
 5772      52455041 
 5772      52455F57 
 5773              	.LASF265:
 5774 3418 4359424C 		.ascii	"CYBLE_EVT_GATTC_DESCR_DUPLICATION\000"
 5774      455F4556 
 5774      545F4741 
 5774      5454435F 
 5774      44455343 
 5775              	.LASF399:
 5776 343a 4359424C 		.ascii	"CYBLE_EVT_GLSC_READ_DESCR_RESPONSE\000"
ARM GAS  C:\Users\ASUS\AppData\Local\Temp\ccKl44WS.s 			page 154


 5776      455F4556 
 5776      545F474C 
 5776      53435F52 
 5776      4541445F 
 5777              	.LASF576:
 5778 345d 77726974 		.ascii	"writeCmdData\000"
 5778      65436D64 
 5778      44617461 
 5778      00
 5779              	.LASF353:
 5780 346a 4359424C 		.ascii	"CYBLE_EVT_CPSC_WRITE_DESCR_RESPONSE\000"
 5780      455F4556 
 5780      545F4350 
 5780      53435F57 
 5780      52495445 
 5781              	.LASF346:
 5782 348e 4359424C 		.ascii	"CYBLE_EVT_CPSS_BROADCAST_DISABLED\000"
 5782      455F4556 
 5782      545F4350 
 5782      53535F42 
 5782      524F4144 
 5783              	.LASF227:
 5784 34b0 4359424C 		.ascii	"CYBLE_GATT_ERR_ANCS_UNKNOWN_COMMAND\000"
 5784      455F4741 
 5784      54545F45 
 5784      52525F41 
 5784      4E43535F 
 5785              	.LASF382:
 5786 34d4 4359424C 		.ascii	"CYBLE_EVT_ESSS_DESCR_WRITE\000"
 5786      455F4556 
 5786      545F4553 
 5786      53535F44 
 5786      45534352 
 5787              	.LASF328:
 5788 34ef 4359424C 		.ascii	"CYBLE_EVT_CGMSS_INDICATION_ENABLED\000"
 5788      455F4556 
 5788      545F4347 
 5788      4D53535F 
 5788      494E4449 
 5789              	.LASF583:
 5790 3512 436F6E6E 		.ascii	"ConnectToPeripheralDevice\000"
 5790      65637454 
 5790      6F506572 
 5790      69706865 
 5790      72616C44 
 5791              	.LASF238:
 5792 352c 4359424C 		.ascii	"CYBLE_CONN_HANDLE_T\000"
 5792      455F434F 
 5792      4E4E5F48 
 5792      414E444C 
 5792      455F5400 
 5793              	.LASF442:
 5794 3540 4359424C 		.ascii	"CYBLE_EVT_IPSS_WRITE_CHAR\000"
 5794      455F4556 
 5794      545F4950 
 5794      53535F57 
 5794      52495445 
ARM GAS  C:\Users\ASUS\AppData\Local\Temp\ccKl44WS.s 			page 155


 5795              	.LASF68:
 5796 355a 4359424C 		.ascii	"CYBLE_EVT_GATTC_HANDLE_VALUE_IND\000"
 5796      455F4556 
 5796      545F4741 
 5796      5454435F 
 5796      48414E44 
 5797              	.LASF192:
 5798 357b 4359424C 		.ascii	"CYBLE_GATT_HANDLE_VALUE_CNF\000"
 5798      455F4741 
 5798      54545F48 
 5798      414E444C 
 5798      455F5641 
 5799              	.LASF393:
 5800 3597 4359424C 		.ascii	"CYBLE_EVT_GLSS_NOTIFICATION_DISABLED\000"
 5800      455F4556 
 5800      545F474C 
 5800      53535F4E 
 5800      4F544946 
 5801              	.LASF579:
 5802 35bc 52474244 		.ascii	"RGBData2\000"
 5802      61746132 
 5802      00
 5803              	.LASF601:
 5804 35c5 6E65775F 		.ascii	"new_advData\000"
 5804      61647644 
 5804      61746100 
 5805              	.LASF405:
 5806 35d1 4359424C 		.ascii	"CYBLE_EVT_HIDSS_SUSPEND\000"
 5806      455F4556 
 5806      545F4849 
 5806      4453535F 
 5806      53555350 
 5807              	.LASF14:
 5808 35e9 646F7562 		.ascii	"double\000"
 5808      6C6500
 5809              	.LASF437:
 5810 35f0 4359424C 		.ascii	"CYBLE_EVT_HTSC_READ_CHAR_RESPONSE\000"
 5810      455F4556 
 5810      545F4854 
 5810      53435F52 
 5810      4541445F 
 5811              	.LASF200:
 5812 3612 4359424C 		.ascii	"CYBLE_GATT_ERR_INSUFFICIENT_AUTHENTICATION\000"
 5812      455F4741 
 5812      54545F45 
 5812      52525F49 
 5812      4E535546 
 5813              	.LASF292:
 5814 363d 4359424C 		.ascii	"CYBLE_EVT_ANCSC_ERROR_RESPONSE\000"
 5814      455F4556 
 5814      545F414E 
 5814      4353435F 
 5814      4552524F 
 5815              	.LASF50:
 5816 365c 4359424C 		.ascii	"CYBLE_EVT_GATT_CONNECT_IND\000"
 5816      455F4556 
 5816      545F4741 
ARM GAS  C:\Users\ASUS\AppData\Local\Temp\ccKl44WS.s 			page 156


 5816      54545F43 
 5816      4F4E4E45 
 5817              	.LASF606:
 5818 3677 70657269 		.ascii	"peripAddr\000"
 5818      70416464 
 5818      7200
 5819              	.LASF45:
 5820 3681 4359424C 		.ascii	"CYBLE_EVT_GAP_CONN_ESTB\000"
 5820      455F4556 
 5820      545F4741 
 5820      505F434F 
 5820      4E4E5F45 
 5821              	.LASF546:
 5822 3699 4359424C 		.ascii	"CYBLE_EVT_WPTSC_WRITE_CHAR_RESPONSE\000"
 5822      455F4556 
 5822      545F5750 
 5822      5453435F 
 5822      57524954 
 5823              	.LASF385:
 5824 36bd 4359424C 		.ascii	"CYBLE_EVT_ESSC_READ_CHAR_RESPONSE\000"
 5824      455F4556 
 5824      545F4553 
 5824      53435F52 
 5824      4541445F 
 5825              	.LASF589:
 5826 36df 76616C75 		.ascii	"value_pair\000"
 5826      655F7061 
 5826      697200
 5827              	.LASF48:
 5828 36ea 4359424C 		.ascii	"CYBLE_EVT_GAP_SMP_LOC_P256_KEYS_GEN_AND_SET_COMPLET"
 5828      455F4556 
 5828      545F4741 
 5828      505F534D 
 5828      505F4C4F 
 5829 371d 4500     		.ascii	"E\000"
 5830              	.LASF529:
 5831 371f 4359424C 		.ascii	"CYBLE_EVT_UDSS_READ_CHAR\000"
 5831      455F4556 
 5831      545F5544 
 5831      53535F52 
 5831      4541445F 
 5832              	.LASF127:
 5833 3738 4359424C 		.ascii	"CYBLE_GAP_BD_ADDR_T\000"
 5833      455F4741 
 5833      505F4244 
 5833      5F414444 
 5833      525F5400 
 5834              	.LASF163:
 5835 374c 64617461 		.ascii	"data\000"
 5835      00
 5836              	.LASF352:
 5837 3751 4359424C 		.ascii	"CYBLE_EVT_CPSC_READ_DESCR_RESPONSE\000"
 5837      455F4556 
 5837      545F4350 
 5837      53435F52 
 5837      4541445F 
 5838              	.LASF264:
ARM GAS  C:\Users\ASUS\AppData\Local\Temp\ccKl44WS.s 			page 157


 5839 3774 4359424C 		.ascii	"CYBLE_EVT_GATTC_CHAR_DUPLICATION\000"
 5839      455F4556 
 5839      545F4741 
 5839      5454435F 
 5839      43484152 
 5840              	.LASF570:
 5841 3795 4359424C 		.ascii	"CYBLE_SRVI_COUNT\000"
 5841      455F5352 
 5841      56495F43 
 5841      4F554E54 
 5841      00
 5842              	.LASF500:
 5843 37a6 4359424C 		.ascii	"CYBLE_EVT_RSCSS_INDICATION_ENABLED\000"
 5843      455F4556 
 5843      545F5253 
 5843      4353535F 
 5843      494E4449 
 5844              	.LASF333:
 5845 37c9 4359424C 		.ascii	"CYBLE_EVT_CGMSS_WRITE_CHAR\000"
 5845      455F4556 
 5845      545F4347 
 5845      4D53535F 
 5845      57524954 
 5846              	.LASF136:
 5847 37e4 4359424C 		.ascii	"CYBLE_GAPC_SCAN_UNDIRECTED_ADV\000"
 5847      455F4741 
 5847      50435F53 
 5847      43414E5F 
 5847      554E4449 
 5848              	.LASF229:
 5849 3803 4359424C 		.ascii	"CYBLE_GATT_ERR_ANCS_INVALID_PARAMETER\000"
 5849      455F4741 
 5849      54545F45 
 5849      52525F41 
 5849      4E43535F 
 5850              	.LASF501:
 5851 3829 4359424C 		.ascii	"CYBLE_EVT_RSCSS_INDICATION_DISABLED\000"
 5851      455F4556 
 5851      545F5253 
 5851      4353535F 
 5851      494E4449 
 5852              	.LASF305:
 5853 384d 4359424C 		.ascii	"CYBLE_EVT_BASC_READ_DESCR_RESPONSE\000"
 5853      455F4556 
 5853      545F4241 
 5853      53435F52 
 5853      4541445F 
 5854              	.LASF273:
 5855 3870 4359424C 		.ascii	"CYBLE_EVT_AIOSS_INDICATION_ENABLED\000"
 5855      455F4556 
 5855      545F4149 
 5855      4F53535F 
 5855      494E4449 
 5856              	.LASF219:
 5857 3893 4359424C 		.ascii	"CYBLE_GATT_ERR_OP_CODE_NOT_SUPPORTED\000"
 5857      455F4741 
 5857      54545F45 
ARM GAS  C:\Users\ASUS\AppData\Local\Temp\ccKl44WS.s 			page 158


 5857      52525F4F 
 5857      505F434F 
 5858              	.LASF331:
 5859 38b8 4359424C 		.ascii	"CYBLE_EVT_CGMSS_NOTIFICATION_ENABLED\000"
 5859      455F4556 
 5859      545F4347 
 5859      4D53535F 
 5859      4E4F5449 
 5860              	.LASF184:
 5861 38dd 4359424C 		.ascii	"CYBLE_GATT_WRITE_RSP\000"
 5861      455F4741 
 5861      54545F57 
 5861      52495445 
 5861      5F525350 
 5862              	.LASF95:
 5863 38f2 4359424C 		.ascii	"CYBLE_ERROR_OOB_NOT_AVAILABLE\000"
 5863      455F4552 
 5863      524F525F 
 5863      4F4F425F 
 5863      4E4F545F 
 5864              	.LASF511:
 5865 3910 4359424C 		.ascii	"CYBLE_EVT_RTUSC_READ_CHAR_RESPONSE\000"
 5865      455F4556 
 5865      545F5254 
 5865      5553435F 
 5865      52454144 
 5866              	.LASF454:
 5867 3933 4359424C 		.ascii	"CYBLE_EVT_LNSS_INDICATION_DISABLED\000"
 5867      455F4556 
 5867      545F4C4E 
 5867      53535F49 
 5867      4E444943 
 5868              	.LASF542:
 5869 3956 4359424C 		.ascii	"CYBLE_EVT_WPTSS_INDICATION_CONFIRMED\000"
 5869      455F4556 
 5869      545F5750 
 5869      5453535F 
 5869      494E4449 
 5870              	.LASF294:
 5871 397b 4359424C 		.ascii	"CYBLE_EVT_ANSS_NOTIFICATION_DISABLED\000"
 5871      455F4556 
 5871      545F414E 
 5871      53535F4E 
 5871      4F544946 
 5872              	.LASF30:
 5873 39a0 4359424C 		.ascii	"CYBLE_EVT_GAP_AUTH_FAILED\000"
 5873      455F4556 
 5873      545F4741 
 5873      505F4155 
 5873      54485F46 
 5874              	.LASF225:
 5875 39ba 4359424C 		.ascii	"CYBLE_GATTS_ERR_NETWORK_NOT_AVAILABLE\000"
 5875      455F4741 
 5875      5454535F 
 5875      4552525F 
 5875      4E455457 
 5876              	.LASF332:
ARM GAS  C:\Users\ASUS\AppData\Local\Temp\ccKl44WS.s 			page 159


 5877 39e0 4359424C 		.ascii	"CYBLE_EVT_CGMSS_NOTIFICATION_DISABLED\000"
 5877      455F4556 
 5877      545F4347 
 5877      4D53535F 
 5877      4E4F5449 
 5878              	.LASF218:
 5879 3a06 4359424C 		.ascii	"CYBLE_GATTS_ERR_PROCEDURE_ALREADY_IN_PROGRESS\000"
 5879      455F4741 
 5879      5454535F 
 5879      4552525F 
 5879      50524F43 
 5880              	.LASF392:
 5881 3a34 4359424C 		.ascii	"CYBLE_EVT_GLSS_NOTIFICATION_ENABLED\000"
 5881      455F4556 
 5881      545F474C 
 5881      53535F4E 
 5881      4F544946 
 5882              	.LASF116:
 5883 3a58 4359424C 		.ascii	"CYBLE_ERROR_LL_SAME_TRANSACTION_COLLISION\000"
 5883      455F4552 
 5883      524F525F 
 5883      4C4C5F53 
 5883      414D455F 
 5884              	.LASF133:
 5885 3a82 4359424C 		.ascii	"CYBLE_GAPP_ADV_T\000"
 5885      455F4741 
 5885      50505F41 
 5885      44565F54 
 5885      00
 5886              	.LASF469:
 5887 3a93 4359424C 		.ascii	"CYBLE_EVT_OTSS_WRITE_CHAR\000"
 5887      455F4556 
 5887      545F4F54 
 5887      53535F57 
 5887      52495445 
 5888              	.LASF72:
 5889 3aad 4359424C 		.ascii	"CYBLE_EVT_GATTS_READ_CHAR_VAL_ACCESS_REQ\000"
 5889      455F4556 
 5889      545F4741 
 5889      5454535F 
 5889      52454144 
 5890              	.LASF74:
 5891 3ad6 4359424C 		.ascii	"CYBLE_EVT_L2CAP_CONN_PARAM_UPDATE_REQ\000"
 5891      455F4556 
 5891      545F4C32 
 5891      4341505F 
 5891      434F4E4E 
 5892              	.LASF488:
 5893 3afc 4359424C 		.ascii	"CYBLE_EVT_PLXSS_INDICATION_ENABLED\000"
 5893      455F4556 
 5893      545F504C 
 5893      5853535F 
 5893      494E4449 
 5894              	.LASF499:
 5895 3b1f 4359424C 		.ascii	"CYBLE_EVT_RSCSS_NOTIFICATION_DISABLED\000"
 5895      455F4556 
 5895      545F5253 
ARM GAS  C:\Users\ASUS\AppData\Local\Temp\ccKl44WS.s 			page 160


 5895      4353535F 
 5895      4E4F5449 
 5896              	.LASF7:
 5897 3b45 6C6F6E67 		.ascii	"long long unsigned int\000"
 5897      206C6F6E 
 5897      6720756E 
 5897      7369676E 
 5897      65642069 
 5898              	.LASF296:
 5899 3b5c 4359424C 		.ascii	"CYBLE_EVT_ANSC_NOTIFICATION\000"
 5899      455F4556 
 5899      545F414E 
 5899      53435F4E 
 5899      4F544946 
 5900              	.LASF308:
 5901 3b78 4359424C 		.ascii	"CYBLE_EVT_BCSS_INDICATION_DISABLED\000"
 5901      455F4556 
 5901      545F4243 
 5901      53535F49 
 5901      4E444943 
 5902              	.LASF426:
 5903 3b9b 4359424C 		.ascii	"CYBLE_EVT_HRSC_WRITE_CHAR_RESPONSE\000"
 5903      455F4556 
 5903      545F4852 
 5903      53435F57 
 5903      52495445 
 5904              	.LASF250:
 5905 3bbe 4359424C 		.ascii	"CYBLE_GATTS_WRITE_CMD_REQ_PARAM_T\000"
 5905      455F4741 
 5905      5454535F 
 5905      57524954 
 5905      455F434D 
 5906              	.LASF107:
 5907 3be0 4359424C 		.ascii	"CYBLE_ERROR_L2CAP_CHANNEL_NOT_FOUND\000"
 5907      455F4552 
 5907      524F525F 
 5907      4C324341 
 5907      505F4348 
 5908              	.LASF527:
 5909 3c04 4359424C 		.ascii	"CYBLE_EVT_UDSS_NOTIFICATION_ENABLED\000"
 5909      455F4556 
 5909      545F5544 
 5909      53535F4E 
 5909      4F544946 
 5910              	.LASF147:
 5911 3c28 61647646 		.ascii	"advFilterPolicy\000"
 5911      696C7465 
 5911      72506F6C 
 5911      69637900 
 5912              	.LASF396:
 5913 3c38 4359424C 		.ascii	"CYBLE_EVT_GLSC_NOTIFICATION\000"
 5913      455F4556 
 5913      545F474C 
 5913      53435F4E 
 5913      4F544946 
 5914              	.LASF290:
 5915 3c54 4359424C 		.ascii	"CYBLE_EVT_ANCSC_READ_DESCR_RESPONSE\000"
ARM GAS  C:\Users\ASUS\AppData\Local\Temp\ccKl44WS.s 			page 161


 5915      455F4556 
 5915      545F414E 
 5915      4353435F 
 5915      52454144 
 5916              	.LASF474:
 5917 3c78 4359424C 		.ascii	"CYBLE_EVT_OTSC_WRITE_CHAR_RESPONSE\000"
 5917      455F4556 
 5917      545F4F54 
 5917      53435F57 
 5917      52495445 
 5918              	.LASF46:
 5919 3c9b 4359424C 		.ascii	"CYBLE_EVT_GAP_SCAN_REQ_RECVD\000"
 5919      455F4556 
 5919      545F4741 
 5919      505F5343 
 5919      414E5F52 
 5920              	.LASF111:
 5921 3cb8 4359424C 		.ascii	"CYBLE_ERROR_FLASH_WRITE_NOT_PERMITED\000"
 5921      455F4552 
 5921      524F525F 
 5921      464C4153 
 5921      485F5752 
 5922              	.LASF277:
 5923 3cdd 4359424C 		.ascii	"CYBLE_EVT_AIOSS_DESCR_WRITE\000"
 5923      455F4556 
 5923      545F4149 
 5923      4F53535F 
 5923      44455343 
 5924              	.LASF35:
 5925 3cf9 4359424C 		.ascii	"CYBLE_EVT_GAP_CONNECTION_UPDATE_COMPLETE\000"
 5925      455F4556 
 5925      545F4741 
 5925      505F434F 
 5925      4E4E4543 
 5926              	.LASF282:
 5927 3d22 4359424C 		.ascii	"CYBLE_EVT_AIOSC_READ_DESCR_RESPONSE\000"
 5927      455F4556 
 5927      545F4149 
 5927      4F53435F 
 5927      52454144 
 5928              	.LASF217:
 5929 3d46 4359424C 		.ascii	"CYBLE_GATT_ERR_HTS_OUT_OF_RANGE\000"
 5929      455F4741 
 5929      54545F45 
 5929      52525F48 
 5929      54535F4F 
 5930              	.LASF148:
 5931 3d66 4359424C 		.ascii	"CYBLE_GAPP_DISC_PARAM_T\000"
 5931      455F4741 
 5931      50505F44 
 5931      4953435F 
 5931      50415241 
 5932              	.LASF491:
 5933 3d7e 4359424C 		.ascii	"CYBLE_EVT_PLXSC_NOTIFICATION\000"
 5933      455F4556 
 5933      545F504C 
 5933      5853435F 
ARM GAS  C:\Users\ASUS\AppData\Local\Temp\ccKl44WS.s 			page 162


 5933      4E4F5449 
 5934              	.LASF361:
 5935 3d9b 4359424C 		.ascii	"CYBLE_EVT_CSCSC_NOTIFICATION\000"
 5935      455F4556 
 5935      545F4353 
 5935      4353435F 
 5935      4E4F5449 
 5936              	.LASF509:
 5937 3db8 4359424C 		.ascii	"CYBLE_EVT_RSCSC_WRITE_DESCR_RESPONSE\000"
 5937      455F4556 
 5937      545F5253 
 5937      4353435F 
 5937      57524954 
 5938              	.LASF348:
 5939 3ddd 4359424C 		.ascii	"CYBLE_EVT_CPSC_NOTIFICATION\000"
 5939      455F4556 
 5939      545F4350 
 5939      53435F4E 
 5939      4F544946 
 5940              	.LASF461:
 5941 3df9 4359424C 		.ascii	"CYBLE_EVT_LNSC_READ_CHAR_RESPONSE\000"
 5941      455F4556 
 5941      545F4C4E 
 5941      53435F52 
 5941      4541445F 
 5942              	.LASF247:
 5943 3e1b 636F6E6E 		.ascii	"connHandle\000"
 5943      48616E64 
 5943      6C6500
 5944              	.LASF145:
 5945 3e26 64697265 		.ascii	"directAddr\000"
 5945      63744164 
 5945      647200
 5946              	.LASF258:
 5947 3e31 4359424C 		.ascii	"CYBLE_EVT_GATTC_INDICATION\000"
 5947      455F4556 
 5947      545F4741 
 5947      5454435F 
 5947      494E4449 
 5948              	.LASF334:
 5949 3e4c 4359424C 		.ascii	"CYBLE_EVT_CGMSC_INDICATION\000"
 5949      455F4556 
 5949      545F4347 
 5949      4D53435F 
 5949      494E4449 
 5950              	.LASF549:
 5951 3e67 4359424C 		.ascii	"CYBLE_EVT_WPTSC_WRITE_DESCR_RESPONSE\000"
 5951      455F4556 
 5951      545F5750 
 5951      5453435F 
 5951      57524954 
 5952              	.LASF505:
 5953 3e8c 4359424C 		.ascii	"CYBLE_EVT_RSCSC_INDICATION\000"
 5953      455F4556 
 5953      545F5253 
 5953      4353435F 
 5953      494E4449 
ARM GAS  C:\Users\ASUS\AppData\Local\Temp\ccKl44WS.s 			page 163


 5954              	.LASF559:
 5955 3ea7 4359424C 		.ascii	"CYBLE_STATE_INITIALIZING\000"
 5955      455F5354 
 5955      4154455F 
 5955      494E4954 
 5955      49414C49 
 5956              	.LASF260:
 5957 3ec0 4359424C 		.ascii	"CYBLE_EVT_GATTC_INCL_DISCOVERY_FAILED\000"
 5957      455F4556 
 5957      545F4741 
 5957      5454435F 
 5957      494E434C 
 5958              	.LASF347:
 5959 3ee6 4359424C 		.ascii	"CYBLE_EVT_CPSS_CHAR_WRITE\000"
 5959      455F4556 
 5959      545F4350 
 5959      53535F43 
 5959      4841525F 
 5960              	.LASF88:
 5961 3f00 4359424C 		.ascii	"CYBLE_EVT_FLASH_CORRUPT\000"
 5961      455F4556 
 5961      545F464C 
 5961      4153485F 
 5961      434F5252 
 5962              	.LASF381:
 5963 3f18 4359424C 		.ascii	"CYBLE_EVT_ESSS_CHAR_WRITE\000"
 5963      455F4556 
 5963      545F4553 
 5963      53535F43 
 5963      4841525F 
 5964              	.LASF541:
 5965 3f32 4359424C 		.ascii	"CYBLE_EVT_WPTSS_INDICATION_DISABLED\000"
 5965      455F4556 
 5965      545F5750 
 5965      5453535F 
 5965      494E4449 
 5966              	.LASF394:
 5967 3f56 4359424C 		.ascii	"CYBLE_EVT_GLSS_WRITE_CHAR\000"
 5967      455F4556 
 5967      545F474C 
 5967      53535F57 
 5967      52495445 
 5968              	.LASF544:
 5969 3f70 4359424C 		.ascii	"CYBLE_EVT_WPTSC_NOTIFICATION\000"
 5969      455F4556 
 5969      545F5750 
 5969      5453435F 
 5969      4E4F5449 
 5970              	.LASF180:
 5971 3f8d 4359424C 		.ascii	"CYBLE_GATT_READ_MULTIPLE_RSP\000"
 5971      455F4741 
 5971      54545F52 
 5971      4541445F 
 5971      4D554C54 
 5972              	.LASF38:
 5973 3faa 4359424C 		.ascii	"CYBLE_EVT_GAP_NUMERIC_COMPARISON_REQUEST\000"
 5973      455F4556 
ARM GAS  C:\Users\ASUS\AppData\Local\Temp\ccKl44WS.s 			page 164


 5973      545F4741 
 5973      505F4E55 
 5973      4D455249 
 5974              	.LASF417:
 5975 3fd3 4359424C 		.ascii	"CYBLE_EVT_HPSC_READ_CHAR_RESPONSE\000"
 5975      455F4556 
 5975      545F4850 
 5975      53435F52 
 5975      4541445F 
 5976              	.LASF47:
 5977 3ff5 4359424C 		.ascii	"CYBLE_EVT_GAP_AUTH_REQ_REPLY_ERR\000"
 5977      455F4556 
 5977      545F4741 
 5977      505F4155 
 5977      54485F52 
 5978              	.LASF611:
 5979 4016 63656E74 		.ascii	"centralStartedTime\000"
 5979      72616C53 
 5979      74617274 
 5979      65645469 
 5979      6D6500
 5980              	.LASF304:
 5981 4029 4359424C 		.ascii	"CYBLE_EVT_BASC_READ_CHAR_RESPONSE\000"
 5981      455F4556 
 5981      545F4241 
 5981      53435F52 
 5981      4541445F 
 5982              	.LASF208:
 5983 404b 4359424C 		.ascii	"CYBLE_GATT_ERR_INVALID_ATTRIBUTE_LEN\000"
 5983      455F4741 
 5983      54545F45 
 5983      52525F49 
 5983      4E56414C 
 5984              	.LASF6:
 5985 4070 6C6F6E67 		.ascii	"long long int\000"
 5985      206C6F6E 
 5985      6720696E 
 5985      7400
 5986              	.LASF342:
 5987 407e 4359424C 		.ascii	"CYBLE_EVT_CPSS_INDICATION_ENABLED\000"
 5987      455F4556 
 5987      545F4350 
 5987      53535F49 
 5987      4E444943 
 5988              	.LASF256:
 5989 40a0 4359424C 		.ascii	"CYBLE_EVT_GATTS_INDICATION_ENABLED\000"
 5989      455F4556 
 5989      545F4741 
 5989      5454535F 
 5989      494E4449 
 5990              	.LASF36:
 5991 40c3 4359424C 		.ascii	"CYBLE_EVT_GAPC_SCAN_START_STOP\000"
 5991      455F4556 
 5991      545F4741 
 5991      50435F53 
 5991      43414E5F 
 5992              	.LASF165:
ARM GAS  C:\Users\ASUS\AppData\Local\Temp\ccKl44WS.s 			page 165


 5993 40e2 4359424C 		.ascii	"CYBLE_GAPC_ADV_REPORT_T\000"
 5993      455F4741 
 5993      50435F41 
 5993      44565F52 
 5993      45504F52 
 5994              	.LASF146:
 5995 40fa 61647643 		.ascii	"advChannelMap\000"
 5995      68616E6E 
 5995      656C4D61 
 5995      7000
 5996              	.LASF69:
 5997 4108 4359424C 		.ascii	"CYBLE_EVT_GATTS_HANDLE_VALUE_CNF\000"
 5997      455F4556 
 5997      545F4741 
 5997      5454535F 
 5997      48414E44 
 5998              	.LASF257:
 5999 4129 4359424C 		.ascii	"CYBLE_EVT_GATTS_INDICATION_DISABLED\000"
 5999      455F4556 
 5999      545F4741 
 5999      5454535F 
 5999      494E4449 
 6000              	.LASF103:
 6001 414d 4359424C 		.ascii	"CYBLE_ERROR_L2CAP_PSM_WRONG_ENCODING\000"
 6001      455F4552 
 6001      524F525F 
 6001      4C324341 
 6001      505F5053 
 6002              	.LASF582:
 6003 4172 53776974 		.ascii	"SwitchRole\000"
 6003      6368526F 
 6003      6C6500
 6004              	.LASF215:
 6005 417d 4359424C 		.ascii	"CYBLE_GATT_ERR_USER_DATA_ACCESS_NOT_PERMITTED\000"
 6005      455F4741 
 6005      54545F45 
 6005      52525F55 
 6005      5345525F 
 6006              	.LASF402:
 6007 41ab 4359424C 		.ascii	"CYBLE_EVT_HIDSS_NOTIFICATION_DISABLED\000"
 6007      455F4556 
 6007      545F4849 
 6007      4453535F 
 6007      4E4F5449 
 6008              	.LASF190:
 6009 41d1 4359424C 		.ascii	"CYBLE_GATT_HANDLE_VALUE_NTF\000"
 6009      455F4741 
 6009      54545F48 
 6009      414E444C 
 6009      455F5641 
 6010              	.LASF220:
 6011 41ed 4359424C 		.ascii	"CYBLE_GATT_ERR_MISSING_CRC\000"
 6011      455F4741 
 6011      54545F45 
 6011      52525F4D 
 6011      49535349 
 6012              	.LASF61:
ARM GAS  C:\Users\ASUS\AppData\Local\Temp\ccKl44WS.s 			page 166


 6013 4208 4359424C 		.ascii	"CYBLE_EVT_GATTS_WRITE_REQ\000"
 6013      455F4556 
 6013      545F4741 
 6013      5454535F 
 6013      57524954 
 6014              	.LASF73:
 6015 4222 4359424C 		.ascii	"CYBLE_EVT_GATTC_LONG_PROCEDURE_END\000"
 6015      455F4556 
 6015      545F4741 
 6015      5454435F 
 6015      4C4F4E47 
 6016              	.LASF158:
 6017 4245 4359424C 		.ascii	"CYBLE_GAPP_DISC_MODE_INFO_T\000"
 6017      455F4741 
 6017      50505F44 
 6017      4953435F 
 6017      4D4F4445 
 6018              	.LASF321:
 6019 4261 4359424C 		.ascii	"CYBLE_EVT_BLSC_READ_CHAR_RESPONSE\000"
 6019      455F4556 
 6019      545F424C 
 6019      53435F52 
 6019      4541445F 
 6020              	.LASF55:
 6021 4283 4359424C 		.ascii	"CYBLE_EVT_GATTC_READ_BY_TYPE_RSP\000"
 6021      455F4556 
 6021      545F4741 
 6021      5454435F 
 6021      52454144 
 6022              	.LASF113:
 6023 42a4 4359424C 		.ascii	"CYBLE_ERROR_HARDWARE_FAILURE\000"
 6023      455F4552 
 6023      524F525F 
 6023      48415244 
 6023      57415245 
 6024              	.LASF82:
 6025 42c1 4359424C 		.ascii	"CYBLE_EVT_L2CAP_CBFC_RX_CREDIT_IND\000"
 6025      455F4556 
 6025      545F4C32 
 6025      4341505F 
 6025      43424643 
 6026              	.LASF316:
 6027 42e4 4359424C 		.ascii	"CYBLE_EVT_BLSS_INDICATION_CONFIRMED\000"
 6027      455F4556 
 6027      545F424C 
 6027      53535F49 
 6027      4E444943 
 6028              	.LASF403:
 6029 4308 4359424C 		.ascii	"CYBLE_EVT_HIDSS_BOOT_MODE_ENTER\000"
 6029      455F4556 
 6029      545F4849 
 6029      4453535F 
 6029      424F4F54 
 6030              	.LASF607:
 6031 4328 636C6965 		.ascii	"clientConnectToDevice\000"
 6031      6E74436F 
 6031      6E6E6563 
ARM GAS  C:\Users\ASUS\AppData\Local\Temp\ccKl44WS.s 			page 167


 6031      74546F44 
 6031      65766963 
 6032              	.LASF548:
 6033 433e 4359424C 		.ascii	"CYBLE_EVT_WPTSC_READ_DESCR_RESPONSE\000"
 6033      455F4556 
 6033      545F5750 
 6033      5453435F 
 6033      52454144 
 6034              	.LASF495:
 6035 4362 4359424C 		.ascii	"CYBLE_EVT_PLXSC_READ_DESCR_RESPONSE\000"
 6035      455F4556 
 6035      545F504C 
 6035      5853435F 
 6035      52454144 
 6036              	.LASF409:
 6037 4386 4359424C 		.ascii	"CYBLE_EVT_HIDSC_READ_CHAR_RESPONSE\000"
 6037      455F4556 
 6037      545F4849 
 6037      4453435F 
 6037      52454144 
 6038              	.LASF40:
 6039 43a9 4359424C 		.ascii	"CYBLE_EVT_GAP_OOB_GENERATED_NOTIFICATION\000"
 6039      455F4556 
 6039      545F4741 
 6039      505F4F4F 
 6039      425F4745 
 6040              	.LASF415:
 6041 43d2 4359424C 		.ascii	"CYBLE_EVT_HPSS_CHAR_WRITE\000"
 6041      455F4556 
 6041      545F4850 
 6041      53535F43 
 6041      4841525F 
 6042              	.LASF452:
 6043 43ec 4359424C 		.ascii	"CYBLE_EVT_LLSC_WRITE_CHAR_RESPONSE\000"
 6043      455F4556 
 6043      545F4C4C 
 6043      53435F57 
 6043      52495445 
 6044              	.LASF135:
 6045 440f 4359424C 		.ascii	"CYBLE_GAPC_CONN_DIRECTED_ADV\000"
 6045      455F4741 
 6045      50435F43 
 6045      4F4E4E5F 
 6045      44495245 
 6046              	.LASF155:
 6047 442c 64697363 		.ascii	"discMode\000"
 6047      4D6F6465 
 6047      00
 6048              	.LASF137:
 6049 4435 4359424C 		.ascii	"CYBLE_GAPC_NON_CONN_UNDIRECTED_ADV\000"
 6049      455F4741 
 6049      50435F4E 
 6049      4F4E5F43 
 6049      4F4E4E5F 
 6050              	.LASF253:
 6051 4458 4359424C 		.ascii	"CYBLE_PASSKEY_ENTRY_REQUEST_REPLY\000"
 6051      455F5041 
ARM GAS  C:\Users\ASUS\AppData\Local\Temp\ccKl44WS.s 			page 168


 6051      53534B45 
 6051      595F454E 
 6051      5452595F 
 6052              	.LASF83:
 6053 447a 4359424C 		.ascii	"CYBLE_EVT_L2CAP_CBFC_TX_CREDIT_IND\000"
 6053      455F4556 
 6053      545F4C32 
 6053      4341505F 
 6053      43424643 
 6054              	.LASF278:
 6055 449d 4359424C 		.ascii	"CYBLE_EVT_AIOSC_NOTIFICATION\000"
 6055      455F4556 
 6055      545F4149 
 6055      4F53435F 
 6055      4E4F5449 
 6056              	.LASF554:
 6057 44ba 4359424C 		.ascii	"CYBLE_EVT_WSSC_READ_CHAR_RESPONSE\000"
 6057      455F4556 
 6057      545F5753 
 6057      53435F52 
 6057      4541445F 
 6058              	.LASF242:
 6059 44dc 61747472 		.ascii	"attrHandle\000"
 6059      48616E64 
 6059      6C6500
 6060              	.LASF235:
 6061 44e7 4359424C 		.ascii	"CYBLE_GATT_DB_ATTR_HANDLE_T\000"
 6061      455F4741 
 6061      54545F44 
 6061      425F4154 
 6061      54525F48 
 6062              	.LASF521:
 6063 4503 4359424C 		.ascii	"CYBLE_EVT_TPSC_READ_CHAR_RESPONSE\000"
 6063      455F4556 
 6063      545F5450 
 6063      53435F52 
 6063      4541445F 
 6064              	.LASF467:
 6065 4525 4359424C 		.ascii	"CYBLE_EVT_OTSS_INDICATION_DISABLED\000"
 6065      455F4556 
 6065      545F4F54 
 6065      53535F49 
 6065      4E444943 
 6066              	.LASF187:
 6067 4548 4359424C 		.ascii	"CYBLE_GATT_PREPARE_WRITE_RSP\000"
 6067      455F4741 
 6067      54545F50 
 6067      52455041 
 6067      52455F57 
 6068              	.LASF8:
 6069 4565 756E7369 		.ascii	"unsigned int\000"
 6069      676E6564 
 6069      20696E74 
 6069      00
 6070              	.LASF42:
 6071 4572 4359424C 		.ascii	"CYBLE_EVT_GAP_ENHANCE_CONN_COMPLETE\000"
 6071      455F4556 
ARM GAS  C:\Users\ASUS\AppData\Local\Temp\ccKl44WS.s 			page 169


 6071      545F4741 
 6071      505F454E 
 6071      48414E43 
 6072              	.LASF533:
 6073 4596 4359424C 		.ascii	"CYBLE_EVT_UDSC_READ_CHAR_RESPONSE\000"
 6073      455F4556 
 6073      545F5544 
 6073      53435F52 
 6073      4541445F 
 6074              	.LASF210:
 6075 45b8 4359424C 		.ascii	"CYBLE_GATT_ERR_INSUFFICIENT_ENCRYPTION\000"
 6075      455F4741 
 6075      54545F45 
 6075      52525F49 
 6075      4E535546 
 6076              	.LASF2:
 6077 45df 73686F72 		.ascii	"short int\000"
 6077      7420696E 
 6077      7400
 6078              	.LASF362:
 6079 45e9 4359424C 		.ascii	"CYBLE_EVT_CSCSC_INDICATION\000"
 6079      455F4556 
 6079      545F4353 
 6079      4353435F 
 6079      494E4449 
 6080              	.LASF575:
 6081 4604 7363616E 		.ascii	"scan_report\000"
 6081      5F726570 
 6081      6F727400 
 6082              	.LASF197:
 6083 4610 4359424C 		.ascii	"CYBLE_GATT_ERR_READ_NOT_PERMITTED\000"
 6083      455F4741 
 6083      54545F45 
 6083      52525F52 
 6083      4541445F 
 6084              	.LASF28:
 6085 4632 4359424C 		.ascii	"CYBLE_EVT_GAP_PASSKEY_DISPLAY_REQUEST\000"
 6085      455F4556 
 6085      545F4741 
 6085      505F5041 
 6085      53534B45 
 6086              	.LASF532:
 6087 4658 4359424C 		.ascii	"CYBLE_EVT_UDSC_NOTIFICATION\000"
 6087      455F4556 
 6087      545F5544 
 6087      53435F4E 
 6087      4F544946 
 6088              	.LASF386:
 6089 4674 4359424C 		.ascii	"CYBLE_EVT_ESSC_WRITE_CHAR_RESPONSE\000"
 6089      455F4556 
 6089      545F4553 
 6089      53435F57 
 6089      52495445 
 6090              	.LASF234:
 6091 4697 4359424C 		.ascii	"CYBLE_GATT_ERR_CODE_T\000"
 6091      455F4741 
 6091      54545F45 
ARM GAS  C:\Users\ASUS\AppData\Local\Temp\ccKl44WS.s 			page 170


 6091      52525F43 
 6091      4F44455F 
 6092              	.LASF430:
 6093 46ad 4359424C 		.ascii	"CYBLE_EVT_HTSS_NOTIFICATION_DISABLED\000"
 6093      455F4556 
 6093      545F4854 
 6093      53535F4E 
 6093      4F544946 
 6094              	.LASF427:
 6095 46d2 4359424C 		.ascii	"CYBLE_EVT_HRSC_READ_DESCR_RESPONSE\000"
 6095      455F4556 
 6095      545F4852 
 6095      53435F52 
 6095      4541445F 
 6096              	.LASF371:
 6097 46f5 4359424C 		.ascii	"CYBLE_EVT_CTSC_READ_CHAR_RESPONSE\000"
 6097      455F4556 
 6097      545F4354 
 6097      53435F52 
 6097      4541445F 
 6098              	.LASF383:
 6099 4717 4359424C 		.ascii	"CYBLE_EVT_ESSC_NOTIFICATION\000"
 6099      455F4556 
 6099      545F4553 
 6099      53435F4E 
 6099      4F544946 
 6100              	.LASF323:
 6101 4733 4359424C 		.ascii	"CYBLE_EVT_BLSC_WRITE_DESCR_RESPONSE\000"
 6101      455F4556 
 6101      545F424C 
 6101      53435F57 
 6101      52495445 
 6102              	.LASF597:
 6103 4757 54455854 		.ascii	"TEXT_BUF\000"
 6103      5F425546 
 6103      00
 6104              	.LASF114:
 6105 4760 4359424C 		.ascii	"CYBLE_ERROR_UNSUPPORTED_FEATURE_OR_PARAMETER_VALUE\000"
 6105      455F4552 
 6105      524F525F 
 6105      554E5355 
 6105      50504F52 
 6106              		.ident	"GCC: (GNU Tools for ARM Embedded Processors) 5.4.1 20160609 (release) [ARM/embedded-5-bran
