ARM GAS  C:\Users\ASUS\AppData\Local\Temp\ccCqJG8V.s 			page 1


   1              		.syntax unified
   2              		.cpu cortex-m0
   3              		.fpu softvfp
   4              		.eabi_attribute 20, 1
   5              		.eabi_attribute 21, 1
   6              		.eabi_attribute 23, 3
   7              		.eabi_attribute 24, 1
   8              		.eabi_attribute 25, 1
   9              		.eabi_attribute 26, 1
  10              		.eabi_attribute 30, 6
  11              		.eabi_attribute 34, 0
  12              		.eabi_attribute 18, 4
  13              		.thumb
  14              		.syntax unified
  15              		.file	"ble_process.c"
  16              		.text
  17              	.Ltext0:
  18              		.cfi_sections	.debug_frame
  19              		.comm	current_watchdog_counter,2,2
  20              		.comm	TEXT_BUF,50,4
  21              		.comm	RGBData,4,4
  22              		.global	dataADVCounter
  23              		.data
  24              		.type	dataADVCounter, %object
  25              		.size	dataADVCounter, 1
  26              	dataADVCounter:
  27 0000 01       		.byte	1
  28              		.global	switch_Role
  29              		.bss
  30              		.type	switch_Role, %object
  31              		.size	switch_Role, 1
  32              	switch_Role:
  33 0000 00       		.space	1
  34              		.comm	new_advData,32,4
  35              		.global	potential_node_found
  36              		.type	potential_node_found, %object
  37              		.size	potential_node_found, 1
  38              	potential_node_found:
  39 0001 00       		.space	1
  40              		.comm	potential_node_bdAddr,6,4
  41              		.global	potential_node_bdAddrType
  42              		.type	potential_node_bdAddrType, %object
  43              		.size	potential_node_bdAddrType, 1
  44              	potential_node_bdAddrType:
  45 0002 00       		.space	1
  46              		.global	scan_tag
  47              		.data
  48 0001 000000   		.align	2
  49              		.type	scan_tag, %object
  50              		.size	scan_tag, 20
  51              	scan_tag:
  52 0004 13       		.byte	19
  53 0005 21       		.byte	33
  54 0006 31       		.byte	49
  55 0007 01       		.byte	1
  56 0008 9B       		.byte	-101
  57 0009 5F       		.byte	95
ARM GAS  C:\Users\ASUS\AppData\Local\Temp\ccCqJG8V.s 			page 2


  58 000a 80       		.byte	-128
  59 000b 00       		.byte	0
  60 000c 00       		.byte	0
  61 000d 80       		.byte	-128
  62 000e 00       		.byte	0
  63 000f 10       		.byte	16
  64 0010 00       		.byte	0
  65 0011 00       		.byte	0
  66 0012 BB       		.byte	-69
  67 0013 CB       		.byte	-53
  68 0014 03       		.byte	3
  69 0015 00       		.byte	0
  70 0016 BB       		.byte	-69
  71 0017 CB       		.byte	-53
  72              		.comm	peripAddr,7,4
  73              		.global	clientConnectToDevice
  74              		.bss
  75              		.type	clientConnectToDevice, %object
  76              		.size	clientConnectToDevice, 1
  77              	clientConnectToDevice:
  78 0003 00       		.space	1
  79              		.global	ble_gap_state
  80              		.data
  81              		.type	ble_gap_state, %object
  82              		.size	ble_gap_state, 1
  83              	ble_gap_state:
  84 0018 01       		.byte	1
  85              		.global	deviceConnected
  86              		.bss
  87              		.type	deviceConnected, %object
  88              		.size	deviceConnected, 1
  89              	deviceConnected:
  90 0004 00       		.space	1
  91              		.global	restartScanning
  92              		.type	restartScanning, %object
  93              		.size	restartScanning, 1
  94              	restartScanning:
  95 0005 00       		.space	1
  96              		.global	centralStartedTime
  97              		.align	1
  98              		.type	centralStartedTime, %object
  99              		.size	centralStartedTime, 2
 100              	centralStartedTime:
 101 0006 0000     		.space	2
 102              		.section	.rodata
 103              		.align	2
 104              	.LC0:
 105 0000 4359424C 		.ascii	"CYBLE_EVT_STACK_ON \000"
 105      455F4556 
 105      545F5354 
 105      41434B5F 
 105      4F4E2000 
 106              		.align	2
 107              	.LC2:
 108 0014 4359424C 		.ascii	"CYBLE_EVT_GAPP_ADVERTISEMENT_START_STOP \000"
 108      455F4556 
 108      545F4741 
ARM GAS  C:\Users\ASUS\AppData\Local\Temp\ccCqJG8V.s 			page 3


 108      50505F41 
 108      44564552 
 109 003d 000000   		.align	2
 110              	.LC6:
 111 0040 52657374 		.ascii	"Restart Advertisement \000"
 111      61727420 
 111      41647665 
 111      72746973 
 111      656D656E 
 112 0057 00       		.align	2
 113              	.LC8:
 114 0058 4359424C 		.ascii	"CYBLE_EVT_GAPC_SCAN_START_STOP \000"
 114      455F4556 
 114      545F4741 
 114      50435F53 
 114      43414E5F 
 115              		.align	2
 116              	.LC10:
 117 0078 4359424C 		.ascii	"CYBLE_EVT_GATT_CONNECT_IND \000"
 117      455F4556 
 117      545F4741 
 117      54545F43 
 117      4F4E4E45 
 118              		.align	2
 119              	.LC12:
 120 0094 4359424C 		.ascii	"CYBLE_EVT_GATT_DISCONNECT_IND \000"
 120      455F4556 
 120      545F4741 
 120      54545F44 
 120      4953434F 
 121 00b3 00       		.align	2
 122              	.LC14:
 123 00b4 52474220 		.ascii	"RGB CYBLE_EVT_GATTS_WRITE_REQ \000"
 123      4359424C 
 123      455F4556 
 123      545F4741 
 123      5454535F 
 124 00d3 00       		.align	2
 125              	.LC19:
 126 00d4 0A0A2044 		.ascii	"\012\012 DEVICE_INDEX in case CYBLE_EVT_GATTS_WRITE"
 126      45564943 
 126      455F494E 
 126      44455820 
 126      696E2063 
 127 0101 5F524551 		.ascii	"_REQ  %d \012\012\000"
 127      20202564 
 127      200A0A00 
 128 010d 000000   		.align	2
 129              	.LC24:
 130 0110 696E6372 		.ascii	"incremented dataADVCounter value in CYBLE_EVT_GATTS"
 130      656D656E 
 130      74656420 
 130      64617461 
 130      41445643 
 131 0143 5F575249 		.ascii	"_WRITE_REQ= \000"
 131      54455F52 
 131      45513D20 
ARM GAS  C:\Users\ASUS\AppData\Local\Temp\ccCqJG8V.s 			page 4


 131      00
 132              		.align	2
 133              	.LC26:
 134 0150 73776974 		.ascii	"switchRole to Central\000"
 134      6368526F 
 134      6C652074 
 134      6F204365 
 134      6E747261 
 135 0166 0000     		.align	2
 136              	.LC28:
 137 0168 64617461 		.ascii	"dataADVCounter from CYBLE_EVT_GATTS_WRITE_CMD_REQ ="
 137      41445643 
 137      6F756E74 
 137      65722066 
 137      726F6D20 
 138 019b 2000     		.ascii	" \000"
 139 019d 000000   		.align	2
 140              	.LC30:
 141 01a0 0A3D3D3D 		.ascii	"\012==================== CYBLE_STATE_CONNECTED != C"
 141      3D3D3D3D 
 141      3D3D3D3D 
 141      3D3D3D3D 
 141      3D3D3D3D 
 142 01d0 79426C65 		.ascii	"yBle_GetState ==================== \000"
 142      5F476574 
 142      53746174 
 142      65203D3D 
 142      3D3D3D3D 
 143              		.align	2
 144              	.LC32:
 145 01f4 4359424C 		.ascii	"CYBLE_EVT_GAPC_SCAN_PROGRESS_RESULT \000"
 145      455F4556 
 145      545F4741 
 145      50435F53 
 145      43414E5F 
 146 0219 000000   		.align	2
 147              	.LC34:
 148 021c 0A3D3D3D 		.ascii	"\012==================== scan_report.eventType == C"
 148      3D3D3D3D 
 148      3D3D3D3D 
 148      3D3D3D3D 
 148      3D3D3D3D 
 149 024c 59424C45 		.ascii	"YBLE_GAPC_CONN_UNDIRECTED_ADV ==================== "
 149      5F474150 
 149      435F434F 
 149      4E4E5F55 
 149      4E444952 
 150 027f 00       		.ascii	"\000"
 151              		.align	2
 152              	.LC36:
 153 0280 0A3D3D3D 		.ascii	"\012==================== scan_report.dataLen == new"
 153      3D3D3D3D 
 153      3D3D3D3D 
 153      3D3D3D3D 
 153      3D3D3D3D 
 154 02b0 5F616476 		.ascii	"_advData.advDataLen ==================== \000"
 154      44617461 
ARM GAS  C:\Users\ASUS\AppData\Local\Temp\ccCqJG8V.s 			page 5


 154      2E616476 
 154      44617461 
 154      4C656E20 
 155 02da 0000     		.align	2
 156              	.LC39:
 157 02dc 0A3D3D3D 		.ascii	"\012==================== scan_report.data[scan_repo"
 157      3D3D3D3D 
 157      3D3D3D3D 
 157      3D3D3D3D 
 157      3D3D3D3D 
 158 030c 72742E64 		.ascii	"rt.dataLen-2] == CUSTOM_ADV_DATA_MARKER ==========="
 158      6174614C 
 158      656E2D32 
 158      5D203D3D 
 158      20435553 
 159 033f 3D3D3D3D 		.ascii	"========= \000"
 159      3D3D3D3D 
 159      3D2000
 160 034a 0000     		.align	2
 161              	.LC41:
 162 034c 0A3D3D3D 		.ascii	"\012==================== scan_report.data[scan_repo"
 162      3D3D3D3D 
 162      3D3D3D3D 
 162      3D3D3D3D 
 162      3D3D3D3D 
 163 037c 72742E64 		.ascii	"rt.dataLen-1] != dataADVCounter ==================="
 163      6174614C 
 163      656E2D31 
 163      5D20213D 
 163      20646174 
 164 03af 3D2000   		.ascii	"= \000"
 165 03b2 0000     		.align	2
 166              	.LC43:
 167 03b4 0A3D3D3D 		.ascii	"\012==================== potential_node_found = TRU"
 167      3D3D3D3D 
 167      3D3D3D3D 
 167      3D3D3D3D 
 167      3D3D3D3D 
 168 03e4 45203D3D 		.ascii	"E ==================== \000"
 168      3D3D3D3D 
 168      3D3D3D3D 
 168      3D3D3D3D 
 168      3D3D3D3D 
 169              		.align	2
 170              	.LC48:
 171 03fc 706F7465 		.ascii	"potential_node_found \000"
 171      6E746961 
 171      6C5F6E6F 
 171      64655F66 
 171      6F756E64 
 172 0412 0000     		.align	2
 173              	.LC51:
 174 0414 54697461 		.ascii	"Titan Found \000"
 174      6E20466F 
 174      756E6420 
 174      00
 175 0421 000000   		.align	2
ARM GAS  C:\Users\ASUS\AppData\Local\Temp\ccCqJG8V.s 			page 6


 176              	.LC53:
 177 0424 53746F70 		.ascii	"Stop Scan called \000"
 177      20536361 
 177      6E206361 
 177      6C6C6564 
 177      2000
 178 0436 0000     		.align	2
 179              	.LC59:
 180 0438 44697265 		.ascii	"Directly write RGB using Attr handle \000"
 180      63746C79 
 180      20777269 
 180      74652052 
 180      47422075 
 181 045e 0000     		.align	2
 182              	.LC61:
 183 0460 4359424C 		.ascii	"CYBLE_EVT_GATTC_WRITE_RSP \000"
 183      455F4556 
 183      545F4741 
 183      5454435F 
 183      57524954 
 184 047b 00       		.align	2
 185              	.LC64:
 186 047c 44697363 		.ascii	"Disconnect from CYBLE_EVT_GATTC_WRITE_RSP \000"
 186      6F6E6E65 
 186      63742066 
 186      726F6D20 
 186      4359424C 
 187 04a7 00       		.align	2
 188              	.LC66:
 189 04a8 4359424C 		.ascii	"CYBLE_EVT_GAP_DEVICE_DISCONNECTED \000"
 189      455F4556 
 189      545F4741 
 189      505F4445 
 189      56494345 
 190 04cb 00       		.align	2
 191              	.LC68:
 192 04cc 52657374 		.ascii	"Restart Scanning \000"
 192      61727420 
 192      5363616E 
 192      6E696E67 
 192      2000
 193              		.section	.text.GenericEventHandler,"ax",%progbits
 194              		.align	2
 195              		.global	GenericEventHandler
 196              		.code	16
 197              		.thumb_func
 198              		.type	GenericEventHandler, %function
 199              	GenericEventHandler:
 200              	.LFB36:
 201              		.file 1 "ble_process.c"
   1:ble_process.c **** /*******************************************************************************
   2:ble_process.c **** * File Name: ble_process.c
   3:ble_process.c **** *
   4:ble_process.c **** * Version: 1.0
   5:ble_process.c **** *
   6:ble_process.c **** * Description:
   7:ble_process.c **** * This file contains the definiton for BLE related functions, such as event handler,
ARM GAS  C:\Users\ASUS\AppData\Local\Temp\ccCqJG8V.s 			page 7


   8:ble_process.c **** * GAP role switching, central scanning and connection to peripherals.
   9:ble_process.c **** *
  10:ble_process.c **** ********************************************************************************
  11:ble_process.c **** * Copyright 2015, Cypress Semiconductor Corporation.  All rights reserved.
  12:ble_process.c **** * You may use this file only in accordance with the license, terms, conditions,
  13:ble_process.c **** * disclaimers, and limitations in the end user license agreement accompanying
  14:ble_process.c **** * the software package with which this file was provided.
  15:ble_process.c **** *******************************************************************************/
  16:ble_process.c **** #include <main.h>
  17:ble_process.c **** 
  18:ble_process.c **** #include <stdio.h>
  19:ble_process.c **** #include <utils.h>
  20:ble_process.c **** 
  21:ble_process.c **** char TEXT_BUF[50];
  22:ble_process.c **** 
  23:ble_process.c **** uint8 RGBData[4];
  24:ble_process.c **** uint8 dataADVCounter = 1;
  25:ble_process.c **** uint8 switch_Role = FALSE;
  26:ble_process.c **** 
  27:ble_process.c **** #ifdef ENABLE_ADV_DATA_COUNTER
  28:ble_process.c **** CYBLE_GAPP_DISC_DATA_T  new_advData;
  29:ble_process.c **** uint8 potential_node_found = 0;
  30:ble_process.c **** uint8 potential_node_bdAddr[6];
  31:ble_process.c **** uint8 potential_node_bdAddrType = 0;
  32:ble_process.c **** #endif
  33:ble_process.c **** 
  34:ble_process.c **** uint8 scan_tag[SCAN_TAG_DATA_LEN] = {0x13, 0x21, 0x31, 0x01, 0x9B, 0x5F, 0x80, 0x00,
  35:ble_process.c **** 									0x00, 0x80, 0x00, 0x10, 0x00, 0x00, 0xBB, 0xCB, 
  36:ble_process.c **** 									0x03, 0x00, 0xBB, 0xCB};
  37:ble_process.c **** 
  38:ble_process.c **** CYBLE_GAP_BD_ADDR_T				peripAddr;
  39:ble_process.c **** uint8 clientConnectToDevice = FALSE;
  40:ble_process.c **** uint8 ble_gap_state = BLE_PERIPHERAL;
  41:ble_process.c **** 
  42:ble_process.c **** uint8 deviceConnected = FALSE;
  43:ble_process.c **** uint8 restartScanning = FALSE;
  44:ble_process.c **** volatile uint16 centralStartedTime = 0;
  45:ble_process.c **** 
  46:ble_process.c **** /*******************************************************************************
  47:ble_process.c **** * Function Name: GenericEventHandler
  48:ble_process.c **** ********************************************************************************
  49:ble_process.c **** * Summary:
  50:ble_process.c **** *        Event handler function for the BLE stack. All the events by BLE stack
  51:ble_process.c **** * are received by application through this function. For this, CyBle_ProcessEvents()
  52:ble_process.c **** * should be called continuously in main loop.
  53:ble_process.c **** *
  54:ble_process.c **** * Parameters:
  55:ble_process.c **** *  event: 		event value
  56:ble_process.c **** *  eventParame: pointer to the location where relevant event data is stored
  57:ble_process.c **** *
  58:ble_process.c **** * Return:
  59:ble_process.c **** *  void
  60:ble_process.c **** *
  61:ble_process.c **** *******************************************************************************/
  62:ble_process.c **** void GenericEventHandler(uint32 event, void * eventParam)
  63:ble_process.c **** {
 202              		.loc 1 63 0
ARM GAS  C:\Users\ASUS\AppData\Local\Temp\ccCqJG8V.s 			page 8


 203              		.cfi_startproc
 204              		@ args = 0, pretend = 0, frame = 96
 205              		@ frame_needed = 1, uses_anonymous_args = 0
 206 0000 90B5     		push	{r4, r7, lr}
 207              		.cfi_def_cfa_offset 12
 208              		.cfi_offset 4, -12
 209              		.cfi_offset 7, -8
 210              		.cfi_offset 14, -4
 211 0002 99B0     		sub	sp, sp, #100
 212              		.cfi_def_cfa_offset 112
 213 0004 00AF     		add	r7, sp, #0
 214              		.cfi_def_cfa_register 7
 215 0006 7860     		str	r0, [r7, #4]
 216 0008 3960     		str	r1, [r7]
  64:ble_process.c **** 	/* Local variables and data structures*/
  65:ble_process.c **** 	CYBLE_GATTS_WRITE_REQ_PARAM_T 		writeReqData;
  66:ble_process.c **** 	CYBLE_GATTC_WRITE_REQ_T				writeADVcounterdata;
  67:ble_process.c **** 	CYBLE_GAPC_ADV_REPORT_T				scan_report;
  68:ble_process.c **** 	CYBLE_GATTS_WRITE_CMD_REQ_PARAM_T	writeCmdData;
  69:ble_process.c **** 	CYBLE_API_RESULT_T					apiResult;
  70:ble_process.c **** 	CYBLE_GATTC_WRITE_REQ_T 			writeRGBdata;
  71:ble_process.c **** 	
  72:ble_process.c **** 	switch(event)
 217              		.loc 1 72 0
 218 000a 7B68     		ldr	r3, [r7, #4]
 219 000c 2B2B     		cmp	r3, #43
 220 000e 5AD0     		beq	.L3
 221 0010 0FD8     		bhi	.L4
 222 0012 262B     		cmp	r3, #38
 223 0014 2BD0     		beq	.L5
 224 0016 05D8     		bhi	.L6
 225 0018 012B     		cmp	r3, #1
 226 001a 1DD0     		beq	.L7
 227 001c 202B     		cmp	r3, #32
 228 001e 00D1     		bne	.LCB27
 229 0020 2CE1     		b	.L8	@long jump
 230              	.LCB27:
  73:ble_process.c **** 	{
  74:ble_process.c **** 		case CYBLE_EVT_STACK_ON:
  75:ble_process.c **** 			#ifdef DEBUG_ENABLED
  76:ble_process.c **** 			UART_UartPutString("CYBLE_EVT_STACK_ON ");
  77:ble_process.c **** 			UART_UartPutCRLF(' ');
  78:ble_process.c **** 			#endif
  79:ble_process.c **** 			/* At the start of the BLE stack, start advertisement */
  80:ble_process.c **** 			CyBle_GappStartAdvertisement(CYBLE_ADVERTISING_FAST);
  81:ble_process.c **** 		break;
  82:ble_process.c **** 			
  83:ble_process.c **** 		case CYBLE_EVT_GAPP_ADVERTISEMENT_START_STOP:
  84:ble_process.c **** 			/* This event is received at every start or stop of peripheral advertisement*/
  85:ble_process.c **** 			#ifdef DEBUG_ENABLED
  86:ble_process.c **** 			UART_UartPutString("CYBLE_EVT_GAPP_ADVERTISEMENT_START_STOP ");
  87:ble_process.c **** 			SendBLEStatetoUART(CyBle_GetState());
  88:ble_process.c **** 			UART_UartPutCRLF(' ');
  89:ble_process.c **** 			#endif
  90:ble_process.c **** 			
  91:ble_process.c **** 			if((CYBLE_STATE_DISCONNECTED == CyBle_GetState()) && (switch_Role == FALSE))
  92:ble_process.c **** 			{
ARM GAS  C:\Users\ASUS\AppData\Local\Temp\ccCqJG8V.s 			page 9


  93:ble_process.c **** 				/* If the current state of the BLE is Disconnected, then restart advertisement.
  94:ble_process.c **** 				* Note that the advertisement should only be restarted if the switch flag is not
  95:ble_process.c **** 				* TRUE. If switch role flag is TRUE, then there is no need to start advertisement
  96:ble_process.c **** 				* as the GAP role has to be switched*/
  97:ble_process.c **** 				CyBle_GappStartAdvertisement(CYBLE_ADVERTISING_FAST);	
  98:ble_process.c **** 				
  99:ble_process.c **** 				if(apiResult == CYBLE_ERROR_OK)
 100:ble_process.c **** 				{
 101:ble_process.c **** 					#ifdef DEBUG_ENABLED
 102:ble_process.c **** 					UART_UartPutString("Restart Advertisement ");
 103:ble_process.c **** 					SendBLEStatetoUART(CyBle_GetState());
 104:ble_process.c **** 					UART_UartPutCRLF(' ');
 105:ble_process.c **** 					#endif
 106:ble_process.c **** 				}
 107:ble_process.c **** 			}
 108:ble_process.c **** 		break;
 109:ble_process.c **** 			
 110:ble_process.c **** 		case CYBLE_EVT_GAPC_SCAN_START_STOP:
 111:ble_process.c **** 			/* This event is received at every start or stop of central scanning*/
 112:ble_process.c **** 			#ifdef DEBUG_ENABLED
 113:ble_process.c **** 			UART_UartPutString("CYBLE_EVT_GAPC_SCAN_START_STOP ");
 114:ble_process.c **** 			SendBLEStatetoUART(CyBle_GetState());
 115:ble_process.c **** 			UART_UartPutCRLF(' ');
 116:ble_process.c **** 			#endif
 117:ble_process.c **** 		break;
 118:ble_process.c **** 			
 119:ble_process.c **** 		case CYBLE_EVT_GATT_CONNECT_IND:
 120:ble_process.c **** 			/* This event is received at GATT connection with a device. This event
 121:ble_process.c **** 			* is received for both Client or Server role */
 122:ble_process.c **** 			#ifdef DEBUG_ENABLED
 123:ble_process.c **** 			UART_UartPutString("CYBLE_EVT_GATT_CONNECT_IND ");
 124:ble_process.c **** 			UART_UartPutCRLF(' ');
 125:ble_process.c **** 			#endif
 126:ble_process.c **** 		break;
 127:ble_process.c **** 		
 128:ble_process.c **** 		case CYBLE_EVT_GATT_DISCONNECT_IND:
 129:ble_process.c **** 			/* This event is received at GATT disconnection with a device. This event
 130:ble_process.c **** 			* is received for both Client or Server role */
 131:ble_process.c **** 			#ifdef DEBUG_ENABLED
 132:ble_process.c **** 			UART_UartPutString("CYBLE_EVT_GATT_DISCONNECT_IND ");
 133:ble_process.c **** 			UART_UartPutCRLF(' ');
 134:ble_process.c **** 			#endif
 135:ble_process.c **** 		break;
 136:ble_process.c **** 			
 137:ble_process.c **** 		case CYBLE_EVT_GATTS_WRITE_REQ:
 138:ble_process.c **** 			/* This event is received at when Server receives a Write request from
 139:ble_process.c **** 			* connected Client device */
 140:ble_process.c **** 			/* Save the associated event parameter in local variable */
 141:ble_process.c **** 			writeReqData = *(CYBLE_GATTS_WRITE_REQ_PARAM_T*)eventParam;
 142:ble_process.c **** 
 143:ble_process.c **** 			if(writeReqData.handleValPair.attrHandle == CYBLE_RGB_LED_CONTROL_CHAR_HANDLE)
 144:ble_process.c **** 			{
 145:ble_process.c **** 				/* If the Write request is on RGB LED Control Characteristic, then Client is 
 146:ble_process.c **** 				* trying to set a new color to the device. */
 147:ble_process.c **** 				if(writeReqData.handleValPair.value.len == RGB_LED_DATA_LEN + 1)
 148:ble_process.c **** 				{
 149:ble_process.c **** 					#ifdef DEBUG_ENABLED
ARM GAS  C:\Users\ASUS\AppData\Local\Temp\ccCqJG8V.s 			page 10


 150:ble_process.c **** 						UART_UartPutString("RGB CYBLE_EVT_GATTS_WRITE_REQ ");
 151:ble_process.c **** 						UART_UartPutCRLF(' ');
 152:ble_process.c **** 					#endif
 153:ble_process.c **** 					
 154:ble_process.c **** 					/* Extract the four bytes containing the color value and store it */
 155:ble_process.c **** 					RGBData[RGB_RED_INDEX] = writeReqData.handleValPair.value.val[0];
 156:ble_process.c **** 					RGBData[RGB_GREEN_INDEX] = writeReqData.handleValPair.value.val[1];
 157:ble_process.c **** 					RGBData[RGB_BLUE_INDEX] = writeReqData.handleValPair.value.val[2];
 158:ble_process.c **** 					RGBData[RGB_INTENSITY_INDEX] = writeReqData.handleValPair.value.val[3];
 159:ble_process.c ****                     
 160:ble_process.c ****                     DEVICE_INDEX = writeReqData.handleValPair.value.val[4];
 161:ble_process.c ****                     NUM_EXCEEDED_WAITING_TIME = 0;
 162:ble_process.c **** 					
 163:ble_process.c **** //                    uint8 RGB_Collection[4] = {0xFF, 0xFF, 0xFF, 0xFF};
 164:ble_process.c **** //                    RGBData[RGB_RED_INDEX] = RGB_Collection[0];
 165:ble_process.c **** //                    RGBData[RGB_BLUE_INDEX] = RGB_Collection[1];
 166:ble_process.c **** //                    RGBData[RGB_GREEN_INDEX] = RGB_Collection[2];
 167:ble_process.c **** //                    RGBData[RGB_INTENSITY_INDEX] = RGB_Collection[3];
 168:ble_process.c ****                     
 169:ble_process.c **** 					/* Modify RGB Color my configuring the PrISM components with new density 
 170:ble_process.c **** 					* value*/
 171:ble_process.c ****                     sprintf(TEXT_BUF,"\n\n DEVICE_INDEX in case CYBLE_EVT_GATTS_WRITE_REQ  %d \n\n"
 172:ble_process.c ****                     UART_UartPutString(TEXT_BUF);
 173:ble_process.c ****                     
 174:ble_process.c ****                     restart_peripheral_waiting_time();
 175:ble_process.c ****                     
 176:ble_process.c ****                     
 177:ble_process.c **** 					UpdateRGBled(RGBData, RGB_LED_DATA_LEN);
 178:ble_process.c **** 					
 179:ble_process.c **** 					/* Update the RGB LED Control characteristic in GATT DB  to allow
 180:ble_process.c **** 					* Client to read the latest RGB LED color value set */
 181:ble_process.c **** 					CyBle_GattsWriteAttributeValue(&writeReqData.handleValPair,0,&cyBle_connHandle,
 182:ble_process.c ****                         CYBLE_GATT_DB_LOCALLY_INITIATED);
 183:ble_process.c **** 							
 184:ble_process.c **** 					#ifdef ENABLE_ADV_DATA_COUNTER
 185:ble_process.c **** 					/* Increment the ADV data counter so that scanning Central device knows
 186:ble_process.c **** 					* if this device has updated RGB LED data or not */
 187:ble_process.c **** 					dataADVCounter++;
 188:ble_process.c **** 					#endif
 189:ble_process.c **** 					
 190:ble_process.c **** 					#ifdef DEBUG_ENABLED
 191:ble_process.c ****     					UART_UartPutString("incremented dataADVCounter value in CYBLE_EVT_GATTS_WRITE_REQ= ");
 192:ble_process.c ****     					PrintNum(dataADVCounter);
 193:ble_process.c ****     					UART_UartPutCRLF(' ');
 194:ble_process.c **** 					#endif
 195:ble_process.c **** 					
 196:ble_process.c **** 					/* After receiveing the color value, set the switch role flag to allow the system
 197:ble_process.c **** 					* to switch role to Central role */
 198:ble_process.c **** 					switch_Role = TRUE;
 199:ble_process.c **** 					
 200:ble_process.c **** 					#ifdef DEBUG_ENABLED
 201:ble_process.c **** 					UART_UartPutString("switchRole to Central");
 202:ble_process.c **** 					UART_UartPutCRLF(' ');
 203:ble_process.c **** 					#endif
 204:ble_process.c **** 				}
 205:ble_process.c **** 				else
 206:ble_process.c **** 				{
ARM GAS  C:\Users\ASUS\AppData\Local\Temp\ccCqJG8V.s 			page 11


 207:ble_process.c **** 					/* Send the error code for invalid attribute length packet */
 208:ble_process.c **** 					SendErrorCode(CYBLE_GATT_WRITE_REQ, 
 209:ble_process.c **** 									writeReqData.handleValPair.attrHandle, 
 210:ble_process.c **** 									ERR_INVALID_ATT_LEN);
 211:ble_process.c **** 					
 212:ble_process.c **** 					return;
 213:ble_process.c **** 				}
 214:ble_process.c **** 			}
 215:ble_process.c **** 
 216:ble_process.c **** 			/* As part of every write request, the server needs to send a write response. Note
 217:ble_process.c **** 			* that this will be sent only if all the application layer conditions are met on a 
 218:ble_process.c **** 			* write request. Else, an appropriate error code is sent. */
 219:ble_process.c **** 	        CyBle_GattsWriteRsp(cyBle_connHandle);
 220:ble_process.c **** 		break;
 221:ble_process.c **** 			
 222:ble_process.c **** 		case CYBLE_EVT_GATTS_WRITE_CMD_REQ:
 223:ble_process.c **** 			/* This event is generated whenever a Client device sends a Write Command (Write 
 224:ble_process.c **** 			* without response) to a connected Server. Save the associated event parameter in
 225:ble_process.c **** 			* local variable. */
 226:ble_process.c **** 			writeCmdData = *(CYBLE_GATTS_WRITE_CMD_REQ_PARAM_T*)eventParam;
 227:ble_process.c **** 			
 228:ble_process.c **** 			/* Check if the Write command is for ADV Data counter characteristic */
 229:ble_process.c **** 			if(writeCmdData.handleValPair.attrHandle == CYBLE_RGB_DATA_COUNT_CHAR_HANDLE)
 230:ble_process.c **** 			{
 231:ble_process.c **** 				/* If the data sent is of one byte, then proceed. */
 232:ble_process.c **** 				if(writeCmdData.handleValPair.value.len == 1)
 233:ble_process.c **** 				{
 234:ble_process.c **** 					/* Extract and save the set ADV data counter value */
 235:ble_process.c **** 					dataADVCounter = *(writeCmdData.handleValPair.value.val);	
 236:ble_process.c **** 					
 237:ble_process.c **** 					/* This increment is done to balance the ++ done as part of CYBLE_EVT_GATTS_WRITE_REQ */
 238:ble_process.c **** 					dataADVCounter--;
 239:ble_process.c **** 					
 240:ble_process.c **** 					/* Update the ADV data counter characteristic in GATT DB  to allow
 241:ble_process.c **** 					* Client to read the latest ADV data counter value */
 242:ble_process.c **** 					CyBle_GattsWriteAttributeValue(&writeCmdData.handleValPair,
 243:ble_process.c **** 													0,
 244:ble_process.c **** 													&cyBle_connHandle,
 245:ble_process.c **** 													CYBLE_GATT_DB_LOCALLY_INITIATED);
 246:ble_process.c **** 
 247:ble_process.c **** 					#ifdef DEBUG_ENABLED
 248:ble_process.c **** 					UART_UartPutString("dataADVCounter from CYBLE_EVT_GATTS_WRITE_CMD_REQ = ");
 249:ble_process.c **** 					PrintNum(dataADVCounter);
 250:ble_process.c **** 					UART_UartPutCRLF(' ');
 251:ble_process.c **** 					#endif
 252:ble_process.c **** 				}	/* if(writeCmdData.handleValPair.value.len == 1) */
 253:ble_process.c **** 			}
 254:ble_process.c **** 			break;
 255:ble_process.c **** 		
 256:ble_process.c **** 		case CYBLE_EVT_GAPC_SCAN_PROGRESS_RESULT:
 257:ble_process.c ****             UART_UartPutString("\n==================== CYBLE_STATE_CONNECTED != CyBle_GetState ====
 258:ble_process.c ****             
 259:ble_process.c **** 			/* This event is generated whenever there is a peripheral device found by 
 260:ble_process.c **** 			* while scanning */
 261:ble_process.c **** 			if(CYBLE_STATE_CONNECTED != CyBle_GetState())	
 262:ble_process.c **** 			{
 263:ble_process.c **** 				/* If we are not connected to any peripheral device, then save the new device  
ARM GAS  C:\Users\ASUS\AppData\Local\Temp\ccCqJG8V.s 			page 12


 264:ble_process.c **** 				* information so to add it to our list */
 265:ble_process.c **** 				scan_report = *(CYBLE_GAPC_ADV_REPORT_T*)eventParam;
 266:ble_process.c **** 				
 267:ble_process.c **** 				#ifdef DEBUG_ENABLED
 268:ble_process.c **** 					UART_UartPutString("CYBLE_EVT_GAPC_SCAN_PROGRESS_RESULT ");
 269:ble_process.c **** 					UART_UartPutCRLF(' ');
 270:ble_process.c **** 				#endif
 271:ble_process.c **** 				
 272:ble_process.c **** 				#ifdef ENABLE_ADV_DATA_COUNTER
 273:ble_process.c **** 				/* If ADV DATA COUNTER is enabled, then the central device would check
 274:ble_process.c **** 				* if the counter in ADV packet of peripheral is less than its own counter
 275:ble_process.c **** 				* or not. If yes, then it will consider the peripheral as a potential 
 276:ble_process.c **** 				* device to connect to.*/
 277:ble_process.c ****                 UART_UartPutString("\n==================== scan_report.eventType == CYBLE_GAPC_CONN
 278:ble_process.c **** 				if(scan_report.eventType == CYBLE_GAPC_CONN_UNDIRECTED_ADV)
 279:ble_process.c **** 				{
 280:ble_process.c **** 					/* If the scan report received is of advertising nature and the data 
 281:ble_process.c **** 					* length is as expected... */
 282:ble_process.c ****                     UART_UartPutString("\n==================== scan_report.dataLen == new_advData.a
 283:ble_process.c **** 					if(scan_report.dataLen == new_advData.advDataLen)
 284:ble_process.c **** 					{
 285:ble_process.c **** 						/* If the second last value of the advertising data matches the custom 
 286:ble_process.c **** 						* marker, then the peripheral is a node of the network */
 287:ble_process.c ****                         UART_UartPutString("\n==================== scan_report.data[scan_report.dat
 288:ble_process.c **** 						if(scan_report.data[scan_report.dataLen-2] == CUSTOM_ADV_DATA_MARKER)
 289:ble_process.c **** 						{
 290:ble_process.c **** 							/* If the ADV counter data in Advertising data is less than that of
 291:ble_process.c **** 							* the value in this scanning device, then the node is a potential node 
 292:ble_process.c **** 							* whose color has to be updated. */
 293:ble_process.c ****                             UART_UartPutString("\n==================== scan_report.data[scan_report
 294:ble_process.c ****                             
 295:ble_process.c **** 							if((scan_report.data[scan_report.dataLen-1] != dataADVCounter) ||
 296:ble_process.c **** 							((scan_report.data[scan_report.dataLen-1] == 255) && (dataADVCounter == 0)))
 297:ble_process.c **** 							{
 298:ble_process.c ****                                 UART_UartPutString("\n==================== potential_node_found = T
 299:ble_process.c **** 								/* Potential node found*/
 300:ble_process.c **** 								potential_node_found = TRUE;
 301:ble_process.c **** 								/* Save the advertising peripheral address and type*/
 302:ble_process.c **** 								memcpy(potential_node_bdAddr, scan_report.peerBdAddr, 6);
 303:ble_process.c **** 								potential_node_bdAddrType = scan_report.peerAddrType;
 304:ble_process.c **** 								
 305:ble_process.c **** 								#ifdef DEBUG_ENABLED
 306:ble_process.c **** 								UART_UartPutString("potential_node_found ");
 307:ble_process.c **** 								UART_UartPutCRLF(' ');
 308:ble_process.c **** 								#endif
 309:ble_process.c **** 							}
 310:ble_process.c **** 							else
 311:ble_process.c **** 							{
 312:ble_process.c **** 								/* If the ADV data counter is equal or more than the data counter
 313:ble_process.c **** 								* in this scanning device, then the node has latest RGB LED data
 314:ble_process.c **** 								* and does not need to be connected to. Reset the potential node 
 315:ble_process.c **** 								* address */
 316:ble_process.c **** 								potential_node_found = FALSE;
 317:ble_process.c **** 								
 318:ble_process.c **** 								potential_node_bdAddrType = 0;
 319:ble_process.c **** 								
 320:ble_process.c **** 								potential_node_bdAddr[0] = 0x00;
ARM GAS  C:\Users\ASUS\AppData\Local\Temp\ccCqJG8V.s 			page 13


 321:ble_process.c **** 								potential_node_bdAddr[1] = 0x00;
 322:ble_process.c **** 								potential_node_bdAddr[2] = 0x00;
 323:ble_process.c **** 								potential_node_bdAddr[3] = 0x00;
 324:ble_process.c **** 								potential_node_bdAddr[4] = 0x00;
 325:ble_process.c **** 								potential_node_bdAddr[5] = 0x00;
 326:ble_process.c **** 							}
 327:ble_process.c **** 						}
 328:ble_process.c **** 					}
 329:ble_process.c **** 				}
 330:ble_process.c **** 				#endif
 331:ble_process.c **** 				
 332:ble_process.c **** 				/* If the received scan data is part of scan response from a peripheral... */
 333:ble_process.c **** 				if(scan_report.eventType == CYBLE_GAPC_SCAN_RSP)
 334:ble_process.c **** 				{
 335:ble_process.c **** 					/* If the data lenght of the scan reponse packet is equal to expected
 336:ble_process.c **** 					* scan response data lenght...*/
 337:ble_process.c **** 					if(scan_report.dataLen == SCAN_TAG_DATA_LEN)
 338:ble_process.c **** 					{
 339:ble_process.c **** 						#ifdef ENABLE_ADV_DATA_COUNTER
 340:ble_process.c **** 						/* If a potential node had been found earlier as part of received 
 341:ble_process.c **** 						* advertising data, then compare the address of stored potential 
 342:ble_process.c **** 						* node and received address of the scan response */
 343:ble_process.c **** 						if(potential_node_found)
 344:ble_process.c **** 						{
 345:ble_process.c **** 							/* Compare the two addresses and type */
 346:ble_process.c **** 							if((!memcmp(scan_report.peerBdAddr, potential_node_bdAddr, 6))  
 347:ble_process.c **** 								&& (potential_node_bdAddrType == scan_report.peerAddrType))
 348:ble_process.c **** 							{
 349:ble_process.c **** 						#endif
 350:ble_process.c **** 								/* If the scan report data matches the expected data (scan_tag),
 351:ble_process.c **** 								* then it is our desired node */
 352:ble_process.c **** 								if(!memcmp(scan_report.data, scan_tag, scan_report.dataLen))
 353:ble_process.c **** 								{
 354:ble_process.c **** 									#ifdef DEBUG_ENABLED
 355:ble_process.c **** 									UART_UartPutString("Titan Found ");
 356:ble_process.c **** 									UART_UartPutCRLF(' ');
 357:ble_process.c **** 									#endif
 358:ble_process.c **** 									/* Stop existing scan */
 359:ble_process.c **** 									CyBle_GapcStopScan();
 360:ble_process.c **** 									#ifdef DEBUG_ENABLED
 361:ble_process.c **** 									UART_UartPutString("Stop Scan called ");
 362:ble_process.c **** 									UART_UartPutCRLF(' ');
 363:ble_process.c **** 									#endif
 364:ble_process.c **** 									
 365:ble_process.c **** 									/* Save the peripheral BD address and type*/
 366:ble_process.c **** 									peripAddr.type = scan_report.peerAddrType;
 367:ble_process.c **** 									peripAddr.bdAddr[0] = scan_report.peerBdAddr[0];
 368:ble_process.c **** 									peripAddr.bdAddr[1] = scan_report.peerBdAddr[1];
 369:ble_process.c **** 									peripAddr.bdAddr[2] = scan_report.peerBdAddr[2];
 370:ble_process.c **** 									peripAddr.bdAddr[3] = scan_report.peerBdAddr[3];
 371:ble_process.c **** 									peripAddr.bdAddr[4] = scan_report.peerBdAddr[4];
 372:ble_process.c **** 									peripAddr.bdAddr[5] = scan_report.peerBdAddr[5];
 373:ble_process.c **** 
 374:ble_process.c **** 									/* Set the flag to allow application to connect to the
 375:ble_process.c **** 									* peripheral found */
 376:ble_process.c **** 									clientConnectToDevice = TRUE;
 377:ble_process.c **** 									
ARM GAS  C:\Users\ASUS\AppData\Local\Temp\ccCqJG8V.s 			page 14


 378:ble_process.c **** 									#ifdef ENABLE_ADV_DATA_COUNTER
 379:ble_process.c **** 									/* Reset the potential node flag*/
 380:ble_process.c **** 									potential_node_found = FALSE;
 381:ble_process.c **** 									#endif
 382:ble_process.c **** 								}
 383:ble_process.c **** 						#ifdef ENABLE_ADV_DATA_COUNTER
 384:ble_process.c **** 							}
 385:ble_process.c **** 						}
 386:ble_process.c **** 						#endif
 387:ble_process.c **** 					}
 388:ble_process.c **** 				}
 389:ble_process.c **** 			}
 390:ble_process.c **** 
 391:ble_process.c **** 		break;
 392:ble_process.c **** 			
 393:ble_process.c **** 		case CYBLE_EVT_GAP_DEVICE_CONNECTED:
 394:ble_process.c **** 			/* This event is received whenever the device connect on GAP layer */
 395:ble_process.c **** 			if(ble_gap_state == BLE_CENTRAL)
 396:ble_process.c **** 			{
 397:ble_process.c **** 				#ifdef ENABLE_CENTRAL_DISCOVERY
 398:ble_process.c **** 					/* The Device is connected now. Start Attributes discovery process.*/
 399:ble_process.c **** 					CyBle_GattcStartDiscovery(cyBle_connHandle);
 400:ble_process.c **** 					#ifdef DEBUG_ENABLED
 401:ble_process.c **** 						UART_UartPutString("CYBLE_EVT_GAP_DEVICE_CONNECTED ");
 402:ble_process.c **** 						SendBLEStatetoUART(CyBle_GetState());
 403:ble_process.c **** 						UART_UartPutCRLF(' ');
 404:ble_process.c **** 					#endif
 405:ble_process.c **** 				#else
 406:ble_process.c **** 					/* If this system is currently acting in Central role and has connected
 407:ble_process.c **** 					* to a peripheral device, then write directly the ADV counter data and
 408:ble_process.c **** 					* RGB LED control data using attribute handles */
 409:ble_process.c **** 					
 410:ble_process.c **** 					/* Set the device connected flag */
 411:ble_process.c **** 					deviceConnected = TRUE;
 412:ble_process.c **** 					
 413:ble_process.c **** 					#ifdef DEBUG_ENABLED
 414:ble_process.c **** 						UART_UartPutString("Directly write RGB using Attr handle ");
 415:ble_process.c **** 						SendBLEStatetoUART(CyBle_GetState());
 416:ble_process.c **** 						UART_UartPutCRLF(' ');
 417:ble_process.c **** 					#endif
 418:ble_process.c **** 					
 419:ble_process.c **** 					/* Write the Data Counter value */
 420:ble_process.c **** 					writeADVcounterdata.attrHandle = CYBLE_RGB_DATA_COUNT_CHAR_HANDLE;
 421:ble_process.c **** 					writeADVcounterdata.value.val = &dataADVCounter;
 422:ble_process.c **** 					writeADVcounterdata.value.len = 1;
 423:ble_process.c **** 					CyBle_GattcWriteWithoutResponse(cyBle_connHandle, &writeADVcounterdata);
 424:ble_process.c **** 				    
 425:ble_process.c ****                     uint8 RGBData2[5];
 426:ble_process.c ****                     memcpy(RGBData2, RGBData, RGB_LED_DATA_LEN);
 427:ble_process.c ****                     
 428:ble_process.c ****                     uint8 sendIndex;
 429:ble_process.c ****                     if (DEVICE_INDEX == 0)
 430:ble_process.c ****                     {
 431:ble_process.c ****                        //sendIndex = NEXT_NEIGHBOUR_INDEX++;
 432:ble_process.c ****                         sendIndex = 255;
 433:ble_process.c ****                     }
 434:ble_process.c ****                     else
ARM GAS  C:\Users\ASUS\AppData\Local\Temp\ccCqJG8V.s 			page 15


 435:ble_process.c ****                     {
 436:ble_process.c ****                         sendIndex = 255;
 437:ble_process.c ****                     }
 438:ble_process.c ****                     RGBData2[4] = sendIndex;
 439:ble_process.c ****                     
 440:ble_process.c **** 					/* Write the RGB LED Value */
 441:ble_process.c **** 					writeRGBdata.attrHandle = CYBLE_RGB_LED_CONTROL_CHAR_HANDLE;
 442:ble_process.c **** 					writeRGBdata.value.val = RGBData2;
 443:ble_process.c **** 					writeRGBdata.value.len = RGB_LED_DATA_LEN + 1;
 444:ble_process.c **** 					CyBle_GattcWriteCharacteristicValue(cyBle_connHandle, &writeRGBdata);
 445:ble_process.c **** 				#endif
 446:ble_process.c **** 			}	
 447:ble_process.c ****         break;
 448:ble_process.c **** 			
 449:ble_process.c **** 		case CYBLE_EVT_GATTC_DISCOVERY_COMPLETE:
 450:ble_process.c **** 			/* This event is generated whenever the discovery procedure is complete*/
 451:ble_process.c **** 			
 452:ble_process.c **** 			#ifdef ENABLE_CENTRAL_DISCOVERY
 453:ble_process.c **** 			deviceConnected = TRUE;
 454:ble_process.c **** 			#ifdef DEBUG_ENABLED
 455:ble_process.c **** 				UART_UartPutString("CYBLE_EVT_GATTC_DISCOVERY_COMPLETE ");
 456:ble_process.c **** 				SendBLEStatetoUART(CyBle_GetState());
 457:ble_process.c **** 				UART_UartPutCRLF(' ');
 458:ble_process.c **** 			#endif
 459:ble_process.c **** 			
 460:ble_process.c **** 			/* Write the Data Counter value */
 461:ble_process.c **** 			writeADVcounterdata.attrHandle = CYBLE_RGB_DATA_COUNT_CHAR_HANDLE;
 462:ble_process.c **** 			writeADVcounterdata.value.val = &dataADVCounter;
 463:ble_process.c **** 			writeADVcounterdata.value.len = 1;
 464:ble_process.c **** 			CyBle_GattcWriteWithoutResponse(cyBle_connHandle, &writeADVcounterdata);
 465:ble_process.c **** 		
 466:ble_process.c **** 			/* Write the RGB LED Value */
 467:ble_process.c **** 			writeRGBdata.attrHandle = CYBLE_RGB_LED_CONTROL_CHAR_HANDLE;
 468:ble_process.c **** 			writeRGBdata.value.val = RGBData;
 469:ble_process.c **** 			writeRGBdata.value.len = RGB_LED_DATA_LEN;
 470:ble_process.c **** 			CyBle_GattcWriteCharacteristicValue(cyBle_connHandle, &writeRGBdata);
 471:ble_process.c **** 			#endif
 472:ble_process.c **** 		break;
 473:ble_process.c **** 			
 474:ble_process.c **** 		case CYBLE_EVT_GATTC_WRITE_RSP:
 475:ble_process.c **** 			/* This event is generated when the Client device receives a response
 476:ble_process.c **** 			* as part of the Write request sent earlier. This indicates that
 477:ble_process.c **** 			* the RGB LED data was written successfully */
 478:ble_process.c **** 			#ifdef DEBUG_ENABLED
 479:ble_process.c **** 				UART_UartPutString("CYBLE_EVT_GATTC_WRITE_RSP ");
 480:ble_process.c **** 				SendBLEStatetoUART(CyBle_GetState());
 481:ble_process.c **** 				UART_UartPutCRLF(' ');
 482:ble_process.c **** 			#endif
 483:ble_process.c **** 			
 484:ble_process.c **** 			/* Disconnect the existing connection and restart scanning */
 485:ble_process.c **** 			if((cyBle_connHandle.bdHandle != 0))
 486:ble_process.c **** 			{
 487:ble_process.c **** 				CyBle_GapDisconnect(cyBle_connHandle.bdHandle);
 488:ble_process.c **** 				
 489:ble_process.c **** 				restartScanning = TRUE;
 490:ble_process.c **** 				#ifdef DEBUG_ENABLED
 491:ble_process.c **** 				UART_UartPutString("Disconnect from CYBLE_EVT_GATTC_WRITE_RSP ");
ARM GAS  C:\Users\ASUS\AppData\Local\Temp\ccCqJG8V.s 			page 16


 492:ble_process.c **** 				SendBLEStatetoUART(CyBle_GetState());
 493:ble_process.c **** 				UART_UartPutCRLF(' ');
 494:ble_process.c **** 				#endif
 495:ble_process.c **** 			}
 496:ble_process.c **** 		break;
 497:ble_process.c **** 
 498:ble_process.c **** 		case CYBLE_EVT_GAP_DEVICE_DISCONNECTED:
 499:ble_process.c **** 			/* This event is generated when the device disconnects from an 
 500:ble_process.c **** 			* existing connection */
 501:ble_process.c **** 			deviceConnected = FALSE;
 502:ble_process.c **** 			
 503:ble_process.c **** 			#ifdef DEBUG_ENABLED
 504:ble_process.c **** 				UART_UartPutString("CYBLE_EVT_GAP_DEVICE_DISCONNECTED ");
 505:ble_process.c **** 				SendBLEStatetoUART(CyBle_GetState());
 506:ble_process.c **** 				UART_UartPutCRLF(' ');
 507:ble_process.c **** 			#endif
 508:ble_process.c **** 			
 509:ble_process.c **** 			if((ble_gap_state == BLE_PERIPHERAL) && (switch_Role != TRUE))
 510:ble_process.c **** 			{
 511:ble_process.c **** 				/* If the current role of this system was Peripheral and the role
 512:ble_process.c **** 				* is not to be switched, then restart advertisement */
 513:ble_process.c **** 				if(CYBLE_STATE_DISCONNECTED == CyBle_GetState())
 514:ble_process.c **** 				{
 515:ble_process.c **** 					CyBle_GappStartAdvertisement(CYBLE_ADVERTISING_FAST);	
 516:ble_process.c **** 					#ifdef DEBUG_ENABLED
 517:ble_process.c **** 					UART_UartPutString("Restart Advertisement ");
 518:ble_process.c **** 					SendBLEStatetoUART(CyBle_GetState());
 519:ble_process.c **** 					UART_UartPutCRLF(' ');
 520:ble_process.c **** 					#endif
 521:ble_process.c **** 				}
 522:ble_process.c **** 			}
 523:ble_process.c **** 			else if((ble_gap_state == BLE_CENTRAL) && (switch_Role != TRUE))
 524:ble_process.c **** 			{
 525:ble_process.c **** 				/* If the current role of this system was Central and the role
 526:ble_process.c **** 				* is not to be switched, then restart scanning */
 527:ble_process.c **** 				if(CYBLE_STATE_DISCONNECTED == CyBle_GetState())
 528:ble_process.c **** 				{
 529:ble_process.c **** 					CyBle_GapcStartScan(CYBLE_SCANNING_FAST);	
 530:ble_process.c **** 					#ifdef DEBUG_ENABLED
 531:ble_process.c **** 					UART_UartPutString("Restart Scanning ");
 532:ble_process.c **** 					SendBLEStatetoUART(CyBle_GetState());
 533:ble_process.c **** 					UART_UartPutCRLF(' ');
 534:ble_process.c **** 					#endif
 535:ble_process.c **** 				}	
 536:ble_process.c **** 			}
 537:ble_process.c **** 		break;
 538:ble_process.c **** 			
 539:ble_process.c **** 		default:
 540:ble_process.c **** 			eventParam = eventParam;
 541:ble_process.c **** 		break;
 231              		.loc 1 541 0
 232 0022 53E3     		b	.L1
 233              	.L6:
  72:ble_process.c **** 	{
 234              		.loc 1 72 0
 235 0024 272B     		cmp	r3, #39
 236 0026 00D1     		bne	.LCB33
ARM GAS  C:\Users\ASUS\AppData\Local\Temp\ccCqJG8V.s 			page 17


 237 0028 6CE2     		b	.L9	@long jump
 238              	.LCB33:
 239 002a 282B     		cmp	r3, #40
 240 002c 00D1     		bne	.LCB35
 241 002e F8E2     		b	.L10	@long jump
 242              	.LCB35:
 243              		.loc 1 541 0
 244 0030 4CE3     		b	.L1
 245              	.L4:
  72:ble_process.c **** 	{
 246              		.loc 1 72 0
 247 0032 4C2B     		cmp	r3, #76
 248 0034 64D0     		beq	.L11
 249 0036 04D8     		bhi	.L12
 250 0038 412B     		cmp	r3, #65
 251 003a 51D0     		beq	.L13
 252 003c 422B     		cmp	r3, #66
 253 003e 57D0     		beq	.L14
 254              		.loc 1 541 0
 255 0040 44E3     		b	.L1
 256              	.L12:
  72:ble_process.c **** 	{
 257              		.loc 1 72 0
 258 0042 4E2B     		cmp	r3, #78
 259 0044 00D1     		bne	.LCB53
 260 0046 E5E0     		b	.L15	@long jump
 261              	.LCB53:
 262 0048 00D2     		bcs	.LCB55
 263 004a C5E2     		b	.L16	@long jump
 264              	.LCB55:
 265 004c 8922     		movs	r2, #137
 266 004e 5200     		lsls	r2, r2, #1
 267 0050 9342     		cmp	r3, r2
 268 0052 00D1     		bne	.LCB59
 269 0054 2DE3     		b	.L35	@long jump
 270              	.LCB59:
 271              		.loc 1 541 0
 272 0056 39E3     		b	.L1
 273              	.L7:
  76:ble_process.c **** 			UART_UartPutCRLF(' ');
 274              		.loc 1 76 0
 275 0058 C64B     		ldr	r3, .L42
 276 005a 1800     		movs	r0, r3
 277 005c FFF7FEFF 		bl	UART_UartPutString
  77:ble_process.c **** 			#endif
 278              		.loc 1 77 0
 279 0060 2020     		movs	r0, #32
 280 0062 FFF7FEFF 		bl	UART_UartPutCRLF
  80:ble_process.c **** 		break;
 281              		.loc 1 80 0
 282 0066 0020     		movs	r0, #0
 283 0068 FFF7FEFF 		bl	CyBle_GappStartAdvertisement
  81:ble_process.c **** 			
 284              		.loc 1 81 0
 285 006c 2EE3     		b	.L1
 286              	.L5:
  86:ble_process.c **** 			SendBLEStatetoUART(CyBle_GetState());
ARM GAS  C:\Users\ASUS\AppData\Local\Temp\ccCqJG8V.s 			page 18


 287              		.loc 1 86 0
 288 006e C24B     		ldr	r3, .L42+4
 289 0070 1800     		movs	r0, r3
 290 0072 FFF7FEFF 		bl	UART_UartPutString
  87:ble_process.c **** 			UART_UartPutCRLF(' ');
 291              		.loc 1 87 0
 292 0076 C14B     		ldr	r3, .L42+8
 293 0078 1B78     		ldrb	r3, [r3]
 294 007a 1800     		movs	r0, r3
 295 007c FFF7FEFF 		bl	SendBLEStatetoUART
  88:ble_process.c **** 			#endif
 296              		.loc 1 88 0
 297 0080 2020     		movs	r0, #32
 298 0082 FFF7FEFF 		bl	UART_UartPutCRLF
  91:ble_process.c **** 			{
 299              		.loc 1 91 0
 300 0086 BD4B     		ldr	r3, .L42+8
 301 0088 1B78     		ldrb	r3, [r3]
 302 008a 062B     		cmp	r3, #6
 303 008c 00D0     		beq	.LCB87
 304 008e 12E3     		b	.L36	@long jump
 305              	.LCB87:
  91:ble_process.c **** 			{
 306              		.loc 1 91 0 is_stmt 0 discriminator 1
 307 0090 BB4B     		ldr	r3, .L42+12
 308 0092 1B78     		ldrb	r3, [r3]
 309 0094 002B     		cmp	r3, #0
 310 0096 00D0     		beq	.LCB91
 311 0098 0DE3     		b	.L36	@long jump
 312              	.LCB91:
  97:ble_process.c **** 				
 313              		.loc 1 97 0 is_stmt 1
 314 009a 0020     		movs	r0, #0
 315 009c FFF7FEFF 		bl	CyBle_GappStartAdvertisement
  99:ble_process.c **** 				{
 316              		.loc 1 99 0
 317 00a0 5C23     		movs	r3, #92
 318 00a2 FB18     		adds	r3, r7, r3
 319 00a4 1B88     		ldrh	r3, [r3]
 320 00a6 002B     		cmp	r3, #0
 321 00a8 00D0     		beq	.LCB98
 322 00aa 04E3     		b	.L36	@long jump
 323              	.LCB98:
 102:ble_process.c **** 					SendBLEStatetoUART(CyBle_GetState());
 324              		.loc 1 102 0
 325 00ac B54B     		ldr	r3, .L42+16
 326 00ae 1800     		movs	r0, r3
 327 00b0 FFF7FEFF 		bl	UART_UartPutString
 103:ble_process.c **** 					UART_UartPutCRLF(' ');
 328              		.loc 1 103 0
 329 00b4 B14B     		ldr	r3, .L42+8
 330 00b6 1B78     		ldrb	r3, [r3]
 331 00b8 1800     		movs	r0, r3
 332 00ba FFF7FEFF 		bl	SendBLEStatetoUART
 104:ble_process.c **** 					#endif
 333              		.loc 1 104 0
 334 00be 2020     		movs	r0, #32
ARM GAS  C:\Users\ASUS\AppData\Local\Temp\ccCqJG8V.s 			page 19


 335 00c0 FFF7FEFF 		bl	UART_UartPutCRLF
 108:ble_process.c **** 			
 336              		.loc 1 108 0
 337 00c4 F7E2     		b	.L36
 338              	.L3:
 113:ble_process.c **** 			SendBLEStatetoUART(CyBle_GetState());
 339              		.loc 1 113 0
 340 00c6 B04B     		ldr	r3, .L42+20
 341 00c8 1800     		movs	r0, r3
 342 00ca FFF7FEFF 		bl	UART_UartPutString
 114:ble_process.c **** 			UART_UartPutCRLF(' ');
 343              		.loc 1 114 0
 344 00ce AB4B     		ldr	r3, .L42+8
 345 00d0 1B78     		ldrb	r3, [r3]
 346 00d2 1800     		movs	r0, r3
 347 00d4 FFF7FEFF 		bl	SendBLEStatetoUART
 115:ble_process.c **** 			#endif
 348              		.loc 1 115 0
 349 00d8 2020     		movs	r0, #32
 350 00da FFF7FEFF 		bl	UART_UartPutCRLF
 117:ble_process.c **** 			
 351              		.loc 1 117 0
 352 00de F5E2     		b	.L1
 353              	.L13:
 123:ble_process.c **** 			UART_UartPutCRLF(' ');
 354              		.loc 1 123 0
 355 00e0 AA4B     		ldr	r3, .L42+24
 356 00e2 1800     		movs	r0, r3
 357 00e4 FFF7FEFF 		bl	UART_UartPutString
 124:ble_process.c **** 			#endif
 358              		.loc 1 124 0
 359 00e8 2020     		movs	r0, #32
 360 00ea FFF7FEFF 		bl	UART_UartPutCRLF
 126:ble_process.c **** 		
 361              		.loc 1 126 0
 362 00ee EDE2     		b	.L1
 363              	.L14:
 132:ble_process.c **** 			UART_UartPutCRLF(' ');
 364              		.loc 1 132 0
 365 00f0 A74B     		ldr	r3, .L42+28
 366 00f2 1800     		movs	r0, r3
 367 00f4 FFF7FEFF 		bl	UART_UartPutString
 133:ble_process.c **** 			#endif
 368              		.loc 1 133 0
 369 00f8 2020     		movs	r0, #32
 370 00fa FFF7FEFF 		bl	UART_UartPutCRLF
 135:ble_process.c **** 			
 371              		.loc 1 135 0
 372 00fe E5E2     		b	.L1
 373              	.L11:
 141:ble_process.c **** 
 374              		.loc 1 141 0
 375 0100 4C23     		movs	r3, #76
 376 0102 FB18     		adds	r3, r7, r3
 377 0104 3A68     		ldr	r2, [r7]
 378 0106 13CA     		ldmia	r2!, {r0, r1, r4}
 379 0108 13C3     		stmia	r3!, {r0, r1, r4}
ARM GAS  C:\Users\ASUS\AppData\Local\Temp\ccCqJG8V.s 			page 20


 380 010a 1268     		ldr	r2, [r2]
 381 010c 1A60     		str	r2, [r3]
 143:ble_process.c **** 			{
 382              		.loc 1 143 0
 383 010e 4C23     		movs	r3, #76
 384 0110 FB18     		adds	r3, r7, r3
 385 0112 9B89     		ldrh	r3, [r3, #12]
 386 0114 0E2B     		cmp	r3, #14
 387 0116 6ED1     		bne	.L20
 147:ble_process.c **** 				{
 388              		.loc 1 147 0
 389 0118 4C23     		movs	r3, #76
 390 011a FB18     		adds	r3, r7, r3
 391 011c 1B89     		ldrh	r3, [r3, #8]
 392 011e 052B     		cmp	r3, #5
 393 0120 60D1     		bne	.L21
 150:ble_process.c **** 						UART_UartPutCRLF(' ');
 394              		.loc 1 150 0
 395 0122 9C4B     		ldr	r3, .L42+32
 396 0124 1800     		movs	r0, r3
 397 0126 FFF7FEFF 		bl	UART_UartPutString
 151:ble_process.c **** 					#endif
 398              		.loc 1 151 0
 399 012a 2020     		movs	r0, #32
 400 012c FFF7FEFF 		bl	UART_UartPutCRLF
 155:ble_process.c **** 					RGBData[RGB_GREEN_INDEX] = writeReqData.handleValPair.value.val[1];
 401              		.loc 1 155 0
 402 0130 4C23     		movs	r3, #76
 403 0132 FB18     		adds	r3, r7, r3
 404 0134 5B68     		ldr	r3, [r3, #4]
 405 0136 1A78     		ldrb	r2, [r3]
 406 0138 974B     		ldr	r3, .L42+36
 407 013a 1A70     		strb	r2, [r3]
 156:ble_process.c **** 					RGBData[RGB_BLUE_INDEX] = writeReqData.handleValPair.value.val[2];
 408              		.loc 1 156 0
 409 013c 4C23     		movs	r3, #76
 410 013e FB18     		adds	r3, r7, r3
 411 0140 5B68     		ldr	r3, [r3, #4]
 412 0142 5A78     		ldrb	r2, [r3, #1]
 413 0144 944B     		ldr	r3, .L42+36
 414 0146 5A70     		strb	r2, [r3, #1]
 157:ble_process.c **** 					RGBData[RGB_INTENSITY_INDEX] = writeReqData.handleValPair.value.val[3];
 415              		.loc 1 157 0
 416 0148 4C23     		movs	r3, #76
 417 014a FB18     		adds	r3, r7, r3
 418 014c 5B68     		ldr	r3, [r3, #4]
 419 014e 9A78     		ldrb	r2, [r3, #2]
 420 0150 914B     		ldr	r3, .L42+36
 421 0152 9A70     		strb	r2, [r3, #2]
 158:ble_process.c ****                     
 422              		.loc 1 158 0
 423 0154 4C23     		movs	r3, #76
 424 0156 FB18     		adds	r3, r7, r3
 425 0158 5B68     		ldr	r3, [r3, #4]
 426 015a DA78     		ldrb	r2, [r3, #3]
 427 015c 8E4B     		ldr	r3, .L42+36
 428 015e DA70     		strb	r2, [r3, #3]
ARM GAS  C:\Users\ASUS\AppData\Local\Temp\ccCqJG8V.s 			page 21


 160:ble_process.c ****                     NUM_EXCEEDED_WAITING_TIME = 0;
 429              		.loc 1 160 0
 430 0160 4C23     		movs	r3, #76
 431 0162 FB18     		adds	r3, r7, r3
 432 0164 5B68     		ldr	r3, [r3, #4]
 433 0166 0433     		adds	r3, r3, #4
 434 0168 1B78     		ldrb	r3, [r3]
 435 016a 1A00     		movs	r2, r3
 436 016c 8B4B     		ldr	r3, .L42+40
 437 016e 1A60     		str	r2, [r3]
 161:ble_process.c **** 					
 438              		.loc 1 161 0
 439 0170 8B4B     		ldr	r3, .L42+44
 440 0172 0022     		movs	r2, #0
 441 0174 1A60     		str	r2, [r3]
 171:ble_process.c ****                     UART_UartPutString(TEXT_BUF);
 442              		.loc 1 171 0
 443 0176 894B     		ldr	r3, .L42+40
 444 0178 1A68     		ldr	r2, [r3]
 445 017a 8A49     		ldr	r1, .L42+48
 446 017c 8A4B     		ldr	r3, .L42+52
 447 017e 1800     		movs	r0, r3
 448 0180 FFF7FEFF 		bl	sprintf
 172:ble_process.c ****                     
 449              		.loc 1 172 0
 450 0184 884B     		ldr	r3, .L42+52
 451 0186 1800     		movs	r0, r3
 452 0188 FFF7FEFF 		bl	UART_UartPutString
 174:ble_process.c ****                     
 453              		.loc 1 174 0
 454 018c FFF7FEFF 		bl	restart_peripheral_waiting_time
 177:ble_process.c **** 					
 455              		.loc 1 177 0
 456 0190 814B     		ldr	r3, .L42+36
 457 0192 0421     		movs	r1, #4
 458 0194 1800     		movs	r0, r3
 459 0196 FFF7FEFF 		bl	UpdateRGBled
 181:ble_process.c ****                         CYBLE_GATT_DB_LOCALLY_INITIATED);
 460              		.loc 1 181 0
 461 019a 844A     		ldr	r2, .L42+56
 462 019c 4C23     		movs	r3, #76
 463 019e FB18     		adds	r3, r7, r3
 464 01a0 181D     		adds	r0, r3, #4
 465 01a2 0023     		movs	r3, #0
 466 01a4 0021     		movs	r1, #0
 467 01a6 FFF7FEFF 		bl	CyBle_GattsWriteAttributeValue
 187:ble_process.c **** 					#endif
 468              		.loc 1 187 0
 469 01aa 814B     		ldr	r3, .L42+60
 470 01ac 1B78     		ldrb	r3, [r3]
 471 01ae 0133     		adds	r3, r3, #1
 472 01b0 DAB2     		uxtb	r2, r3
 473 01b2 7F4B     		ldr	r3, .L42+60
 474 01b4 1A70     		strb	r2, [r3]
 191:ble_process.c ****     					PrintNum(dataADVCounter);
 475              		.loc 1 191 0
 476 01b6 7F4B     		ldr	r3, .L42+64
ARM GAS  C:\Users\ASUS\AppData\Local\Temp\ccCqJG8V.s 			page 22


 477 01b8 1800     		movs	r0, r3
 478 01ba FFF7FEFF 		bl	UART_UartPutString
 192:ble_process.c ****     					UART_UartPutCRLF(' ');
 479              		.loc 1 192 0
 480 01be 7C4B     		ldr	r3, .L42+60
 481 01c0 1B78     		ldrb	r3, [r3]
 482 01c2 1800     		movs	r0, r3
 483 01c4 FFF7FEFF 		bl	PrintNum
 193:ble_process.c **** 					#endif
 484              		.loc 1 193 0
 485 01c8 2020     		movs	r0, #32
 486 01ca FFF7FEFF 		bl	UART_UartPutCRLF
 198:ble_process.c **** 					
 487              		.loc 1 198 0
 488 01ce 6C4B     		ldr	r3, .L42+12
 489 01d0 0122     		movs	r2, #1
 490 01d2 1A70     		strb	r2, [r3]
 201:ble_process.c **** 					UART_UartPutCRLF(' ');
 491              		.loc 1 201 0
 492 01d4 784B     		ldr	r3, .L42+68
 493 01d6 1800     		movs	r0, r3
 494 01d8 FFF7FEFF 		bl	UART_UartPutString
 202:ble_process.c **** 					#endif
 495              		.loc 1 202 0
 496 01dc 2020     		movs	r0, #32
 497 01de FFF7FEFF 		bl	UART_UartPutCRLF
 498 01e2 08E0     		b	.L20
 499              	.L21:
 208:ble_process.c **** 									writeReqData.handleValPair.attrHandle, 
 500              		.loc 1 208 0
 501 01e4 4C23     		movs	r3, #76
 502 01e6 FB18     		adds	r3, r7, r3
 503 01e8 9B89     		ldrh	r3, [r3, #12]
 504 01ea 0D22     		movs	r2, #13
 505 01ec 1900     		movs	r1, r3
 506 01ee 1220     		movs	r0, #18
 507 01f0 FFF7FEFF 		bl	SendErrorCode
 508 01f4 6AE2     		b	.L1
 509              	.L20:
 219:ble_process.c **** 		break;
 510              		.loc 1 219 0
 511 01f6 6D4B     		ldr	r3, .L42+56
 512 01f8 1A78     		ldrb	r2, [r3]
 513 01fa 5B78     		ldrb	r3, [r3, #1]
 514 01fc 1B02     		lsls	r3, r3, #8
 515 01fe 1A43     		orrs	r2, r3
 516 0200 0023     		movs	r3, #0
 517 0202 1204     		lsls	r2, r2, #16
 518 0204 120C     		lsrs	r2, r2, #16
 519 0206 1B0C     		lsrs	r3, r3, #16
 520 0208 1B04     		lsls	r3, r3, #16
 521 020a 1343     		orrs	r3, r2
 522 020c 1800     		movs	r0, r3
 523 020e FFF7FEFF 		bl	CyBle_GattsWriteRsp
 220:ble_process.c **** 			
 524              		.loc 1 220 0
 525 0212 5BE2     		b	.L1
ARM GAS  C:\Users\ASUS\AppData\Local\Temp\ccCqJG8V.s 			page 23


 526              	.L15:
 226:ble_process.c **** 			
 527              		.loc 1 226 0
 528 0214 1C23     		movs	r3, #28
 529 0216 FB18     		adds	r3, r7, r3
 530 0218 3A68     		ldr	r2, [r7]
 531 021a 13CA     		ldmia	r2!, {r0, r1, r4}
 532 021c 13C3     		stmia	r3!, {r0, r1, r4}
 533 021e 1268     		ldr	r2, [r2]
 534 0220 1A60     		str	r2, [r3]
 229:ble_process.c **** 			{
 535              		.loc 1 229 0
 536 0222 1C23     		movs	r3, #28
 537 0224 FB18     		adds	r3, r7, r3
 538 0226 9B89     		ldrh	r3, [r3, #12]
 539 0228 112B     		cmp	r3, #17
 540 022a 00D0     		beq	.LCB285
 541 022c 45E2     		b	.L37	@long jump
 542              	.LCB285:
 232:ble_process.c **** 				{
 543              		.loc 1 232 0
 544 022e 1C23     		movs	r3, #28
 545 0230 FB18     		adds	r3, r7, r3
 546 0232 1B89     		ldrh	r3, [r3, #8]
 547 0234 012B     		cmp	r3, #1
 548 0236 00D0     		beq	.LCB290
 549 0238 3FE2     		b	.L37	@long jump
 550              	.LCB290:
 235:ble_process.c **** 					
 551              		.loc 1 235 0
 552 023a 1C23     		movs	r3, #28
 553 023c FB18     		adds	r3, r7, r3
 554 023e 5B68     		ldr	r3, [r3, #4]
 555 0240 1A78     		ldrb	r2, [r3]
 556 0242 5B4B     		ldr	r3, .L42+60
 557 0244 1A70     		strb	r2, [r3]
 238:ble_process.c **** 					
 558              		.loc 1 238 0
 559 0246 5A4B     		ldr	r3, .L42+60
 560 0248 1B78     		ldrb	r3, [r3]
 561 024a 013B     		subs	r3, r3, #1
 562 024c DAB2     		uxtb	r2, r3
 563 024e 584B     		ldr	r3, .L42+60
 564 0250 1A70     		strb	r2, [r3]
 242:ble_process.c **** 													0,
 565              		.loc 1 242 0
 566 0252 564A     		ldr	r2, .L42+56
 567 0254 1C23     		movs	r3, #28
 568 0256 FB18     		adds	r3, r7, r3
 569 0258 181D     		adds	r0, r3, #4
 570 025a 0023     		movs	r3, #0
 571 025c 0021     		movs	r1, #0
 572 025e FFF7FEFF 		bl	CyBle_GattsWriteAttributeValue
 248:ble_process.c **** 					PrintNum(dataADVCounter);
 573              		.loc 1 248 0
 574 0262 564B     		ldr	r3, .L42+72
 575 0264 1800     		movs	r0, r3
ARM GAS  C:\Users\ASUS\AppData\Local\Temp\ccCqJG8V.s 			page 24


 576 0266 FFF7FEFF 		bl	UART_UartPutString
 249:ble_process.c **** 					UART_UartPutCRLF(' ');
 577              		.loc 1 249 0
 578 026a 514B     		ldr	r3, .L42+60
 579 026c 1B78     		ldrb	r3, [r3]
 580 026e 1800     		movs	r0, r3
 581 0270 FFF7FEFF 		bl	PrintNum
 250:ble_process.c **** 					#endif
 582              		.loc 1 250 0
 583 0274 2020     		movs	r0, #32
 584 0276 FFF7FEFF 		bl	UART_UartPutCRLF
 254:ble_process.c **** 		
 585              		.loc 1 254 0
 586 027a 1EE2     		b	.L37
 587              	.L8:
 257:ble_process.c ****             
 588              		.loc 1 257 0
 589 027c 504B     		ldr	r3, .L42+76
 590 027e 1800     		movs	r0, r3
 591 0280 FFF7FEFF 		bl	UART_UartPutString
 261:ble_process.c **** 			{
 592              		.loc 1 261 0
 593 0284 3D4B     		ldr	r3, .L42+8
 594 0286 1B78     		ldrb	r3, [r3]
 595 0288 022B     		cmp	r3, #2
 596 028a 00D1     		bne	.LCB329
 597 028c 17E2     		b	.L38	@long jump
 598              	.LCB329:
 265:ble_process.c **** 				
 599              		.loc 1 265 0
 600 028e 2C23     		movs	r3, #44
 601 0290 FB18     		adds	r3, r7, r3
 602 0292 3A68     		ldr	r2, [r7]
 603 0294 13CA     		ldmia	r2!, {r0, r1, r4}
 604 0296 13C3     		stmia	r3!, {r0, r1, r4}
 605 0298 03CA     		ldmia	r2!, {r0, r1}
 606 029a 03C3     		stmia	r3!, {r0, r1}
 268:ble_process.c **** 					UART_UartPutCRLF(' ');
 607              		.loc 1 268 0
 608 029c 494B     		ldr	r3, .L42+80
 609 029e 1800     		movs	r0, r3
 610 02a0 FFF7FEFF 		bl	UART_UartPutString
 269:ble_process.c **** 				#endif
 611              		.loc 1 269 0
 612 02a4 2020     		movs	r0, #32
 613 02a6 FFF7FEFF 		bl	UART_UartPutCRLF
 277:ble_process.c **** 				if(scan_report.eventType == CYBLE_GAPC_CONN_UNDIRECTED_ADV)
 614              		.loc 1 277 0
 615 02aa 474B     		ldr	r3, .L42+84
 616 02ac 1800     		movs	r0, r3
 617 02ae FFF7FEFF 		bl	UART_UartPutString
 278:ble_process.c **** 				{
 618              		.loc 1 278 0
 619 02b2 2C23     		movs	r3, #44
 620 02b4 FB18     		adds	r3, r7, r3
 621 02b6 1B78     		ldrb	r3, [r3]
 622 02b8 002B     		cmp	r3, #0
ARM GAS  C:\Users\ASUS\AppData\Local\Temp\ccCqJG8V.s 			page 25


 623 02ba 00D0     		beq	.LCB347
 624 02bc B0E0     		b	.L25	@long jump
 625              	.LCB347:
 282:ble_process.c **** 					if(scan_report.dataLen == new_advData.advDataLen)
 626              		.loc 1 282 0
 627 02be 434B     		ldr	r3, .L42+88
 628 02c0 1800     		movs	r0, r3
 629 02c2 FFF7FEFF 		bl	UART_UartPutString
 283:ble_process.c **** 					{
 630              		.loc 1 283 0
 631 02c6 2C23     		movs	r3, #44
 632 02c8 FB18     		adds	r3, r7, r3
 633 02ca 1A7A     		ldrb	r2, [r3, #8]
 634 02cc 404B     		ldr	r3, .L42+92
 635 02ce DB7F     		ldrb	r3, [r3, #31]
 636 02d0 9A42     		cmp	r2, r3
 637 02d2 00D0     		beq	.LCB357
 638 02d4 A4E0     		b	.L25	@long jump
 639              	.LCB357:
 287:ble_process.c **** 						if(scan_report.data[scan_report.dataLen-2] == CUSTOM_ADV_DATA_MARKER)
 640              		.loc 1 287 0
 641 02d6 3F4B     		ldr	r3, .L42+96
 642 02d8 1800     		movs	r0, r3
 643 02da FFF7FEFF 		bl	UART_UartPutString
 288:ble_process.c **** 						{
 644              		.loc 1 288 0
 645 02de 2C23     		movs	r3, #44
 646 02e0 FB18     		adds	r3, r7, r3
 647 02e2 DA68     		ldr	r2, [r3, #12]
 648 02e4 2C23     		movs	r3, #44
 649 02e6 FB18     		adds	r3, r7, r3
 650 02e8 1B7A     		ldrb	r3, [r3, #8]
 651 02ea 023B     		subs	r3, r3, #2
 652 02ec D318     		adds	r3, r2, r3
 653 02ee 1B78     		ldrb	r3, [r3]
 654 02f0 012B     		cmp	r3, #1
 655 02f2 00D0     		beq	.LCB371
 656 02f4 94E0     		b	.L25	@long jump
 657              	.LCB371:
 293:ble_process.c ****                             
 658              		.loc 1 293 0
 659 02f6 384B     		ldr	r3, .L42+100
 660 02f8 1800     		movs	r0, r3
 661 02fa FFF7FEFF 		bl	UART_UartPutString
 295:ble_process.c **** 							((scan_report.data[scan_report.dataLen-1] == 255) && (dataADVCounter == 0)))
 662              		.loc 1 295 0
 663 02fe 2C23     		movs	r3, #44
 664 0300 FB18     		adds	r3, r7, r3
 665 0302 DA68     		ldr	r2, [r3, #12]
 666 0304 2C23     		movs	r3, #44
 667 0306 FB18     		adds	r3, r7, r3
 668 0308 1B7A     		ldrb	r3, [r3, #8]
 669 030a 013B     		subs	r3, r3, #1
 670 030c D318     		adds	r3, r2, r3
 671 030e 1A78     		ldrb	r2, [r3]
 672 0310 274B     		ldr	r3, .L42+60
 673 0312 1B78     		ldrb	r3, [r3]
ARM GAS  C:\Users\ASUS\AppData\Local\Temp\ccCqJG8V.s 			page 26


 674 0314 9A42     		cmp	r2, r3
 675 0316 0ED1     		bne	.L26
 296:ble_process.c **** 							{
 676              		.loc 1 296 0 discriminator 1
 677 0318 2C23     		movs	r3, #44
 678 031a FB18     		adds	r3, r7, r3
 679 031c DA68     		ldr	r2, [r3, #12]
 680 031e 2C23     		movs	r3, #44
 681 0320 FB18     		adds	r3, r7, r3
 682 0322 1B7A     		ldrb	r3, [r3, #8]
 683 0324 013B     		subs	r3, r3, #1
 684 0326 D318     		adds	r3, r2, r3
 685 0328 1B78     		ldrb	r3, [r3]
 295:ble_process.c **** 							((scan_report.data[scan_report.dataLen-1] == 255) && (dataADVCounter == 0)))
 686              		.loc 1 295 0 discriminator 1
 687 032a FF2B     		cmp	r3, #255
 688 032c 60D1     		bne	.L27
 296:ble_process.c **** 							{
 689              		.loc 1 296 0
 690 032e 204B     		ldr	r3, .L42+60
 691 0330 1B78     		ldrb	r3, [r3]
 692 0332 002B     		cmp	r3, #0
 693 0334 5CD1     		bne	.L27
 694              	.L26:
 298:ble_process.c **** 								/* Potential node found*/
 695              		.loc 1 298 0
 696 0336 294B     		ldr	r3, .L42+104
 697 0338 1800     		movs	r0, r3
 698 033a FFF7FEFF 		bl	UART_UartPutString
 300:ble_process.c **** 								/* Save the advertising peripheral address and type*/
 699              		.loc 1 300 0
 700 033e 284B     		ldr	r3, .L42+108
 701 0340 0122     		movs	r2, #1
 702 0342 1A70     		strb	r2, [r3]
 302:ble_process.c **** 								potential_node_bdAddrType = scan_report.peerAddrType;
 703              		.loc 1 302 0
 704 0344 2C23     		movs	r3, #44
 705 0346 FB18     		adds	r3, r7, r3
 706 0348 5B68     		ldr	r3, [r3, #4]
 707 034a 264A     		ldr	r2, .L42+112
 708 034c 1000     		movs	r0, r2
 709 034e 1900     		movs	r1, r3
 710 0350 0623     		movs	r3, #6
 711 0352 1A00     		movs	r2, r3
 712 0354 FFF7FEFF 		bl	memcpy
 303:ble_process.c **** 								
 713              		.loc 1 303 0
 714 0358 2C23     		movs	r3, #44
 715 035a FB18     		adds	r3, r7, r3
 716 035c 5A78     		ldrb	r2, [r3, #1]
 717 035e 224B     		ldr	r3, .L42+116
 718 0360 1A70     		strb	r2, [r3]
 306:ble_process.c **** 								UART_UartPutCRLF(' ');
 719              		.loc 1 306 0
 720 0362 224B     		ldr	r3, .L42+120
 721 0364 1800     		movs	r0, r3
 722 0366 FFF7FEFF 		bl	UART_UartPutString
ARM GAS  C:\Users\ASUS\AppData\Local\Temp\ccCqJG8V.s 			page 27


 307:ble_process.c **** 								#endif
 723              		.loc 1 307 0
 724 036a 2020     		movs	r0, #32
 725 036c FFF7FEFF 		bl	UART_UartPutCRLF
 726 0370 56E0     		b	.L25
 727              	.L43:
 728 0372 C046     		.align	2
 729              	.L42:
 730 0374 00000000 		.word	.LC0
 731 0378 14000000 		.word	.LC2
 732 037c 00000000 		.word	cyBle_state
 733 0380 00000000 		.word	switch_Role
 734 0384 40000000 		.word	.LC6
 735 0388 58000000 		.word	.LC8
 736 038c 78000000 		.word	.LC10
 737 0390 94000000 		.word	.LC12
 738 0394 B4000000 		.word	.LC14
 739 0398 00000000 		.word	RGBData
 740 039c 00000000 		.word	DEVICE_INDEX
 741 03a0 00000000 		.word	NUM_EXCEEDED_WAITING_TIME
 742 03a4 D4000000 		.word	.LC19
 743 03a8 00000000 		.word	TEXT_BUF
 744 03ac 00000000 		.word	cyBle_connHandle
 745 03b0 00000000 		.word	dataADVCounter
 746 03b4 10010000 		.word	.LC24
 747 03b8 50010000 		.word	.LC26
 748 03bc 68010000 		.word	.LC28
 749 03c0 A0010000 		.word	.LC30
 750 03c4 F4010000 		.word	.LC32
 751 03c8 1C020000 		.word	.LC34
 752 03cc 80020000 		.word	.LC36
 753 03d0 00000000 		.word	new_advData
 754 03d4 DC020000 		.word	.LC39
 755 03d8 4C030000 		.word	.LC41
 756 03dc B4030000 		.word	.LC43
 757 03e0 00000000 		.word	potential_node_found
 758 03e4 00000000 		.word	potential_node_bdAddr
 759 03e8 00000000 		.word	potential_node_bdAddrType
 760 03ec FC030000 		.word	.LC48
 761              	.L27:
 316:ble_process.c **** 								
 762              		.loc 1 316 0
 763 03f0 B84B     		ldr	r3, .L44
 764 03f2 0022     		movs	r2, #0
 765 03f4 1A70     		strb	r2, [r3]
 318:ble_process.c **** 								
 766              		.loc 1 318 0
 767 03f6 B84B     		ldr	r3, .L44+4
 768 03f8 0022     		movs	r2, #0
 769 03fa 1A70     		strb	r2, [r3]
 320:ble_process.c **** 								potential_node_bdAddr[1] = 0x00;
 770              		.loc 1 320 0
 771 03fc B74B     		ldr	r3, .L44+8
 772 03fe 0022     		movs	r2, #0
 773 0400 1A70     		strb	r2, [r3]
 321:ble_process.c **** 								potential_node_bdAddr[2] = 0x00;
 774              		.loc 1 321 0
ARM GAS  C:\Users\ASUS\AppData\Local\Temp\ccCqJG8V.s 			page 28


 775 0402 B64B     		ldr	r3, .L44+8
 776 0404 0022     		movs	r2, #0
 777 0406 5A70     		strb	r2, [r3, #1]
 322:ble_process.c **** 								potential_node_bdAddr[3] = 0x00;
 778              		.loc 1 322 0
 779 0408 B44B     		ldr	r3, .L44+8
 780 040a 0022     		movs	r2, #0
 781 040c 9A70     		strb	r2, [r3, #2]
 323:ble_process.c **** 								potential_node_bdAddr[4] = 0x00;
 782              		.loc 1 323 0
 783 040e B34B     		ldr	r3, .L44+8
 784 0410 0022     		movs	r2, #0
 785 0412 DA70     		strb	r2, [r3, #3]
 324:ble_process.c **** 								potential_node_bdAddr[5] = 0x00;
 786              		.loc 1 324 0
 787 0414 B14B     		ldr	r3, .L44+8
 788 0416 0022     		movs	r2, #0
 789 0418 1A71     		strb	r2, [r3, #4]
 325:ble_process.c **** 							}
 790              		.loc 1 325 0
 791 041a B04B     		ldr	r3, .L44+8
 792 041c 0022     		movs	r2, #0
 793 041e 5A71     		strb	r2, [r3, #5]
 794              	.L25:
 333:ble_process.c **** 				{
 795              		.loc 1 333 0
 796 0420 2C23     		movs	r3, #44
 797 0422 FB18     		adds	r3, r7, r3
 798 0424 1B78     		ldrb	r3, [r3]
 799 0426 042B     		cmp	r3, #4
 800 0428 00D0     		beq	.LCB499
 801 042a 48E1     		b	.L38	@long jump
 802              	.LCB499:
 337:ble_process.c **** 					{
 803              		.loc 1 337 0
 804 042c 2C23     		movs	r3, #44
 805 042e FB18     		adds	r3, r7, r3
 806 0430 1B7A     		ldrb	r3, [r3, #8]
 807 0432 142B     		cmp	r3, #20
 808 0434 00D0     		beq	.LCB504
 809 0436 42E1     		b	.L38	@long jump
 810              	.LCB504:
 343:ble_process.c **** 						{
 811              		.loc 1 343 0
 812 0438 A64B     		ldr	r3, .L44
 813 043a 1B78     		ldrb	r3, [r3]
 814 043c 002B     		cmp	r3, #0
 815 043e 00D1     		bne	.LCB508
 816 0440 3DE1     		b	.L38	@long jump
 817              	.LCB508:
 346:ble_process.c **** 								&& (potential_node_bdAddrType == scan_report.peerAddrType))
 818              		.loc 1 346 0
 819 0442 2C23     		movs	r3, #44
 820 0444 FB18     		adds	r3, r7, r3
 821 0446 5B68     		ldr	r3, [r3, #4]
 822 0448 A449     		ldr	r1, .L44+8
 823 044a 0622     		movs	r2, #6
ARM GAS  C:\Users\ASUS\AppData\Local\Temp\ccCqJG8V.s 			page 29


 824 044c 1800     		movs	r0, r3
 825 044e FFF7FEFF 		bl	memcmp
 826 0452 031E     		subs	r3, r0, #0
 827 0454 00D0     		beq	.LCB518
 828 0456 32E1     		b	.L38	@long jump
 829              	.LCB518:
 347:ble_process.c **** 							{
 830              		.loc 1 347 0
 831 0458 2C23     		movs	r3, #44
 832 045a FB18     		adds	r3, r7, r3
 833 045c 5A78     		ldrb	r2, [r3, #1]
 834 045e 9E4B     		ldr	r3, .L44+4
 835 0460 1B78     		ldrb	r3, [r3]
 836 0462 9A42     		cmp	r2, r3
 837 0464 00D0     		beq	.LCB525
 838 0466 2AE1     		b	.L38	@long jump
 839              	.LCB525:
 352:ble_process.c **** 								{
 840              		.loc 1 352 0
 841 0468 2C23     		movs	r3, #44
 842 046a FB18     		adds	r3, r7, r3
 843 046c D868     		ldr	r0, [r3, #12]
 844 046e 2C23     		movs	r3, #44
 845 0470 FB18     		adds	r3, r7, r3
 846 0472 1B7A     		ldrb	r3, [r3, #8]
 847 0474 1A00     		movs	r2, r3
 848 0476 9A4B     		ldr	r3, .L44+12
 849 0478 1900     		movs	r1, r3
 850 047a FFF7FEFF 		bl	memcmp
 851 047e 031E     		subs	r3, r0, #0
 852 0480 00D0     		beq	.LCB538
 853 0482 1CE1     		b	.L38	@long jump
 854              	.LCB538:
 355:ble_process.c **** 									UART_UartPutCRLF(' ');
 855              		.loc 1 355 0
 856 0484 974B     		ldr	r3, .L44+16
 857 0486 1800     		movs	r0, r3
 858 0488 FFF7FEFF 		bl	UART_UartPutString
 356:ble_process.c **** 									#endif
 859              		.loc 1 356 0
 860 048c 2020     		movs	r0, #32
 861 048e FFF7FEFF 		bl	UART_UartPutCRLF
 359:ble_process.c **** 									#ifdef DEBUG_ENABLED
 862              		.loc 1 359 0
 863 0492 FFF7FEFF 		bl	CyBle_GapcStopScan
 361:ble_process.c **** 									UART_UartPutCRLF(' ');
 864              		.loc 1 361 0
 865 0496 944B     		ldr	r3, .L44+20
 866 0498 1800     		movs	r0, r3
 867 049a FFF7FEFF 		bl	UART_UartPutString
 362:ble_process.c **** 									#endif
 868              		.loc 1 362 0
 869 049e 2020     		movs	r0, #32
 870 04a0 FFF7FEFF 		bl	UART_UartPutCRLF
 366:ble_process.c **** 									peripAddr.bdAddr[0] = scan_report.peerBdAddr[0];
 871              		.loc 1 366 0
 872 04a4 2C23     		movs	r3, #44
ARM GAS  C:\Users\ASUS\AppData\Local\Temp\ccCqJG8V.s 			page 30


 873 04a6 FB18     		adds	r3, r7, r3
 874 04a8 5A78     		ldrb	r2, [r3, #1]
 875 04aa 904B     		ldr	r3, .L44+24
 876 04ac 9A71     		strb	r2, [r3, #6]
 367:ble_process.c **** 									peripAddr.bdAddr[1] = scan_report.peerBdAddr[1];
 877              		.loc 1 367 0
 878 04ae 2C23     		movs	r3, #44
 879 04b0 FB18     		adds	r3, r7, r3
 880 04b2 5B68     		ldr	r3, [r3, #4]
 881 04b4 1A78     		ldrb	r2, [r3]
 882 04b6 8D4B     		ldr	r3, .L44+24
 883 04b8 1A70     		strb	r2, [r3]
 368:ble_process.c **** 									peripAddr.bdAddr[2] = scan_report.peerBdAddr[2];
 884              		.loc 1 368 0
 885 04ba 2C23     		movs	r3, #44
 886 04bc FB18     		adds	r3, r7, r3
 887 04be 5B68     		ldr	r3, [r3, #4]
 888 04c0 5A78     		ldrb	r2, [r3, #1]
 889 04c2 8A4B     		ldr	r3, .L44+24
 890 04c4 5A70     		strb	r2, [r3, #1]
 369:ble_process.c **** 									peripAddr.bdAddr[3] = scan_report.peerBdAddr[3];
 891              		.loc 1 369 0
 892 04c6 2C23     		movs	r3, #44
 893 04c8 FB18     		adds	r3, r7, r3
 894 04ca 5B68     		ldr	r3, [r3, #4]
 895 04cc 9A78     		ldrb	r2, [r3, #2]
 896 04ce 874B     		ldr	r3, .L44+24
 897 04d0 9A70     		strb	r2, [r3, #2]
 370:ble_process.c **** 									peripAddr.bdAddr[4] = scan_report.peerBdAddr[4];
 898              		.loc 1 370 0
 899 04d2 2C23     		movs	r3, #44
 900 04d4 FB18     		adds	r3, r7, r3
 901 04d6 5B68     		ldr	r3, [r3, #4]
 902 04d8 DA78     		ldrb	r2, [r3, #3]
 903 04da 844B     		ldr	r3, .L44+24
 904 04dc DA70     		strb	r2, [r3, #3]
 371:ble_process.c **** 									peripAddr.bdAddr[5] = scan_report.peerBdAddr[5];
 905              		.loc 1 371 0
 906 04de 2C23     		movs	r3, #44
 907 04e0 FB18     		adds	r3, r7, r3
 908 04e2 5B68     		ldr	r3, [r3, #4]
 909 04e4 1A79     		ldrb	r2, [r3, #4]
 910 04e6 814B     		ldr	r3, .L44+24
 911 04e8 1A71     		strb	r2, [r3, #4]
 372:ble_process.c **** 
 912              		.loc 1 372 0
 913 04ea 2C23     		movs	r3, #44
 914 04ec FB18     		adds	r3, r7, r3
 915 04ee 5B68     		ldr	r3, [r3, #4]
 916 04f0 5A79     		ldrb	r2, [r3, #5]
 917 04f2 7E4B     		ldr	r3, .L44+24
 918 04f4 5A71     		strb	r2, [r3, #5]
 376:ble_process.c **** 									
 919              		.loc 1 376 0
 920 04f6 7E4B     		ldr	r3, .L44+28
 921 04f8 0122     		movs	r2, #1
 922 04fa 1A70     		strb	r2, [r3]
ARM GAS  C:\Users\ASUS\AppData\Local\Temp\ccCqJG8V.s 			page 31


 380:ble_process.c **** 									#endif
 923              		.loc 1 380 0
 924 04fc 754B     		ldr	r3, .L44
 925 04fe 0022     		movs	r2, #0
 926 0500 1A70     		strb	r2, [r3]
 391:ble_process.c **** 			
 927              		.loc 1 391 0
 928 0502 DCE0     		b	.L38
 929              	.L9:
 395:ble_process.c **** 			{
 930              		.loc 1 395 0
 931 0504 7B4B     		ldr	r3, .L44+32
 932 0506 1B78     		ldrb	r3, [r3]
 933 0508 022B     		cmp	r3, #2
 934 050a 00D0     		beq	.LCB604
 935 050c D9E0     		b	.L39	@long jump
 936              	.LCB604:
 937              	.LBB2:
 411:ble_process.c **** 					
 938              		.loc 1 411 0
 939 050e 7A4B     		ldr	r3, .L44+36
 940 0510 0122     		movs	r2, #1
 941 0512 1A70     		strb	r2, [r3]
 414:ble_process.c **** 						SendBLEStatetoUART(CyBle_GetState());
 942              		.loc 1 414 0
 943 0514 794B     		ldr	r3, .L44+40
 944 0516 1800     		movs	r0, r3
 945 0518 FFF7FEFF 		bl	UART_UartPutString
 415:ble_process.c **** 						UART_UartPutCRLF(' ');
 946              		.loc 1 415 0
 947 051c 784B     		ldr	r3, .L44+44
 948 051e 1B78     		ldrb	r3, [r3]
 949 0520 1800     		movs	r0, r3
 950 0522 FFF7FEFF 		bl	SendBLEStatetoUART
 416:ble_process.c **** 					#endif
 951              		.loc 1 416 0
 952 0526 2020     		movs	r0, #32
 953 0528 FFF7FEFF 		bl	UART_UartPutCRLF
 420:ble_process.c **** 					writeADVcounterdata.value.val = &dataADVCounter;
 954              		.loc 1 420 0
 955 052c 4023     		movs	r3, #64
 956 052e FB18     		adds	r3, r7, r3
 957 0530 1122     		movs	r2, #17
 958 0532 1A81     		strh	r2, [r3, #8]
 421:ble_process.c **** 					writeADVcounterdata.value.len = 1;
 959              		.loc 1 421 0
 960 0534 4023     		movs	r3, #64
 961 0536 FB18     		adds	r3, r7, r3
 962 0538 724A     		ldr	r2, .L44+48
 963 053a 1A60     		str	r2, [r3]
 422:ble_process.c **** 					CyBle_GattcWriteWithoutResponse(cyBle_connHandle, &writeADVcounterdata);
 964              		.loc 1 422 0
 965 053c 4023     		movs	r3, #64
 966 053e FB18     		adds	r3, r7, r3
 967 0540 0122     		movs	r2, #1
 968 0542 9A80     		strh	r2, [r3, #4]
 423:ble_process.c **** 				    
ARM GAS  C:\Users\ASUS\AppData\Local\Temp\ccCqJG8V.s 			page 32


 969              		.loc 1 423 0
 970 0544 4023     		movs	r3, #64
 971 0546 F918     		adds	r1, r7, r3
 972 0548 6F4B     		ldr	r3, .L44+52
 973 054a 1A78     		ldrb	r2, [r3]
 974 054c 5B78     		ldrb	r3, [r3, #1]
 975 054e 1B02     		lsls	r3, r3, #8
 976 0550 1A43     		orrs	r2, r3
 977 0552 0023     		movs	r3, #0
 978 0554 1204     		lsls	r2, r2, #16
 979 0556 120C     		lsrs	r2, r2, #16
 980 0558 1B0C     		lsrs	r3, r3, #16
 981 055a 1B04     		lsls	r3, r3, #16
 982 055c 1343     		orrs	r3, r2
 983 055e 1800     		movs	r0, r3
 984 0560 FFF7FEFF 		bl	CyBle_GattcWriteWithoutResponse
 426:ble_process.c ****                     
 985              		.loc 1 426 0
 986 0564 0823     		movs	r3, #8
 987 0566 FA18     		adds	r2, r7, r3
 988 0568 684B     		ldr	r3, .L44+56
 989 056a 1000     		movs	r0, r2
 990 056c 1900     		movs	r1, r3
 991 056e 0423     		movs	r3, #4
 992 0570 1A00     		movs	r2, r3
 993 0572 FFF7FEFF 		bl	memcpy
 429:ble_process.c ****                     {
 994              		.loc 1 429 0
 995 0576 664B     		ldr	r3, .L44+60
 996 0578 1B68     		ldr	r3, [r3]
 997 057a 002B     		cmp	r3, #0
 998 057c 04D1     		bne	.L29
 432:ble_process.c ****                     }
 999              		.loc 1 432 0
 1000 057e 5F23     		movs	r3, #95
 1001 0580 FB18     		adds	r3, r7, r3
 1002 0582 FF22     		movs	r2, #255
 1003 0584 1A70     		strb	r2, [r3]
 1004 0586 03E0     		b	.L30
 1005              	.L29:
 436:ble_process.c ****                     }
 1006              		.loc 1 436 0
 1007 0588 5F23     		movs	r3, #95
 1008 058a FB18     		adds	r3, r7, r3
 1009 058c FF22     		movs	r2, #255
 1010 058e 1A70     		strb	r2, [r3]
 1011              	.L30:
 438:ble_process.c ****                     
 1012              		.loc 1 438 0
 1013 0590 0823     		movs	r3, #8
 1014 0592 FB18     		adds	r3, r7, r3
 1015 0594 5F22     		movs	r2, #95
 1016 0596 BA18     		adds	r2, r7, r2
 1017 0598 1278     		ldrb	r2, [r2]
 1018 059a 1A71     		strb	r2, [r3, #4]
 441:ble_process.c **** 					writeRGBdata.value.val = RGBData2;
 1019              		.loc 1 441 0
ARM GAS  C:\Users\ASUS\AppData\Local\Temp\ccCqJG8V.s 			page 33


 1020 059c 1023     		movs	r3, #16
 1021 059e FB18     		adds	r3, r7, r3
 1022 05a0 0E22     		movs	r2, #14
 1023 05a2 1A81     		strh	r2, [r3, #8]
 442:ble_process.c **** 					writeRGBdata.value.len = RGB_LED_DATA_LEN + 1;
 1024              		.loc 1 442 0
 1025 05a4 1023     		movs	r3, #16
 1026 05a6 FB18     		adds	r3, r7, r3
 1027 05a8 0822     		movs	r2, #8
 1028 05aa BA18     		adds	r2, r7, r2
 1029 05ac 1A60     		str	r2, [r3]
 443:ble_process.c **** 					CyBle_GattcWriteCharacteristicValue(cyBle_connHandle, &writeRGBdata);
 1030              		.loc 1 443 0
 1031 05ae 1023     		movs	r3, #16
 1032 05b0 FB18     		adds	r3, r7, r3
 1033 05b2 0522     		movs	r2, #5
 1034 05b4 9A80     		strh	r2, [r3, #4]
 444:ble_process.c **** 				#endif
 1035              		.loc 1 444 0
 1036 05b6 1023     		movs	r3, #16
 1037 05b8 F918     		adds	r1, r7, r3
 1038 05ba 534B     		ldr	r3, .L44+52
 1039 05bc 1A78     		ldrb	r2, [r3]
 1040 05be 5B78     		ldrb	r3, [r3, #1]
 1041 05c0 1B02     		lsls	r3, r3, #8
 1042 05c2 1A43     		orrs	r2, r3
 1043 05c4 0023     		movs	r3, #0
 1044 05c6 1204     		lsls	r2, r2, #16
 1045 05c8 120C     		lsrs	r2, r2, #16
 1046 05ca 1B0C     		lsrs	r3, r3, #16
 1047 05cc 1B04     		lsls	r3, r3, #16
 1048 05ce 1343     		orrs	r3, r2
 1049 05d0 1800     		movs	r0, r3
 1050 05d2 FFF7FEFF 		bl	CyBle_GattcWriteCharacteristicValue
 1051              	.LBE2:
 447:ble_process.c **** 			
 1052              		.loc 1 447 0
 1053 05d6 74E0     		b	.L39
 1054              	.L16:
 479:ble_process.c **** 				SendBLEStatetoUART(CyBle_GetState());
 1055              		.loc 1 479 0
 1056 05d8 4E4B     		ldr	r3, .L44+64
 1057 05da 1800     		movs	r0, r3
 1058 05dc FFF7FEFF 		bl	UART_UartPutString
 480:ble_process.c **** 				UART_UartPutCRLF(' ');
 1059              		.loc 1 480 0
 1060 05e0 474B     		ldr	r3, .L44+44
 1061 05e2 1B78     		ldrb	r3, [r3]
 1062 05e4 1800     		movs	r0, r3
 1063 05e6 FFF7FEFF 		bl	SendBLEStatetoUART
 481:ble_process.c **** 			#endif
 1064              		.loc 1 481 0
 1065 05ea 2020     		movs	r0, #32
 1066 05ec FFF7FEFF 		bl	UART_UartPutCRLF
 485:ble_process.c **** 			{
 1067              		.loc 1 485 0
 1068 05f0 454B     		ldr	r3, .L44+52
ARM GAS  C:\Users\ASUS\AppData\Local\Temp\ccCqJG8V.s 			page 34


 1069 05f2 1B78     		ldrb	r3, [r3]
 1070 05f4 002B     		cmp	r3, #0
 1071 05f6 66D0     		beq	.L40
 487:ble_process.c **** 				
 1072              		.loc 1 487 0
 1073 05f8 434B     		ldr	r3, .L44+52
 1074 05fa 1B78     		ldrb	r3, [r3]
 1075 05fc 1800     		movs	r0, r3
 1076 05fe FFF7FEFF 		bl	CyBle_GapDisconnect
 489:ble_process.c **** 				#ifdef DEBUG_ENABLED
 1077              		.loc 1 489 0
 1078 0602 454B     		ldr	r3, .L44+68
 1079 0604 0122     		movs	r2, #1
 1080 0606 1A70     		strb	r2, [r3]
 491:ble_process.c **** 				SendBLEStatetoUART(CyBle_GetState());
 1081              		.loc 1 491 0
 1082 0608 444B     		ldr	r3, .L44+72
 1083 060a 1800     		movs	r0, r3
 1084 060c FFF7FEFF 		bl	UART_UartPutString
 492:ble_process.c **** 				UART_UartPutCRLF(' ');
 1085              		.loc 1 492 0
 1086 0610 3B4B     		ldr	r3, .L44+44
 1087 0612 1B78     		ldrb	r3, [r3]
 1088 0614 1800     		movs	r0, r3
 1089 0616 FFF7FEFF 		bl	SendBLEStatetoUART
 493:ble_process.c **** 				#endif
 1090              		.loc 1 493 0
 1091 061a 2020     		movs	r0, #32
 1092 061c FFF7FEFF 		bl	UART_UartPutCRLF
 496:ble_process.c **** 
 1093              		.loc 1 496 0
 1094 0620 51E0     		b	.L40
 1095              	.L10:
 501:ble_process.c **** 			
 1096              		.loc 1 501 0
 1097 0622 354B     		ldr	r3, .L44+36
 1098 0624 0022     		movs	r2, #0
 1099 0626 1A70     		strb	r2, [r3]
 504:ble_process.c **** 				SendBLEStatetoUART(CyBle_GetState());
 1100              		.loc 1 504 0
 1101 0628 3D4B     		ldr	r3, .L44+76
 1102 062a 1800     		movs	r0, r3
 1103 062c FFF7FEFF 		bl	UART_UartPutString
 505:ble_process.c **** 				UART_UartPutCRLF(' ');
 1104              		.loc 1 505 0
 1105 0630 334B     		ldr	r3, .L44+44
 1106 0632 1B78     		ldrb	r3, [r3]
 1107 0634 1800     		movs	r0, r3
 1108 0636 FFF7FEFF 		bl	SendBLEStatetoUART
 506:ble_process.c **** 			#endif
 1109              		.loc 1 506 0
 1110 063a 2020     		movs	r0, #32
 1111 063c FFF7FEFF 		bl	UART_UartPutCRLF
 509:ble_process.c **** 			{
 1112              		.loc 1 509 0
 1113 0640 2C4B     		ldr	r3, .L44+32
 1114 0642 1B78     		ldrb	r3, [r3]
ARM GAS  C:\Users\ASUS\AppData\Local\Temp\ccCqJG8V.s 			page 35


 1115 0644 012B     		cmp	r3, #1
 1116 0646 17D1     		bne	.L32
 509:ble_process.c **** 			{
 1117              		.loc 1 509 0 is_stmt 0 discriminator 1
 1118 0648 364B     		ldr	r3, .L44+80
 1119 064a 1B78     		ldrb	r3, [r3]
 1120 064c 012B     		cmp	r3, #1
 1121 064e 13D0     		beq	.L32
 513:ble_process.c **** 				{
 1122              		.loc 1 513 0 is_stmt 1
 1123 0650 2B4B     		ldr	r3, .L44+44
 1124 0652 1B78     		ldrb	r3, [r3]
 1125 0654 062B     		cmp	r3, #6
 1126 0656 2BD1     		bne	.L34
 515:ble_process.c **** 					#ifdef DEBUG_ENABLED
 1127              		.loc 1 515 0
 1128 0658 0020     		movs	r0, #0
 1129 065a FFF7FEFF 		bl	CyBle_GappStartAdvertisement
 517:ble_process.c **** 					SendBLEStatetoUART(CyBle_GetState());
 1130              		.loc 1 517 0
 1131 065e 324B     		ldr	r3, .L44+84
 1132 0660 1800     		movs	r0, r3
 1133 0662 FFF7FEFF 		bl	UART_UartPutString
 518:ble_process.c **** 					UART_UartPutCRLF(' ');
 1134              		.loc 1 518 0
 1135 0666 264B     		ldr	r3, .L44+44
 1136 0668 1B78     		ldrb	r3, [r3]
 1137 066a 1800     		movs	r0, r3
 1138 066c FFF7FEFF 		bl	SendBLEStatetoUART
 519:ble_process.c **** 					#endif
 1139              		.loc 1 519 0
 1140 0670 2020     		movs	r0, #32
 1141 0672 FFF7FEFF 		bl	UART_UartPutCRLF
 513:ble_process.c **** 				{
 1142              		.loc 1 513 0
 1143 0676 1BE0     		b	.L34
 1144              	.L32:
 523:ble_process.c **** 			{
 1145              		.loc 1 523 0
 1146 0678 1E4B     		ldr	r3, .L44+32
 1147 067a 1B78     		ldrb	r3, [r3]
 1148 067c 022B     		cmp	r3, #2
 1149 067e 24D1     		bne	.L41
 523:ble_process.c **** 			{
 1150              		.loc 1 523 0 is_stmt 0 discriminator 1
 1151 0680 284B     		ldr	r3, .L44+80
 1152 0682 1B78     		ldrb	r3, [r3]
 1153 0684 012B     		cmp	r3, #1
 1154 0686 20D0     		beq	.L41
 527:ble_process.c **** 				{
 1155              		.loc 1 527 0 is_stmt 1
 1156 0688 1D4B     		ldr	r3, .L44+44
 1157 068a 1B78     		ldrb	r3, [r3]
 1158 068c 062B     		cmp	r3, #6
 1159 068e 1CD1     		bne	.L41
 529:ble_process.c **** 					#ifdef DEBUG_ENABLED
 1160              		.loc 1 529 0
ARM GAS  C:\Users\ASUS\AppData\Local\Temp\ccCqJG8V.s 			page 36


 1161 0690 0020     		movs	r0, #0
 1162 0692 FFF7FEFF 		bl	CyBle_GapcStartScan
 531:ble_process.c **** 					SendBLEStatetoUART(CyBle_GetState());
 1163              		.loc 1 531 0
 1164 0696 254B     		ldr	r3, .L44+88
 1165 0698 1800     		movs	r0, r3
 1166 069a FFF7FEFF 		bl	UART_UartPutString
 532:ble_process.c **** 					UART_UartPutCRLF(' ');
 1167              		.loc 1 532 0
 1168 069e 184B     		ldr	r3, .L44+44
 1169 06a0 1B78     		ldrb	r3, [r3]
 1170 06a2 1800     		movs	r0, r3
 1171 06a4 FFF7FEFF 		bl	SendBLEStatetoUART
 533:ble_process.c **** 					#endif
 1172              		.loc 1 533 0
 1173 06a8 2020     		movs	r0, #32
 1174 06aa FFF7FEFF 		bl	UART_UartPutCRLF
 537:ble_process.c **** 			
 1175              		.loc 1 537 0
 1176 06ae 0CE0     		b	.L41
 1177              	.L34:
 537:ble_process.c **** 			
 1178              		.loc 1 537 0 is_stmt 0 discriminator 8
 1179 06b0 0BE0     		b	.L41
 1180              	.L35:
 472:ble_process.c **** 			
 1181              		.loc 1 472 0 is_stmt 1
 1182 06b2 C046     		nop
 1183 06b4 0AE0     		b	.L1
 1184              	.L36:
 108:ble_process.c **** 			
 1185              		.loc 1 108 0
 1186 06b6 C046     		nop
 1187 06b8 08E0     		b	.L1
 1188              	.L37:
 254:ble_process.c **** 		
 1189              		.loc 1 254 0
 1190 06ba C046     		nop
 1191 06bc 06E0     		b	.L1
 1192              	.L38:
 391:ble_process.c **** 			
 1193              		.loc 1 391 0
 1194 06be C046     		nop
 1195 06c0 04E0     		b	.L1
 1196              	.L39:
 447:ble_process.c **** 			
 1197              		.loc 1 447 0
 1198 06c2 C046     		nop
 1199 06c4 02E0     		b	.L1
 1200              	.L40:
 496:ble_process.c **** 
 1201              		.loc 1 496 0
 1202 06c6 C046     		nop
 1203 06c8 00E0     		b	.L1
 1204              	.L41:
 537:ble_process.c **** 			
 1205              		.loc 1 537 0
ARM GAS  C:\Users\ASUS\AppData\Local\Temp\ccCqJG8V.s 			page 37


 1206 06ca C046     		nop
 1207              	.L1:
 542:ble_process.c **** 	}
 543:ble_process.c **** }
 1208              		.loc 1 543 0
 1209 06cc BD46     		mov	sp, r7
 1210 06ce 19B0     		add	sp, sp, #100
 1211              		@ sp needed
 1212 06d0 90BD     		pop	{r4, r7, pc}
 1213              	.L45:
 1214 06d2 C046     		.align	2
 1215              	.L44:
 1216 06d4 00000000 		.word	potential_node_found
 1217 06d8 00000000 		.word	potential_node_bdAddrType
 1218 06dc 00000000 		.word	potential_node_bdAddr
 1219 06e0 00000000 		.word	scan_tag
 1220 06e4 14040000 		.word	.LC51
 1221 06e8 24040000 		.word	.LC53
 1222 06ec 00000000 		.word	peripAddr
 1223 06f0 00000000 		.word	clientConnectToDevice
 1224 06f4 00000000 		.word	ble_gap_state
 1225 06f8 00000000 		.word	deviceConnected
 1226 06fc 38040000 		.word	.LC59
 1227 0700 00000000 		.word	cyBle_state
 1228 0704 00000000 		.word	dataADVCounter
 1229 0708 00000000 		.word	cyBle_connHandle
 1230 070c 00000000 		.word	RGBData
 1231 0710 00000000 		.word	DEVICE_INDEX
 1232 0714 60040000 		.word	.LC61
 1233 0718 00000000 		.word	restartScanning
 1234 071c 7C040000 		.word	.LC64
 1235 0720 A8040000 		.word	.LC66
 1236 0724 00000000 		.word	switch_Role
 1237 0728 40000000 		.word	.LC6
 1238 072c CC040000 		.word	.LC68
 1239              		.cfi_endproc
 1240              	.LFE36:
 1241              		.size	GenericEventHandler, .-GenericEventHandler
 1242              		.section	.rodata
 1243 04de 0000     		.align	2
 1244              	.LC72:
 1245 04e0 50657269 		.ascii	"Peripheral closed connection \000"
 1245      70686572 
 1245      616C2063 
 1245      6C6F7365 
 1245      6420636F 
 1246 04fe 0000     		.align	2
 1247              	.LC76:
 1248 0500 50657269 		.ascii	"Peripheral Advertisment Stopped \000"
 1248      70686572 
 1248      616C2041 
 1248      64766572 
 1248      7469736D 
 1249 0521 000000   		.align	2
 1250              	.LC78:
 1251 0524 53746172 		.ascii	"Start Scan API called \000"
 1251      74205363 
ARM GAS  C:\Users\ASUS\AppData\Local\Temp\ccCqJG8V.s 			page 38


 1251      616E2041 
 1251      50492063 
 1251      616C6C65 
 1252 053b 00       		.align	2
 1253              	.LC82:
 1254 053c 53746172 		.ascii	"Start Scan API failed \000"
 1254      74205363 
 1254      616E2041 
 1254      50492066 
 1254      61696C65 
 1255 0553 00       		.align	2
 1256              	.LC84:
 1257 0554 43656E74 		.ascii	"Central Scan stopped \000"
 1257      72616C20 
 1257      5363616E 
 1257      2073746F 
 1257      70706564 
 1258 056a 0000     		.align	2
 1259              	.LC89:
 1260 056c 55706461 		.ascii	"Updated ADV data = \000"
 1260      74656420 
 1260      41445620 
 1260      64617461 
 1260      203D2000 
 1261              		.align	2
 1262              	.LC92:
 1263 0580 50657269 		.ascii	"Peripheral Advertisment called \000"
 1263      70686572 
 1263      616C2041 
 1263      64766572 
 1263      7469736D 
 1264              		.align	2
 1265              	.LC94:
 1266 05a0 53746172 		.ascii	"Start Peripheral Advertisment Failed \000"
 1266      74205065 
 1266      72697068 
 1266      6572616C 
 1266      20416476 
 1267              		.section	.text.SwitchRole,"ax",%progbits
 1268              		.align	2
 1269              		.global	SwitchRole
 1270              		.code	16
 1271              		.thumb_func
 1272              		.type	SwitchRole, %function
 1273              	SwitchRole:
 1274              	.LFB37:
 544:ble_process.c **** 
 545:ble_process.c **** /*******************************************************************************
 546:ble_process.c **** * Function Name: SwitchRole
 547:ble_process.c **** ********************************************************************************
 548:ble_process.c **** * Summary:
 549:ble_process.c **** *        This function switches the role between Central and Peripheral. If device 
 550:ble_process.c **** * is connected while switching role, then it is first disconnected.
 551:ble_process.c **** *
 552:ble_process.c **** * Parameters:
 553:ble_process.c **** *  void
 554:ble_process.c **** *
ARM GAS  C:\Users\ASUS\AppData\Local\Temp\ccCqJG8V.s 			page 39


 555:ble_process.c **** * Return:
 556:ble_process.c **** *  void
 557:ble_process.c **** *
 558:ble_process.c **** *******************************************************************************/
 559:ble_process.c **** void SwitchRole(void)
 560:ble_process.c **** {
 1275              		.loc 1 560 0
 1276              		.cfi_startproc
 1277              		@ args = 0, pretend = 0, frame = 8
 1278              		@ frame_needed = 1, uses_anonymous_args = 0
 1279 0000 90B5     		push	{r4, r7, lr}
 1280              		.cfi_def_cfa_offset 12
 1281              		.cfi_offset 4, -12
 1282              		.cfi_offset 7, -8
 1283              		.cfi_offset 14, -4
 1284 0002 83B0     		sub	sp, sp, #12
 1285              		.cfi_def_cfa_offset 24
 1286 0004 00AF     		add	r7, sp, #0
 1287              		.cfi_def_cfa_register 7
 561:ble_process.c **** 	CYBLE_API_RESULT_T  apiResult;
 562:ble_process.c **** 	
 563:ble_process.c **** 	/* if the switch role flag is set... */
 564:ble_process.c **** 	if(switch_Role == TRUE)
 1288              		.loc 1 564 0
 1289 0006 684B     		ldr	r3, .L59
 1290 0008 1B78     		ldrb	r3, [r3]
 1291 000a 012B     		cmp	r3, #1
 1292 000c 00D0     		beq	.LCB900
 1293 000e C6E0     		b	.L58	@long jump
 1294              	.LCB900:
 565:ble_process.c **** 	{	
 566:ble_process.c **** 		/* Process pending BLE events */
 567:ble_process.c **** 		CyBle_ProcessEvents();
 1295              		.loc 1 567 0
 1296 0010 FFF7FEFF 		bl	CyBle_ProcessEvents
 568:ble_process.c **** 		
 569:ble_process.c **** 		/* If there is an existing connection, then disconnect before switching
 570:ble_process.c **** 		* role. */
 571:ble_process.c **** 		if((cyBle_connHandle.bdHandle != 0))
 1297              		.loc 1 571 0
 1298 0014 654B     		ldr	r3, .L59+4
 1299 0016 1B78     		ldrb	r3, [r3]
 1300 0018 002B     		cmp	r3, #0
 1301 001a 12D0     		beq	.L48
 572:ble_process.c **** 		{
 573:ble_process.c **** 			/* Disconnect the device and process the event */
 574:ble_process.c **** 			CyBle_GapDisconnect(cyBle_connHandle.bdHandle);
 1302              		.loc 1 574 0
 1303 001c 634B     		ldr	r3, .L59+4
 1304 001e 1B78     		ldrb	r3, [r3]
 1305 0020 1800     		movs	r0, r3
 1306 0022 FFF7FEFF 		bl	CyBle_GapDisconnect
 575:ble_process.c **** 			CyBle_ProcessEvents();
 1307              		.loc 1 575 0
 1308 0026 FFF7FEFF 		bl	CyBle_ProcessEvents
 576:ble_process.c **** 			#ifdef DEBUG_ENABLED
 577:ble_process.c **** 			UART_UartPutString("Peripheral closed connection ");
ARM GAS  C:\Users\ASUS\AppData\Local\Temp\ccCqJG8V.s 			page 40


 1309              		.loc 1 577 0
 1310 002a 614B     		ldr	r3, .L59+8
 1311 002c 1800     		movs	r0, r3
 1312 002e FFF7FEFF 		bl	UART_UartPutString
 578:ble_process.c **** 			SendBLEStatetoUART(CyBle_GetState());
 1313              		.loc 1 578 0
 1314 0032 604B     		ldr	r3, .L59+12
 1315 0034 1B78     		ldrb	r3, [r3]
 1316 0036 1800     		movs	r0, r3
 1317 0038 FFF7FEFF 		bl	SendBLEStatetoUART
 579:ble_process.c **** 			UART_UartPutCRLF(' ');
 1318              		.loc 1 579 0
 1319 003c 2020     		movs	r0, #32
 1320 003e FFF7FEFF 		bl	UART_UartPutCRLF
 1321              	.L48:
 580:ble_process.c **** 			#endif
 581:ble_process.c **** 		}		
 582:ble_process.c **** 		
 583:ble_process.c **** 		switch(ble_gap_state)
 1322              		.loc 1 583 0
 1323 0042 5D4B     		ldr	r3, .L59+16
 1324 0044 1B78     		ldrb	r3, [r3]
 1325 0046 012B     		cmp	r3, #1
 1326 0048 02D0     		beq	.L50
 1327 004a 022B     		cmp	r3, #2
 1328 004c 4CD0     		beq	.L51
 584:ble_process.c **** 		{
 585:ble_process.c **** 			case BLE_PERIPHERAL:
 586:ble_process.c **** 				/* If the current role is Peripheral and system is advertising,
 587:ble_process.c **** 				* then stop advertisement before switching role */
 588:ble_process.c **** 				if(CyBle_GetState() == CYBLE_STATE_ADVERTISING)
 589:ble_process.c **** 				{
 590:ble_process.c **** 					CyBle_GappStopAdvertisement();
 591:ble_process.c **** 					CyBle_ProcessEvents();
 592:ble_process.c **** 
 593:ble_process.c **** 					#ifdef DEBUG_ENABLED
 594:ble_process.c **** 						UART_UartPutString("Peripheral Advertisment Stopped ");
 595:ble_process.c **** 						SendBLEStatetoUART(CyBle_GetState());
 596:ble_process.c **** 						UART_UartPutCRLF(' ');
 597:ble_process.c **** 					#endif
 598:ble_process.c **** 				}
 599:ble_process.c **** 				
 600:ble_process.c **** 				if(CyBle_GetState() == CYBLE_STATE_DISCONNECTED)
 601:ble_process.c **** 				{
 602:ble_process.c **** 					/* Switch BLE role by starting scan. This way, the system is set
 603:ble_process.c **** 					* to Central role */
 604:ble_process.c **** 					apiResult = CyBle_GapcStartScan(CYBLE_SCANNING_FAST);
 605:ble_process.c **** 					
 606:ble_process.c **** 					if(CYBLE_ERROR_OK == apiResult)
 607:ble_process.c **** 					{
 608:ble_process.c **** 						#ifdef DEBUG_ENABLED
 609:ble_process.c **** 						UART_UartPutString("Start Scan API called ");
 610:ble_process.c **** 						SendBLEStatetoUART(CyBle_GetState());
 611:ble_process.c **** 						UART_UartPutCRLF(' ');
 612:ble_process.c **** 						#endif
 613:ble_process.c **** 						
 614:ble_process.c **** 						/* Record the time at which Central role was started. This will be 
ARM GAS  C:\Users\ASUS\AppData\Local\Temp\ccCqJG8V.s 			page 41


 615:ble_process.c **** 						* used for timeout and switching to Peripheral operation*/
 616:ble_process.c **** 						centralStartedTime = WatchDog_CurrentCount();
 617:ble_process.c **** 						
 618:ble_process.c **** 						/* Update the current BLE role to Central */
 619:ble_process.c **** 						ble_gap_state = BLE_CENTRAL;
 620:ble_process.c **** 						
 621:ble_process.c **** 						/* Reset the switch role flag*/
 622:ble_process.c **** 						switch_Role = FALSE;
 623:ble_process.c **** 					}
 624:ble_process.c **** 					else
 625:ble_process.c **** 					{
 626:ble_process.c **** 						/* If scanning did not start, maintain the current role and retry later */
 627:ble_process.c **** 						ble_gap_state = BLE_PERIPHERAL;
 628:ble_process.c **** 						
 629:ble_process.c **** 						#ifdef DEBUG_ENABLED
 630:ble_process.c **** 						UART_UartPutString("Start Scan API failed ");
 631:ble_process.c **** 						SendBLEStatetoUART(CyBle_GetState());
 632:ble_process.c **** 						UART_UartPutCRLF(' ');
 633:ble_process.c **** 						#endif
 634:ble_process.c **** 					}
 635:ble_process.c **** 				}
 636:ble_process.c **** 				
 637:ble_process.c **** 				/* Process Pending BLE Events */
 638:ble_process.c **** 				CyBle_ProcessEvents();
 639:ble_process.c **** 				
 640:ble_process.c **** 			break;
 641:ble_process.c **** 			
 642:ble_process.c **** 			case BLE_CENTRAL:
 643:ble_process.c **** 				/* If the current role is Central and system is scanning,
 644:ble_process.c **** 				* then stop scanning before switching role */
 645:ble_process.c **** 				if(CyBle_GetState() == CYBLE_STATE_SCANNING)
 646:ble_process.c **** 				{
 647:ble_process.c **** 					CyBle_GapcStopScan();
 648:ble_process.c **** 					CyBle_ProcessEvents();
 649:ble_process.c **** 					
 650:ble_process.c **** 					#ifdef DEBUG_ENABLED
 651:ble_process.c **** 						UART_UartPutString("Central Scan stopped ");
 652:ble_process.c **** 						UART_UartPutCRLF(' ');
 653:ble_process.c **** 					#endif
 654:ble_process.c **** 				}
 655:ble_process.c **** 				
 656:ble_process.c **** 				if(CyBle_GetState() == CYBLE_STATE_DISCONNECTED)
 657:ble_process.c **** 				{
 658:ble_process.c **** 					#ifdef ENABLE_ADV_DATA_COUNTER
 659:ble_process.c **** 					/* Increment data counter */
 660:ble_process.c **** 					new_advData.advData[new_advData.advDataLen - 1] = dataADVCounter;
 661:ble_process.c **** 					
 662:ble_process.c **** 					cyBle_discoveryModeInfo.advData = &new_advData;
 663:ble_process.c **** 					
 664:ble_process.c **** 					#ifdef DEBUG_ENABLED
 665:ble_process.c **** 						UART_UartPutString("Updated ADV data = ");
 666:ble_process.c **** 						PrintNum(dataADVCounter);
 667:ble_process.c **** 						UART_UartPutCRLF(' ');
 668:ble_process.c **** 					#endif
 669:ble_process.c **** 					#endif
 670:ble_process.c **** 					
 671:ble_process.c **** 					/* Switch BLE role by starting advertisement. This way, the system is 
ARM GAS  C:\Users\ASUS\AppData\Local\Temp\ccCqJG8V.s 			page 42


 672:ble_process.c **** 					* set to Peripheral role */
 673:ble_process.c **** 					apiResult = CyBle_GappStartAdvertisement(CYBLE_ADVERTISING_FAST);
 674:ble_process.c **** 					
 675:ble_process.c **** 					if(apiResult == CYBLE_ERROR_OK)
 676:ble_process.c **** 					{
 677:ble_process.c **** 						/* If advertisement started successfully, set the BLE state and
 678:ble_process.c **** 						* reset the switch role flag*/
 679:ble_process.c **** 						ble_gap_state = BLE_PERIPHERAL;
 680:ble_process.c **** 						clientConnectToDevice = FALSE;	
 681:ble_process.c **** 						switch_Role = FALSE;
 682:ble_process.c **** 						
 683:ble_process.c **** 						#ifdef DEBUG_ENABLED
 684:ble_process.c **** 						UART_UartPutString("Peripheral Advertisment called ");
 685:ble_process.c **** 						SendBLEStatetoUART(CyBle_GetState());
 686:ble_process.c **** 						UART_UartPutCRLF(' ');
 687:ble_process.c **** 						#endif
 688:ble_process.c **** 					}
 689:ble_process.c **** 					else
 690:ble_process.c **** 					{
 691:ble_process.c **** 						/* If advertisement did not start, maintain the current role and retry later */
 692:ble_process.c **** 						ble_gap_state = BLE_CENTRAL;
 693:ble_process.c **** 						
 694:ble_process.c **** 						#ifdef DEBUG_ENABLED
 695:ble_process.c **** 						UART_UartPutString("Start Peripheral Advertisment Failed ");
 696:ble_process.c **** 						SendBLEStatetoUART(CyBle_GetState());
 697:ble_process.c **** 						UART_UartPutCRLF(' ');
 698:ble_process.c **** 						#endif					
 699:ble_process.c **** 					}
 700:ble_process.c **** 				}
 701:ble_process.c **** 				
 702:ble_process.c **** 				/* Process Pending BLE Events */
 703:ble_process.c **** 				CyBle_ProcessEvents();
 704:ble_process.c **** 			break;
 705:ble_process.c **** 			
 706:ble_process.c **** 			default:
 707:ble_process.c **** 			
 708:ble_process.c **** 			break;
 1329              		.loc 1 708 0
 1330 004e A6E0     		b	.L47
 1331              	.L50:
 588:ble_process.c **** 				{
 1332              		.loc 1 588 0
 1333 0050 584B     		ldr	r3, .L59+12
 1334 0052 1B78     		ldrb	r3, [r3]
 1335 0054 032B     		cmp	r3, #3
 1336 0056 0FD1     		bne	.L52
 590:ble_process.c **** 					CyBle_ProcessEvents();
 1337              		.loc 1 590 0
 1338 0058 FFF7FEFF 		bl	CyBle_GappStopAdvertisement
 591:ble_process.c **** 
 1339              		.loc 1 591 0
 1340 005c FFF7FEFF 		bl	CyBle_ProcessEvents
 594:ble_process.c **** 						SendBLEStatetoUART(CyBle_GetState());
 1341              		.loc 1 594 0
 1342 0060 564B     		ldr	r3, .L59+20
 1343 0062 1800     		movs	r0, r3
 1344 0064 FFF7FEFF 		bl	UART_UartPutString
ARM GAS  C:\Users\ASUS\AppData\Local\Temp\ccCqJG8V.s 			page 43


 595:ble_process.c **** 						UART_UartPutCRLF(' ');
 1345              		.loc 1 595 0
 1346 0068 524B     		ldr	r3, .L59+12
 1347 006a 1B78     		ldrb	r3, [r3]
 1348 006c 1800     		movs	r0, r3
 1349 006e FFF7FEFF 		bl	SendBLEStatetoUART
 596:ble_process.c **** 					#endif
 1350              		.loc 1 596 0
 1351 0072 2020     		movs	r0, #32
 1352 0074 FFF7FEFF 		bl	UART_UartPutCRLF
 1353              	.L52:
 600:ble_process.c **** 				{
 1354              		.loc 1 600 0
 1355 0078 4E4B     		ldr	r3, .L59+12
 1356 007a 1B78     		ldrb	r3, [r3]
 1357 007c 062B     		cmp	r3, #6
 1358 007e 30D1     		bne	.L53
 604:ble_process.c **** 					
 1359              		.loc 1 604 0
 1360 0080 BC1D     		adds	r4, r7, #6
 1361 0082 0020     		movs	r0, #0
 1362 0084 FFF7FEFF 		bl	CyBle_GapcStartScan
 1363 0088 0300     		movs	r3, r0
 1364 008a 2380     		strh	r3, [r4]
 606:ble_process.c **** 					{
 1365              		.loc 1 606 0
 1366 008c BB1D     		adds	r3, r7, #6
 1367 008e 1B88     		ldrh	r3, [r3]
 1368 0090 002B     		cmp	r3, #0
 1369 0092 17D1     		bne	.L54
 609:ble_process.c **** 						SendBLEStatetoUART(CyBle_GetState());
 1370              		.loc 1 609 0
 1371 0094 4A4B     		ldr	r3, .L59+24
 1372 0096 1800     		movs	r0, r3
 1373 0098 FFF7FEFF 		bl	UART_UartPutString
 610:ble_process.c **** 						UART_UartPutCRLF(' ');
 1374              		.loc 1 610 0
 1375 009c 454B     		ldr	r3, .L59+12
 1376 009e 1B78     		ldrb	r3, [r3]
 1377 00a0 1800     		movs	r0, r3
 1378 00a2 FFF7FEFF 		bl	SendBLEStatetoUART
 611:ble_process.c **** 						#endif
 1379              		.loc 1 611 0
 1380 00a6 2020     		movs	r0, #32
 1381 00a8 FFF7FEFF 		bl	UART_UartPutCRLF
 616:ble_process.c **** 						
 1382              		.loc 1 616 0
 1383 00ac 454B     		ldr	r3, .L59+28
 1384 00ae 1B88     		ldrh	r3, [r3]
 1385 00b0 9AB2     		uxth	r2, r3
 1386 00b2 454B     		ldr	r3, .L59+32
 1387 00b4 1A80     		strh	r2, [r3]
 619:ble_process.c **** 						
 1388              		.loc 1 619 0
 1389 00b6 404B     		ldr	r3, .L59+16
 1390 00b8 0222     		movs	r2, #2
 1391 00ba 1A70     		strb	r2, [r3]
ARM GAS  C:\Users\ASUS\AppData\Local\Temp\ccCqJG8V.s 			page 44


 622:ble_process.c **** 					}
 1392              		.loc 1 622 0
 1393 00bc 3A4B     		ldr	r3, .L59
 1394 00be 0022     		movs	r2, #0
 1395 00c0 1A70     		strb	r2, [r3]
 1396 00c2 0EE0     		b	.L53
 1397              	.L54:
 627:ble_process.c **** 						
 1398              		.loc 1 627 0
 1399 00c4 3C4B     		ldr	r3, .L59+16
 1400 00c6 0122     		movs	r2, #1
 1401 00c8 1A70     		strb	r2, [r3]
 630:ble_process.c **** 						SendBLEStatetoUART(CyBle_GetState());
 1402              		.loc 1 630 0
 1403 00ca 404B     		ldr	r3, .L59+36
 1404 00cc 1800     		movs	r0, r3
 1405 00ce FFF7FEFF 		bl	UART_UartPutString
 631:ble_process.c **** 						UART_UartPutCRLF(' ');
 1406              		.loc 1 631 0
 1407 00d2 384B     		ldr	r3, .L59+12
 1408 00d4 1B78     		ldrb	r3, [r3]
 1409 00d6 1800     		movs	r0, r3
 1410 00d8 FFF7FEFF 		bl	SendBLEStatetoUART
 632:ble_process.c **** 						#endif
 1411              		.loc 1 632 0
 1412 00dc 2020     		movs	r0, #32
 1413 00de FFF7FEFF 		bl	UART_UartPutCRLF
 1414              	.L53:
 638:ble_process.c **** 				
 1415              		.loc 1 638 0
 1416 00e2 FFF7FEFF 		bl	CyBle_ProcessEvents
 640:ble_process.c **** 			
 1417              		.loc 1 640 0
 1418 00e6 5AE0     		b	.L47
 1419              	.L51:
 645:ble_process.c **** 				{
 1420              		.loc 1 645 0
 1421 00e8 324B     		ldr	r3, .L59+12
 1422 00ea 1B78     		ldrb	r3, [r3]
 1423 00ec 042B     		cmp	r3, #4
 1424 00ee 0AD1     		bne	.L55
 647:ble_process.c **** 					CyBle_ProcessEvents();
 1425              		.loc 1 647 0
 1426 00f0 FFF7FEFF 		bl	CyBle_GapcStopScan
 648:ble_process.c **** 					
 1427              		.loc 1 648 0
 1428 00f4 FFF7FEFF 		bl	CyBle_ProcessEvents
 651:ble_process.c **** 						UART_UartPutCRLF(' ');
 1429              		.loc 1 651 0
 1430 00f8 354B     		ldr	r3, .L59+40
 1431 00fa 1800     		movs	r0, r3
 1432 00fc FFF7FEFF 		bl	UART_UartPutString
 652:ble_process.c **** 					#endif
 1433              		.loc 1 652 0
 1434 0100 2020     		movs	r0, #32
 1435 0102 FFF7FEFF 		bl	UART_UartPutCRLF
 1436              	.L55:
ARM GAS  C:\Users\ASUS\AppData\Local\Temp\ccCqJG8V.s 			page 45


 656:ble_process.c **** 				{
 1437              		.loc 1 656 0
 1438 0106 2B4B     		ldr	r3, .L59+12
 1439 0108 1B78     		ldrb	r3, [r3]
 1440 010a 062B     		cmp	r3, #6
 1441 010c 44D1     		bne	.L56
 660:ble_process.c **** 					
 1442              		.loc 1 660 0
 1443 010e 314B     		ldr	r3, .L59+44
 1444 0110 DB7F     		ldrb	r3, [r3, #31]
 1445 0112 013B     		subs	r3, r3, #1
 1446 0114 304A     		ldr	r2, .L59+48
 1447 0116 1178     		ldrb	r1, [r2]
 1448 0118 2E4A     		ldr	r2, .L59+44
 1449 011a D154     		strb	r1, [r2, r3]
 662:ble_process.c **** 					
 1450              		.loc 1 662 0
 1451 011c 2F4B     		ldr	r3, .L59+52
 1452 011e 2D4A     		ldr	r2, .L59+44
 1453 0120 9A60     		str	r2, [r3, #8]
 665:ble_process.c **** 						PrintNum(dataADVCounter);
 1454              		.loc 1 665 0
 1455 0122 2F4B     		ldr	r3, .L59+56
 1456 0124 1800     		movs	r0, r3
 1457 0126 FFF7FEFF 		bl	UART_UartPutString
 666:ble_process.c **** 						UART_UartPutCRLF(' ');
 1458              		.loc 1 666 0
 1459 012a 2B4B     		ldr	r3, .L59+48
 1460 012c 1B78     		ldrb	r3, [r3]
 1461 012e 1800     		movs	r0, r3
 1462 0130 FFF7FEFF 		bl	PrintNum
 667:ble_process.c **** 					#endif
 1463              		.loc 1 667 0
 1464 0134 2020     		movs	r0, #32
 1465 0136 FFF7FEFF 		bl	UART_UartPutCRLF
 673:ble_process.c **** 					
 1466              		.loc 1 673 0
 1467 013a BC1D     		adds	r4, r7, #6
 1468 013c 0020     		movs	r0, #0
 1469 013e FFF7FEFF 		bl	CyBle_GappStartAdvertisement
 1470 0142 0300     		movs	r3, r0
 1471 0144 2380     		strh	r3, [r4]
 675:ble_process.c **** 					{
 1472              		.loc 1 675 0
 1473 0146 BB1D     		adds	r3, r7, #6
 1474 0148 1B88     		ldrh	r3, [r3]
 1475 014a 002B     		cmp	r3, #0
 1476 014c 15D1     		bne	.L57
 679:ble_process.c **** 						clientConnectToDevice = FALSE;	
 1477              		.loc 1 679 0
 1478 014e 1A4B     		ldr	r3, .L59+16
 1479 0150 0122     		movs	r2, #1
 1480 0152 1A70     		strb	r2, [r3]
 680:ble_process.c **** 						switch_Role = FALSE;
 1481              		.loc 1 680 0
 1482 0154 234B     		ldr	r3, .L59+60
 1483 0156 0022     		movs	r2, #0
ARM GAS  C:\Users\ASUS\AppData\Local\Temp\ccCqJG8V.s 			page 46


 1484 0158 1A70     		strb	r2, [r3]
 681:ble_process.c **** 						
 1485              		.loc 1 681 0
 1486 015a 134B     		ldr	r3, .L59
 1487 015c 0022     		movs	r2, #0
 1488 015e 1A70     		strb	r2, [r3]
 684:ble_process.c **** 						SendBLEStatetoUART(CyBle_GetState());
 1489              		.loc 1 684 0
 1490 0160 214B     		ldr	r3, .L59+64
 1491 0162 1800     		movs	r0, r3
 1492 0164 FFF7FEFF 		bl	UART_UartPutString
 685:ble_process.c **** 						UART_UartPutCRLF(' ');
 1493              		.loc 1 685 0
 1494 0168 124B     		ldr	r3, .L59+12
 1495 016a 1B78     		ldrb	r3, [r3]
 1496 016c 1800     		movs	r0, r3
 1497 016e FFF7FEFF 		bl	SendBLEStatetoUART
 686:ble_process.c **** 						#endif
 1498              		.loc 1 686 0
 1499 0172 2020     		movs	r0, #32
 1500 0174 FFF7FEFF 		bl	UART_UartPutCRLF
 1501 0178 0EE0     		b	.L56
 1502              	.L57:
 692:ble_process.c **** 						
 1503              		.loc 1 692 0
 1504 017a 0F4B     		ldr	r3, .L59+16
 1505 017c 0222     		movs	r2, #2
 1506 017e 1A70     		strb	r2, [r3]
 695:ble_process.c **** 						SendBLEStatetoUART(CyBle_GetState());
 1507              		.loc 1 695 0
 1508 0180 1A4B     		ldr	r3, .L59+68
 1509 0182 1800     		movs	r0, r3
 1510 0184 FFF7FEFF 		bl	UART_UartPutString
 696:ble_process.c **** 						UART_UartPutCRLF(' ');
 1511              		.loc 1 696 0
 1512 0188 0A4B     		ldr	r3, .L59+12
 1513 018a 1B78     		ldrb	r3, [r3]
 1514 018c 1800     		movs	r0, r3
 1515 018e FFF7FEFF 		bl	SendBLEStatetoUART
 697:ble_process.c **** 						#endif					
 1516              		.loc 1 697 0
 1517 0192 2020     		movs	r0, #32
 1518 0194 FFF7FEFF 		bl	UART_UartPutCRLF
 1519              	.L56:
 703:ble_process.c **** 			break;
 1520              		.loc 1 703 0
 1521 0198 FFF7FEFF 		bl	CyBle_ProcessEvents
 704:ble_process.c **** 			
 1522              		.loc 1 704 0
 1523 019c C046     		nop
 1524              	.L47:
 1525              	.L58:
 709:ble_process.c **** 			
 710:ble_process.c **** 		}
 711:ble_process.c **** 	}
 712:ble_process.c **** }
 1526              		.loc 1 712 0
ARM GAS  C:\Users\ASUS\AppData\Local\Temp\ccCqJG8V.s 			page 47


 1527 019e C046     		nop
 1528 01a0 BD46     		mov	sp, r7
 1529 01a2 03B0     		add	sp, sp, #12
 1530              		@ sp needed
 1531 01a4 90BD     		pop	{r4, r7, pc}
 1532              	.L60:
 1533 01a6 C046     		.align	2
 1534              	.L59:
 1535 01a8 00000000 		.word	switch_Role
 1536 01ac 00000000 		.word	cyBle_connHandle
 1537 01b0 E0040000 		.word	.LC72
 1538 01b4 00000000 		.word	cyBle_state
 1539 01b8 00000000 		.word	ble_gap_state
 1540 01bc 00050000 		.word	.LC76
 1541 01c0 24050000 		.word	.LC78
 1542 01c4 00000000 		.word	current_watchdog_counter
 1543 01c8 00000000 		.word	centralStartedTime
 1544 01cc 3C050000 		.word	.LC82
 1545 01d0 54050000 		.word	.LC84
 1546 01d4 00000000 		.word	new_advData
 1547 01d8 00000000 		.word	dataADVCounter
 1548 01dc 00000000 		.word	cyBle_discoveryModeInfo
 1549 01e0 6C050000 		.word	.LC89
 1550 01e4 00000000 		.word	clientConnectToDevice
 1551 01e8 80050000 		.word	.LC92
 1552 01ec A0050000 		.word	.LC94
 1553              		.cfi_endproc
 1554              	.LFE37:
 1555              		.size	SwitchRole, .-SwitchRole
 1556              		.section	.rodata
 1557 05c6 0000     		.align	2
 1558              	.LC99:
 1559 05c8 436F6E6E 		.ascii	"Connect Request failed \000"
 1559      65637420 
 1559      52657175 
 1559      65737420 
 1559      6661696C 
 1560              		.align	2
 1561              	.LC101:
 1562 05e0 436F6E6E 		.ascii	"Connect Request Sent \000"
 1562      65637420 
 1562      52657175 
 1562      65737420 
 1562      53656E74 
 1563              		.section	.text.ConnectToPeripheralDevice,"ax",%progbits
 1564              		.align	2
 1565              		.global	ConnectToPeripheralDevice
 1566              		.code	16
 1567              		.thumb_func
 1568              		.type	ConnectToPeripheralDevice, %function
 1569              	ConnectToPeripheralDevice:
 1570              	.LFB38:
 713:ble_process.c **** 
 714:ble_process.c **** /*******************************************************************************
 715:ble_process.c **** * Function Name: ConnectToPeripheralDevice
 716:ble_process.c **** ********************************************************************************
 717:ble_process.c **** * Summary:
ARM GAS  C:\Users\ASUS\AppData\Local\Temp\ccCqJG8V.s 			page 48


 718:ble_process.c **** *        Connects to Peripheral device with given BD Address.
 719:ble_process.c **** *
 720:ble_process.c **** * Parameters:
 721:ble_process.c **** *  void
 722:ble_process.c **** *
 723:ble_process.c **** * Return:
 724:ble_process.c **** *  void
 725:ble_process.c **** *
 726:ble_process.c **** *******************************************************************************/
 727:ble_process.c **** void ConnectToPeripheralDevice(void)
 728:ble_process.c **** {
 1571              		.loc 1 728 0
 1572              		.cfi_startproc
 1573              		@ args = 0, pretend = 0, frame = 8
 1574              		@ frame_needed = 1, uses_anonymous_args = 0
 1575 0000 90B5     		push	{r4, r7, lr}
 1576              		.cfi_def_cfa_offset 12
 1577              		.cfi_offset 4, -12
 1578              		.cfi_offset 7, -8
 1579              		.cfi_offset 14, -4
 1580 0002 83B0     		sub	sp, sp, #12
 1581              		.cfi_def_cfa_offset 24
 1582 0004 00AF     		add	r7, sp, #0
 1583              		.cfi_def_cfa_register 7
 729:ble_process.c **** 	CYBLE_API_RESULT_T  apiResult;
 730:ble_process.c **** 	
 731:ble_process.c **** 	/* If flag has been set to connect to a device... */
 732:ble_process.c **** 	if(clientConnectToDevice)
 1584              		.loc 1 732 0
 1585 0006 1B4B     		ldr	r3, .L66
 1586 0008 1B78     		ldrb	r3, [r3]
 1587 000a 002B     		cmp	r3, #0
 1588 000c 2ED0     		beq	.L65
 733:ble_process.c **** 	{
 734:ble_process.c **** 		/* Process pending BLE events */
 735:ble_process.c **** 		CyBle_ProcessEvents();
 1589              		.loc 1 735 0
 1590 000e FFF7FEFF 		bl	CyBle_ProcessEvents
 736:ble_process.c **** 			
 737:ble_process.c **** 		#if 0
 738:ble_process.c **** 		if(CYBLE_STATE_SCANNING == CyBle_GetState())
 739:ble_process.c **** 		{
 740:ble_process.c **** 			CyBle_GapcStopScan();
 741:ble_process.c **** 			#ifdef DEBUG_ENABLED
 742:ble_process.c **** 				UART_UartPutString("Stop Scan called from clientConnectToDevice ");
 743:ble_process.c **** 				SendBLEStatetoUART(CyBle_GetState());
 744:ble_process.c **** 				UART_UartPutCRLF(' ');
 745:ble_process.c **** 			#endif
 746:ble_process.c **** 			CyBle_ProcessEvents();
 747:ble_process.c **** 		}
 748:ble_process.c **** 		#endif
 749:ble_process.c **** 			
 750:ble_process.c **** 		if(CYBLE_STATE_DISCONNECTED == CyBle_GetState())
 1591              		.loc 1 750 0
 1592 0012 194B     		ldr	r3, .L66+4
 1593 0014 1B78     		ldrb	r3, [r3]
 1594 0016 062B     		cmp	r3, #6
ARM GAS  C:\Users\ASUS\AppData\Local\Temp\ccCqJG8V.s 			page 49


 1595 0018 28D1     		bne	.L65
 751:ble_process.c **** 		{
 752:ble_process.c **** 			/* Reset the flag to connect to a device*/
 753:ble_process.c **** 			clientConnectToDevice = FALSE;
 1596              		.loc 1 753 0
 1597 001a 164B     		ldr	r3, .L66
 1598 001c 0022     		movs	r2, #0
 1599 001e 1A70     		strb	r2, [r3]
 754:ble_process.c **** 
 755:ble_process.c **** 			/* Connect to the device whose address has been saved as part of 
 756:ble_process.c **** 			* potential node search */
 757:ble_process.c **** 			apiResult = CyBle_GapcConnectDevice(&peripAddr);
 1600              		.loc 1 757 0
 1601 0020 BC1D     		adds	r4, r7, #6
 1602 0022 164B     		ldr	r3, .L66+8
 1603 0024 1800     		movs	r0, r3
 1604 0026 FFF7FEFF 		bl	CyBle_GapcConnectDevice
 1605 002a 0300     		movs	r3, r0
 1606 002c 2380     		strh	r3, [r4]
 758:ble_process.c **** 			
 759:ble_process.c **** 			if(apiResult != CYBLE_ERROR_OK)
 1607              		.loc 1 759 0
 1608 002e BB1D     		adds	r3, r7, #6
 1609 0030 1B88     		ldrh	r3, [r3]
 1610 0032 002B     		cmp	r3, #0
 1611 0034 0CD0     		beq	.L63
 760:ble_process.c **** 			{
 761:ble_process.c **** 				#ifdef DEBUG_ENABLED
 762:ble_process.c **** 					UART_UartPutString("Connect Request failed ");
 1612              		.loc 1 762 0
 1613 0036 124B     		ldr	r3, .L66+12
 1614 0038 1800     		movs	r0, r3
 1615 003a FFF7FEFF 		bl	UART_UartPutString
 763:ble_process.c **** 					SendBLEStatetoUART(CyBle_GetState());
 1616              		.loc 1 763 0
 1617 003e 0E4B     		ldr	r3, .L66+4
 1618 0040 1B78     		ldrb	r3, [r3]
 1619 0042 1800     		movs	r0, r3
 1620 0044 FFF7FEFF 		bl	SendBLEStatetoUART
 764:ble_process.c **** 					UART_UartPutCRLF(' ');
 1621              		.loc 1 764 0
 1622 0048 2020     		movs	r0, #32
 1623 004a FFF7FEFF 		bl	UART_UartPutCRLF
 1624 004e 0BE0     		b	.L64
 1625              	.L63:
 765:ble_process.c **** 				#endif
 766:ble_process.c **** 			}
 767:ble_process.c **** 			else
 768:ble_process.c **** 			{
 769:ble_process.c **** 				#ifdef DEBUG_ENABLED
 770:ble_process.c **** 					UART_UartPutString("Connect Request Sent ");
 1626              		.loc 1 770 0
 1627 0050 0C4B     		ldr	r3, .L66+16
 1628 0052 1800     		movs	r0, r3
 1629 0054 FFF7FEFF 		bl	UART_UartPutString
 771:ble_process.c **** 					SendBLEStatetoUART(CyBle_GetState());
 1630              		.loc 1 771 0
ARM GAS  C:\Users\ASUS\AppData\Local\Temp\ccCqJG8V.s 			page 50


 1631 0058 074B     		ldr	r3, .L66+4
 1632 005a 1B78     		ldrb	r3, [r3]
 1633 005c 1800     		movs	r0, r3
 1634 005e FFF7FEFF 		bl	SendBLEStatetoUART
 772:ble_process.c **** 					UART_UartPutCRLF(' ');
 1635              		.loc 1 772 0
 1636 0062 2020     		movs	r0, #32
 1637 0064 FFF7FEFF 		bl	UART_UartPutCRLF
 1638              	.L64:
 773:ble_process.c **** 				#endif	
 774:ble_process.c **** 			}
 775:ble_process.c **** 		
 776:ble_process.c **** 			/* Process pending BLE events */
 777:ble_process.c **** 			CyBle_ProcessEvents();
 1639              		.loc 1 777 0
 1640 0068 FFF7FEFF 		bl	CyBle_ProcessEvents
 1641              	.L65:
 778:ble_process.c **** 		}
 779:ble_process.c **** 	}
 780:ble_process.c **** }
 1642              		.loc 1 780 0
 1643 006c C046     		nop
 1644 006e BD46     		mov	sp, r7
 1645 0070 03B0     		add	sp, sp, #12
 1646              		@ sp needed
 1647 0072 90BD     		pop	{r4, r7, pc}
 1648              	.L67:
 1649              		.align	2
 1650              	.L66:
 1651 0074 00000000 		.word	clientConnectToDevice
 1652 0078 00000000 		.word	cyBle_state
 1653 007c 00000000 		.word	peripAddr
 1654 0080 C8050000 		.word	.LC99
 1655 0084 E0050000 		.word	.LC101
 1656              		.cfi_endproc
 1657              	.LFE38:
 1658              		.size	ConnectToPeripheralDevice, .-ConnectToPeripheralDevice
 1659              		.section	.rodata
 1660 05f6 0000     		.align	2
 1661              	.LC108:
 1662 05f8 73776974 		.ascii	"switchRole from restartScanning loop \000"
 1662      6368526F 
 1662      6C652066 
 1662      726F6D20 
 1662      72657374 
 1663 061e 0000     		.align	2
 1664              	.LC111:
 1665 0620 72657374 		.ascii	"restartScanning loop \000"
 1665      61727453 
 1665      63616E6E 
 1665      696E6720 
 1665      6C6F6F70 
 1666 0636 0000     		.align	2
 1667              	.LC113:
 1668 0638 53746172 		.ascii	"Start Scan from restartScanning loop \000"
 1668      74205363 
 1668      616E2066 
ARM GAS  C:\Users\ASUS\AppData\Local\Temp\ccCqJG8V.s 			page 51


 1668      726F6D20 
 1668      72657374 
 1669              		.section	.text.RestartCentralScanning,"ax",%progbits
 1670              		.align	2
 1671              		.global	RestartCentralScanning
 1672              		.code	16
 1673              		.thumb_func
 1674              		.type	RestartCentralScanning, %function
 1675              	RestartCentralScanning:
 1676              	.LFB39:
 781:ble_process.c **** 
 782:ble_process.c **** /*******************************************************************************
 783:ble_process.c **** * Function Name: RestartCentralScanning
 784:ble_process.c **** ********************************************************************************
 785:ble_process.c **** * Summary:
 786:ble_process.c **** *        Restarts Central scanning. Also, if the time that the device has remained
 787:ble_process.c **** * in Central role exceeds pre-determined value, then the switch role flag is set.
 788:ble_process.c **** *
 789:ble_process.c **** * Parameters:
 790:ble_process.c **** *  void
 791:ble_process.c **** *
 792:ble_process.c **** * Return:
 793:ble_process.c **** *  void
 794:ble_process.c **** *
 795:ble_process.c **** *******************************************************************************/
 796:ble_process.c **** void RestartCentralScanning(void)
 797:ble_process.c **** {
 1677              		.loc 1 797 0
 1678              		.cfi_startproc
 1679              		@ args = 0, pretend = 0, frame = 0
 1680              		@ frame_needed = 1, uses_anonymous_args = 0
 1681 0000 80B5     		push	{r7, lr}
 1682              		.cfi_def_cfa_offset 8
 1683              		.cfi_offset 7, -8
 1684              		.cfi_offset 14, -4
 1685 0002 00AF     		add	r7, sp, #0
 1686              		.cfi_def_cfa_register 7
 798:ble_process.c **** 	/* If the current role is Central and the Central time has exceeded the preset time,
 799:ble_process.c **** 	* then set the flag to switch role to Peripheral */
 800:ble_process.c **** 	if((BLE_CENTRAL == ble_gap_state) && 
 1687              		.loc 1 800 0
 1688 0004 214B     		ldr	r3, .L72
 1689 0006 1B78     		ldrb	r3, [r3]
 1690 0008 022B     		cmp	r3, #2
 1691 000a 1CD1     		bne	.L69
 801:ble_process.c **** 		(WatchDog_CurrentCount() - centralStartedTime > CENTRAL_STATE_SPAN) &&
 1692              		.loc 1 801 0 discriminator 1
 1693 000c 204B     		ldr	r3, .L72+4
 1694 000e 1B88     		ldrh	r3, [r3]
 1695 0010 9BB2     		uxth	r3, r3
 1696 0012 1A00     		movs	r2, r3
 1697 0014 1F4B     		ldr	r3, .L72+8
 1698 0016 1B88     		ldrh	r3, [r3]
 1699 0018 9BB2     		uxth	r3, r3
 1700 001a D31A     		subs	r3, r2, r3
 800:ble_process.c **** 		(WatchDog_CurrentCount() - centralStartedTime > CENTRAL_STATE_SPAN) &&
 1701              		.loc 1 800 0 discriminator 1
ARM GAS  C:\Users\ASUS\AppData\Local\Temp\ccCqJG8V.s 			page 52


 1702 001c 2D2B     		cmp	r3, #45
 1703 001e 12DD     		ble	.L69
 802:ble_process.c **** 		((CYBLE_STATE_DISCONNECTED == CyBle_GetState()) || (CYBLE_STATE_SCANNING == CyBle_GetState())))
 1704              		.loc 1 802 0
 1705 0020 1D4B     		ldr	r3, .L72+12
 1706 0022 1B78     		ldrb	r3, [r3]
 801:ble_process.c **** 		(WatchDog_CurrentCount() - centralStartedTime > CENTRAL_STATE_SPAN) &&
 1707              		.loc 1 801 0
 1708 0024 062B     		cmp	r3, #6
 1709 0026 03D0     		beq	.L70
 1710              		.loc 1 802 0
 1711 0028 1B4B     		ldr	r3, .L72+12
 1712 002a 1B78     		ldrb	r3, [r3]
 1713 002c 042B     		cmp	r3, #4
 1714 002e 0AD1     		bne	.L69
 1715              	.L70:
 803:ble_process.c **** 	{
 804:ble_process.c **** 		/* Switch role flag set */
 805:ble_process.c **** 		switch_Role = TRUE;
 1716              		.loc 1 805 0
 1717 0030 1A4B     		ldr	r3, .L72+16
 1718 0032 0122     		movs	r2, #1
 1719 0034 1A70     		strb	r2, [r3]
 806:ble_process.c **** 		#ifdef DEBUG_ENABLED
 807:ble_process.c **** 		UART_UartPutString("switchRole from restartScanning loop ");
 1720              		.loc 1 807 0
 1721 0036 1A4B     		ldr	r3, .L72+20
 1722 0038 1800     		movs	r0, r3
 1723 003a FFF7FEFF 		bl	UART_UartPutString
 808:ble_process.c **** 		UART_UartPutCRLF(' ');
 1724              		.loc 1 808 0
 1725 003e 2020     		movs	r0, #32
 1726 0040 FFF7FEFF 		bl	UART_UartPutCRLF
 809:ble_process.c **** 		#endif
 810:ble_process.c **** 		
 811:ble_process.c **** 		return;
 1727              		.loc 1 811 0
 1728 0044 1FE0     		b	.L68
 1729              	.L69:
 812:ble_process.c **** 	}
 813:ble_process.c **** 			
 814:ble_process.c **** 	/* If restart scanning flag is set, the restart the Central scanning */
 815:ble_process.c **** 	if(restartScanning)
 1730              		.loc 1 815 0
 1731 0046 174B     		ldr	r3, .L72+24
 1732 0048 1B78     		ldrb	r3, [r3]
 1733 004a 002B     		cmp	r3, #0
 1734 004c 1BD0     		beq	.L68
 816:ble_process.c **** 	{
 817:ble_process.c **** 		/* Process pending BLE events */
 818:ble_process.c **** 		CyBle_ProcessEvents();
 1735              		.loc 1 818 0
 1736 004e FFF7FEFF 		bl	CyBle_ProcessEvents
 819:ble_process.c **** 		if(CYBLE_STATE_DISCONNECTED == CyBle_GetState())
 1737              		.loc 1 819 0
 1738 0052 114B     		ldr	r3, .L72+12
 1739 0054 1B78     		ldrb	r3, [r3]
ARM GAS  C:\Users\ASUS\AppData\Local\Temp\ccCqJG8V.s 			page 53


 1740 0056 062B     		cmp	r3, #6
 1741 0058 15D1     		bne	.L68
 820:ble_process.c **** 		{
 821:ble_process.c **** 			/* Reset the restart scanning flag */
 822:ble_process.c **** 			restartScanning = FALSE;
 1742              		.loc 1 822 0
 1743 005a 124B     		ldr	r3, .L72+24
 1744 005c 0022     		movs	r2, #0
 1745 005e 1A70     		strb	r2, [r3]
 823:ble_process.c **** 			#ifdef DEBUG_ENABLED
 824:ble_process.c **** 			UART_UartPutString("restartScanning loop ");
 1746              		.loc 1 824 0
 1747 0060 114B     		ldr	r3, .L72+28
 1748 0062 1800     		movs	r0, r3
 1749 0064 FFF7FEFF 		bl	UART_UartPutString
 825:ble_process.c **** 			UART_UartPutCRLF(' ');
 1750              		.loc 1 825 0
 1751 0068 2020     		movs	r0, #32
 1752 006a FFF7FEFF 		bl	UART_UartPutCRLF
 826:ble_process.c **** 			#endif
 827:ble_process.c **** 			
 828:ble_process.c **** 			/* Start Central scan and process the event */
 829:ble_process.c **** 			CyBle_GapcStartScan(CYBLE_SCANNING_FAST);
 1753              		.loc 1 829 0
 1754 006e 0020     		movs	r0, #0
 1755 0070 FFF7FEFF 		bl	CyBle_GapcStartScan
 830:ble_process.c **** 			CyBle_ProcessEvents();
 1756              		.loc 1 830 0
 1757 0074 FFF7FEFF 		bl	CyBle_ProcessEvents
 831:ble_process.c **** 			
 832:ble_process.c **** 			#ifdef DEBUG_ENABLED
 833:ble_process.c **** 			UART_UartPutString("Start Scan from restartScanning loop ");
 1758              		.loc 1 833 0
 1759 0078 0C4B     		ldr	r3, .L72+32
 1760 007a 1800     		movs	r0, r3
 1761 007c FFF7FEFF 		bl	UART_UartPutString
 834:ble_process.c **** 			UART_UartPutCRLF(' ');
 1762              		.loc 1 834 0
 1763 0080 2020     		movs	r0, #32
 1764 0082 FFF7FEFF 		bl	UART_UartPutCRLF
 1765              	.L68:
 835:ble_process.c **** 			#endif
 836:ble_process.c **** 		}
 837:ble_process.c **** 	}
 838:ble_process.c **** }	
 1766              		.loc 1 838 0
 1767 0086 BD46     		mov	sp, r7
 1768              		@ sp needed
 1769 0088 80BD     		pop	{r7, pc}
 1770              	.L73:
 1771 008a C046     		.align	2
 1772              	.L72:
 1773 008c 00000000 		.word	ble_gap_state
 1774 0090 00000000 		.word	current_watchdog_counter
 1775 0094 00000000 		.word	centralStartedTime
 1776 0098 00000000 		.word	cyBle_state
 1777 009c 00000000 		.word	switch_Role
ARM GAS  C:\Users\ASUS\AppData\Local\Temp\ccCqJG8V.s 			page 54


 1778 00a0 F8050000 		.word	.LC108
 1779 00a4 00000000 		.word	restartScanning
 1780 00a8 20060000 		.word	.LC111
 1781 00ac 38060000 		.word	.LC113
 1782              		.cfi_endproc
 1783              	.LFE39:
 1784              		.size	RestartCentralScanning, .-RestartCentralScanning
 1785              		.section	.text.SendErrorCode,"ax",%progbits
 1786              		.align	2
 1787              		.global	SendErrorCode
 1788              		.code	16
 1789              		.thumb_func
 1790              		.type	SendErrorCode, %function
 1791              	SendErrorCode:
 1792              	.LFB40:
 839:ble_process.c **** 
 840:ble_process.c **** /*******************************************************************************
 841:ble_process.c **** * Function Name: SendErrorCode
 842:ble_process.c **** ********************************************************************************
 843:ble_process.c **** * Summary:
 844:ble_process.c **** *        Send Error code at GATT Layer
 845:ble_process.c **** *
 846:ble_process.c **** * Parameters:
 847:ble_process.c **** *  uint8 opCode, 
 848:ble_process.c **** *  CYBLE_GATT_DB_ATTR_HANDLE_T  attrHandle, 
 849:ble_process.c **** *  CYBLE_GATT_ERR_CODE_T errorCode
 850:ble_process.c **** *
 851:ble_process.c **** * Return:
 852:ble_process.c **** *  void
 853:ble_process.c **** *
 854:ble_process.c **** *******************************************************************************/
 855:ble_process.c **** void SendErrorCode(uint8 opCode, CYBLE_GATT_DB_ATTR_HANDLE_T  attrHandle, CYBLE_GATT_ERR_CODE_T err
 856:ble_process.c **** {
 1793              		.loc 1 856 0
 1794              		.cfi_startproc
 1795              		@ args = 0, pretend = 0, frame = 16
 1796              		@ frame_needed = 1, uses_anonymous_args = 0
 1797 0000 90B5     		push	{r4, r7, lr}
 1798              		.cfi_def_cfa_offset 12
 1799              		.cfi_offset 4, -12
 1800              		.cfi_offset 7, -8
 1801              		.cfi_offset 14, -4
 1802 0002 85B0     		sub	sp, sp, #20
 1803              		.cfi_def_cfa_offset 32
 1804 0004 00AF     		add	r7, sp, #0
 1805              		.cfi_def_cfa_register 7
 1806 0006 0400     		movs	r4, r0
 1807 0008 0800     		movs	r0, r1
 1808 000a 1100     		movs	r1, r2
 1809 000c FB1D     		adds	r3, r7, #7
 1810 000e 221C     		adds	r2, r4, #0
 1811 0010 1A70     		strb	r2, [r3]
 1812 0012 3B1D     		adds	r3, r7, #4
 1813 0014 021C     		adds	r2, r0, #0
 1814 0016 1A80     		strh	r2, [r3]
 1815 0018 BB1D     		adds	r3, r7, #6
 1816 001a 0A1C     		adds	r2, r1, #0
ARM GAS  C:\Users\ASUS\AppData\Local\Temp\ccCqJG8V.s 			page 55


 1817 001c 1A70     		strb	r2, [r3]
 857:ble_process.c **** 	CYBLE_GATTS_ERR_PARAM_T err_param;
 858:ble_process.c **** 		            
 859:ble_process.c ****     err_param.opcode = opCode;
 1818              		.loc 1 859 0
 1819 001e 0C23     		movs	r3, #12
 1820 0020 FB18     		adds	r3, r7, r3
 1821 0022 FA1D     		adds	r2, r7, #7
 1822 0024 1278     		ldrb	r2, [r2]
 1823 0026 9A70     		strb	r2, [r3, #2]
 860:ble_process.c ****     err_param.attrHandle = attrHandle;
 1824              		.loc 1 860 0
 1825 0028 0C23     		movs	r3, #12
 1826 002a FB18     		adds	r3, r7, r3
 1827 002c 3A1D     		adds	r2, r7, #4
 1828 002e 1288     		ldrh	r2, [r2]
 1829 0030 1A80     		strh	r2, [r3]
 861:ble_process.c ****     err_param.errorCode = errorCode;
 1830              		.loc 1 861 0
 1831 0032 0C23     		movs	r3, #12
 1832 0034 FB18     		adds	r3, r7, r3
 1833 0036 BA1D     		adds	r2, r7, #6
 1834 0038 1278     		ldrb	r2, [r2]
 1835 003a DA70     		strb	r2, [r3, #3]
 862:ble_process.c **** 
 863:ble_process.c ****     /* Send Error Response */
 864:ble_process.c ****     (void)CyBle_GattsErrorRsp(cyBle_connHandle, &err_param);
 1836              		.loc 1 864 0
 1837 003c 0C23     		movs	r3, #12
 1838 003e F918     		adds	r1, r7, r3
 1839 0040 084B     		ldr	r3, .L75
 1840 0042 1A78     		ldrb	r2, [r3]
 1841 0044 5B78     		ldrb	r3, [r3, #1]
 1842 0046 1B02     		lsls	r3, r3, #8
 1843 0048 1A43     		orrs	r2, r3
 1844 004a 0023     		movs	r3, #0
 1845 004c 1204     		lsls	r2, r2, #16
 1846 004e 120C     		lsrs	r2, r2, #16
 1847 0050 1B0C     		lsrs	r3, r3, #16
 1848 0052 1B04     		lsls	r3, r3, #16
 1849 0054 1343     		orrs	r3, r2
 1850 0056 1800     		movs	r0, r3
 1851 0058 FFF7FEFF 		bl	CyBle_GattsErrorRsp
 865:ble_process.c **** }
 1852              		.loc 1 865 0
 1853 005c C046     		nop
 1854 005e BD46     		mov	sp, r7
 1855 0060 05B0     		add	sp, sp, #20
 1856              		@ sp needed
 1857 0062 90BD     		pop	{r4, r7, pc}
 1858              	.L76:
 1859              		.align	2
 1860              	.L75:
 1861 0064 00000000 		.word	cyBle_connHandle
 1862              		.cfi_endproc
 1863              	.LFE40:
 1864              		.size	SendErrorCode, .-SendErrorCode
ARM GAS  C:\Users\ASUS\AppData\Local\Temp\ccCqJG8V.s 			page 56


 1865              		.section	.text.sendColorDataToNetwork,"ax",%progbits
 1866              		.align	2
 1867              		.global	sendColorDataToNetwork
 1868              		.code	16
 1869              		.thumb_func
 1870              		.type	sendColorDataToNetwork, %function
 1871              	sendColorDataToNetwork:
 1872              	.LFB41:
 866:ble_process.c **** /* [] END OF FILE */
 867:ble_process.c **** 
 868:ble_process.c **** 
 869:ble_process.c **** void sendColorDataToNetwork(uint8 RGB_Collection[4]) {
 1873              		.loc 1 869 0
 1874              		.cfi_startproc
 1875              		@ args = 0, pretend = 0, frame = 24
 1876              		@ frame_needed = 1, uses_anonymous_args = 0
 1877 0000 80B5     		push	{r7, lr}
 1878              		.cfi_def_cfa_offset 8
 1879              		.cfi_offset 7, -8
 1880              		.cfi_offset 14, -4
 1881 0002 86B0     		sub	sp, sp, #24
 1882              		.cfi_def_cfa_offset 32
 1883 0004 00AF     		add	r7, sp, #0
 1884              		.cfi_def_cfa_register 7
 1885 0006 7860     		str	r0, [r7, #4]
 870:ble_process.c ****     RGBData[RGB_RED_INDEX] = RGB_Collection[0];
 1886              		.loc 1 870 0
 1887 0008 7B68     		ldr	r3, [r7, #4]
 1888 000a 1A78     		ldrb	r2, [r3]
 1889 000c 1F4B     		ldr	r3, .L78
 1890 000e 1A70     		strb	r2, [r3]
 871:ble_process.c ****     RGBData[RGB_BLUE_INDEX] = RGB_Collection[1];
 1891              		.loc 1 871 0
 1892 0010 7B68     		ldr	r3, [r7, #4]
 1893 0012 5A78     		ldrb	r2, [r3, #1]
 1894 0014 1D4B     		ldr	r3, .L78
 1895 0016 9A70     		strb	r2, [r3, #2]
 872:ble_process.c ****     RGBData[RGB_GREEN_INDEX] = RGB_Collection[2];
 1896              		.loc 1 872 0
 1897 0018 7B68     		ldr	r3, [r7, #4]
 1898 001a 9A78     		ldrb	r2, [r3, #2]
 1899 001c 1B4B     		ldr	r3, .L78
 1900 001e 5A70     		strb	r2, [r3, #1]
 873:ble_process.c ****     RGBData[RGB_INTENSITY_INDEX] = RGB_Collection[3];
 1901              		.loc 1 873 0
 1902 0020 7B68     		ldr	r3, [r7, #4]
 1903 0022 DA78     		ldrb	r2, [r3, #3]
 1904 0024 194B     		ldr	r3, .L78
 1905 0026 DA70     		strb	r2, [r3, #3]
 874:ble_process.c ****     
 875:ble_process.c **** 	/* Modify RGB Color my configuring the PrISM components with new density 
 876:ble_process.c **** 	* value*/
 877:ble_process.c **** 	UpdateRGBled(RGBData, RGB_LED_DATA_LEN);
 1906              		.loc 1 877 0
 1907 0028 184B     		ldr	r3, .L78
 1908 002a 0421     		movs	r1, #4
 1909 002c 1800     		movs	r0, r3
ARM GAS  C:\Users\ASUS\AppData\Local\Temp\ccCqJG8V.s 			page 57


 1910 002e FFF7FEFF 		bl	UpdateRGBled
 878:ble_process.c ****     
 879:ble_process.c **** 	/* Update the RGB LED Control characteristic in GATT DB to allow
 880:ble_process.c **** 	* Client to read the latest RGB LED color value set */
 881:ble_process.c ****     CYBLE_GATT_HANDLE_VALUE_PAIR_T value_pair;
 882:ble_process.c ****     value_pair.attrHandle = CYBLE_RGB_LED_CONTROL_CHAR_HANDLE;
 1911              		.loc 1 882 0
 1912 0032 0C23     		movs	r3, #12
 1913 0034 FB18     		adds	r3, r7, r3
 1914 0036 0E22     		movs	r2, #14
 1915 0038 1A81     		strh	r2, [r3, #8]
 883:ble_process.c ****     value_pair.value.val = RGB_Collection;
 1916              		.loc 1 883 0
 1917 003a 0C23     		movs	r3, #12
 1918 003c FB18     		adds	r3, r7, r3
 1919 003e 7A68     		ldr	r2, [r7, #4]
 1920 0040 1A60     		str	r2, [r3]
 884:ble_process.c ****     value_pair.value.len = RGB_LED_DATA_LEN;
 1921              		.loc 1 884 0
 1922 0042 0C23     		movs	r3, #12
 1923 0044 FB18     		adds	r3, r7, r3
 1924 0046 0422     		movs	r2, #4
 1925 0048 9A80     		strh	r2, [r3, #4]
 885:ble_process.c **** 	CyBle_GattsWriteAttributeValue(&value_pair, 0, &cyBle_connHandle, CYBLE_GATT_DB_LOCALLY_INITIATED)
 1926              		.loc 1 885 0
 1927 004a 114A     		ldr	r2, .L78+4
 1928 004c 0C23     		movs	r3, #12
 1929 004e F818     		adds	r0, r7, r3
 1930 0050 0023     		movs	r3, #0
 1931 0052 0021     		movs	r1, #0
 1932 0054 FFF7FEFF 		bl	CyBle_GattsWriteAttributeValue
 886:ble_process.c **** 	//CyBle_GattcWriteCharacteristicValue(cyBle_connHandle, &value_pair);
 887:ble_process.c **** 	
 888:ble_process.c **** 	/* After receiveing the color value, set the switch role flag to allow the system
 889:ble_process.c **** 	* to switch role to Central role */
 890:ble_process.c **** 	switch_Role = TRUE;
 1933              		.loc 1 890 0
 1934 0058 0E4B     		ldr	r3, .L78+8
 1935 005a 0122     		movs	r2, #1
 1936 005c 1A70     		strb	r2, [r3]
 891:ble_process.c ****     
 892:ble_process.c ****     #ifdef ENABLE_ADV_DATA_COUNTER
 893:ble_process.c ****     /* Increment the ADV data counter so that scanning Central device knows
 894:ble_process.c ****     * if this device has updated RGB LED data or not */
 895:ble_process.c ****     dataADVCounter++;
 1937              		.loc 1 895 0
 1938 005e 0E4B     		ldr	r3, .L78+12
 1939 0060 1B78     		ldrb	r3, [r3]
 1940 0062 0133     		adds	r3, r3, #1
 1941 0064 DAB2     		uxtb	r2, r3
 1942 0066 0C4B     		ldr	r3, .L78+12
 1943 0068 1A70     		strb	r2, [r3]
 896:ble_process.c ****     #endif
 897:ble_process.c **** 
 898:ble_process.c ****     #ifdef DEBUG_ENABLED
 899:ble_process.c ****     UART_UartPutString("incremented dataADVCounter value in CYBLE_EVT_GATTS_WRITE_REQ= ");
 1944              		.loc 1 899 0
ARM GAS  C:\Users\ASUS\AppData\Local\Temp\ccCqJG8V.s 			page 58


 1945 006a 0C4B     		ldr	r3, .L78+16
 1946 006c 1800     		movs	r0, r3
 1947 006e FFF7FEFF 		bl	UART_UartPutString
 900:ble_process.c ****     PrintNum(dataADVCounter);
 1948              		.loc 1 900 0
 1949 0072 094B     		ldr	r3, .L78+12
 1950 0074 1B78     		ldrb	r3, [r3]
 1951 0076 1800     		movs	r0, r3
 1952 0078 FFF7FEFF 		bl	PrintNum
 901:ble_process.c ****     UART_UartPutCRLF(' ');
 1953              		.loc 1 901 0
 1954 007c 2020     		movs	r0, #32
 1955 007e FFF7FEFF 		bl	UART_UartPutCRLF
 902:ble_process.c ****     #endif
 903:ble_process.c **** }
 1956              		.loc 1 903 0
 1957 0082 C046     		nop
 1958 0084 BD46     		mov	sp, r7
 1959 0086 06B0     		add	sp, sp, #24
 1960              		@ sp needed
 1961 0088 80BD     		pop	{r7, pc}
 1962              	.L79:
 1963 008a C046     		.align	2
 1964              	.L78:
 1965 008c 00000000 		.word	RGBData
 1966 0090 00000000 		.word	cyBle_connHandle
 1967 0094 00000000 		.word	switch_Role
 1968 0098 00000000 		.word	dataADVCounter
 1969 009c 10010000 		.word	.LC24
 1970              		.cfi_endproc
 1971              	.LFE41:
 1972              		.size	sendColorDataToNetwork, .-sendColorDataToNetwork
 1973              		.text
 1974              	.Letext0:
 1975              		.file 2 "Generated_Source\\PSoC4/cytypes.h"
 1976              		.file 3 "Generated_Source\\PSoC4/BLE_Stack.h"
 1977              		.file 4 "Generated_Source\\PSoC4/BLE_StackGap.h"
 1978              		.file 5 "Generated_Source\\PSoC4/BLE_StackGatt.h"
 1979              		.file 6 "Generated_Source\\PSoC4/BLE_StackGattServer.h"
 1980              		.file 7 "Generated_Source\\PSoC4/BLE_StackGattClient.h"
 1981              		.file 8 "Generated_Source\\PSoC4/BLE_eventHandler.h"
 1982              		.file 9 "Generated_Source\\PSoC4/BLE.h"
 1983              		.file 10 "./main.h"