ARM GAS  C:\Users\ASUS\AppData\Local\Temp\ccfiTo5m.s 			page 1


   1              		.syntax unified
   2              		.cpu cortex-m0
   3              		.fpu softvfp
   4              		.eabi_attribute 20, 1
   5              		.eabi_attribute 21, 1
   6              		.eabi_attribute 23, 3
   7              		.eabi_attribute 24, 1
   8              		.eabi_attribute 25, 1
   9              		.eabi_attribute 26, 1
  10              		.eabi_attribute 30, 6
  11              		.eabi_attribute 34, 0
  12              		.eabi_attribute 18, 4
  13              		.thumb
  14              		.syntax unified
  15              		.file	"debug.c"
  16              		.text
  17              	.Ltext0:
  18              		.cfi_sections	.debug_frame
  19              		.comm	current_watchdog_counter,2,2
  20              		.section	.rodata
  21              		.align	2
  22              	.LC1:
  23 0000 207C424C 		.ascii	" |BLE State: CYBLE_STATE_STOPPED \000"
  23      45205374 
  23      6174653A 
  23      20435942 
  23      4C455F53 
  24 0022 0000     		.align	2
  25              	.LC3:
  26 0024 207C424C 		.ascii	" |BLE State: CYBLE_STATE_INITIALIZING \000"
  26      45205374 
  26      6174653A 
  26      20435942 
  26      4C455F53 
  27 004b 00       		.align	2
  28              	.LC5:
  29 004c 207C424C 		.ascii	" |BLE State: CYBLE_STATE_CONNECTED \000"
  29      45205374 
  29      6174653A 
  29      20435942 
  29      4C455F53 
  30              		.align	2
  31              	.LC7:
  32 0070 207C424C 		.ascii	" |BLE State: CYBLE_STATE_ADVERTISING \000"
  32      45205374 
  32      6174653A 
  32      20435942 
  32      4C455F53 
  33 0096 0000     		.align	2
  34              	.LC9:
  35 0098 207C424C 		.ascii	" |BLE State: CYBLE_STATE_SCANNING \000"
  35      45205374 
  35      6174653A 
  35      20435942 
  35      4C455F53 
  36 00bb 00       		.align	2
  37              	.LC11:
ARM GAS  C:\Users\ASUS\AppData\Local\Temp\ccfiTo5m.s 			page 2


  38 00bc 207C424C 		.ascii	" |BLE State: CYBLE_STATE_CONNECTING \000"
  38      45205374 
  38      6174653A 
  38      20435942 
  38      4C455F53 
  39 00e1 000000   		.align	2
  40              	.LC13:
  41 00e4 207C424C 		.ascii	" |BLE State: CYBLE_STATE_DISCONNECTED \000"
  41      45205374 
  41      6174653A 
  41      20435942 
  41      4C455F53 
  42 010b 00       		.align	2
  43              	.LC15:
  44 010c 207C424C 		.ascii	" |BLE State: UNKNOWN STATE \000"
  44      45205374 
  44      6174653A 
  44      20554E4B 
  44      4E4F574E 
  45              		.section	.text.SendBLEStatetoUART,"ax",%progbits
  46              		.align	2
  47              		.global	SendBLEStatetoUART
  48              		.code	16
  49              		.thumb_func
  50              		.type	SendBLEStatetoUART, %function
  51              	SendBLEStatetoUART:
  52              	.LFB35:
  53              		.file 1 "debug.c"
   1:debug.c       **** /*******************************************************************************
   2:debug.c       **** * File Name: debug.c
   3:debug.c       **** *
   4:debug.c       **** * Version: 1.0
   5:debug.c       **** *
   6:debug.c       **** * Description:
   7:debug.c       **** * This file contains the definiton for debug functions, using UART as communication
   8:debug.c       **** * medium. These function sends UART data to KitProg/PSoC 5LP, which enumerats as
   9:debug.c       **** * COM port on connected PC.
  10:debug.c       **** *
  11:debug.c       **** ********************************************************************************
  12:debug.c       **** * Copyright 2015, Cypress Semiconductor Corporation.  All rights reserved.
  13:debug.c       **** * You may use this file only in accordance with the license, terms, conditions,
  14:debug.c       **** * disclaimers, and limitations in the end user license agreement accompanying
  15:debug.c       **** * the software package with which this file was provided.
  16:debug.c       **** *******************************************************************************/
  17:debug.c       **** #include <debug.h>
  18:debug.c       **** 
  19:debug.c       **** /*******************************************************************************
  20:debug.c       **** * Function Name: SendBLEStatetoUART
  21:debug.c       **** ********************************************************************************
  22:debug.c       **** * Summary:
  23:debug.c       **** *        Sends the string to UART corresponding to the present BLE state
  24:debug.c       **** *
  25:debug.c       **** * Parameters:
  26:debug.c       **** *  ble_state: current state of the BLE.
  27:debug.c       **** *
  28:debug.c       **** * Return:
  29:debug.c       **** *  void
ARM GAS  C:\Users\ASUS\AppData\Local\Temp\ccfiTo5m.s 			page 3


  30:debug.c       **** *
  31:debug.c       **** *******************************************************************************/
  32:debug.c       **** void SendBLEStatetoUART(CYBLE_STATE_T ble_state)
  33:debug.c       **** {
  54              		.loc 1 33 0
  55              		.cfi_startproc
  56              		@ args = 0, pretend = 0, frame = 8
  57              		@ frame_needed = 1, uses_anonymous_args = 0
  58 0000 80B5     		push	{r7, lr}
  59              		.cfi_def_cfa_offset 8
  60              		.cfi_offset 7, -8
  61              		.cfi_offset 14, -4
  62 0002 82B0     		sub	sp, sp, #8
  63              		.cfi_def_cfa_offset 16
  64 0004 00AF     		add	r7, sp, #0
  65              		.cfi_def_cfa_register 7
  66 0006 0200     		movs	r2, r0
  67 0008 FB1D     		adds	r3, r7, #7
  68 000a 1A70     		strb	r2, [r3]
  34:debug.c       **** 	switch(ble_state)
  69              		.loc 1 34 0
  70 000c FB1D     		adds	r3, r7, #7
  71 000e 1B78     		ldrb	r3, [r3]
  72 0010 062B     		cmp	r3, #6
  73 0012 27D8     		bhi	.L2
  74 0014 9A00     		lsls	r2, r3, #2
  75 0016 184B     		ldr	r3, .L12
  76 0018 D318     		adds	r3, r2, r3
  77 001a 1B68     		ldr	r3, [r3]
  78 001c 9F46     		mov	pc, r3
  79              		.section	.rodata
  80              		.align	2
  81              	.L4:
  82 0128 1E000000 		.word	.L3
  83 012c 28000000 		.word	.L5
  84 0130 32000000 		.word	.L6
  85 0134 3C000000 		.word	.L7
  86 0138 46000000 		.word	.L8
  87 013c 50000000 		.word	.L9
  88 0140 5A000000 		.word	.L10
  89              		.section	.text.SendBLEStatetoUART
  90              	.L3:
  35:debug.c       **** 	{
  36:debug.c       **** 		case CYBLE_STATE_STOPPED:
  37:debug.c       **** 		#ifdef DEBUG_ENABLED
  38:debug.c       **** 			UART_UartPutString(" |BLE State: CYBLE_STATE_STOPPED ");
  91              		.loc 1 38 0
  92 001e 174B     		ldr	r3, .L12+4
  93 0020 1800     		movs	r0, r3
  94 0022 FFF7FEFF 		bl	UART_UartPutString
  39:debug.c       **** 		#endif
  40:debug.c       **** 		break;
  95              		.loc 1 40 0
  96 0026 22E0     		b	.L11
  97              	.L5:
  41:debug.c       **** 		
  42:debug.c       **** 		case CYBLE_STATE_INITIALIZING:
ARM GAS  C:\Users\ASUS\AppData\Local\Temp\ccfiTo5m.s 			page 4


  43:debug.c       **** 		#ifdef DEBUG_ENABLED
  44:debug.c       **** 			UART_UartPutString(" |BLE State: CYBLE_STATE_INITIALIZING ");
  98              		.loc 1 44 0
  99 0028 154B     		ldr	r3, .L12+8
 100 002a 1800     		movs	r0, r3
 101 002c FFF7FEFF 		bl	UART_UartPutString
  45:debug.c       **** 		#endif
  46:debug.c       **** 		break;
 102              		.loc 1 46 0
 103 0030 1DE0     		b	.L11
 104              	.L6:
  47:debug.c       **** 		
  48:debug.c       **** 		case CYBLE_STATE_CONNECTED:
  49:debug.c       **** 		#ifdef DEBUG_ENABLED
  50:debug.c       **** 			UART_UartPutString(" |BLE State: CYBLE_STATE_CONNECTED ");
 105              		.loc 1 50 0
 106 0032 144B     		ldr	r3, .L12+12
 107 0034 1800     		movs	r0, r3
 108 0036 FFF7FEFF 		bl	UART_UartPutString
  51:debug.c       **** 		#endif
  52:debug.c       **** 		break;
 109              		.loc 1 52 0
 110 003a 18E0     		b	.L11
 111              	.L7:
  53:debug.c       **** 		
  54:debug.c       **** 		case CYBLE_STATE_ADVERTISING:
  55:debug.c       **** 		#ifdef DEBUG_ENABLED
  56:debug.c       **** 			UART_UartPutString(" |BLE State: CYBLE_STATE_ADVERTISING ");
 112              		.loc 1 56 0
 113 003c 124B     		ldr	r3, .L12+16
 114 003e 1800     		movs	r0, r3
 115 0040 FFF7FEFF 		bl	UART_UartPutString
  57:debug.c       **** 		#endif
  58:debug.c       **** 		break;
 116              		.loc 1 58 0
 117 0044 13E0     		b	.L11
 118              	.L8:
  59:debug.c       **** 		
  60:debug.c       **** 		case CYBLE_STATE_SCANNING:
  61:debug.c       **** 		#ifdef DEBUG_ENABLED
  62:debug.c       **** 			UART_UartPutString(" |BLE State: CYBLE_STATE_SCANNING ");
 119              		.loc 1 62 0
 120 0046 114B     		ldr	r3, .L12+20
 121 0048 1800     		movs	r0, r3
 122 004a FFF7FEFF 		bl	UART_UartPutString
  63:debug.c       **** 		#endif
  64:debug.c       **** 		break;
 123              		.loc 1 64 0
 124 004e 0EE0     		b	.L11
 125              	.L9:
  65:debug.c       **** 		
  66:debug.c       **** 		case CYBLE_STATE_CONNECTING:
  67:debug.c       **** 		#ifdef DEBUG_ENABLED
  68:debug.c       **** 			UART_UartPutString(" |BLE State: CYBLE_STATE_CONNECTING ");
 126              		.loc 1 68 0
 127 0050 0F4B     		ldr	r3, .L12+24
 128 0052 1800     		movs	r0, r3
ARM GAS  C:\Users\ASUS\AppData\Local\Temp\ccfiTo5m.s 			page 5


 129 0054 FFF7FEFF 		bl	UART_UartPutString
  69:debug.c       **** 		#endif
  70:debug.c       **** 		break;
 130              		.loc 1 70 0
 131 0058 09E0     		b	.L11
 132              	.L10:
  71:debug.c       **** 		
  72:debug.c       **** 		case CYBLE_STATE_DISCONNECTED:
  73:debug.c       **** 		#ifdef DEBUG_ENABLED
  74:debug.c       **** 			UART_UartPutString(" |BLE State: CYBLE_STATE_DISCONNECTED ");
 133              		.loc 1 74 0
 134 005a 0E4B     		ldr	r3, .L12+28
 135 005c 1800     		movs	r0, r3
 136 005e FFF7FEFF 		bl	UART_UartPutString
  75:debug.c       **** 		#endif
  76:debug.c       **** 		break;
 137              		.loc 1 76 0
 138 0062 04E0     		b	.L11
 139              	.L2:
  77:debug.c       **** 		
  78:debug.c       **** 		default:
  79:debug.c       **** 		#ifdef DEBUG_ENABLED
  80:debug.c       **** 			UART_UartPutString(" |BLE State: UNKNOWN STATE ");
 140              		.loc 1 80 0
 141 0064 0C4B     		ldr	r3, .L12+32
 142 0066 1800     		movs	r0, r3
 143 0068 FFF7FEFF 		bl	UART_UartPutString
  81:debug.c       **** 		#endif
  82:debug.c       **** 		break;
 144              		.loc 1 82 0
 145 006c C046     		nop
 146              	.L11:
  83:debug.c       **** 	}
  84:debug.c       **** }
 147              		.loc 1 84 0
 148 006e C046     		nop
 149 0070 BD46     		mov	sp, r7
 150 0072 02B0     		add	sp, sp, #8
 151              		@ sp needed
 152 0074 80BD     		pop	{r7, pc}
 153              	.L13:
 154 0076 C046     		.align	2
 155              	.L12:
 156 0078 28010000 		.word	.L4
 157 007c 00000000 		.word	.LC1
 158 0080 24000000 		.word	.LC3
 159 0084 4C000000 		.word	.LC5
 160 0088 70000000 		.word	.LC7
 161 008c 98000000 		.word	.LC9
 162 0090 BC000000 		.word	.LC11
 163 0094 E4000000 		.word	.LC13
 164 0098 0C010000 		.word	.LC15
 165              		.cfi_endproc
 166              	.LFE35:
 167              		.size	SendBLEStatetoUART, .-SendBLEStatetoUART
 168              		.global	__aeabi_uidivmod
 169              		.global	__aeabi_uidiv
ARM GAS  C:\Users\ASUS\AppData\Local\Temp\ccfiTo5m.s 			page 6


 170              		.section	.text.PrintNum,"ax",%progbits
 171              		.align	2
 172              		.global	PrintNum
 173              		.code	16
 174              		.thumb_func
 175              		.type	PrintNum, %function
 176              	PrintNum:
 177              	.LFB36:
  85:debug.c       **** 
  86:debug.c       **** /*******************************************************************************
  87:debug.c       **** * Function Name: PrintNum
  88:debug.c       **** ********************************************************************************
  89:debug.c       **** * Summary:
  90:debug.c       **** *        Converts decimal number to characters in ASCII that can be printed on 
  91:debug.c       **** * terminal.
  92:debug.c       **** *
  93:debug.c       **** * Parameters:
  94:debug.c       **** *  num: number to be converted to string.
  95:debug.c       **** *
  96:debug.c       **** * Return:
  97:debug.c       **** *  void
  98:debug.c       **** *
  99:debug.c       **** *******************************************************************************/
 100:debug.c       **** void PrintNum(uint8 num)
 101:debug.c       **** {
 178              		.loc 1 101 0
 179              		.cfi_startproc
 180              		@ args = 0, pretend = 0, frame = 16
 181              		@ frame_needed = 1, uses_anonymous_args = 0
 182 0000 90B5     		push	{r4, r7, lr}
 183              		.cfi_def_cfa_offset 12
 184              		.cfi_offset 4, -12
 185              		.cfi_offset 7, -8
 186              		.cfi_offset 14, -4
 187 0002 85B0     		sub	sp, sp, #20
 188              		.cfi_def_cfa_offset 32
 189 0004 00AF     		add	r7, sp, #0
 190              		.cfi_def_cfa_register 7
 191 0006 0200     		movs	r2, r0
 192 0008 FB1D     		adds	r3, r7, #7
 193 000a 1A70     		strb	r2, [r3]
 102:debug.c       **** 	#ifdef DEBUG_ENABLED
 103:debug.c       **** 	uint8 temp[3];
 104:debug.c       **** 	
 105:debug.c       **** 	temp[0] = num%10;
 194              		.loc 1 105 0
 195 000c FB1D     		adds	r3, r7, #7
 196 000e 1B78     		ldrb	r3, [r3]
 197 0010 0A21     		movs	r1, #10
 198 0012 1800     		movs	r0, r3
 199 0014 FFF7FEFF 		bl	__aeabi_uidivmod
 200 0018 0B00     		movs	r3, r1
 201 001a DAB2     		uxtb	r2, r3
 202 001c 0C23     		movs	r3, #12
 203 001e FB18     		adds	r3, r7, r3
 204 0020 1A70     		strb	r2, [r3]
 106:debug.c       **** 	num = num/10;
ARM GAS  C:\Users\ASUS\AppData\Local\Temp\ccfiTo5m.s 			page 7


 205              		.loc 1 106 0
 206 0022 FC1D     		adds	r4, r7, #7
 207 0024 FB1D     		adds	r3, r7, #7
 208 0026 1B78     		ldrb	r3, [r3]
 209 0028 0A21     		movs	r1, #10
 210 002a 1800     		movs	r0, r3
 211 002c FFF7FEFF 		bl	__aeabi_uidiv
 212 0030 0300     		movs	r3, r0
 213 0032 2370     		strb	r3, [r4]
 107:debug.c       **** 	temp[1] = num%10;
 214              		.loc 1 107 0
 215 0034 FB1D     		adds	r3, r7, #7
 216 0036 1B78     		ldrb	r3, [r3]
 217 0038 0A21     		movs	r1, #10
 218 003a 1800     		movs	r0, r3
 219 003c FFF7FEFF 		bl	__aeabi_uidivmod
 220 0040 0B00     		movs	r3, r1
 221 0042 DAB2     		uxtb	r2, r3
 222 0044 0C23     		movs	r3, #12
 223 0046 FB18     		adds	r3, r7, r3
 224 0048 5A70     		strb	r2, [r3, #1]
 108:debug.c       **** 	num = num/10;
 225              		.loc 1 108 0
 226 004a FC1D     		adds	r4, r7, #7
 227 004c FB1D     		adds	r3, r7, #7
 228 004e 1B78     		ldrb	r3, [r3]
 229 0050 0A21     		movs	r1, #10
 230 0052 1800     		movs	r0, r3
 231 0054 FFF7FEFF 		bl	__aeabi_uidiv
 232 0058 0300     		movs	r3, r0
 233 005a 2370     		strb	r3, [r4]
 109:debug.c       **** 	temp[2] = num%10;
 234              		.loc 1 109 0
 235 005c FB1D     		adds	r3, r7, #7
 236 005e 1B78     		ldrb	r3, [r3]
 237 0060 0A21     		movs	r1, #10
 238 0062 1800     		movs	r0, r3
 239 0064 FFF7FEFF 		bl	__aeabi_uidivmod
 240 0068 0B00     		movs	r3, r1
 241 006a DAB2     		uxtb	r2, r3
 242 006c 0C23     		movs	r3, #12
 243 006e FB18     		adds	r3, r7, r3
 244 0070 9A70     		strb	r2, [r3, #2]
 110:debug.c       **** 	
 111:debug.c       **** 	if(temp[2] == 0)
 245              		.loc 1 111 0
 246 0072 0C23     		movs	r3, #12
 247 0074 FB18     		adds	r3, r7, r3
 248 0076 9B78     		ldrb	r3, [r3, #2]
 249 0078 002B     		cmp	r3, #0
 250 007a 1BD1     		bne	.L15
 112:debug.c       **** 	{
 113:debug.c       **** 		if(temp[1] == 0)
 251              		.loc 1 113 0
 252 007c 0C23     		movs	r3, #12
 253 007e FB18     		adds	r3, r7, r3
 254 0080 5B78     		ldrb	r3, [r3, #1]
ARM GAS  C:\Users\ASUS\AppData\Local\Temp\ccfiTo5m.s 			page 8


 255 0082 002B     		cmp	r3, #0
 256 0084 07D1     		bne	.L16
 114:debug.c       **** 		{
 115:debug.c       **** 			UART_UartPutChar('0' + temp[0]);
 257              		.loc 1 115 0
 258 0086 0C23     		movs	r3, #12
 259 0088 FB18     		adds	r3, r7, r3
 260 008a 1B78     		ldrb	r3, [r3]
 261 008c 3033     		adds	r3, r3, #48
 262 008e 1800     		movs	r0, r3
 263 0090 FFF7FEFF 		bl	UART_SpiUartWriteTxData
 116:debug.c       **** 		}
 117:debug.c       **** 		else
 118:debug.c       **** 		{
 119:debug.c       **** 			UART_UartPutChar('0' + temp[1]);
 120:debug.c       **** 			UART_UartPutChar('0' + temp[0]);	
 121:debug.c       **** 		}
 122:debug.c       **** 	}
 123:debug.c       **** 	else
 124:debug.c       **** 	{
 125:debug.c       **** 		UART_UartPutChar('0' + temp[2]);
 126:debug.c       **** 		UART_UartPutChar('0' + temp[1]);
 127:debug.c       **** 		UART_UartPutChar('0' + temp[0]);
 128:debug.c       **** 	}
 129:debug.c       **** 	#else
 130:debug.c       **** 		num = num;
 131:debug.c       **** 	#endif
 132:debug.c       **** }
 264              		.loc 1 132 0
 265 0094 23E0     		b	.L19
 266              	.L16:
 119:debug.c       **** 			UART_UartPutChar('0' + temp[0]);	
 267              		.loc 1 119 0
 268 0096 0C23     		movs	r3, #12
 269 0098 FB18     		adds	r3, r7, r3
 270 009a 5B78     		ldrb	r3, [r3, #1]
 271 009c 3033     		adds	r3, r3, #48
 272 009e 1800     		movs	r0, r3
 273 00a0 FFF7FEFF 		bl	UART_SpiUartWriteTxData
 120:debug.c       **** 		}
 274              		.loc 1 120 0
 275 00a4 0C23     		movs	r3, #12
 276 00a6 FB18     		adds	r3, r7, r3
 277 00a8 1B78     		ldrb	r3, [r3]
 278 00aa 3033     		adds	r3, r3, #48
 279 00ac 1800     		movs	r0, r3
 280 00ae FFF7FEFF 		bl	UART_SpiUartWriteTxData
 281              		.loc 1 132 0
 282 00b2 14E0     		b	.L19
 283              	.L15:
 125:debug.c       **** 		UART_UartPutChar('0' + temp[1]);
 284              		.loc 1 125 0
 285 00b4 0C23     		movs	r3, #12
 286 00b6 FB18     		adds	r3, r7, r3
 287 00b8 9B78     		ldrb	r3, [r3, #2]
 288 00ba 3033     		adds	r3, r3, #48
 289 00bc 1800     		movs	r0, r3
ARM GAS  C:\Users\ASUS\AppData\Local\Temp\ccfiTo5m.s 			page 9


 290 00be FFF7FEFF 		bl	UART_SpiUartWriteTxData
 126:debug.c       **** 		UART_UartPutChar('0' + temp[0]);
 291              		.loc 1 126 0
 292 00c2 0C23     		movs	r3, #12
 293 00c4 FB18     		adds	r3, r7, r3
 294 00c6 5B78     		ldrb	r3, [r3, #1]
 295 00c8 3033     		adds	r3, r3, #48
 296 00ca 1800     		movs	r0, r3
 297 00cc FFF7FEFF 		bl	UART_SpiUartWriteTxData
 127:debug.c       **** 	}
 298              		.loc 1 127 0
 299 00d0 0C23     		movs	r3, #12
 300 00d2 FB18     		adds	r3, r7, r3
 301 00d4 1B78     		ldrb	r3, [r3]
 302 00d6 3033     		adds	r3, r3, #48
 303 00d8 1800     		movs	r0, r3
 304 00da FFF7FEFF 		bl	UART_SpiUartWriteTxData
 305              	.L19:
 306              		.loc 1 132 0
 307 00de C046     		nop
 308 00e0 BD46     		mov	sp, r7
 309 00e2 05B0     		add	sp, sp, #20
 310              		@ sp needed
 311 00e4 90BD     		pop	{r4, r7, pc}
 312              		.cfi_endproc
 313              	.LFE36:
 314              		.size	PrintNum, .-PrintNum
 315 00e6 C046     		.section	.rodata
 316              		.align	2
 317              	.LC17:
 318 0144 307800   		.ascii	"0x\000"
 319              		.section	.text.PrintHex,"ax",%progbits
 320              		.align	2
 321              		.global	PrintHex
 322              		.code	16
 323              		.thumb_func
 324              		.type	PrintHex, %function
 325              	PrintHex:
 326              	.LFB37:
 133:debug.c       **** 
 134:debug.c       **** /*******************************************************************************
 135:debug.c       **** * Function Name: PrintHex
 136:debug.c       **** ********************************************************************************
 137:debug.c       **** * Summary:
 138:debug.c       **** *        Converts HEX number to characters in ASCII that can be printed on 
 139:debug.c       **** * terminal.
 140:debug.c       **** *
 141:debug.c       **** * Parameters:
 142:debug.c       **** *  num: HEX to be converted to string.
 143:debug.c       **** *
 144:debug.c       **** * Return:
 145:debug.c       **** *  void
 146:debug.c       **** *
 147:debug.c       **** *******************************************************************************/
 148:debug.c       **** void PrintHex(uint8 num)
 149:debug.c       **** {
 327              		.loc 1 149 0
ARM GAS  C:\Users\ASUS\AppData\Local\Temp\ccfiTo5m.s 			page 10


 328              		.cfi_startproc
 329              		@ args = 0, pretend = 0, frame = 16
 330              		@ frame_needed = 1, uses_anonymous_args = 0
 331 0000 80B5     		push	{r7, lr}
 332              		.cfi_def_cfa_offset 8
 333              		.cfi_offset 7, -8
 334              		.cfi_offset 14, -4
 335 0002 84B0     		sub	sp, sp, #16
 336              		.cfi_def_cfa_offset 24
 337 0004 00AF     		add	r7, sp, #0
 338              		.cfi_def_cfa_register 7
 339 0006 0200     		movs	r2, r0
 340 0008 FB1D     		adds	r3, r7, #7
 341 000a 1A70     		strb	r2, [r3]
 150:debug.c       **** 	#ifdef DEBUG_ENABLED
 151:debug.c       **** 	uint8 temp[2];
 152:debug.c       **** 	
 153:debug.c       **** 	temp[0] = num%16;
 342              		.loc 1 153 0
 343 000c FB1D     		adds	r3, r7, #7
 344 000e 1B78     		ldrb	r3, [r3]
 345 0010 0F22     		movs	r2, #15
 346 0012 1340     		ands	r3, r2
 347 0014 DAB2     		uxtb	r2, r3
 348 0016 0C23     		movs	r3, #12
 349 0018 FB18     		adds	r3, r7, r3
 350 001a 1A70     		strb	r2, [r3]
 154:debug.c       **** 	num = num/16;
 351              		.loc 1 154 0
 352 001c FB1D     		adds	r3, r7, #7
 353 001e FA1D     		adds	r2, r7, #7
 354 0020 1278     		ldrb	r2, [r2]
 355 0022 1209     		lsrs	r2, r2, #4
 356 0024 1A70     		strb	r2, [r3]
 155:debug.c       **** 	temp[1] = num%16;
 357              		.loc 1 155 0
 358 0026 FB1D     		adds	r3, r7, #7
 359 0028 1B78     		ldrb	r3, [r3]
 360 002a 0F22     		movs	r2, #15
 361 002c 1340     		ands	r3, r2
 362 002e DAB2     		uxtb	r2, r3
 363 0030 0C23     		movs	r3, #12
 364 0032 FB18     		adds	r3, r7, r3
 365 0034 5A70     		strb	r2, [r3, #1]
 156:debug.c       **** 
 157:debug.c       **** 	UART_UartPutString("0x");
 366              		.loc 1 157 0
 367 0036 184B     		ldr	r3, .L26
 368 0038 1800     		movs	r0, r3
 369 003a FFF7FEFF 		bl	UART_UartPutString
 158:debug.c       **** 	if(temp[1] < 10)
 370              		.loc 1 158 0
 371 003e 0C23     		movs	r3, #12
 372 0040 FB18     		adds	r3, r7, r3
 373 0042 5B78     		ldrb	r3, [r3, #1]
 374 0044 092B     		cmp	r3, #9
 375 0046 07D8     		bhi	.L21
ARM GAS  C:\Users\ASUS\AppData\Local\Temp\ccfiTo5m.s 			page 11


 159:debug.c       **** 	{
 160:debug.c       **** 		UART_UartPutChar('0' + temp[1]);
 376              		.loc 1 160 0
 377 0048 0C23     		movs	r3, #12
 378 004a FB18     		adds	r3, r7, r3
 379 004c 5B78     		ldrb	r3, [r3, #1]
 380 004e 3033     		adds	r3, r3, #48
 381 0050 1800     		movs	r0, r3
 382 0052 FFF7FEFF 		bl	UART_SpiUartWriteTxData
 383 0056 06E0     		b	.L22
 384              	.L21:
 161:debug.c       **** 	}
 162:debug.c       **** 	else
 163:debug.c       **** 	{
 164:debug.c       **** 		UART_UartPutChar('A' + (temp[1] - 10));
 385              		.loc 1 164 0
 386 0058 0C23     		movs	r3, #12
 387 005a FB18     		adds	r3, r7, r3
 388 005c 5B78     		ldrb	r3, [r3, #1]
 389 005e 3733     		adds	r3, r3, #55
 390 0060 1800     		movs	r0, r3
 391 0062 FFF7FEFF 		bl	UART_SpiUartWriteTxData
 392              	.L22:
 165:debug.c       **** 	}
 166:debug.c       **** 
 167:debug.c       **** 	if(temp[0] < 10)
 393              		.loc 1 167 0
 394 0066 0C23     		movs	r3, #12
 395 0068 FB18     		adds	r3, r7, r3
 396 006a 1B78     		ldrb	r3, [r3]
 397 006c 092B     		cmp	r3, #9
 398 006e 07D8     		bhi	.L23
 168:debug.c       **** 	{
 169:debug.c       **** 		UART_UartPutChar('0' + temp[0]);
 399              		.loc 1 169 0
 400 0070 0C23     		movs	r3, #12
 401 0072 FB18     		adds	r3, r7, r3
 402 0074 1B78     		ldrb	r3, [r3]
 403 0076 3033     		adds	r3, r3, #48
 404 0078 1800     		movs	r0, r3
 405 007a FFF7FEFF 		bl	UART_SpiUartWriteTxData
 170:debug.c       **** 	}
 171:debug.c       **** 	else
 172:debug.c       **** 	{
 173:debug.c       **** 		UART_UartPutChar('A' + (temp[0] - 10));
 174:debug.c       **** 	}	
 175:debug.c       **** 	#else
 176:debug.c       **** 		num = num;
 177:debug.c       **** 	#endif
 178:debug.c       **** }
 406              		.loc 1 178 0
 407 007e 06E0     		b	.L25
 408              	.L23:
 173:debug.c       **** 	}	
 409              		.loc 1 173 0
 410 0080 0C23     		movs	r3, #12
 411 0082 FB18     		adds	r3, r7, r3
ARM GAS  C:\Users\ASUS\AppData\Local\Temp\ccfiTo5m.s 			page 12


 412 0084 1B78     		ldrb	r3, [r3]
 413 0086 3733     		adds	r3, r3, #55
 414 0088 1800     		movs	r0, r3
 415 008a FFF7FEFF 		bl	UART_SpiUartWriteTxData
 416              	.L25:
 417              		.loc 1 178 0
 418 008e C046     		nop
 419 0090 BD46     		mov	sp, r7
 420 0092 04B0     		add	sp, sp, #16
 421              		@ sp needed
 422 0094 80BD     		pop	{r7, pc}
 423              	.L27:
 424 0096 C046     		.align	2
 425              	.L26:
 426 0098 44010000 		.word	.LC17
 427              		.cfi_endproc
 428              	.LFE37:
 429              		.size	PrintHex, .-PrintHex
 430              		.text
 431              	.Letext0:
 432              		.file 2 "Generated_Source\\PSoC4/cytypes.h"
 433              		.file 3 "Generated_Source\\PSoC4/BLE_Stack.h"
 434              		.file 4 "Generated_Source\\PSoC4/BLE_eventHandler.h"
 435              		.file 5 "./main.h"