ARM GAS  C:\Users\ASUS\AppData\Local\Temp\ccqrgHa3.s 			page 1


   1              		.syntax unified
   2              		.cpu cortex-m0
   3              		.fpu softvfp
   4              		.eabi_attribute 20, 1
   5              		.eabi_attribute 21, 1
   6              		.eabi_attribute 23, 3
   7              		.eabi_attribute 24, 1
   8              		.eabi_attribute 25, 1
   9              		.eabi_attribute 26, 1
  10              		.eabi_attribute 30, 6
  11              		.eabi_attribute 34, 0
  12              		.eabi_attribute 18, 4
  13              		.thumb
  14              		.syntax unified
  15              		.file	"main.c"
  16              		.text
  17              	.Ltext0:
  18              		.cfi_sections	.debug_frame
  19              		.comm	current_watchdog_counter,2,2
  20              		.global	RGB_Collection
  21              		.data
  22              		.align	2
  23              		.type	RGB_Collection, %object
  24              		.size	RGB_Collection, 16
  25              	RGB_Collection:
  26 0000 00       		.byte	0
  27 0001 00       		.byte	0
  28 0002 FF       		.byte	-1
  29 0003 FF       		.byte	-1
  30 0004 FF       		.byte	-1
  31 0005 00       		.byte	0
  32 0006 FF       		.byte	-1
  33 0007 FF       		.byte	-1
  34 0008 00       		.byte	0
  35 0009 FF       		.byte	-1
  36 000a 00       		.byte	0
  37 000b FF       		.byte	-1
  38 000c FF       		.byte	-1
  39 000d FF       		.byte	-1
  40 000e 00       		.byte	0
  41 000f FF       		.byte	-1
  42              		.global	RED_COLOR
  43              		.align	2
  44              		.type	RED_COLOR, %object
  45              		.size	RED_COLOR, 4
  46              	RED_COLOR:
  47 0010 FF       		.byte	-1
  48 0011 00       		.byte	0
  49 0012 00       		.byte	0
  50 0013 FF       		.byte	-1
  51              		.global	DEVICE_INDEX
  52              		.align	2
  53              		.type	DEVICE_INDEX, %object
  54              		.size	DEVICE_INDEX, 4
  55              	DEVICE_INDEX:
  56 0014 01000000 		.word	1
  57              		.global	Change_Color_Period
ARM GAS  C:\Users\ASUS\AppData\Local\Temp\ccqrgHa3.s 			page 2


  58              		.align	2
  59              		.type	Change_Color_Period, %object
  60              		.size	Change_Color_Period, 4
  61              	Change_Color_Period:
  62 0018 DC050000 		.word	1500
  63              		.global	Is_Free_Period
  64              		.align	2
  65              		.type	Is_Free_Period, %object
  66              		.size	Is_Free_Period, 4
  67              	Is_Free_Period:
  68 001c 94110000 		.word	4500
  69              		.comm	Waiting_Time_Period,4,4
  70              		.comm	Heart_beat_Period,4,4
  71              		.global	NEXT_NEIGHBOUR_INDEX
  72              		.type	NEXT_NEIGHBOUR_INDEX, %object
  73              		.size	NEXT_NEIGHBOUR_INDEX, 1
  74              	NEXT_NEIGHBOUR_INDEX:
  75 0020 01       		.byte	1
  76              		.global	NETWORK_IS_FREE
  77              		.type	NETWORK_IS_FREE, %object
  78              		.size	NETWORK_IS_FREE, 1
  79              	NETWORK_IS_FREE:
  80 0021 01       		.byte	1
  81              		.global	NUM_EXCEEDED_WAITING_TIME
  82              		.bss
  83              		.align	2
  84              		.type	NUM_EXCEEDED_WAITING_TIME, %object
  85              		.size	NUM_EXCEEDED_WAITING_TIME, 4
  86              	NUM_EXCEEDED_WAITING_TIME:
  87 0000 00000000 		.space	4
  88              		.comm	TEXT_BUF,50,4
  89              		.global	interrupt_counter
  90              		.align	2
  91              		.type	interrupt_counter, %object
  92              		.size	interrupt_counter, 4
  93              	interrupt_counter:
  94 0004 00000000 		.space	4
  95              		.section	.text.main,"ax",%progbits
  96              		.align	2
  97              		.global	main
  98              		.code	16
  99              		.thumb_func
 100              		.type	main, %function
 101              	main:
 102              	.LFB36:
 103              		.file 1 "main.c"
   1:main.c        **** /******************************************************************************
   2:main.c        **** * Project Name		: Mesh_Flood_PSoC4BLE
   3:main.c        **** * File Name			: main.c
   4:main.c        **** * Version 			: 1.0
   5:main.c        **** * Device Used		: CY8C4247LQI-BL483
   6:main.c        **** * Software Used		: PSoC Creator 3.1 SP1
   7:main.c        **** * Compiler    		: ARM GCC 4.8.4, ARM RVDS Generic, ARM MDK Generic
   8:main.c        **** * Related Hardware	: CY8CKIT-042-BLE Bluetooth Low Energy Pioneer Kit 
   9:main.c        **** * Owner             : roit@cypress.com
  10:main.c        **** *
  11:main.c        **** ********************************************************************************
ARM GAS  C:\Users\ASUS\AppData\Local\Temp\ccqrgHa3.s 			page 3


  12:main.c        **** * Copyright (2014-15), Cypress Semiconductor Corporation. All Rights Reserved.
  13:main.c        **** ********************************************************************************
  14:main.c        **** * This software is owned by Cypress Semiconductor Corporation (Cypress)
  15:main.c        **** * and is protected by and subject to worldwide patent protection (United
  16:main.c        **** * States and foreign), United States copyright laws and international treaty
  17:main.c        **** * provisions. Cypress hereby grants to licensee a personal, non-exclusive,
  18:main.c        **** * non-transferable license to copy, use, modify, create derivative works of,
  19:main.c        **** * and compile the Cypress Source Code and derivative works for the sole
  20:main.c        **** * purpose of creating custom software in support of licensee product to be
  21:main.c        **** * used only in conjunction with a Cypress integrated circuit as specified in
  22:main.c        **** * the applicable agreement. Any reproduction, modification, translation,
  23:main.c        **** * compilation, or representation of this software except as specified above 
  24:main.c        **** * is prohibited without the express written permission of Cypress.
  25:main.c        **** *
  26:main.c        **** * Disclaimer: CYPRESS MAKES NO WARRANTY OF ANY KIND, EXPRESS OR IMPLIED, WITH 
  27:main.c        **** * REGARD TO THIS MATERIAL, INCLUDING, BUT NOT LIMITED TO, THE IMPLIED 
  28:main.c        **** * WARRANTIES OF MERCHANTABILITY AND FITNESS FOR A PARTICULAR PURPOSE.
  29:main.c        **** * Cypress reserves the right to make changes without further notice to the 
  30:main.c        **** * materials described herein. Cypress does not assume any liability arising out 
  31:main.c        **** * of the application or use of any product or circuit described herein. Cypress 
  32:main.c        **** * does not authorize its products for use as critical components in life-support 
  33:main.c        **** * systems where a malfunction or failure may reasonably be expected to result in 
  34:main.c        **** * significant injury to the user. The inclusion of Cypress' product in a life-
  35:main.c        **** * support systems application implies that the manufacturer assumes all risk of 
  36:main.c        **** * such use and in doing so indemnifies Cypress against all charges. 
  37:main.c        **** *
  38:main.c        **** * Use of this Software may be limited by and subject to the applicable Cypress
  39:main.c        **** * software license agreement. 
  40:main.c        **** *******************************************************************************/
  41:main.c        **** #include <stdio.h>
  42:main.c        **** 
  43:main.c        **** #include <main.h>
  44:main.c        **** 
  45:main.c        **** extern uint8 switch_Role;
  46:main.c        **** extern uint8 ble_gap_state;
  47:main.c        **** extern uint8 deviceConnected;
  48:main.c        **** 
  49:main.c        **** extern uint8 restartScanning;
  50:main.c        **** 
  51:main.c        **** extern uint8 dataADVCounter;
  52:main.c        **** 
  53:main.c        **** 
  54:main.c        **** #ifdef ENABLE_ADV_DATA_COUNTER
  55:main.c        **** extern CYBLE_GAPP_DISC_DATA_T  new_advData;
  56:main.c        **** extern uint8 potential_node_found;
  57:main.c        **** extern uint8 potential_node_bdAddr[6];
  58:main.c        **** extern uint8 potential_node_bdAddrType;
  59:main.c        **** #endif
  60:main.c        **** 
  61:main.c        **** extern uint8 clientConnectToDevice;
  62:main.c        **** extern CYBLE_GAP_BD_ADDR_T				peripAddr;
  63:main.c        **** 
  64:main.c        **** CY_ISR_PROTO(CC_TC_InterruptHandler);
  65:main.c        **** CY_ISR_PROTO(Timer_Waiting_Time_Interrupt_Handler);
  66:main.c        **** CY_ISR_PROTO(Timer_Is_Free_Interrupt_Handler);
  67:main.c        **** CY_ISR_PROTO(Timer_Heart_beat_Interrupt_Handler);
  68:main.c        **** 
ARM GAS  C:\Users\ASUS\AppData\Local\Temp\ccqrgHa3.s 			page 4


  69:main.c        **** uint8 RGB_Collection[4][4] = {
  70:main.c        ****     {0, 0, 0xFF, 0xFF},
  71:main.c        ****     {0xFF, 0, 0xFF, 0xFF},
  72:main.c        ****     {0, 0xFF, 0, 0xFF},
  73:main.c        ****     {0xFF, 0xFF, 0, 0xFF},
  74:main.c        **** };
  75:main.c        **** 
  76:main.c        **** uint8 RED_COLOR[4] = {0xFF, 0, 0, 0xFF};
  77:main.c        **** 
  78:main.c        **** 
  79:main.c        **** int DEVICE_INDEX = 1;
  80:main.c        **** 
  81:main.c        **** int Change_Color_Period = 1500;
  82:main.c        **** int Is_Free_Period = 4500; // of the whole network
  83:main.c        **** int Waiting_Time_Period;
  84:main.c        **** 
  85:main.c        **** int Heart_beat_Period;
  86:main.c        **** 
  87:main.c        **** 
  88:main.c        **** uint8 NEXT_NEIGHBOUR_INDEX = 1;
  89:main.c        **** bool NETWORK_IS_FREE = true;
  90:main.c        **** 
  91:main.c        **** int NUM_EXCEEDED_WAITING_TIME = 0;
  92:main.c        **** char TEXT_BUF[50];
  93:main.c        **** 
  94:main.c        **** int interrupt_counter = 0;
  95:main.c        **** 
  96:main.c        **** /*******************************************************************************
  97:main.c        **** * Function Name: main
  98:main.c        **** ********************************************************************************
  99:main.c        **** * Summary:
 100:main.c        **** *       Entry point for the firmware, Starts the system and continuously processes
 101:main.c        **** * Application and BLE events.
 102:main.c        **** *
 103:main.c        **** * Parameters:
 104:main.c        **** *  void
 105:main.c        **** *
 106:main.c        **** * Return:
 107:main.c        **** *  int
 108:main.c        **** *
 109:main.c        **** *******************************************************************************/
 110:main.c        **** int main()
 111:main.c        **** {
 104              		.loc 1 111 0
 105              		.cfi_startproc
 106              		@ args = 0, pretend = 0, frame = 0
 107              		@ frame_needed = 1, uses_anonymous_args = 0
 108 0000 80B5     		push	{r7, lr}
 109              		.cfi_def_cfa_offset 8
 110              		.cfi_offset 7, -8
 111              		.cfi_offset 14, -4
 112 0002 00AF     		add	r7, sp, #0
 113              		.cfi_def_cfa_register 7
 112:main.c        ****     /* Initialize system */	
 113:main.c        **** 	InitializeSystem();
 114              		.loc 1 113 0
 115 0004 FFF7FEFF 		bl	InitializeSystem
ARM GAS  C:\Users\ASUS\AppData\Local\Temp\ccqrgHa3.s 			page 5


 116              	.L2:
 114:main.c        **** 	
 115:main.c        **** 	#ifdef DEBUG_ENABLED
 116:main.c        **** 		UART_UartPutString("Sytem Started ");
 117:main.c        **** 		UART_UartPutCRLF(' ');
 118:main.c        **** 	#endif
 119:main.c        ****    
 120:main.c        ****     for(;;)
 121:main.c        ****     {               
 122:main.c        **** 		/* Process BLE Events. This function generates the respective 
 123:main.c        **** 		* events to application layer */
 124:main.c        **** 		CyBle_ProcessEvents();
 117              		.loc 1 124 0 discriminator 1
 118 0008 FFF7FEFF 		bl	CyBle_ProcessEvents
 125:main.c        **** 
 126:main.c        **** 		/* If flag is set, then switch the GAP role between Peripheral and 
 127:main.c        **** 		* Central. This function disconnects existing connection, if any, 
 128:main.c        **** 		* before switching role. Depending on switched role, the system will
 129:main.c        **** 		* either start scanning or start advertisement */
 130:main.c        **** 		SwitchRole();
 119              		.loc 1 130 0 discriminator 1
 120 000c FFF7FEFF 		bl	SwitchRole
 131:main.c        **** 		
 132:main.c        **** 		/* If a valid node is found, then this function will initiate a connection 
 133:main.c        **** 		* to that node. */
 134:main.c        **** 		ConnectToPeripheralDevice();
 121              		.loc 1 134 0 discriminator 1
 122 0010 FFF7FEFF 		bl	ConnectToPeripheralDevice
 135:main.c        **** 		
 136:main.c        **** 		/* This function will restart scanning when earlier connection has been
 137:main.c        **** 		* disconnected. This function also checks internal counter and sets flag to
 138:main.c        **** 		* switch role from Central to Peripheral when the count is above set value. */
 139:main.c        **** 		RestartCentralScanning();
 123              		.loc 1 139 0 discriminator 1
 124 0014 FFF7FEFF 		bl	RestartCentralScanning
 140:main.c        ****     }
 125              		.loc 1 140 0 discriminator 1
 126 0018 F6E7     		b	.L2
 127              		.cfi_endproc
 128              	.LFE36:
 129              		.size	main, .-main
 130 001a C046     		.section	.rodata
 131              		.align	2
 132              	.LC13:
 133 0000 48656C6C 		.ascii	"Helloushki\012\000"
 133      6F757368 
 133      6B690A00 
 134              		.section	.text.InitializeSystem,"ax",%progbits
 135              		.align	2
 136              		.global	InitializeSystem
 137              		.code	16
 138              		.thumb_func
 139              		.type	InitializeSystem, %function
 140              	InitializeSystem:
 141              	.LFB37:
 141:main.c        **** }
 142:main.c        **** 
ARM GAS  C:\Users\ASUS\AppData\Local\Temp\ccqrgHa3.s 			page 6


 143:main.c        **** /*******************************************************************************
 144:main.c        **** * Function Name: InitializeSystem
 145:main.c        **** ********************************************************************************
 146:main.c        **** * Summary:
 147:main.c        **** *       Starts the components in the project and registers BLE event handler 
 148:main.c        **** * function. It also modifies the advertisement packet and appends data counter
 149:main.c        **** * at its end.
 150:main.c        **** *
 151:main.c        **** * Parameters:
 152:main.c        **** *  void
 153:main.c        **** *
 154:main.c        **** * Return:
 155:main.c        **** *  void
 156:main.c        **** *
 157:main.c        **** *******************************************************************************/
 158:main.c        **** void InitializeSystem(void)
 159:main.c        **** {
 142              		.loc 1 159 0
 143              		.cfi_startproc
 144              		@ args = 0, pretend = 0, frame = 0
 145              		@ frame_needed = 1, uses_anonymous_args = 0
 146 0000 80B5     		push	{r7, lr}
 147              		.cfi_def_cfa_offset 8
 148              		.cfi_offset 7, -8
 149              		.cfi_offset 14, -4
 150 0002 00AF     		add	r7, sp, #0
 151              		.cfi_def_cfa_register 7
 160:main.c        **** 	/* Enable global interrupts. */
 161:main.c        **** 	CyGlobalIntEnable;
 152              		.loc 1 161 0
 153              		.syntax divided
 154              	@ 161 "main.c" 1
 155 0004 62B6     		CPSIE   i
 156              	@ 0 "" 2
 162:main.c        **** 	
 163:main.c        **** 	/* Start BLE component and Register the generic Event callback function */
 164:main.c        **** 	CyBle_Start(GenericEventHandler);
 157              		.loc 1 164 0
 158              		.thumb
 159              		.syntax unified
 160 0006 414B     		ldr	r3, .L6
 161 0008 1800     		movs	r0, r3
 162 000a FFF7FEFF 		bl	CyBle_Start
 165:main.c        ****     
 166:main.c        ****     // Define interrupt handle for color changes
 167:main.c        ****     //PWM_1sWindow_Start();
 168:main.c        ****     Timer_Change_Color_WritePeriod(Change_Color_Period);
 163              		.loc 1 168 0
 164 000e 404B     		ldr	r3, .L6+4
 165 0010 1B68     		ldr	r3, [r3]
 166 0012 1800     		movs	r0, r3
 167 0014 FFF7FEFF 		bl	Timer_Change_Color_WritePeriod
 169:main.c        ****     Timer_Change_Color_Start();
 168              		.loc 1 169 0
 169 0018 FFF7FEFF 		bl	Timer_Change_Color_Start
 170:main.c        ****     isr_Timer_Change_Color_StartEx(CC_TC_InterruptHandler);
 170              		.loc 1 170 0
ARM GAS  C:\Users\ASUS\AppData\Local\Temp\ccqrgHa3.s 			page 7


 171 001c 3D4B     		ldr	r3, .L6+8
 172 001e 1800     		movs	r0, r3
 173 0020 FFF7FEFF 		bl	isr_Timer_Change_Color_StartEx
 171:main.c        ****     
 172:main.c        ****     Heart_beat_Period = 2 * Is_Free_Period;
 174              		.loc 1 172 0
 175 0024 3C4B     		ldr	r3, .L6+12
 176 0026 1B68     		ldr	r3, [r3]
 177 0028 5A00     		lsls	r2, r3, #1
 178 002a 3C4B     		ldr	r3, .L6+16
 179 002c 1A60     		str	r2, [r3]
 173:main.c        ****     Waiting_Time_Period = 2 * Heart_beat_Period;
 180              		.loc 1 173 0
 181 002e 3B4B     		ldr	r3, .L6+16
 182 0030 1B68     		ldr	r3, [r3]
 183 0032 5A00     		lsls	r2, r3, #1
 184 0034 3A4B     		ldr	r3, .L6+20
 185 0036 1A60     		str	r2, [r3]
 174:main.c        ****     
 175:main.c        ****     Isr_Waiting_Time_StartEx(Timer_Waiting_Time_Interrupt_Handler);
 186              		.loc 1 175 0
 187 0038 3A4B     		ldr	r3, .L6+24
 188 003a 1800     		movs	r0, r3
 189 003c FFF7FEFF 		bl	Isr_Waiting_Time_StartEx
 176:main.c        ****     Timer_Is_Free_isr_StartEx(Timer_Is_Free_Interrupt_Handler);
 190              		.loc 1 176 0
 191 0040 394B     		ldr	r3, .L6+28
 192 0042 1800     		movs	r0, r3
 193 0044 FFF7FEFF 		bl	Timer_Is_Free_isr_StartEx
 177:main.c        ****     
 178:main.c        ****     if (DEVICE_INDEX == 0)
 194              		.loc 1 178 0
 195 0048 384B     		ldr	r3, .L6+32
 196 004a 1B68     		ldr	r3, [r3]
 197 004c 002B     		cmp	r3, #0
 198 004e 0AD1     		bne	.L4
 179:main.c        ****     {
 180:main.c        ****         Timer_Heart_beat_WritePeriod(Heart_beat_Period);
 199              		.loc 1 180 0
 200 0050 324B     		ldr	r3, .L6+16
 201 0052 1B68     		ldr	r3, [r3]
 202 0054 1800     		movs	r0, r3
 203 0056 FFF7FEFF 		bl	Timer_Heart_beat_WritePeriod
 181:main.c        ****         Timer_Heart_beat_Start();
 204              		.loc 1 181 0
 205 005a FFF7FEFF 		bl	Timer_Heart_beat_Start
 182:main.c        ****         Isr_Heart_beat_StartEx(Timer_Heart_beat_Interrupt_Handler);
 206              		.loc 1 182 0
 207 005e 344B     		ldr	r3, .L6+36
 208 0060 1800     		movs	r0, r3
 209 0062 FFF7FEFF 		bl	Isr_Heart_beat_StartEx
 210              	.L4:
 183:main.c        ****     }
 184:main.c        ****     
 185:main.c        **** 	
 186:main.c        **** 	/* Start the PrISM component and configure drive mode of LED pins to be
 187:main.c        **** 	* initially OFF*/
ARM GAS  C:\Users\ASUS\AppData\Local\Temp\ccqrgHa3.s 			page 8


 188:main.c        **** 	PrISM_1_Start();
 211              		.loc 1 188 0
 212 0066 FFF7FEFF 		bl	PrISM_1_Start
 189:main.c        **** 	PrISM_2_Start();
 213              		.loc 1 189 0
 214 006a FFF7FEFF 		bl	PrISM_2_Start
 190:main.c        **** 	
 191:main.c        **** 	PrISM_1_WritePulse0(255);
 215              		.loc 1 191 0
 216 006e FF20     		movs	r0, #255
 217 0070 FFF7FEFF 		bl	PrISM_1_WritePulse0
 192:main.c        **** 	PrISM_1_WritePulse1(255);
 218              		.loc 1 192 0
 219 0074 FF20     		movs	r0, #255
 220 0076 FFF7FEFF 		bl	PrISM_1_WritePulse1
 193:main.c        **** 	PrISM_2_WritePulse0(255);
 221              		.loc 1 193 0
 222 007a FF20     		movs	r0, #255
 223 007c FFF7FEFF 		bl	PrISM_2_WritePulse0
 194:main.c        **** 	
 195:main.c        **** 	RED_SetDriveMode(RED_DM_STRONG);
 224              		.loc 1 195 0
 225 0080 0620     		movs	r0, #6
 226 0082 FFF7FEFF 		bl	RED_SetDriveMode
 196:main.c        **** 	GREEN_SetDriveMode(GREEN_DM_STRONG);
 227              		.loc 1 196 0
 228 0086 0620     		movs	r0, #6
 229 0088 FFF7FEFF 		bl	GREEN_SetDriveMode
 197:main.c        **** 	BLUE_SetDriveMode(BLUE_DM_STRONG);
 230              		.loc 1 197 0
 231 008c 0620     		movs	r0, #6
 232 008e FFF7FEFF 		bl	BLUE_SetDriveMode
 198:main.c        **** 	
 199:main.c        **** 	/* Configure the Watchdog (WDT) timer for 100 millisecond timing */
 200:main.c        **** 	InitializeWatchdog(WATCHDOG_COUNT_VAL);
 233              		.loc 1 200 0
 234 0092 284B     		ldr	r3, .L6+40
 235 0094 1800     		movs	r0, r3
 236 0096 FFF7FEFF 		bl	InitializeWatchdog
 201:main.c        **** 
 202:main.c        **** 	#ifdef ENABLE_ADV_DATA_COUNTER
 203:main.c        **** 	new_advData = *cyBle_discoveryModeInfo.advData;
 237              		.loc 1 203 0
 238 009a 274B     		ldr	r3, .L6+44
 239 009c 9B68     		ldr	r3, [r3, #8]
 240 009e 274A     		ldr	r2, .L6+48
 241 00a0 1000     		movs	r0, r2
 242 00a2 1900     		movs	r1, r3
 243 00a4 2023     		movs	r3, #32
 244 00a6 1A00     		movs	r2, r3
 245 00a8 FFF7FEFF 		bl	memcpy
 204:main.c        **** 	
 205:main.c        **** 	if( cyBle_discoveryModeInfo.advData->advDataLen < 29)
 246              		.loc 1 205 0
 247 00ac 224B     		ldr	r3, .L6+44
 248 00ae 9B68     		ldr	r3, [r3, #8]
 249 00b0 DB7F     		ldrb	r3, [r3, #31]
ARM GAS  C:\Users\ASUS\AppData\Local\Temp\ccqrgHa3.s 			page 9


 250 00b2 1C2B     		cmp	r3, #28
 251 00b4 15D8     		bhi	.L5
 206:main.c        **** 	{
 207:main.c        **** 		/* Initialize the DataCounter data in advertisement packet. This is custom data in 
 208:main.c        **** 		* ADV packet and used to track whether the RGB LED data is latest or not */
 209:main.c        **** 		new_advData.advData[cyBle_discoveryModeInfo.advData->advDataLen] = CUSTOM_ADV_DATA_MARKER;	
 252              		.loc 1 209 0
 253 00b6 204B     		ldr	r3, .L6+44
 254 00b8 9B68     		ldr	r3, [r3, #8]
 255 00ba DB7F     		ldrb	r3, [r3, #31]
 256 00bc 1A00     		movs	r2, r3
 257 00be 1F4B     		ldr	r3, .L6+48
 258 00c0 0121     		movs	r1, #1
 259 00c2 9954     		strb	r1, [r3, r2]
 210:main.c        **** 		new_advData.advData[cyBle_discoveryModeInfo.advData->advDataLen+1] = dataADVCounter;
 260              		.loc 1 210 0
 261 00c4 1C4B     		ldr	r3, .L6+44
 262 00c6 9B68     		ldr	r3, [r3, #8]
 263 00c8 DB7F     		ldrb	r3, [r3, #31]
 264 00ca 0133     		adds	r3, r3, #1
 265 00cc 1C4A     		ldr	r2, .L6+52
 266 00ce 1178     		ldrb	r1, [r2]
 267 00d0 1A4A     		ldr	r2, .L6+48
 268 00d2 D154     		strb	r1, [r2, r3]
 211:main.c        **** 		new_advData.advDataLen = cyBle_discoveryModeInfo.advData->advDataLen+2;
 269              		.loc 1 211 0
 270 00d4 184B     		ldr	r3, .L6+44
 271 00d6 9B68     		ldr	r3, [r3, #8]
 272 00d8 DB7F     		ldrb	r3, [r3, #31]
 273 00da 0233     		adds	r3, r3, #2
 274 00dc DAB2     		uxtb	r2, r3
 275 00de 174B     		ldr	r3, .L6+48
 276 00e0 DA77     		strb	r2, [r3, #31]
 277              	.L5:
 212:main.c        **** 	}
 213:main.c        **** 	
 214:main.c        **** 	/* Assign the new ADV data to stack */
 215:main.c        **** 	cyBle_discoveryModeInfo.advData = &new_advData;
 278              		.loc 1 215 0
 279 00e2 154B     		ldr	r3, .L6+44
 280 00e4 154A     		ldr	r2, .L6+48
 281 00e6 9A60     		str	r2, [r3, #8]
 216:main.c        **** 	#endif
 217:main.c        **** 		
 218:main.c        **** 	/* Provide a color pusle on RGB LED to indicate startup */
 219:main.c        **** 	PrISM_1_WritePulse1(128);
 282              		.loc 1 219 0
 283 00e8 8020     		movs	r0, #128
 284 00ea FFF7FEFF 		bl	PrISM_1_WritePulse1
 220:main.c        **** 	CyDelay(20);
 285              		.loc 1 220 0
 286 00ee 1420     		movs	r0, #20
 287 00f0 FFF7FEFF 		bl	CyDelay
 221:main.c        **** 	PrISM_1_WritePulse1(255);
 288              		.loc 1 221 0
 289 00f4 FF20     		movs	r0, #255
 290 00f6 FFF7FEFF 		bl	PrISM_1_WritePulse1
ARM GAS  C:\Users\ASUS\AppData\Local\Temp\ccqrgHa3.s 			page 10


 222:main.c        **** 	
 223:main.c        ****     UART_Start();
 291              		.loc 1 223 0
 292 00fa FFF7FEFF 		bl	UART_Start
 224:main.c        ****     UART_UartPutString("Helloushki\n");
 293              		.loc 1 224 0
 294 00fe 114B     		ldr	r3, .L6+56
 295 0100 1800     		movs	r0, r3
 296 0102 FFF7FEFF 		bl	UART_UartPutString
 225:main.c        **** 	#ifdef DEBUG_ENABLED
 226:main.c        **** 		
 227:main.c        **** 		UART_UartPutString("--------------------------Mesh Flood-----------------------------------------
 228:main.c        **** 		UART_UartPutCRLF(' ');
 229:main.c        **** 	#endif
 230:main.c        **** }
 297              		.loc 1 230 0
 298 0106 C046     		nop
 299 0108 BD46     		mov	sp, r7
 300              		@ sp needed
 301 010a 80BD     		pop	{r7, pc}
 302              	.L7:
 303              		.align	2
 304              	.L6:
 305 010c 00000000 		.word	GenericEventHandler
 306 0110 00000000 		.word	Change_Color_Period
 307 0114 00000000 		.word	CC_TC_InterruptHandler
 308 0118 00000000 		.word	Is_Free_Period
 309 011c 00000000 		.word	Heart_beat_Period
 310 0120 00000000 		.word	Waiting_Time_Period
 311 0124 00000000 		.word	Timer_Waiting_Time_Interrupt_Handler
 312 0128 00000000 		.word	Timer_Is_Free_Interrupt_Handler
 313 012c 00000000 		.word	DEVICE_INDEX
 314 0130 00000000 		.word	Timer_Heart_beat_Interrupt_Handler
 315 0134 CC0C0000 		.word	3276
 316 0138 00000000 		.word	cyBle_discoveryModeInfo
 317 013c 00000000 		.word	new_advData
 318 0140 00000000 		.word	dataADVCounter
 319 0144 00000000 		.word	.LC13
 320              		.cfi_endproc
 321              	.LFE37:
 322              		.size	InitializeSystem, .-InitializeSystem
 323              		.section	.text.sendColorDataToPeripheral,"ax",%progbits
 324              		.align	2
 325              		.global	sendColorDataToPeripheral
 326              		.code	16
 327              		.thumb_func
 328              		.type	sendColorDataToPeripheral, %function
 329              	sendColorDataToPeripheral:
 330              	.LFB38:
 231:main.c        **** 
 232:main.c        **** 
 233:main.c        **** void sendColorDataToPeripheral()
 234:main.c        **** {
 331              		.loc 1 234 0
 332              		.cfi_startproc
 333              		@ args = 0, pretend = 0, frame = 0
 334              		@ frame_needed = 1, uses_anonymous_args = 0
ARM GAS  C:\Users\ASUS\AppData\Local\Temp\ccqrgHa3.s 			page 11


 335 0000 80B5     		push	{r7, lr}
 336              		.cfi_def_cfa_offset 8
 337              		.cfi_offset 7, -8
 338              		.cfi_offset 14, -4
 339 0002 00AF     		add	r7, sp, #0
 340              		.cfi_def_cfa_register 7
 235:main.c        ****     sendColorDataToNetwork(RGB_Collection[interrupt_counter]);
 341              		.loc 1 235 0
 342 0004 174B     		ldr	r3, .L10
 343 0006 1B68     		ldr	r3, [r3]
 344 0008 9A00     		lsls	r2, r3, #2
 345 000a 174B     		ldr	r3, .L10+4
 346 000c D318     		adds	r3, r2, r3
 347 000e 1800     		movs	r0, r3
 348 0010 FFF7FEFF 		bl	sendColorDataToNetwork
 236:main.c        ****     SwitchRole();
 349              		.loc 1 236 0
 350 0014 FFF7FEFF 		bl	SwitchRole
 237:main.c        **** 	ConnectToPeripheralDevice();
 351              		.loc 1 237 0
 352 0018 FFF7FEFF 		bl	ConnectToPeripheralDevice
 238:main.c        **** 	RestartCentralScanning();
 353              		.loc 1 238 0
 354 001c FFF7FEFF 		bl	RestartCentralScanning
 239:main.c        ****     
 240:main.c        ****     interrupt_counter++;
 355              		.loc 1 240 0
 356 0020 104B     		ldr	r3, .L10
 357 0022 1B68     		ldr	r3, [r3]
 358 0024 5A1C     		adds	r2, r3, #1
 359 0026 0F4B     		ldr	r3, .L10
 360 0028 1A60     		str	r2, [r3]
 241:main.c        ****     if (interrupt_counter == 4) {
 361              		.loc 1 241 0
 362 002a 0E4B     		ldr	r3, .L10
 363 002c 1B68     		ldr	r3, [r3]
 364 002e 042B     		cmp	r3, #4
 365 0030 02D1     		bne	.L9
 242:main.c        ****         interrupt_counter = 0;
 366              		.loc 1 242 0
 367 0032 0C4B     		ldr	r3, .L10
 368 0034 0022     		movs	r2, #0
 369 0036 1A60     		str	r2, [r3]
 370              	.L9:
 243:main.c        ****     }
 244:main.c        ****     
 245:main.c        ****     NETWORK_IS_FREE = false;
 371              		.loc 1 245 0
 372 0038 0C4B     		ldr	r3, .L10+8
 373 003a 0022     		movs	r2, #0
 374 003c 1A70     		strb	r2, [r3]
 246:main.c        ****     NEXT_NEIGHBOUR_INDEX = 1;
 375              		.loc 1 246 0
 376 003e 0C4B     		ldr	r3, .L10+12
 377 0040 0122     		movs	r2, #1
 378 0042 1A70     		strb	r2, [r3]
 247:main.c        ****     
ARM GAS  C:\Users\ASUS\AppData\Local\Temp\ccqrgHa3.s 			page 12


 248:main.c        ****     Timer_Is_Free_Stop();
 379              		.loc 1 248 0
 380 0044 FFF7FEFF 		bl	Timer_Is_Free_Stop
 249:main.c        ****     Timer_Is_Free_WritePeriod(Is_Free_Period);
 381              		.loc 1 249 0
 382 0048 0A4B     		ldr	r3, .L10+16
 383 004a 1B68     		ldr	r3, [r3]
 384 004c 1800     		movs	r0, r3
 385 004e FFF7FEFF 		bl	Timer_Is_Free_WritePeriod
 250:main.c        ****     Timer_Is_Free_WriteCounter(0);
 386              		.loc 1 250 0
 387 0052 0020     		movs	r0, #0
 388 0054 FFF7FEFF 		bl	Timer_Is_Free_WriteCounter
 251:main.c        ****     Timer_Is_Free_Start();
 389              		.loc 1 251 0
 390 0058 FFF7FEFF 		bl	Timer_Is_Free_Start
 252:main.c        **** }
 391              		.loc 1 252 0
 392 005c C046     		nop
 393 005e BD46     		mov	sp, r7
 394              		@ sp needed
 395 0060 80BD     		pop	{r7, pc}
 396              	.L11:
 397 0062 C046     		.align	2
 398              	.L10:
 399 0064 00000000 		.word	interrupt_counter
 400 0068 00000000 		.word	RGB_Collection
 401 006c 00000000 		.word	NETWORK_IS_FREE
 402 0070 00000000 		.word	NEXT_NEIGHBOUR_INDEX
 403 0074 00000000 		.word	Is_Free_Period
 404              		.cfi_endproc
 405              	.LFE38:
 406              		.size	sendColorDataToPeripheral, .-sendColorDataToPeripheral
 407              		.section	.rodata
 408              		.align	2
 409              	.LC20:
 410 000c 3D3D3D3D 		.ascii	"==================== Timer_1_Interrupt_Handler ===="
 410      3D3D3D3D 
 410      3D3D3D3D 
 410      3D3D3D3D 
 410      3D3D3D3D 
 411 003f 3D3D3D3D 		.ascii	"================ \000"
 411      3D3D3D3D 
 411      3D3D3D3D 
 411      3D3D3D3D 
 411      2000
 412 0051 000000   		.align	2
 413              	.LC22:
 414 0054 0A0A3D3D 		.ascii	"\012\012==================== Timer_1_Interrupt_Hand"
 414      3D3D3D3D 
 414      3D3D3D3D 
 414      3D3D3D3D 
 414      3D3D3D3D 
 415 0081 6C657220 		.ascii	"ler UpdateRGBled ==================== \000"
 415      55706461 
 415      74655247 
 415      426C6564 
ARM GAS  C:\Users\ASUS\AppData\Local\Temp\ccqrgHa3.s 			page 13


 415      203D3D3D 
 416              		.align	2
 417              	.LC25:
 418 00a8 0A0A2044 		.ascii	"\012\012 DEVICE_INDEX in Timer_Waiting_Time_Interru"
 418      45564943 
 418      455F494E 
 418      44455820 
 418      696E2054 
 419 00d5 70745F48 		.ascii	"pt_Handler %d \000"
 419      616E646C 
 419      65722025 
 419      642000
 420              		.section	.text.Timer_Waiting_Time_Interrupt_Handler,"ax",%progbits
 421              		.align	2
 422              		.global	Timer_Waiting_Time_Interrupt_Handler
 423              		.code	16
 424              		.thumb_func
 425              		.type	Timer_Waiting_Time_Interrupt_Handler, %function
 426              	Timer_Waiting_Time_Interrupt_Handler:
 427              	.LFB39:
 253:main.c        **** 
 254:main.c        **** 
 255:main.c        **** CY_ISR(Timer_Waiting_Time_Interrupt_Handler)
 256:main.c        **** {   
 428              		.loc 1 256 0
 429              		.cfi_startproc
 430              		@ args = 0, pretend = 0, frame = 0
 431              		@ frame_needed = 1, uses_anonymous_args = 0
 432 0000 80B5     		push	{r7, lr}
 433              		.cfi_def_cfa_offset 8
 434              		.cfi_offset 7, -8
 435              		.cfi_offset 14, -4
 436 0002 00AF     		add	r7, sp, #0
 437              		.cfi_def_cfa_register 7
 257:main.c        ****     /* CC_MATCH interrupt is triggered when 1s time window is gone */
 258:main.c        ****     if(Timer_Waiting_Time_INTR_MASK_CC_MATCH != 0)
 259:main.c        ****     {
 260:main.c        ****         UART_UartPutString("==================== Timer_1_Interrupt_Handler ==================== ");
 438              		.loc 1 260 0
 439 0004 194B     		ldr	r3, .L14
 440 0006 1800     		movs	r0, r3
 441 0008 FFF7FEFF 		bl	UART_UartPutString
 261:main.c        ****         Timer_Waiting_Time_ClearInterrupt(Timer_Waiting_Time_INTR_MASK_CC_MATCH);
 442              		.loc 1 261 0
 443 000c 0220     		movs	r0, #2
 444 000e FFF7FEFF 		bl	Timer_Waiting_Time_ClearInterrupt
 262:main.c        ****     }
 263:main.c        ****        
 264:main.c        ****     /* TC interrupt is triggered when overflow is happened */
 265:main.c        ****     if(Timer_Waiting_Time_INTR_MASK_TC != 0)
 266:main.c        ****     {
 267:main.c        ****         UART_UartPutString("\n\n==================== Timer_1_Interrupt_Handler UpdateRGBled =======
 445              		.loc 1 267 0
 446 0012 174B     		ldr	r3, .L14+4
 447 0014 1800     		movs	r0, r3
 448 0016 FFF7FEFF 		bl	UART_UartPutString
 268:main.c        ****         sprintf(TEXT_BUF, "\n\n DEVICE_INDEX in Timer_Waiting_Time_Interrupt_Handler %d ", DEVICE_I
ARM GAS  C:\Users\ASUS\AppData\Local\Temp\ccqrgHa3.s 			page 14


 449              		.loc 1 268 0
 450 001a 164B     		ldr	r3, .L14+8
 451 001c 1A68     		ldr	r2, [r3]
 452 001e 1649     		ldr	r1, .L14+12
 453 0020 164B     		ldr	r3, .L14+16
 454 0022 1800     		movs	r0, r3
 455 0024 FFF7FEFF 		bl	sprintf
 269:main.c        ****         UART_UartPutString(TEXT_BUF);
 456              		.loc 1 269 0
 457 0028 144B     		ldr	r3, .L14+16
 458 002a 1800     		movs	r0, r3
 459 002c FFF7FEFF 		bl	UART_UartPutString
 270:main.c        ****         
 271:main.c        ****         UpdateRGBled(RED_COLOR, 4);
 460              		.loc 1 271 0
 461 0030 134B     		ldr	r3, .L14+20
 462 0032 0421     		movs	r1, #4
 463 0034 1800     		movs	r0, r3
 464 0036 FFF7FEFF 		bl	UpdateRGBled
 272:main.c        ****         CyDelay(5000);
 465              		.loc 1 272 0
 466 003a 124B     		ldr	r3, .L14+24
 467 003c 1800     		movs	r0, r3
 468 003e FFF7FEFF 		bl	CyDelay
 273:main.c        ****         if (NUM_EXCEEDED_WAITING_TIME + 1 == DEVICE_INDEX)
 469              		.loc 1 273 0
 470 0042 114B     		ldr	r3, .L14+28
 471 0044 1B68     		ldr	r3, [r3]
 472 0046 5A1C     		adds	r2, r3, #1
 473 0048 0A4B     		ldr	r3, .L14+8
 474 004a 1B68     		ldr	r3, [r3]
 475 004c 9A42     		cmp	r2, r3
 476 004e 02D1     		bne	.L13
 274:main.c        ****         {
 275:main.c        ****             DEVICE_INDEX = 0;
 477              		.loc 1 275 0
 478 0050 084B     		ldr	r3, .L14+8
 479 0052 0022     		movs	r2, #0
 480 0054 1A60     		str	r2, [r3]
 481              	.L13:
 276:main.c        ****         }
 277:main.c        ****         
 278:main.c        ****         NUM_EXCEEDED_WAITING_TIME++;
 482              		.loc 1 278 0
 483 0056 0C4B     		ldr	r3, .L14+28
 484 0058 1B68     		ldr	r3, [r3]
 485 005a 5A1C     		adds	r2, r3, #1
 486 005c 0A4B     		ldr	r3, .L14+28
 487 005e 1A60     		str	r2, [r3]
 279:main.c        ****         Timer_Waiting_Time_ClearInterrupt(Timer_Waiting_Time_INTR_MASK_TC);
 488              		.loc 1 279 0
 489 0060 0120     		movs	r0, #1
 490 0062 FFF7FEFF 		bl	Timer_Waiting_Time_ClearInterrupt
 280:main.c        ****     }
 281:main.c        **** }
 491              		.loc 1 281 0
 492 0066 C046     		nop
ARM GAS  C:\Users\ASUS\AppData\Local\Temp\ccqrgHa3.s 			page 15


 493 0068 BD46     		mov	sp, r7
 494              		@ sp needed
 495 006a 80BD     		pop	{r7, pc}
 496              	.L15:
 497              		.align	2
 498              	.L14:
 499 006c 0C000000 		.word	.LC20
 500 0070 54000000 		.word	.LC22
 501 0074 00000000 		.word	DEVICE_INDEX
 502 0078 A8000000 		.word	.LC25
 503 007c 00000000 		.word	TEXT_BUF
 504 0080 00000000 		.word	RED_COLOR
 505 0084 88130000 		.word	5000
 506 0088 00000000 		.word	NUM_EXCEEDED_WAITING_TIME
 507              		.cfi_endproc
 508              	.LFE39:
 509              		.size	Timer_Waiting_Time_Interrupt_Handler, .-Timer_Waiting_Time_Interrupt_Handler
 510              		.section	.text.CC_TC_InterruptHandler,"ax",%progbits
 511              		.align	2
 512              		.global	CC_TC_InterruptHandler
 513              		.code	16
 514              		.thumb_func
 515              		.type	CC_TC_InterruptHandler, %function
 516              	CC_TC_InterruptHandler:
 517              	.LFB40:
 282:main.c        **** 
 283:main.c        **** 
 284:main.c        **** CY_ISR(CC_TC_InterruptHandler)
 285:main.c        **** {   
 518              		.loc 1 285 0
 519              		.cfi_startproc
 520              		@ args = 0, pretend = 0, frame = 0
 521              		@ frame_needed = 1, uses_anonymous_args = 0
 522 0000 80B5     		push	{r7, lr}
 523              		.cfi_def_cfa_offset 8
 524              		.cfi_offset 7, -8
 525              		.cfi_offset 14, -4
 526 0002 00AF     		add	r7, sp, #0
 527              		.cfi_def_cfa_register 7
 286:main.c        ****     if ((DEVICE_INDEX == 0) && (NETWORK_IS_FREE))
 528              		.loc 1 286 0
 529 0004 0C4B     		ldr	r3, .L18
 530 0006 1B68     		ldr	r3, [r3]
 531 0008 002B     		cmp	r3, #0
 532 000a 0CD1     		bne	.L17
 533              		.loc 1 286 0 is_stmt 0 discriminator 1
 534 000c 0B4B     		ldr	r3, .L18+4
 535 000e 1B78     		ldrb	r3, [r3]
 536 0010 002B     		cmp	r3, #0
 537 0012 08D0     		beq	.L17
 287:main.c        ****     {
 288:main.c        ****         sendColorDataToPeripheral();
 538              		.loc 1 288 0 is_stmt 1
 539 0014 FFF7FEFF 		bl	sendColorDataToPeripheral
 289:main.c        ****         
 290:main.c        ****         Timer_Heart_beat_Stop();
 540              		.loc 1 290 0
ARM GAS  C:\Users\ASUS\AppData\Local\Temp\ccqrgHa3.s 			page 16


 541 0018 FFF7FEFF 		bl	Timer_Heart_beat_Stop
 291:main.c        ****         Timer_Heart_beat_WriteCounter(0);
 542              		.loc 1 291 0
 543 001c 0020     		movs	r0, #0
 544 001e FFF7FEFF 		bl	Timer_Heart_beat_WriteCounter
 292:main.c        ****         Timer_Heart_beat_Start();
 545              		.loc 1 292 0
 546 0022 FFF7FEFF 		bl	Timer_Heart_beat_Start
 547              	.L17:
 293:main.c        ****     }
 294:main.c        **** //    PWM_1sWindow_ClearInterrupt(PWM_1sWindow_INTR_MASK_CC_MATCH);
 295:main.c        **** //    PWM_1sWindow_ClearInterrupt(PWM_1sWindow_INTR_MASK_TC);
 296:main.c        ****     Timer_Change_Color_ClearInterrupt(Timer_Change_Color_INTR_MASK_CC_MATCH);
 548              		.loc 1 296 0
 549 0026 0220     		movs	r0, #2
 550 0028 FFF7FEFF 		bl	Timer_Change_Color_ClearInterrupt
 297:main.c        ****     Timer_Change_Color_ClearInterrupt(Timer_Change_Color_INTR_MASK_TC);
 551              		.loc 1 297 0
 552 002c 0120     		movs	r0, #1
 553 002e FFF7FEFF 		bl	Timer_Change_Color_ClearInterrupt
 298:main.c        **** }
 554              		.loc 1 298 0
 555 0032 C046     		nop
 556 0034 BD46     		mov	sp, r7
 557              		@ sp needed
 558 0036 80BD     		pop	{r7, pc}
 559              	.L19:
 560              		.align	2
 561              	.L18:
 562 0038 00000000 		.word	DEVICE_INDEX
 563 003c 00000000 		.word	NETWORK_IS_FREE
 564              		.cfi_endproc
 565              	.LFE40:
 566              		.size	CC_TC_InterruptHandler, .-CC_TC_InterruptHandler
 567              		.section	.rodata
 568              		.align	2
 569              	.LC34:
 570 00e4 0A0A2044 		.ascii	"\012\012 DEVICE_INDEX in Timer_Is_Free_Interrupt_Ha"
 570      45564943 
 570      455F494E 
 570      44455820 
 570      696E2054 
 571 0111 6E646C65 		.ascii	"ndler %d \000"
 571      72202564 
 571      2000
 572              		.section	.text.Timer_Is_Free_Interrupt_Handler,"ax",%progbits
 573              		.align	2
 574              		.global	Timer_Is_Free_Interrupt_Handler
 575              		.code	16
 576              		.thumb_func
 577              		.type	Timer_Is_Free_Interrupt_Handler, %function
 578              	Timer_Is_Free_Interrupt_Handler:
 579              	.LFB41:
 299:main.c        **** 
 300:main.c        **** CY_ISR(Timer_Is_Free_Interrupt_Handler)
 301:main.c        **** {
 580              		.loc 1 301 0
ARM GAS  C:\Users\ASUS\AppData\Local\Temp\ccqrgHa3.s 			page 17


 581              		.cfi_startproc
 582              		@ args = 0, pretend = 0, frame = 0
 583              		@ frame_needed = 1, uses_anonymous_args = 0
 584 0000 80B5     		push	{r7, lr}
 585              		.cfi_def_cfa_offset 8
 586              		.cfi_offset 7, -8
 587              		.cfi_offset 14, -4
 588 0002 00AF     		add	r7, sp, #0
 589              		.cfi_def_cfa_register 7
 302:main.c        ****     /* TC interrupt is triggered when overflow is happened */
 303:main.c        ****     if(Timer_Is_Free_INTR_MASK_TC != 0)
 304:main.c        ****     {
 305:main.c        ****         NETWORK_IS_FREE = true;
 590              		.loc 1 305 0
 591 0004 0B4B     		ldr	r3, .L21
 592 0006 0122     		movs	r2, #1
 593 0008 1A70     		strb	r2, [r3]
 306:main.c        ****         sprintf(TEXT_BUF, "\n\n DEVICE_INDEX in Timer_Is_Free_Interrupt_Handler %d ", DEVICE_INDEX)
 594              		.loc 1 306 0
 595 000a 0B4B     		ldr	r3, .L21+4
 596 000c 1A68     		ldr	r2, [r3]
 597 000e 0B49     		ldr	r1, .L21+8
 598 0010 0B4B     		ldr	r3, .L21+12
 599 0012 1800     		movs	r0, r3
 600 0014 FFF7FEFF 		bl	sprintf
 307:main.c        ****         UART_UartPutString(TEXT_BUF);
 601              		.loc 1 307 0
 602 0018 094B     		ldr	r3, .L21+12
 603 001a 1800     		movs	r0, r3
 604 001c FFF7FEFF 		bl	UART_UartPutString
 308:main.c        ****         
 309:main.c        ****         Timer_Is_Free_ClearInterrupt(Timer_Is_Free_INTR_MASK_TC);
 605              		.loc 1 309 0
 606 0020 0120     		movs	r0, #1
 607 0022 FFF7FEFF 		bl	Timer_Is_Free_ClearInterrupt
 310:main.c        ****     }
 311:main.c        **** 
 312:main.c        ****     Timer_Is_Free_ClearInterrupt(Timer_Is_Free_INTR_MASK_CC_MATCH);
 608              		.loc 1 312 0
 609 0026 0220     		movs	r0, #2
 610 0028 FFF7FEFF 		bl	Timer_Is_Free_ClearInterrupt
 313:main.c        **** }
 611              		.loc 1 313 0
 612 002c C046     		nop
 613 002e BD46     		mov	sp, r7
 614              		@ sp needed
 615 0030 80BD     		pop	{r7, pc}
 616              	.L22:
 617 0032 C046     		.align	2
 618              	.L21:
 619 0034 00000000 		.word	NETWORK_IS_FREE
 620 0038 00000000 		.word	DEVICE_INDEX
 621 003c E4000000 		.word	.LC34
 622 0040 00000000 		.word	TEXT_BUF
 623              		.cfi_endproc
 624              	.LFE41:
 625              		.size	Timer_Is_Free_Interrupt_Handler, .-Timer_Is_Free_Interrupt_Handler
ARM GAS  C:\Users\ASUS\AppData\Local\Temp\ccqrgHa3.s 			page 18


 626              		.section	.text.Timer_Heart_beat_Interrupt_Handler,"ax",%progbits
 627              		.align	2
 628              		.global	Timer_Heart_beat_Interrupt_Handler
 629              		.code	16
 630              		.thumb_func
 631              		.type	Timer_Heart_beat_Interrupt_Handler, %function
 632              	Timer_Heart_beat_Interrupt_Handler:
 633              	.LFB42:
 314:main.c        **** 
 315:main.c        **** 
 316:main.c        **** 
 317:main.c        **** CY_ISR(Timer_Heart_beat_Interrupt_Handler)
 318:main.c        **** {   
 634              		.loc 1 318 0
 635              		.cfi_startproc
 636              		@ args = 0, pretend = 0, frame = 0
 637              		@ frame_needed = 1, uses_anonymous_args = 0
 638 0000 80B5     		push	{r7, lr}
 639              		.cfi_def_cfa_offset 8
 640              		.cfi_offset 7, -8
 641              		.cfi_offset 14, -4
 642 0002 00AF     		add	r7, sp, #0
 643              		.cfi_def_cfa_register 7
 319:main.c        ****     /* TC interrupt is triggered when overflow is happened */
 320:main.c        ****     if(Timer_Heart_beat_INTR_MASK_TC != 0)
 321:main.c        ****     {
 322:main.c        ****         if (DEVICE_INDEX == 0)
 644              		.loc 1 322 0
 645 0004 0D4B     		ldr	r3, .L26
 646 0006 1B68     		ldr	r3, [r3]
 647 0008 002B     		cmp	r3, #0
 648 000a 0DD1     		bne	.L24
 323:main.c        ****         {
 324:main.c        ****             // MODIFY FOR MICROPHONE -- without changing colors if two times
 325:main.c        ****             // no interrrupt for micr
 326:main.c        ****             interrupt_counter--;
 649              		.loc 1 326 0
 650 000c 0C4B     		ldr	r3, .L26+4
 651 000e 1B68     		ldr	r3, [r3]
 652 0010 5A1E     		subs	r2, r3, #1
 653 0012 0B4B     		ldr	r3, .L26+4
 654 0014 1A60     		str	r2, [r3]
 327:main.c        ****             if (interrupt_counter == -1) {
 655              		.loc 1 327 0
 656 0016 0A4B     		ldr	r3, .L26+4
 657 0018 1B68     		ldr	r3, [r3]
 658 001a 0133     		adds	r3, r3, #1
 659 001c 02D1     		bne	.L25
 328:main.c        ****                 interrupt_counter = 3;
 660              		.loc 1 328 0
 661 001e 084B     		ldr	r3, .L26+4
 662 0020 0322     		movs	r2, #3
 663 0022 1A60     		str	r2, [r3]
 664              	.L25:
 329:main.c        ****             }
 330:main.c        ****             
 331:main.c        ****             sendColorDataToPeripheral();
ARM GAS  C:\Users\ASUS\AppData\Local\Temp\ccqrgHa3.s 			page 19


 665              		.loc 1 331 0
 666 0024 FFF7FEFF 		bl	sendColorDataToPeripheral
 667              	.L24:
 332:main.c        ****         }
 333:main.c        ****         
 334:main.c        ****     }
 335:main.c        ****     
 336:main.c        ****     Timer_Heart_beat_ClearInterrupt(Timer_Heart_beat_INTR_MASK_CC_MATCH);
 668              		.loc 1 336 0
 669 0028 0220     		movs	r0, #2
 670 002a FFF7FEFF 		bl	Timer_Heart_beat_ClearInterrupt
 337:main.c        ****     Timer_Heart_beat_ClearInterrupt(Timer_Heart_beat_INTR_MASK_TC);
 671              		.loc 1 337 0
 672 002e 0120     		movs	r0, #1
 673 0030 FFF7FEFF 		bl	Timer_Heart_beat_ClearInterrupt
 338:main.c        **** }
 674              		.loc 1 338 0
 675 0034 C046     		nop
 676 0036 BD46     		mov	sp, r7
 677              		@ sp needed
 678 0038 80BD     		pop	{r7, pc}
 679              	.L27:
 680 003a C046     		.align	2
 681              	.L26:
 682 003c 00000000 		.word	DEVICE_INDEX
 683 0040 00000000 		.word	interrupt_counter
 684              		.cfi_endproc
 685              	.LFE42:
 686              		.size	Timer_Heart_beat_Interrupt_Handler, .-Timer_Heart_beat_Interrupt_Handler
 687              		.global	__aeabi_idiv
 688              		.section	.text.UpdateRGBled,"ax",%progbits
 689              		.align	2
 690              		.global	UpdateRGBled
 691              		.code	16
 692              		.thumb_func
 693              		.type	UpdateRGBled, %function
 694              	UpdateRGBled:
 695              	.LFB43:
 339:main.c        **** 
 340:main.c        **** 
 341:main.c        **** /*******************************************************************************
 342:main.c        **** * Function Name: UpdateRGBled
 343:main.c        **** ********************************************************************************
 344:main.c        **** * Summary:
 345:main.c        **** *        Update the RGB LED color by reconfiguring PrISM component. This function 
 346:main.c        **** * is valid for PSoC 4 BLE parts and not PROC BLE, as PRoC BLE does not have UDBs
 347:main.c        **** * that makes up the PrISM component. To replace this with software PrISM, refer to
 348:main.c        **** * CY8CKIT-042-BLE Pioneer Kit example project, PRoC_BLE_CapSense_Slider_LED, from
 349:main.c        **** * http://www.cypress.com/CY8CKIT-042-BLE
 350:main.c        **** *
 351:main.c        **** * Parameters:
 352:main.c        **** *  rgb_led_data: array storing the RGB and Intensity vlaue
 353:main.c        **** *  len: length of the array.
 354:main.c        **** *
 355:main.c        **** * Return:
 356:main.c        **** *  void
 357:main.c        **** *
ARM GAS  C:\Users\ASUS\AppData\Local\Temp\ccqrgHa3.s 			page 20


 358:main.c        **** *******************************************************************************/
 359:main.c        **** void UpdateRGBled(uint8 * rgb_led_data, uint8 len)
 360:main.c        **** {
 696              		.loc 1 360 0
 697              		.cfi_startproc
 698              		@ args = 0, pretend = 0, frame = 16
 699              		@ frame_needed = 1, uses_anonymous_args = 0
 700 0000 80B5     		push	{r7, lr}
 701              		.cfi_def_cfa_offset 8
 702              		.cfi_offset 7, -8
 703              		.cfi_offset 14, -4
 704 0002 84B0     		sub	sp, sp, #16
 705              		.cfi_def_cfa_offset 24
 706 0004 00AF     		add	r7, sp, #0
 707              		.cfi_def_cfa_register 7
 708 0006 7860     		str	r0, [r7, #4]
 709 0008 0A00     		movs	r2, r1
 710 000a FB1C     		adds	r3, r7, #3
 711 000c 1A70     		strb	r2, [r3]
 361:main.c        **** 	uint8 calc_red, calc_green, calc_blue;
 362:main.c        **** 	
 363:main.c        **** 	if(len == RGB_LED_DATA_LEN)
 712              		.loc 1 363 0
 713 000e FB1C     		adds	r3, r7, #3
 714 0010 1B78     		ldrb	r3, [r3]
 715 0012 042B     		cmp	r3, #4
 716 0014 49D1     		bne	.L30
 364:main.c        **** 	{
 365:main.c        **** 		/* If a valid length packet has been sent, calculate the intensity of each of
 366:main.c        **** 		* R, G and B color and update the PrISM module */
 367:main.c        **** 		calc_red = (uint8)(((uint16)rgb_led_data[RGB_RED_INDEX]*rgb_led_data[RGB_INTENSITY_INDEX])/RGB_LE
 717              		.loc 1 367 0
 718 0016 7B68     		ldr	r3, [r7, #4]
 719 0018 1B78     		ldrb	r3, [r3]
 720 001a 1A00     		movs	r2, r3
 721 001c 7B68     		ldr	r3, [r7, #4]
 722 001e 0333     		adds	r3, r3, #3
 723 0020 1B78     		ldrb	r3, [r3]
 724 0022 5343     		muls	r3, r2
 725 0024 FF21     		movs	r1, #255
 726 0026 1800     		movs	r0, r3
 727 0028 FFF7FEFF 		bl	__aeabi_idiv
 728 002c 0300     		movs	r3, r0
 729 002e 1A00     		movs	r2, r3
 730 0030 0F23     		movs	r3, #15
 731 0032 FB18     		adds	r3, r7, r3
 732 0034 1A70     		strb	r2, [r3]
 368:main.c        **** 		calc_green = (uint8)(((uint16)rgb_led_data[RGB_GREEN_INDEX]*rgb_led_data[RGB_INTENSITY_INDEX])/RG
 733              		.loc 1 368 0
 734 0036 7B68     		ldr	r3, [r7, #4]
 735 0038 0133     		adds	r3, r3, #1
 736 003a 1B78     		ldrb	r3, [r3]
 737 003c 1A00     		movs	r2, r3
 738 003e 7B68     		ldr	r3, [r7, #4]
 739 0040 0333     		adds	r3, r3, #3
 740 0042 1B78     		ldrb	r3, [r3]
 741 0044 5343     		muls	r3, r2
ARM GAS  C:\Users\ASUS\AppData\Local\Temp\ccqrgHa3.s 			page 21


 742 0046 FF21     		movs	r1, #255
 743 0048 1800     		movs	r0, r3
 744 004a FFF7FEFF 		bl	__aeabi_idiv
 745 004e 0300     		movs	r3, r0
 746 0050 1A00     		movs	r2, r3
 747 0052 0E23     		movs	r3, #14
 748 0054 FB18     		adds	r3, r7, r3
 749 0056 1A70     		strb	r2, [r3]
 369:main.c        **** 		calc_blue = (uint8)(((uint16)rgb_led_data[RGB_BLUE_INDEX]*rgb_led_data[RGB_INTENSITY_INDEX])/RGB_
 750              		.loc 1 369 0
 751 0058 7B68     		ldr	r3, [r7, #4]
 752 005a 0233     		adds	r3, r3, #2
 753 005c 1B78     		ldrb	r3, [r3]
 754 005e 1A00     		movs	r2, r3
 755 0060 7B68     		ldr	r3, [r7, #4]
 756 0062 0333     		adds	r3, r3, #3
 757 0064 1B78     		ldrb	r3, [r3]
 758 0066 5343     		muls	r3, r2
 759 0068 FF21     		movs	r1, #255
 760 006a 1800     		movs	r0, r3
 761 006c FFF7FEFF 		bl	__aeabi_idiv
 762 0070 0300     		movs	r3, r0
 763 0072 1A00     		movs	r2, r3
 764 0074 0D23     		movs	r3, #13
 765 0076 FB18     		adds	r3, r7, r3
 766 0078 1A70     		strb	r2, [r3]
 370:main.c        **** 		
 371:main.c        **** 		PrISM_1_WritePulse0(RGB_LED_MAX_VAL - calc_red);
 767              		.loc 1 371 0
 768 007a 0F23     		movs	r3, #15
 769 007c FB18     		adds	r3, r7, r3
 770 007e 1B78     		ldrb	r3, [r3]
 771 0080 DB43     		mvns	r3, r3
 772 0082 DBB2     		uxtb	r3, r3
 773 0084 1800     		movs	r0, r3
 774 0086 FFF7FEFF 		bl	PrISM_1_WritePulse0
 372:main.c        **** 		PrISM_1_WritePulse1(RGB_LED_MAX_VAL - calc_green);
 775              		.loc 1 372 0
 776 008a 0E23     		movs	r3, #14
 777 008c FB18     		adds	r3, r7, r3
 778 008e 1B78     		ldrb	r3, [r3]
 779 0090 DB43     		mvns	r3, r3
 780 0092 DBB2     		uxtb	r3, r3
 781 0094 1800     		movs	r0, r3
 782 0096 FFF7FEFF 		bl	PrISM_1_WritePulse1
 373:main.c        **** 		PrISM_2_WritePulse0(RGB_LED_MAX_VAL - calc_blue);
 783              		.loc 1 373 0
 784 009a 0D23     		movs	r3, #13
 785 009c FB18     		adds	r3, r7, r3
 786 009e 1B78     		ldrb	r3, [r3]
 787 00a0 DB43     		mvns	r3, r3
 788 00a2 DBB2     		uxtb	r3, r3
 789 00a4 1800     		movs	r0, r3
 790 00a6 FFF7FEFF 		bl	PrISM_2_WritePulse0
 791              	.L30:
 374:main.c        **** 		
 375:main.c        **** 		#ifdef DEBUG_ENABLED
ARM GAS  C:\Users\ASUS\AppData\Local\Temp\ccqrgHa3.s 			page 22


 376:main.c        **** 			UART_UartPutString("PrISM Updated ");
 377:main.c        **** 			UART_UartPutCRLF(' ');
 378:main.c        **** 		#endif
 379:main.c        **** 	}
 380:main.c        **** }
 792              		.loc 1 380 0
 793 00aa C046     		nop
 794 00ac BD46     		mov	sp, r7
 795 00ae 04B0     		add	sp, sp, #16
 796              		@ sp needed
 797 00b0 80BD     		pop	{r7, pc}
 798              		.cfi_endproc
 799              	.LFE43:
 800              		.size	UpdateRGBled, .-UpdateRGBled
 801 00b2 C046     		.text
 802              	.Letext0:
 803              		.file 2 "Generated_Source\\PSoC4/cytypes.h"
 804              		.file 3 "Generated_Source\\PSoC4/BLE_Stack.h"
 805              		.file 4 "Generated_Source\\PSoC4/BLE_StackGap.h"
 806              		.file 5 "Generated_Source\\PSoC4/BLE_eventHandler.h"
 807              		.file 6 "Generated_Source\\PSoC4/BLE.h"
 808              		.file 7 "./main.h"