ARM GAS  C:\Users\JANUSD~1\AppData\Local\Temp\ccAxsZuP.s 			page 1


   1              		.syntax unified
   2              		.cpu cortex-m0
   3              		.fpu softvfp
   4              		.eabi_attribute 20, 1
   5              		.eabi_attribute 21, 1
   6              		.eabi_attribute 23, 3
   7              		.eabi_attribute 24, 1
   8              		.eabi_attribute 25, 1
   9              		.eabi_attribute 26, 1
  10              		.eabi_attribute 30, 1
  11              		.eabi_attribute 34, 0
  12              		.eabi_attribute 18, 4
  13              		.thumb
  14              		.syntax unified
  15              		.file	"main.c"
  16              		.text
  17              	.Ltext0:
  18              		.cfi_sections	.debug_frame
  19              		.section	.text.Timer_Int_Handler,"ax",%progbits
  20              		.align	2
  21              		.global	Timer_Int_Handler
  22              		.code	16
  23              		.thumb_func
  24              		.type	Timer_Int_Handler, %function
  25              	Timer_Int_Handler:
  26              	.LFB35:
  27              		.file 1 "main.c"
   1:main.c        **** /* ========================================
   2:main.c        ****  *
   3:main.c        ****  * Copyright YOUR COMPANY, THE YEAR
   4:main.c        ****  * All Rights Reserved
   5:main.c        ****  * UNPUBLISHED, LICENSED SOFTWARE.
   6:main.c        ****  *
   7:main.c        ****  * CONFIDENTIAL AND PROPRIETARY INFORMATION
   8:main.c        ****  * WHICH IS THE PROPERTY OF your company.
   9:main.c        ****  *
  10:main.c        ****  * ========================================
  11:main.c        **** */
  12:main.c        **** #include "project.h"
  13:main.c        **** 
  14:main.c        **** CY_ISR (Timer_Int_Handler)
  15:main.c        **** {
  28              		.loc 1 15 0
  29              		.cfi_startproc
  30              		@ args = 0, pretend = 0, frame = 0
  31              		@ frame_needed = 0, uses_anonymous_args = 0
  32 0000 10B5     		push	{r4, lr}
  33              		.cfi_def_cfa_offset 8
  34              		.cfi_offset 4, -8
  35              		.cfi_offset 14, -4
  16:main.c        ****     uint16 counter = Timer_1_ReadCapture();
  36              		.loc 1 16 0
  37 0002 FFF7FEFF 		bl	Timer_1_ReadCapture
  38              	.LVL0:
  39 0006 80B2     		uxth	r0, r0
  40              	.LVL1:
  17:main.c        ****     
ARM GAS  C:\Users\JANUSD~1\AppData\Local\Temp\ccAxsZuP.s 			page 2


  18:main.c        ****     if (counter > 10000)
  41              		.loc 1 18 0
  42 0008 044B     		ldr	r3, .L4
  43 000a 9842     		cmp	r0, r3
  44 000c 00D9     		bls	.L2
  19:main.c        ****     {
  20:main.c        ****         counter = 10000;
  45              		.loc 1 20 0
  46 000e 1800     		movs	r0, r3
  47              	.LVL2:
  48              	.L2:
  21:main.c        ****     }
  22:main.c        ****     PWM_1_WriteCompare(counter);
  49              		.loc 1 22 0
  50 0010 FFF7FEFF 		bl	PWM_1_WriteCompare
  51              	.LVL3:
  23:main.c        ****     
  24:main.c        ****     Timer_1_ClearInterrupt(Timer_1_INTR_MASK_CC_MATCH);
  52              		.loc 1 24 0
  53 0014 0220     		movs	r0, #2
  54 0016 FFF7FEFF 		bl	Timer_1_ClearInterrupt
  55              	.LVL4:
  25:main.c        ****  }
  56              		.loc 1 25 0
  57              		@ sp needed
  58 001a 10BD     		pop	{r4, pc}
  59              	.L5:
  60              		.align	2
  61              	.L4:
  62 001c 10270000 		.word	10000
  63              		.cfi_endproc
  64              	.LFE35:
  65              		.size	Timer_Int_Handler, .-Timer_Int_Handler
  66              		.section	.text.main,"ax",%progbits
  67              		.align	2
  68              		.global	main
  69              		.code	16
  70              		.thumb_func
  71              		.type	main, %function
  72              	main:
  73              	.LFB36:
  26:main.c        **** 
  27:main.c        **** int main(void)
  28:main.c        **** {
  74              		.loc 1 28 0
  75              		.cfi_startproc
  76              		@ args = 0, pretend = 0, frame = 0
  77              		@ frame_needed = 0, uses_anonymous_args = 0
  78 0000 10B5     		push	{r4, lr}
  79              		.cfi_def_cfa_offset 8
  80              		.cfi_offset 4, -8
  81              		.cfi_offset 14, -4
  29:main.c        ****     CyGlobalIntEnable; /* Enable global interrupts. */
  82              		.loc 1 29 0
  83              		.syntax divided
  84              	@ 29 "main.c" 1
  85 0002 62B6     		CPSIE   i
ARM GAS  C:\Users\JANUSD~1\AppData\Local\Temp\ccAxsZuP.s 			page 3


  86              	@ 0 "" 2
  30:main.c        ****     
  31:main.c        ****     PWM_1_Start();
  87              		.loc 1 31 0
  88              		.thumb
  89              		.syntax unified
  90 0004 FFF7FEFF 		bl	PWM_1_Start
  91              	.LVL5:
  32:main.c        ****     
  33:main.c        ****     Timer_1_Start();
  92              		.loc 1 33 0
  93 0008 FFF7FEFF 		bl	Timer_1_Start
  94              	.LVL6:
  34:main.c        ****     
  35:main.c        ****     Timer_Int_StartEx(Timer_Int_Handler);
  95              		.loc 1 35 0
  96 000c 0148     		ldr	r0, .L8
  97 000e FFF7FEFF 		bl	Timer_Int_StartEx
  98              	.LVL7:
  99              	.L7:
 100 0012 FEE7     		b	.L7
 101              	.L9:
 102              		.align	2
 103              	.L8:
 104 0014 00000000 		.word	Timer_Int_Handler
 105              		.cfi_endproc
 106              	.LFE36:
 107              		.size	main, .-main
 108              		.text
 109              	.Letext0:
 110              		.file 2 "Generated_Source\\PSoC4/cytypes.h"
 111              		.file 3 "Generated_Source\\PSoC4/Timer_1.h"
 112              		.file 4 "Generated_Source\\PSoC4/PWM_1.h"
 113              		.file 5 "Generated_Source\\PSoC4/Timer_Int.h"