ARM GAS  C:\Users\ASUS\AppData\Local\Temp\cc5kiVkP.s 			page 1


   1              		.syntax unified
   2              		.cpu cortex-m0
   3              		.fpu softvfp
   4              		.eabi_attribute 20, 1
   5              		.eabi_attribute 21, 1
   6              		.eabi_attribute 23, 3
   7              		.eabi_attribute 24, 1
   8              		.eabi_attribute 25, 1
   9              		.eabi_attribute 26, 1
  10              		.eabi_attribute 30, 6
  11              		.eabi_attribute 34, 0
  12              		.eabi_attribute 18, 4
  13              		.thumb
  14              		.syntax unified
  15              		.file	"ble_process.c"
  16              		.text
  17              	.Ltext0:
  18              		.cfi_sections	.debug_frame
  19              		.comm	current_watchdog_counter,2,2
  20              		.comm	RGBData,4,4
  21              		.global	dataADVCounter
  22              		.data
  23              		.type	dataADVCounter, %object
  24              		.size	dataADVCounter, 1
  25              	dataADVCounter:
  26 0000 01       		.byte	1
  27              		.global	switch_Role
  28              		.bss
  29              		.type	switch_Role, %object
  30              		.size	switch_Role, 1
  31              	switch_Role:
  32 0000 00       		.space	1
  33              		.comm	new_advData,32,4
  34              		.global	potential_node_found
  35              		.type	potential_node_found, %object
  36              		.size	potential_node_found, 1
  37              	potential_node_found:
  38 0001 00       		.space	1
  39              		.comm	potential_node_bdAddr,6,4
  40              		.global	potential_node_bdAddrType
  41              		.type	potential_node_bdAddrType, %object
  42              		.size	potential_node_bdAddrType, 1
  43              	potential_node_bdAddrType:
  44 0002 00       		.space	1
  45              		.global	scan_tag
  46              		.data
  47 0001 000000   		.align	2
  48              		.type	scan_tag, %object
  49              		.size	scan_tag, 20
  50              	scan_tag:
  51 0004 13       		.byte	19
  52 0005 21       		.byte	33
  53 0006 31       		.byte	49
  54 0007 01       		.byte	1
  55 0008 9B       		.byte	-101
  56 0009 5F       		.byte	95
  57 000a 80       		.byte	-128
ARM GAS  C:\Users\ASUS\AppData\Local\Temp\cc5kiVkP.s 			page 2


  58 000b 00       		.byte	0
  59 000c 00       		.byte	0
  60 000d 80       		.byte	-128
  61 000e 00       		.byte	0
  62 000f 10       		.byte	16
  63 0010 00       		.byte	0
  64 0011 00       		.byte	0
  65 0012 BB       		.byte	-69
  66 0013 CB       		.byte	-53
  67 0014 03       		.byte	3
  68 0015 00       		.byte	0
  69 0016 BB       		.byte	-69
  70 0017 CB       		.byte	-53
  71              		.comm	peripAddr,7,4
  72              		.global	clientConnectToDevice
  73              		.bss
  74              		.type	clientConnectToDevice, %object
  75              		.size	clientConnectToDevice, 1
  76              	clientConnectToDevice:
  77 0003 00       		.space	1
  78              		.global	ble_gap_state
  79              		.data
  80              		.type	ble_gap_state, %object
  81              		.size	ble_gap_state, 1
  82              	ble_gap_state:
  83 0018 01       		.byte	1
  84              		.global	deviceConnected
  85              		.bss
  86              		.type	deviceConnected, %object
  87              		.size	deviceConnected, 1
  88              	deviceConnected:
  89 0004 00       		.space	1
  90              		.global	restartScanning
  91              		.type	restartScanning, %object
  92              		.size	restartScanning, 1
  93              	restartScanning:
  94 0005 00       		.space	1
  95              		.global	centralStartedTime
  96              		.align	1
  97              		.type	centralStartedTime, %object
  98              		.size	centralStartedTime, 2
  99              	centralStartedTime:
 100 0006 0000     		.space	2
 101              		.section	.text.GenericEventHandler,"ax",%progbits
 102              		.align	2
 103              		.global	GenericEventHandler
 104              		.code	16
 105              		.thumb_func
 106              		.type	GenericEventHandler, %function
 107              	GenericEventHandler:
 108              	.LFB35:
 109              		.file 1 "ble_process.c"
   1:ble_process.c **** /*******************************************************************************
   2:ble_process.c **** * File Name: ble_process.c
   3:ble_process.c **** *
   4:ble_process.c **** * Version: 1.0
   5:ble_process.c **** *
ARM GAS  C:\Users\ASUS\AppData\Local\Temp\cc5kiVkP.s 			page 3


   6:ble_process.c **** * Description:
   7:ble_process.c **** * This file contains the definiton for BLE related functions, such as event handler,
   8:ble_process.c **** * GAP role switching, central scanning and connection to peripherals.
   9:ble_process.c **** *
  10:ble_process.c **** ********************************************************************************
  11:ble_process.c **** * Copyright 2015, Cypress Semiconductor Corporation.  All rights reserved.
  12:ble_process.c **** * You may use this file only in accordance with the license, terms, conditions,
  13:ble_process.c **** * disclaimers, and limitations in the end user license agreement accompanying
  14:ble_process.c **** * the software package with which this file was provided.
  15:ble_process.c **** *******************************************************************************/
  16:ble_process.c **** #include <main.h>
  17:ble_process.c **** 
  18:ble_process.c **** uint8 RGBData[4];
  19:ble_process.c **** uint8 dataADVCounter = 1;
  20:ble_process.c **** uint8 switch_Role = FALSE;
  21:ble_process.c **** 
  22:ble_process.c **** #ifdef ENABLE_ADV_DATA_COUNTER
  23:ble_process.c **** CYBLE_GAPP_DISC_DATA_T  new_advData;
  24:ble_process.c **** uint8 potential_node_found = 0;
  25:ble_process.c **** uint8 potential_node_bdAddr[6];
  26:ble_process.c **** uint8 potential_node_bdAddrType = 0;
  27:ble_process.c **** #endif
  28:ble_process.c **** 
  29:ble_process.c **** uint8 scan_tag[SCAN_TAG_DATA_LEN] = {0x13, 0x21, 0x31, 0x01, 0x9B, 0x5F, 0x80, 0x00,
  30:ble_process.c **** 									0x00, 0x80, 0x00, 0x10, 0x00, 0x00, 0xBB, 0xCB, 
  31:ble_process.c **** 									0x03, 0x00, 0xBB, 0xCB};
  32:ble_process.c **** 
  33:ble_process.c **** CYBLE_GAP_BD_ADDR_T				peripAddr;
  34:ble_process.c **** uint8 clientConnectToDevice = FALSE;
  35:ble_process.c **** uint8 ble_gap_state = BLE_PERIPHERAL;
  36:ble_process.c **** 
  37:ble_process.c **** uint8 deviceConnected = FALSE;
  38:ble_process.c **** uint8 restartScanning = FALSE;
  39:ble_process.c **** volatile uint16 centralStartedTime = 0;
  40:ble_process.c **** 
  41:ble_process.c **** /*******************************************************************************
  42:ble_process.c **** * Function Name: GenericEventHandler
  43:ble_process.c **** ********************************************************************************
  44:ble_process.c **** * Summary:
  45:ble_process.c **** *        Event handler function for the BLE stack. All the events by BLE stack
  46:ble_process.c **** * are received by application through this function. For this, CyBle_ProcessEvents()
  47:ble_process.c **** * should be called continuously in main loop.
  48:ble_process.c **** *
  49:ble_process.c **** * Parameters:
  50:ble_process.c **** *  event: 		event value
  51:ble_process.c **** *  eventParame: pointer to the location where relevant event data is stored
  52:ble_process.c **** *
  53:ble_process.c **** * Return:
  54:ble_process.c **** *  void
  55:ble_process.c **** *
  56:ble_process.c **** *******************************************************************************/
  57:ble_process.c **** void GenericEventHandler(uint32 event, void * eventParam)
  58:ble_process.c **** {
 110              		.loc 1 58 0
 111              		.cfi_startproc
 112              		@ args = 0, pretend = 0, frame = 88
 113              		@ frame_needed = 1, uses_anonymous_args = 0
ARM GAS  C:\Users\ASUS\AppData\Local\Temp\cc5kiVkP.s 			page 4


 114 0000 90B5     		push	{r4, r7, lr}
 115              		.cfi_def_cfa_offset 12
 116              		.cfi_offset 4, -12
 117              		.cfi_offset 7, -8
 118              		.cfi_offset 14, -4
 119 0002 97B0     		sub	sp, sp, #92
 120              		.cfi_def_cfa_offset 104
 121 0004 00AF     		add	r7, sp, #0
 122              		.cfi_def_cfa_register 7
 123 0006 7860     		str	r0, [r7, #4]
 124 0008 3960     		str	r1, [r7]
  59:ble_process.c **** 	/* Local variables and data structures*/
  60:ble_process.c **** 	CYBLE_GATTS_WRITE_REQ_PARAM_T 		writeReqData;
  61:ble_process.c **** 	CYBLE_GATTC_WRITE_REQ_T				writeADVcounterdata;
  62:ble_process.c **** 	CYBLE_GAPC_ADV_REPORT_T				scan_report;
  63:ble_process.c **** 	CYBLE_GATTS_WRITE_CMD_REQ_PARAM_T	writeCmdData;
  64:ble_process.c **** 	CYBLE_API_RESULT_T					apiResult;
  65:ble_process.c **** 	CYBLE_GATTC_WRITE_REQ_T 			writeRGBdata;
  66:ble_process.c **** 	
  67:ble_process.c **** 	switch(event)
 125              		.loc 1 67 0
 126 000a 7B68     		ldr	r3, [r7, #4]
 127 000c 2B2B     		cmp	r3, #43
 128 000e 00D1     		bne	.LCB17
 129 0010 15E2     		b	.L33	@long jump
 130              	.LCB17:
 131 0012 0FD8     		bhi	.L4
 132 0014 262B     		cmp	r3, #38
 133 0016 26D0     		beq	.L5
 134 0018 05D8     		bhi	.L6
 135 001a 012B     		cmp	r3, #1
 136 001c 1FD0     		beq	.L7
 137 001e 202B     		cmp	r3, #32
 138 0020 00D1     		bne	.LCB27
 139 0022 AEE0     		b	.L8	@long jump
 140              	.LCB27:
  68:ble_process.c **** 	{
  69:ble_process.c **** 		case CYBLE_EVT_STACK_ON:
  70:ble_process.c **** 			#ifdef DEBUG_ENABLED
  71:ble_process.c **** 			UART_UartPutString("CYBLE_EVT_STACK_ON ");
  72:ble_process.c **** 			UART_UartPutCRLF(' ');
  73:ble_process.c **** 			#endif
  74:ble_process.c **** 			/* At the start of the BLE stack, start advertisement */
  75:ble_process.c **** 			CyBle_GappStartAdvertisement(CYBLE_ADVERTISING_FAST);
  76:ble_process.c **** 		break;
  77:ble_process.c **** 			
  78:ble_process.c **** 		case CYBLE_EVT_GAPP_ADVERTISEMENT_START_STOP:
  79:ble_process.c **** 			/* This event is received at every start or stop of peripheral advertisement*/
  80:ble_process.c **** 			#ifdef DEBUG_ENABLED
  81:ble_process.c **** 			UART_UartPutString("CYBLE_EVT_GAPP_ADVERTISEMENT_START_STOP ");
  82:ble_process.c **** 			SendBLEStatetoUART(CyBle_GetState());
  83:ble_process.c **** 			UART_UartPutCRLF(' ');
  84:ble_process.c **** 			#endif
  85:ble_process.c **** 			
  86:ble_process.c **** 			if((CYBLE_STATE_DISCONNECTED == CyBle_GetState()) && (switch_Role == FALSE))
  87:ble_process.c **** 			{
  88:ble_process.c **** 				/* If the current state of the BLE is Disconnected, then restart advertisement.
ARM GAS  C:\Users\ASUS\AppData\Local\Temp\cc5kiVkP.s 			page 5


  89:ble_process.c **** 				* Note that the advertisement should only be restarted if the switch flag is not
  90:ble_process.c **** 				* TRUE. If switch role flag is TRUE, then there is no need to start advertisement
  91:ble_process.c **** 				* as the GAP role has to be switched*/
  92:ble_process.c **** 				CyBle_GappStartAdvertisement(CYBLE_ADVERTISING_FAST);	
  93:ble_process.c **** 				
  94:ble_process.c **** 				if(apiResult == CYBLE_ERROR_OK)
  95:ble_process.c **** 				{
  96:ble_process.c **** 					#ifdef DEBUG_ENABLED
  97:ble_process.c **** 					UART_UartPutString("Restart Advertisement ");
  98:ble_process.c **** 					SendBLEStatetoUART(CyBle_GetState());
  99:ble_process.c **** 					UART_UartPutCRLF(' ');
 100:ble_process.c **** 					#endif
 101:ble_process.c **** 				}
 102:ble_process.c **** 			}
 103:ble_process.c **** 		break;
 104:ble_process.c **** 			
 105:ble_process.c **** 		case CYBLE_EVT_GAPC_SCAN_START_STOP:
 106:ble_process.c **** 			/* This event is received at every start or stop of central scanning*/
 107:ble_process.c **** 			#ifdef DEBUG_ENABLED
 108:ble_process.c **** 			UART_UartPutString("CYBLE_EVT_GAPC_SCAN_START_STOP ");
 109:ble_process.c **** 			SendBLEStatetoUART(CyBle_GetState());
 110:ble_process.c **** 			UART_UartPutCRLF(' ');
 111:ble_process.c **** 			#endif
 112:ble_process.c **** 		break;
 113:ble_process.c **** 			
 114:ble_process.c **** 		case CYBLE_EVT_GATT_CONNECT_IND:
 115:ble_process.c **** 			/* This event is received at GATT connection with a device. This event
 116:ble_process.c **** 			* is received for both Client or Server role */
 117:ble_process.c **** 			#ifdef DEBUG_ENABLED
 118:ble_process.c **** 			UART_UartPutString("CYBLE_EVT_GATT_CONNECT_IND ");
 119:ble_process.c **** 			UART_UartPutCRLF(' ');
 120:ble_process.c **** 			#endif
 121:ble_process.c **** 		break;
 122:ble_process.c **** 		
 123:ble_process.c **** 		case CYBLE_EVT_GATT_DISCONNECT_IND:
 124:ble_process.c **** 			/* This event is received at GATT disconnection with a device. This event
 125:ble_process.c **** 			* is received for both Client or Server role */
 126:ble_process.c **** 			#ifdef DEBUG_ENABLED
 127:ble_process.c **** 			UART_UartPutString("CYBLE_EVT_GATT_DISCONNECT_IND ");
 128:ble_process.c **** 			UART_UartPutCRLF(' ');
 129:ble_process.c **** 			#endif
 130:ble_process.c **** 		break;
 131:ble_process.c **** 			
 132:ble_process.c **** 		case CYBLE_EVT_GATTS_WRITE_REQ:
 133:ble_process.c **** 			/* This event is received at when Server receives a Write request from
 134:ble_process.c **** 			* connected Client device */
 135:ble_process.c **** 			/* Save the associated event parameter in local variable */
 136:ble_process.c **** 			writeReqData = *(CYBLE_GATTS_WRITE_REQ_PARAM_T*)eventParam;
 137:ble_process.c **** 
 138:ble_process.c **** 			if(writeReqData.handleValPair.attrHandle == CYBLE_RGB_LED_CONTROL_CHAR_HANDLE)
 139:ble_process.c **** 			{
 140:ble_process.c **** 				/* If the Write request is on RGB LED Control Characteristic, then Client is 
 141:ble_process.c **** 				* trying to set a new color to the device. */
 142:ble_process.c **** 				if(writeReqData.handleValPair.value.len == RGB_LED_DATA_LEN)
 143:ble_process.c **** 				{
 144:ble_process.c **** 					#ifdef DEBUG_ENABLED
 145:ble_process.c **** 						UART_UartPutString("RGB CYBLE_EVT_GATTS_WRITE_REQ ");
ARM GAS  C:\Users\ASUS\AppData\Local\Temp\cc5kiVkP.s 			page 6


 146:ble_process.c **** 						UART_UartPutCRLF(' ');
 147:ble_process.c **** 					#endif
 148:ble_process.c **** 					
 149:ble_process.c **** 					/* Extract the four bytes containing the color value and store it */
 150:ble_process.c **** 					RGBData[RGB_RED_INDEX] = writeReqData.handleValPair.value.val[0];
 151:ble_process.c **** 					RGBData[RGB_GREEN_INDEX] = writeReqData.handleValPair.value.val[1];
 152:ble_process.c **** 					RGBData[RGB_BLUE_INDEX] = writeReqData.handleValPair.value.val[2];
 153:ble_process.c **** 					RGBData[RGB_INTENSITY_INDEX] = writeReqData.handleValPair.value.val[3];
 154:ble_process.c **** 					
 155:ble_process.c **** 					/* Modify RGB Color my configuring the PrISM components with new density 
 156:ble_process.c **** 					* value*/
 157:ble_process.c **** 					UpdateRGBled(RGBData, RGB_LED_DATA_LEN);
 158:ble_process.c **** 					
 159:ble_process.c **** 					/* Update the RGB LED Control characteristic in GATT DB  to allow
 160:ble_process.c **** 					* Client to read the latest RGB LED color value set */
 161:ble_process.c **** 					CyBle_GattsWriteAttributeValue(&writeReqData.handleValPair,0,&cyBle_connHandle,CYBLE_GATT_DB_L
 162:ble_process.c **** 							
 163:ble_process.c **** 					#ifdef ENABLE_ADV_DATA_COUNTER
 164:ble_process.c **** 					/* Increment the ADV data counter so that scanning Central device knows
 165:ble_process.c **** 					* if this device has updated RGB LED data or not */
 166:ble_process.c **** 					dataADVCounter++;
 167:ble_process.c **** 					#endif
 168:ble_process.c **** 					
 169:ble_process.c **** 					#ifdef DEBUG_ENABLED
 170:ble_process.c **** 					UART_UartPutString("incremented dataADVCounter value in CYBLE_EVT_GATTS_WRITE_REQ= ");
 171:ble_process.c **** 					PrintNum(dataADVCounter);
 172:ble_process.c **** 					UART_UartPutCRLF(' ');
 173:ble_process.c **** 					#endif
 174:ble_process.c **** 					
 175:ble_process.c **** 					/* After receiveing the color value, set the switch role flag to allow the system
 176:ble_process.c **** 					* to switch role to Central role */
 177:ble_process.c **** 					switch_Role = TRUE;
 178:ble_process.c **** 					
 179:ble_process.c **** 					#ifdef DEBUG_ENABLED
 180:ble_process.c **** 					UART_UartPutString("switchRole to Central");
 181:ble_process.c **** 					UART_UartPutCRLF(' ');
 182:ble_process.c **** 					#endif
 183:ble_process.c **** 				}
 184:ble_process.c **** 				else
 185:ble_process.c **** 				{
 186:ble_process.c **** 					/* Send the error code for invalid attribute length packet */
 187:ble_process.c **** 					SendErrorCode(CYBLE_GATT_WRITE_REQ, 
 188:ble_process.c **** 									writeReqData.handleValPair.attrHandle, 
 189:ble_process.c **** 									ERR_INVALID_ATT_LEN);
 190:ble_process.c **** 					
 191:ble_process.c **** 					return;
 192:ble_process.c **** 				}
 193:ble_process.c **** 			}
 194:ble_process.c **** 
 195:ble_process.c **** 			/* As part of every write request, the server needs to send a write response. Note
 196:ble_process.c **** 			* that this will be sent only if all the application layer conditions are met on a 
 197:ble_process.c **** 			* write request. Else, an appropriate error code is sent. */
 198:ble_process.c **** 	        CyBle_GattsWriteRsp(cyBle_connHandle);
 199:ble_process.c **** 		break;
 200:ble_process.c **** 			
 201:ble_process.c **** 		case CYBLE_EVT_GATTS_WRITE_CMD_REQ:
 202:ble_process.c **** 			/* This event is generated whenever a Client device sends a Write Command (Write 
ARM GAS  C:\Users\ASUS\AppData\Local\Temp\cc5kiVkP.s 			page 7


 203:ble_process.c **** 			* without response) to a connected Server. Save the associated event parameter in
 204:ble_process.c **** 			* local variable. */
 205:ble_process.c **** 			writeCmdData = *(CYBLE_GATTS_WRITE_CMD_REQ_PARAM_T*)eventParam;
 206:ble_process.c **** 			
 207:ble_process.c **** 			/* Check if the Write command is for ADV Data counter characteristic */
 208:ble_process.c **** 			if(writeCmdData.handleValPair.attrHandle == CYBLE_RGB_DATA_COUNT_CHAR_HANDLE)
 209:ble_process.c **** 			{
 210:ble_process.c **** 				/* If the data sent is of one byte, then proceed. */
 211:ble_process.c **** 				if(writeCmdData.handleValPair.value.len == 1)
 212:ble_process.c **** 				{
 213:ble_process.c **** 					/* Extract and save the set ADV data counter value */
 214:ble_process.c **** 					dataADVCounter = *(writeCmdData.handleValPair.value.val);	
 215:ble_process.c **** 					
 216:ble_process.c **** 					/* This increment is done to balance the ++ done as part of CYBLE_EVT_GATTS_WRITE_REQ */
 217:ble_process.c **** 					dataADVCounter--;
 218:ble_process.c **** 					
 219:ble_process.c **** 					/* Update the ADV data counter characteristic in GATT DB  to allow
 220:ble_process.c **** 					* Client to read the latest ADV data counter value */
 221:ble_process.c **** 					CyBle_GattsWriteAttributeValue(&writeCmdData.handleValPair,
 222:ble_process.c **** 													0,
 223:ble_process.c **** 													&cyBle_connHandle,
 224:ble_process.c **** 													CYBLE_GATT_DB_LOCALLY_INITIATED);
 225:ble_process.c **** 
 226:ble_process.c **** 					#ifdef DEBUG_ENABLED
 227:ble_process.c **** 					UART_UartPutString("dataADVCounter from CYBLE_EVT_GATTS_WRITE_CMD_REQ = ");
 228:ble_process.c **** 					PrintNum(dataADVCounter);
 229:ble_process.c **** 					UART_UartPutCRLF(' ');
 230:ble_process.c **** 					#endif
 231:ble_process.c **** 				}	/* if(writeCmdData.handleValPair.value.len == 1) */
 232:ble_process.c **** 			}
 233:ble_process.c **** 			break;
 234:ble_process.c **** 		
 235:ble_process.c **** 		case CYBLE_EVT_GAPC_SCAN_PROGRESS_RESULT:
 236:ble_process.c **** 			/* This event is generated whenever there is a peripheral device found by 
 237:ble_process.c **** 			* while scanning */
 238:ble_process.c **** 			if(CYBLE_STATE_CONNECTED != CyBle_GetState())	
 239:ble_process.c **** 			{
 240:ble_process.c **** 				/* If we are not connected to any peripheral device, then save the new device  
 241:ble_process.c **** 				* information so to add it to our list */
 242:ble_process.c **** 				scan_report = *(CYBLE_GAPC_ADV_REPORT_T*)eventParam;
 243:ble_process.c **** 				
 244:ble_process.c **** 				#ifdef DEBUG_ENABLED
 245:ble_process.c **** 					UART_UartPutString("CYBLE_EVT_GAPC_SCAN_PROGRESS_RESULT ");
 246:ble_process.c **** 					UART_UartPutCRLF(' ');
 247:ble_process.c **** 				#endif
 248:ble_process.c **** 				
 249:ble_process.c **** 				#ifdef ENABLE_ADV_DATA_COUNTER
 250:ble_process.c **** 				/* If ADV DATA COUNTER is enabled, then the central device would check
 251:ble_process.c **** 				* if the counter in ADV packet of peripheral is less than its own counter
 252:ble_process.c **** 				* or not. If yes, then it will consider the peripheral as a potential 
 253:ble_process.c **** 				* device to connect to.*/
 254:ble_process.c **** 				if(scan_report.eventType == CYBLE_GAPC_CONN_UNDIRECTED_ADV)
 255:ble_process.c **** 				{
 256:ble_process.c **** 					/* If the scan report received is of advertising nature and the data 
 257:ble_process.c **** 					* length is as expected... */
 258:ble_process.c **** 					if(scan_report.dataLen == new_advData.advDataLen)
 259:ble_process.c **** 					{
ARM GAS  C:\Users\ASUS\AppData\Local\Temp\cc5kiVkP.s 			page 8


 260:ble_process.c **** 						/* If the second last value of the advertising data matches the custom 
 261:ble_process.c **** 						* marker, then the peripheral is a node of the network */
 262:ble_process.c **** 						if(scan_report.data[scan_report.dataLen-2] == CUSTOM_ADV_DATA_MARKER)
 263:ble_process.c **** 						{
 264:ble_process.c **** 							/* If the ADV counter data in Advertising data is less than that of
 265:ble_process.c **** 							* the value in this scanning device, then the node is a potential node 
 266:ble_process.c **** 							* whose color has to be updated. */
 267:ble_process.c **** 							if((scan_report.data[scan_report.dataLen-1] < dataADVCounter) ||
 268:ble_process.c **** 							((scan_report.data[scan_report.dataLen-1] == 255) && (dataADVCounter == 0)))
 269:ble_process.c **** 							{
 270:ble_process.c **** 								/* Potential node found*/
 271:ble_process.c **** 								potential_node_found = TRUE;
 272:ble_process.c **** 								/* Save the advertising peripheral address and type*/
 273:ble_process.c **** 								memcpy(potential_node_bdAddr, scan_report.peerBdAddr, 6);
 274:ble_process.c **** 								potential_node_bdAddrType = scan_report.peerAddrType;
 275:ble_process.c **** 								
 276:ble_process.c **** 								#ifdef DEBUG_ENABLED
 277:ble_process.c **** 								UART_UartPutString("potential_node_found ");
 278:ble_process.c **** 								UART_UartPutCRLF(' ');
 279:ble_process.c **** 								#endif
 280:ble_process.c **** 							}
 281:ble_process.c **** 							else
 282:ble_process.c **** 							{
 283:ble_process.c **** 								/* If the ADV data counter is equal or more than the data counter
 284:ble_process.c **** 								* in this scanning device, then the node has latest RGB LED data
 285:ble_process.c **** 								* and does not need to be connected to. Reset the potential node 
 286:ble_process.c **** 								* address */
 287:ble_process.c **** 								potential_node_found = FALSE;
 288:ble_process.c **** 								
 289:ble_process.c **** 								potential_node_bdAddrType = 0;
 290:ble_process.c **** 								
 291:ble_process.c **** 								potential_node_bdAddr[0] = 0x00;
 292:ble_process.c **** 								potential_node_bdAddr[1] = 0x00;
 293:ble_process.c **** 								potential_node_bdAddr[2] = 0x00;
 294:ble_process.c **** 								potential_node_bdAddr[3] = 0x00;
 295:ble_process.c **** 								potential_node_bdAddr[4] = 0x00;
 296:ble_process.c **** 								potential_node_bdAddr[5] = 0x00;
 297:ble_process.c **** 							}
 298:ble_process.c **** 						}
 299:ble_process.c **** 					}
 300:ble_process.c **** 				}
 301:ble_process.c **** 				#endif
 302:ble_process.c **** 				
 303:ble_process.c **** 				/* If the received scan data is part of scan response from a peripheral... */
 304:ble_process.c **** 				if(scan_report.eventType == CYBLE_GAPC_SCAN_RSP)
 305:ble_process.c **** 				{
 306:ble_process.c **** 					/* If the data lenght of the scan reponse packet is equal to expected
 307:ble_process.c **** 					* scan response data lenght...*/
 308:ble_process.c **** 					if(scan_report.dataLen == SCAN_TAG_DATA_LEN)
 309:ble_process.c **** 					{
 310:ble_process.c **** 						#ifdef ENABLE_ADV_DATA_COUNTER
 311:ble_process.c **** 						/* If a potential node had been found earlier as part of received 
 312:ble_process.c **** 						* advertising data, then compare the address of stored potential 
 313:ble_process.c **** 						* node and received address of the scan response */
 314:ble_process.c **** 						if(potential_node_found)
 315:ble_process.c **** 						{
 316:ble_process.c **** 							/* Compare the two addresses and type */
ARM GAS  C:\Users\ASUS\AppData\Local\Temp\cc5kiVkP.s 			page 9


 317:ble_process.c **** 							if((!memcmp(scan_report.peerBdAddr, potential_node_bdAddr, 6))  
 318:ble_process.c **** 								&& (potential_node_bdAddrType == scan_report.peerAddrType))
 319:ble_process.c **** 							{
 320:ble_process.c **** 						#endif
 321:ble_process.c **** 								/* If the scan report data matches the expected data (scan_tag),
 322:ble_process.c **** 								* then it is our desired node */
 323:ble_process.c **** 								if(!memcmp(scan_report.data, scan_tag, scan_report.dataLen))
 324:ble_process.c **** 								{
 325:ble_process.c **** 									#ifdef DEBUG_ENABLED
 326:ble_process.c **** 									UART_UartPutString("Titan Found ");
 327:ble_process.c **** 									UART_UartPutCRLF(' ');
 328:ble_process.c **** 									#endif
 329:ble_process.c **** 									/* Stop existing scan */
 330:ble_process.c **** 									CyBle_GapcStopScan();
 331:ble_process.c **** 									#ifdef DEBUG_ENABLED
 332:ble_process.c **** 									UART_UartPutString("Stop Scan called ");
 333:ble_process.c **** 									UART_UartPutCRLF(' ');
 334:ble_process.c **** 									#endif
 335:ble_process.c **** 									
 336:ble_process.c **** 									/* Save the peripheral BD address and type*/
 337:ble_process.c **** 									peripAddr.type = scan_report.peerAddrType;
 338:ble_process.c **** 									peripAddr.bdAddr[0] = scan_report.peerBdAddr[0];
 339:ble_process.c **** 									peripAddr.bdAddr[1] = scan_report.peerBdAddr[1];
 340:ble_process.c **** 									peripAddr.bdAddr[2] = scan_report.peerBdAddr[2];
 341:ble_process.c **** 									peripAddr.bdAddr[3] = scan_report.peerBdAddr[3];
 342:ble_process.c **** 									peripAddr.bdAddr[4] = scan_report.peerBdAddr[4];
 343:ble_process.c **** 									peripAddr.bdAddr[5] = scan_report.peerBdAddr[5];
 344:ble_process.c **** 
 345:ble_process.c **** 									/* Set the flag to allow application to connect to the
 346:ble_process.c **** 									* peripheral found */
 347:ble_process.c **** 									clientConnectToDevice = TRUE;
 348:ble_process.c **** 									
 349:ble_process.c **** 									#ifdef ENABLE_ADV_DATA_COUNTER
 350:ble_process.c **** 									/* Reset the potential node flag*/
 351:ble_process.c **** 									potential_node_found = FALSE;
 352:ble_process.c **** 									#endif
 353:ble_process.c **** 								}
 354:ble_process.c **** 						#ifdef ENABLE_ADV_DATA_COUNTER
 355:ble_process.c **** 							}
 356:ble_process.c **** 						}
 357:ble_process.c **** 						#endif
 358:ble_process.c **** 					}
 359:ble_process.c **** 				}
 360:ble_process.c **** 			}
 361:ble_process.c **** 
 362:ble_process.c **** 		break;
 363:ble_process.c **** 			
 364:ble_process.c **** 		case CYBLE_EVT_GAP_DEVICE_CONNECTED:
 365:ble_process.c **** 			/* This event is received whenever the device connect on GAP layer */
 366:ble_process.c **** 			if(ble_gap_state == BLE_CENTRAL)
 367:ble_process.c **** 			{
 368:ble_process.c **** 				#ifdef ENABLE_CENTRAL_DISCOVERY
 369:ble_process.c **** 					/* The Device is connected now. Start Attributes discovery process.*/
 370:ble_process.c **** 					CyBle_GattcStartDiscovery(cyBle_connHandle);
 371:ble_process.c **** 					#ifdef DEBUG_ENABLED
 372:ble_process.c **** 						UART_UartPutString("CYBLE_EVT_GAP_DEVICE_CONNECTED ");
 373:ble_process.c **** 						SendBLEStatetoUART(CyBle_GetState());
ARM GAS  C:\Users\ASUS\AppData\Local\Temp\cc5kiVkP.s 			page 10


 374:ble_process.c **** 						UART_UartPutCRLF(' ');
 375:ble_process.c **** 					#endif
 376:ble_process.c **** 				#else
 377:ble_process.c **** 					/* If this system is currently acting in Central role and has connected
 378:ble_process.c **** 					* to a peripheral device, then write directly the ADV counter data and
 379:ble_process.c **** 					* RGB LED control data using attribute handles */
 380:ble_process.c **** 					
 381:ble_process.c **** 					/* Set the device connected flag */
 382:ble_process.c **** 					deviceConnected = TRUE;
 383:ble_process.c **** 					
 384:ble_process.c **** 					#ifdef DEBUG_ENABLED
 385:ble_process.c **** 						UART_UartPutString("Directly write RGB using Attr handle ");
 386:ble_process.c **** 						SendBLEStatetoUART(CyBle_GetState());
 387:ble_process.c **** 						UART_UartPutCRLF(' ');
 388:ble_process.c **** 					#endif
 389:ble_process.c **** 					
 390:ble_process.c **** 					/* Write the Data Counter value */
 391:ble_process.c **** 					writeADVcounterdata.attrHandle = CYBLE_RGB_DATA_COUNT_CHAR_HANDLE;
 392:ble_process.c **** 					writeADVcounterdata.value.val = &dataADVCounter;
 393:ble_process.c **** 					writeADVcounterdata.value.len = 1;
 394:ble_process.c **** 					CyBle_GattcWriteWithoutResponse(cyBle_connHandle, &writeADVcounterdata);
 395:ble_process.c **** 				
 396:ble_process.c **** 					/* Write the RGB LED Value */
 397:ble_process.c **** 					writeRGBdata.attrHandle = CYBLE_RGB_LED_CONTROL_CHAR_HANDLE;
 398:ble_process.c **** 					writeRGBdata.value.val = RGBData;
 399:ble_process.c **** 					writeRGBdata.value.len = RGB_LED_DATA_LEN;
 400:ble_process.c **** 					CyBle_GattcWriteCharacteristicValue(cyBle_connHandle, &writeRGBdata);
 401:ble_process.c **** 				#endif
 402:ble_process.c **** 			}	
 403:ble_process.c ****         break;
 404:ble_process.c **** 			
 405:ble_process.c **** 		case CYBLE_EVT_GATTC_DISCOVERY_COMPLETE:
 406:ble_process.c **** 			/* This event is generated whenever the discovery procedure is complete*/
 407:ble_process.c **** 			
 408:ble_process.c **** 			#ifdef ENABLE_CENTRAL_DISCOVERY
 409:ble_process.c **** 			deviceConnected = TRUE;
 410:ble_process.c **** 			#ifdef DEBUG_ENABLED
 411:ble_process.c **** 				UART_UartPutString("CYBLE_EVT_GATTC_DISCOVERY_COMPLETE ");
 412:ble_process.c **** 				SendBLEStatetoUART(CyBle_GetState());
 413:ble_process.c **** 				UART_UartPutCRLF(' ');
 414:ble_process.c **** 			#endif
 415:ble_process.c **** 			
 416:ble_process.c **** 			/* Write the Data Counter value */
 417:ble_process.c **** 			writeADVcounterdata.attrHandle = CYBLE_RGB_DATA_COUNT_CHAR_HANDLE;
 418:ble_process.c **** 			writeADVcounterdata.value.val = &dataADVCounter;
 419:ble_process.c **** 			writeADVcounterdata.value.len = 1;
 420:ble_process.c **** 			CyBle_GattcWriteWithoutResponse(cyBle_connHandle, &writeADVcounterdata);
 421:ble_process.c **** 		
 422:ble_process.c **** 			/* Write the RGB LED Value */
 423:ble_process.c **** 			writeRGBdata.attrHandle = CYBLE_RGB_LED_CONTROL_CHAR_HANDLE;
 424:ble_process.c **** 			writeRGBdata.value.val = RGBData;
 425:ble_process.c **** 			writeRGBdata.value.len = RGB_LED_DATA_LEN;
 426:ble_process.c **** 			CyBle_GattcWriteCharacteristicValue(cyBle_connHandle, &writeRGBdata);
 427:ble_process.c **** 			#endif
 428:ble_process.c **** 		break;
 429:ble_process.c **** 			
 430:ble_process.c **** 		case CYBLE_EVT_GATTC_WRITE_RSP:
ARM GAS  C:\Users\ASUS\AppData\Local\Temp\cc5kiVkP.s 			page 11


 431:ble_process.c **** 			/* This event is generated when the Client device receives a response
 432:ble_process.c **** 			* as part of the Write request sent earlier. This indicates that
 433:ble_process.c **** 			* the RGB LED data was written successfully */
 434:ble_process.c **** 			#ifdef DEBUG_ENABLED
 435:ble_process.c **** 				UART_UartPutString("CYBLE_EVT_GATTC_WRITE_RSP ");
 436:ble_process.c **** 				SendBLEStatetoUART(CyBle_GetState());
 437:ble_process.c **** 				UART_UartPutCRLF(' ');
 438:ble_process.c **** 			#endif
 439:ble_process.c **** 			
 440:ble_process.c **** 			/* Disconnect the existing connection and restart scanning */
 441:ble_process.c **** 			if((cyBle_connHandle.bdHandle != 0))
 442:ble_process.c **** 			{
 443:ble_process.c **** 				CyBle_GapDisconnect(cyBle_connHandle.bdHandle);
 444:ble_process.c **** 				
 445:ble_process.c **** 				restartScanning = TRUE;
 446:ble_process.c **** 				#ifdef DEBUG_ENABLED
 447:ble_process.c **** 				UART_UartPutString("Disconnect from CYBLE_EVT_GATTC_WRITE_RSP ");
 448:ble_process.c **** 				SendBLEStatetoUART(CyBle_GetState());
 449:ble_process.c **** 				UART_UartPutCRLF(' ');
 450:ble_process.c **** 				#endif
 451:ble_process.c **** 			}
 452:ble_process.c **** 		break;
 453:ble_process.c **** 
 454:ble_process.c **** 		case CYBLE_EVT_GAP_DEVICE_DISCONNECTED:
 455:ble_process.c **** 			/* This event is generated when the device disconnects from an 
 456:ble_process.c **** 			* existing connection */
 457:ble_process.c **** 			deviceConnected = FALSE;
 458:ble_process.c **** 			
 459:ble_process.c **** 			#ifdef DEBUG_ENABLED
 460:ble_process.c **** 				UART_UartPutString("CYBLE_EVT_GAP_DEVICE_DISCONNECTED ");
 461:ble_process.c **** 				SendBLEStatetoUART(CyBle_GetState());
 462:ble_process.c **** 				UART_UartPutCRLF(' ');
 463:ble_process.c **** 			#endif
 464:ble_process.c **** 			
 465:ble_process.c **** 			if((ble_gap_state == BLE_PERIPHERAL) && (switch_Role != TRUE))
 466:ble_process.c **** 			{
 467:ble_process.c **** 				/* If the current role of this system was Peripheral and the role
 468:ble_process.c **** 				* is not to be switched, then restart advertisement */
 469:ble_process.c **** 				if(CYBLE_STATE_DISCONNECTED == CyBle_GetState())
 470:ble_process.c **** 				{
 471:ble_process.c **** 					CyBle_GappStartAdvertisement(CYBLE_ADVERTISING_FAST);	
 472:ble_process.c **** 					#ifdef DEBUG_ENABLED
 473:ble_process.c **** 					UART_UartPutString("Restart Advertisement ");
 474:ble_process.c **** 					SendBLEStatetoUART(CyBle_GetState());
 475:ble_process.c **** 					UART_UartPutCRLF(' ');
 476:ble_process.c **** 					#endif
 477:ble_process.c **** 				}
 478:ble_process.c **** 			}
 479:ble_process.c **** 			else if((ble_gap_state == BLE_CENTRAL) && (switch_Role != TRUE))
 480:ble_process.c **** 			{
 481:ble_process.c **** 				/* If the current role of this system was Central and the role
 482:ble_process.c **** 				* is not to be switched, then restart scanning */
 483:ble_process.c **** 				if(CYBLE_STATE_DISCONNECTED == CyBle_GetState())
 484:ble_process.c **** 				{
 485:ble_process.c **** 					CyBle_GapcStartScan(CYBLE_SCANNING_FAST);	
 486:ble_process.c **** 					#ifdef DEBUG_ENABLED
 487:ble_process.c **** 					UART_UartPutString("Restart Scanning ");
ARM GAS  C:\Users\ASUS\AppData\Local\Temp\cc5kiVkP.s 			page 12


 488:ble_process.c **** 					SendBLEStatetoUART(CyBle_GetState());
 489:ble_process.c **** 					UART_UartPutCRLF(' ');
 490:ble_process.c **** 					#endif
 491:ble_process.c **** 				}	
 492:ble_process.c **** 			}
 493:ble_process.c **** 		break;
 494:ble_process.c **** 			
 495:ble_process.c **** 		default:
 496:ble_process.c **** 			eventParam = eventParam;
 497:ble_process.c **** 		break;
 141              		.loc 1 497 0
 142 0024 1EE2     		b	.L1
 143              	.L6:
  67:ble_process.c **** 	{
 144              		.loc 1 67 0
 145 0026 272B     		cmp	r3, #39
 146 0028 00D1     		bne	.LCB33
 147 002a 78E1     		b	.L9	@long jump
 148              	.LCB33:
 149 002c 282B     		cmp	r3, #40
 150 002e 00D1     		bne	.LCB35
 151 0030 C3E1     		b	.L10	@long jump
 152              	.LCB35:
 153              		.loc 1 497 0
 154 0032 17E2     		b	.L1
 155              	.L4:
  67:ble_process.c **** 	{
 156              		.loc 1 67 0
 157 0034 4C2B     		cmp	r3, #76
 158 0036 24D0     		beq	.L11
 159 0038 06D8     		bhi	.L12
 160 003a 412B     		cmp	r3, #65
 161 003c 00D1     		bne	.LCB45
 162 003e 00E2     		b	.L34	@long jump
 163              	.LCB45:
 164 0040 422B     		cmp	r3, #66
 165 0042 00D1     		bne	.LCB47
 166 0044 FFE1     		b	.L35	@long jump
 167              	.LCB47:
 168              		.loc 1 497 0
 169 0046 0DE2     		b	.L1
 170              	.L12:
  67:ble_process.c **** 	{
 171              		.loc 1 67 0
 172 0048 4E2B     		cmp	r3, #78
 173 004a 00D1     		bne	.LCB53
 174 004c 71E0     		b	.L15	@long jump
 175              	.LCB53:
 176 004e 00D2     		bcs	.LCB55
 177 0050 A6E1     		b	.L16	@long jump
 178              	.LCB55:
 179 0052 8922     		movs	r2, #137
 180 0054 5200     		lsls	r2, r2, #1
 181 0056 9342     		cmp	r3, r2
 182 0058 00D1     		bne	.LCB59
 183 005a F6E1     		b	.L36	@long jump
 184              	.LCB59:
ARM GAS  C:\Users\ASUS\AppData\Local\Temp\cc5kiVkP.s 			page 13


 185              		.loc 1 497 0
 186 005c 02E2     		b	.L1
 187              	.L7:
  75:ble_process.c **** 		break;
 188              		.loc 1 75 0
 189 005e 0020     		movs	r0, #0
 190 0060 FFF7FEFF 		bl	CyBle_GappStartAdvertisement
  76:ble_process.c **** 			
 191              		.loc 1 76 0
 192 0064 FEE1     		b	.L1
 193              	.L5:
  86:ble_process.c **** 			{
 194              		.loc 1 86 0
 195 0066 DE4B     		ldr	r3, .L43
 196 0068 1B78     		ldrb	r3, [r3]
 197 006a 062B     		cmp	r3, #6
 198 006c 00D0     		beq	.LCB73
 199 006e EEE1     		b	.L37	@long jump
 200              	.LCB73:
  86:ble_process.c **** 			{
 201              		.loc 1 86 0 is_stmt 0 discriminator 1
 202 0070 DC4B     		ldr	r3, .L43+4
 203 0072 1B78     		ldrb	r3, [r3]
 204 0074 002B     		cmp	r3, #0
 205 0076 00D0     		beq	.LCB77
 206 0078 E9E1     		b	.L37	@long jump
 207              	.LCB77:
  92:ble_process.c **** 				
 208              		.loc 1 92 0 is_stmt 1
 209 007a 0020     		movs	r0, #0
 210 007c FFF7FEFF 		bl	CyBle_GappStartAdvertisement
 103:ble_process.c **** 			
 211              		.loc 1 103 0
 212 0080 E5E1     		b	.L37
 213              	.L11:
 136:ble_process.c **** 
 214              		.loc 1 136 0
 215 0082 4823     		movs	r3, #72
 216 0084 FB18     		adds	r3, r7, r3
 217 0086 3A68     		ldr	r2, [r7]
 218 0088 13CA     		ldmia	r2!, {r0, r1, r4}
 219 008a 13C3     		stmia	r3!, {r0, r1, r4}
 220 008c 1268     		ldr	r2, [r2]
 221 008e 1A60     		str	r2, [r3]
 138:ble_process.c **** 			{
 222              		.loc 1 138 0
 223 0090 4823     		movs	r3, #72
 224 0092 FB18     		adds	r3, r7, r3
 225 0094 9B89     		ldrh	r3, [r3, #12]
 226 0096 0E2B     		cmp	r3, #14
 227 0098 3CD1     		bne	.L20
 142:ble_process.c **** 				{
 228              		.loc 1 142 0
 229 009a 4823     		movs	r3, #72
 230 009c FB18     		adds	r3, r7, r3
 231 009e 1B89     		ldrh	r3, [r3, #8]
 232 00a0 042B     		cmp	r3, #4
ARM GAS  C:\Users\ASUS\AppData\Local\Temp\cc5kiVkP.s 			page 14


 233 00a2 2ED1     		bne	.L21
 150:ble_process.c **** 					RGBData[RGB_GREEN_INDEX] = writeReqData.handleValPair.value.val[1];
 234              		.loc 1 150 0
 235 00a4 4823     		movs	r3, #72
 236 00a6 FB18     		adds	r3, r7, r3
 237 00a8 5B68     		ldr	r3, [r3, #4]
 238 00aa 1A78     		ldrb	r2, [r3]
 239 00ac CE4B     		ldr	r3, .L43+8
 240 00ae 1A70     		strb	r2, [r3]
 151:ble_process.c **** 					RGBData[RGB_BLUE_INDEX] = writeReqData.handleValPair.value.val[2];
 241              		.loc 1 151 0
 242 00b0 4823     		movs	r3, #72
 243 00b2 FB18     		adds	r3, r7, r3
 244 00b4 5B68     		ldr	r3, [r3, #4]
 245 00b6 5A78     		ldrb	r2, [r3, #1]
 246 00b8 CB4B     		ldr	r3, .L43+8
 247 00ba 5A70     		strb	r2, [r3, #1]
 152:ble_process.c **** 					RGBData[RGB_INTENSITY_INDEX] = writeReqData.handleValPair.value.val[3];
 248              		.loc 1 152 0
 249 00bc 4823     		movs	r3, #72
 250 00be FB18     		adds	r3, r7, r3
 251 00c0 5B68     		ldr	r3, [r3, #4]
 252 00c2 9A78     		ldrb	r2, [r3, #2]
 253 00c4 C84B     		ldr	r3, .L43+8
 254 00c6 9A70     		strb	r2, [r3, #2]
 153:ble_process.c **** 					
 255              		.loc 1 153 0
 256 00c8 4823     		movs	r3, #72
 257 00ca FB18     		adds	r3, r7, r3
 258 00cc 5B68     		ldr	r3, [r3, #4]
 259 00ce DA78     		ldrb	r2, [r3, #3]
 260 00d0 C54B     		ldr	r3, .L43+8
 261 00d2 DA70     		strb	r2, [r3, #3]
 157:ble_process.c **** 					
 262              		.loc 1 157 0
 263 00d4 C44B     		ldr	r3, .L43+8
 264 00d6 0421     		movs	r1, #4
 265 00d8 1800     		movs	r0, r3
 266 00da FFF7FEFF 		bl	UpdateRGBled
 161:ble_process.c **** 							
 267              		.loc 1 161 0
 268 00de C34A     		ldr	r2, .L43+12
 269 00e0 4823     		movs	r3, #72
 270 00e2 FB18     		adds	r3, r7, r3
 271 00e4 181D     		adds	r0, r3, #4
 272 00e6 0023     		movs	r3, #0
 273 00e8 0021     		movs	r1, #0
 274 00ea FFF7FEFF 		bl	CyBle_GattsWriteAttributeValue
 166:ble_process.c **** 					#endif
 275              		.loc 1 166 0
 276 00ee C04B     		ldr	r3, .L43+16
 277 00f0 1B78     		ldrb	r3, [r3]
 278 00f2 0133     		adds	r3, r3, #1
 279 00f4 DAB2     		uxtb	r2, r3
 280 00f6 BE4B     		ldr	r3, .L43+16
 281 00f8 1A70     		strb	r2, [r3]
 177:ble_process.c **** 					
ARM GAS  C:\Users\ASUS\AppData\Local\Temp\cc5kiVkP.s 			page 15


 282              		.loc 1 177 0
 283 00fa BA4B     		ldr	r3, .L43+4
 284 00fc 0122     		movs	r2, #1
 285 00fe 1A70     		strb	r2, [r3]
 286 0100 08E0     		b	.L20
 287              	.L21:
 187:ble_process.c **** 									writeReqData.handleValPair.attrHandle, 
 288              		.loc 1 187 0
 289 0102 4823     		movs	r3, #72
 290 0104 FB18     		adds	r3, r7, r3
 291 0106 9B89     		ldrh	r3, [r3, #12]
 292 0108 0D22     		movs	r2, #13
 293 010a 1900     		movs	r1, r3
 294 010c 1220     		movs	r0, #18
 295 010e FFF7FEFF 		bl	SendErrorCode
 296 0112 A7E1     		b	.L1
 297              	.L20:
 198:ble_process.c **** 		break;
 298              		.loc 1 198 0
 299 0114 B54B     		ldr	r3, .L43+12
 300 0116 1A78     		ldrb	r2, [r3]
 301 0118 5B78     		ldrb	r3, [r3, #1]
 302 011a 1B02     		lsls	r3, r3, #8
 303 011c 1A43     		orrs	r2, r3
 304 011e 0023     		movs	r3, #0
 305 0120 1204     		lsls	r2, r2, #16
 306 0122 120C     		lsrs	r2, r2, #16
 307 0124 1B0C     		lsrs	r3, r3, #16
 308 0126 1B04     		lsls	r3, r3, #16
 309 0128 1343     		orrs	r3, r2
 310 012a 1800     		movs	r0, r3
 311 012c FFF7FEFF 		bl	CyBle_GattsWriteRsp
 199:ble_process.c **** 			
 312              		.loc 1 199 0
 313 0130 98E1     		b	.L1
 314              	.L15:
 205:ble_process.c **** 			
 315              		.loc 1 205 0
 316 0132 1823     		movs	r3, #24
 317 0134 FB18     		adds	r3, r7, r3
 318 0136 3A68     		ldr	r2, [r7]
 319 0138 13CA     		ldmia	r2!, {r0, r1, r4}
 320 013a 13C3     		stmia	r3!, {r0, r1, r4}
 321 013c 1268     		ldr	r2, [r2]
 322 013e 1A60     		str	r2, [r3]
 208:ble_process.c **** 			{
 323              		.loc 1 208 0
 324 0140 1823     		movs	r3, #24
 325 0142 FB18     		adds	r3, r7, r3
 326 0144 9B89     		ldrh	r3, [r3, #12]
 327 0146 112B     		cmp	r3, #17
 328 0148 00D0     		beq	.LCB186
 329 014a 82E1     		b	.L38	@long jump
 330              	.LCB186:
 211:ble_process.c **** 				{
 331              		.loc 1 211 0
 332 014c 1823     		movs	r3, #24
ARM GAS  C:\Users\ASUS\AppData\Local\Temp\cc5kiVkP.s 			page 16


 333 014e FB18     		adds	r3, r7, r3
 334 0150 1B89     		ldrh	r3, [r3, #8]
 335 0152 012B     		cmp	r3, #1
 336 0154 00D0     		beq	.LCB191
 337 0156 7CE1     		b	.L38	@long jump
 338              	.LCB191:
 214:ble_process.c **** 					
 339              		.loc 1 214 0
 340 0158 1823     		movs	r3, #24
 341 015a FB18     		adds	r3, r7, r3
 342 015c 5B68     		ldr	r3, [r3, #4]
 343 015e 1A78     		ldrb	r2, [r3]
 344 0160 A34B     		ldr	r3, .L43+16
 345 0162 1A70     		strb	r2, [r3]
 217:ble_process.c **** 					
 346              		.loc 1 217 0
 347 0164 A24B     		ldr	r3, .L43+16
 348 0166 1B78     		ldrb	r3, [r3]
 349 0168 013B     		subs	r3, r3, #1
 350 016a DAB2     		uxtb	r2, r3
 351 016c A04B     		ldr	r3, .L43+16
 352 016e 1A70     		strb	r2, [r3]
 221:ble_process.c **** 													0,
 353              		.loc 1 221 0
 354 0170 9E4A     		ldr	r2, .L43+12
 355 0172 1823     		movs	r3, #24
 356 0174 FB18     		adds	r3, r7, r3
 357 0176 181D     		adds	r0, r3, #4
 358 0178 0023     		movs	r3, #0
 359 017a 0021     		movs	r1, #0
 360 017c FFF7FEFF 		bl	CyBle_GattsWriteAttributeValue
 233:ble_process.c **** 		
 361              		.loc 1 233 0
 362 0180 67E1     		b	.L38
 363              	.L8:
 238:ble_process.c **** 			{
 364              		.loc 1 238 0
 365 0182 974B     		ldr	r3, .L43
 366 0184 1B78     		ldrb	r3, [r3]
 367 0186 022B     		cmp	r3, #2
 368 0188 00D1     		bne	.LCB218
 369 018a 64E1     		b	.L39	@long jump
 370              	.LCB218:
 242:ble_process.c **** 				
 371              		.loc 1 242 0
 372 018c 2823     		movs	r3, #40
 373 018e FB18     		adds	r3, r7, r3
 374 0190 3A68     		ldr	r2, [r7]
 375 0192 13CA     		ldmia	r2!, {r0, r1, r4}
 376 0194 13C3     		stmia	r3!, {r0, r1, r4}
 377 0196 03CA     		ldmia	r2!, {r0, r1}
 378 0198 03C3     		stmia	r3!, {r0, r1}
 254:ble_process.c **** 				{
 379              		.loc 1 254 0
 380 019a 2823     		movs	r3, #40
 381 019c FB18     		adds	r3, r7, r3
 382 019e 1B78     		ldrb	r3, [r3]
ARM GAS  C:\Users\ASUS\AppData\Local\Temp\cc5kiVkP.s 			page 17


 383 01a0 002B     		cmp	r3, #0
 384 01a2 58D1     		bne	.L25
 258:ble_process.c **** 					{
 385              		.loc 1 258 0
 386 01a4 2823     		movs	r3, #40
 387 01a6 FB18     		adds	r3, r7, r3
 388 01a8 1A7A     		ldrb	r2, [r3, #8]
 389 01aa 924B     		ldr	r3, .L43+20
 390 01ac DB7F     		ldrb	r3, [r3, #31]
 391 01ae 9A42     		cmp	r2, r3
 392 01b0 51D1     		bne	.L25
 262:ble_process.c **** 						{
 393              		.loc 1 262 0
 394 01b2 2823     		movs	r3, #40
 395 01b4 FB18     		adds	r3, r7, r3
 396 01b6 DA68     		ldr	r2, [r3, #12]
 397 01b8 2823     		movs	r3, #40
 398 01ba FB18     		adds	r3, r7, r3
 399 01bc 1B7A     		ldrb	r3, [r3, #8]
 400 01be 023B     		subs	r3, r3, #2
 401 01c0 D318     		adds	r3, r2, r3
 402 01c2 1B78     		ldrb	r3, [r3]
 403 01c4 012B     		cmp	r3, #1
 404 01c6 46D1     		bne	.L25
 267:ble_process.c **** 							((scan_report.data[scan_report.dataLen-1] == 255) && (dataADVCounter == 0)))
 405              		.loc 1 267 0
 406 01c8 2823     		movs	r3, #40
 407 01ca FB18     		adds	r3, r7, r3
 408 01cc DA68     		ldr	r2, [r3, #12]
 409 01ce 2823     		movs	r3, #40
 410 01d0 FB18     		adds	r3, r7, r3
 411 01d2 1B7A     		ldrb	r3, [r3, #8]
 412 01d4 013B     		subs	r3, r3, #1
 413 01d6 D318     		adds	r3, r2, r3
 414 01d8 1A78     		ldrb	r2, [r3]
 415 01da 854B     		ldr	r3, .L43+16
 416 01dc 1B78     		ldrb	r3, [r3]
 417 01de 9A42     		cmp	r2, r3
 418 01e0 0ED3     		bcc	.L26
 268:ble_process.c **** 							{
 419              		.loc 1 268 0 discriminator 1
 420 01e2 2823     		movs	r3, #40
 421 01e4 FB18     		adds	r3, r7, r3
 422 01e6 DA68     		ldr	r2, [r3, #12]
 423 01e8 2823     		movs	r3, #40
 424 01ea FB18     		adds	r3, r7, r3
 425 01ec 1B7A     		ldrb	r3, [r3, #8]
 426 01ee 013B     		subs	r3, r3, #1
 427 01f0 D318     		adds	r3, r2, r3
 428 01f2 1B78     		ldrb	r3, [r3]
 267:ble_process.c **** 							((scan_report.data[scan_report.dataLen-1] == 255) && (dataADVCounter == 0)))
 429              		.loc 1 267 0 discriminator 1
 430 01f4 FF2B     		cmp	r3, #255
 431 01f6 16D1     		bne	.L27
 268:ble_process.c **** 							{
 432              		.loc 1 268 0
 433 01f8 7D4B     		ldr	r3, .L43+16
ARM GAS  C:\Users\ASUS\AppData\Local\Temp\cc5kiVkP.s 			page 18


 434 01fa 1B78     		ldrb	r3, [r3]
 435 01fc 002B     		cmp	r3, #0
 436 01fe 12D1     		bne	.L27
 437              	.L26:
 271:ble_process.c **** 								/* Save the advertising peripheral address and type*/
 438              		.loc 1 271 0
 439 0200 7D4B     		ldr	r3, .L43+24
 440 0202 0122     		movs	r2, #1
 441 0204 1A70     		strb	r2, [r3]
 273:ble_process.c **** 								potential_node_bdAddrType = scan_report.peerAddrType;
 442              		.loc 1 273 0
 443 0206 2823     		movs	r3, #40
 444 0208 FB18     		adds	r3, r7, r3
 445 020a 5B68     		ldr	r3, [r3, #4]
 446 020c 7B4A     		ldr	r2, .L43+28
 447 020e 1000     		movs	r0, r2
 448 0210 1900     		movs	r1, r3
 449 0212 0623     		movs	r3, #6
 450 0214 1A00     		movs	r2, r3
 451 0216 FFF7FEFF 		bl	memcpy
 274:ble_process.c **** 								
 452              		.loc 1 274 0
 453 021a 2823     		movs	r3, #40
 454 021c FB18     		adds	r3, r7, r3
 455 021e 5A78     		ldrb	r2, [r3, #1]
 456 0220 774B     		ldr	r3, .L43+32
 457 0222 1A70     		strb	r2, [r3]
 458 0224 17E0     		b	.L25
 459              	.L27:
 287:ble_process.c **** 								
 460              		.loc 1 287 0
 461 0226 744B     		ldr	r3, .L43+24
 462 0228 0022     		movs	r2, #0
 463 022a 1A70     		strb	r2, [r3]
 289:ble_process.c **** 								
 464              		.loc 1 289 0
 465 022c 744B     		ldr	r3, .L43+32
 466 022e 0022     		movs	r2, #0
 467 0230 1A70     		strb	r2, [r3]
 291:ble_process.c **** 								potential_node_bdAddr[1] = 0x00;
 468              		.loc 1 291 0
 469 0232 724B     		ldr	r3, .L43+28
 470 0234 0022     		movs	r2, #0
 471 0236 1A70     		strb	r2, [r3]
 292:ble_process.c **** 								potential_node_bdAddr[2] = 0x00;
 472              		.loc 1 292 0
 473 0238 704B     		ldr	r3, .L43+28
 474 023a 0022     		movs	r2, #0
 475 023c 5A70     		strb	r2, [r3, #1]
 293:ble_process.c **** 								potential_node_bdAddr[3] = 0x00;
 476              		.loc 1 293 0
 477 023e 6F4B     		ldr	r3, .L43+28
 478 0240 0022     		movs	r2, #0
 479 0242 9A70     		strb	r2, [r3, #2]
 294:ble_process.c **** 								potential_node_bdAddr[4] = 0x00;
 480              		.loc 1 294 0
 481 0244 6D4B     		ldr	r3, .L43+28
ARM GAS  C:\Users\ASUS\AppData\Local\Temp\cc5kiVkP.s 			page 19


 482 0246 0022     		movs	r2, #0
 483 0248 DA70     		strb	r2, [r3, #3]
 295:ble_process.c **** 								potential_node_bdAddr[5] = 0x00;
 484              		.loc 1 295 0
 485 024a 6C4B     		ldr	r3, .L43+28
 486 024c 0022     		movs	r2, #0
 487 024e 1A71     		strb	r2, [r3, #4]
 296:ble_process.c **** 							}
 488              		.loc 1 296 0
 489 0250 6A4B     		ldr	r3, .L43+28
 490 0252 0022     		movs	r2, #0
 491 0254 5A71     		strb	r2, [r3, #5]
 492              	.L25:
 304:ble_process.c **** 				{
 493              		.loc 1 304 0
 494 0256 2823     		movs	r3, #40
 495 0258 FB18     		adds	r3, r7, r3
 496 025a 1B78     		ldrb	r3, [r3]
 497 025c 042B     		cmp	r3, #4
 498 025e 00D0     		beq	.LCB327
 499 0260 F9E0     		b	.L39	@long jump
 500              	.LCB327:
 308:ble_process.c **** 					{
 501              		.loc 1 308 0
 502 0262 2823     		movs	r3, #40
 503 0264 FB18     		adds	r3, r7, r3
 504 0266 1B7A     		ldrb	r3, [r3, #8]
 505 0268 142B     		cmp	r3, #20
 506 026a 00D0     		beq	.LCB332
 507 026c F3E0     		b	.L39	@long jump
 508              	.LCB332:
 314:ble_process.c **** 						{
 509              		.loc 1 314 0
 510 026e 624B     		ldr	r3, .L43+24
 511 0270 1B78     		ldrb	r3, [r3]
 512 0272 002B     		cmp	r3, #0
 513 0274 00D1     		bne	.LCB336
 514 0276 EEE0     		b	.L39	@long jump
 515              	.LCB336:
 317:ble_process.c **** 								&& (potential_node_bdAddrType == scan_report.peerAddrType))
 516              		.loc 1 317 0
 517 0278 2823     		movs	r3, #40
 518 027a FB18     		adds	r3, r7, r3
 519 027c 5B68     		ldr	r3, [r3, #4]
 520 027e 5F49     		ldr	r1, .L43+28
 521 0280 0622     		movs	r2, #6
 522 0282 1800     		movs	r0, r3
 523 0284 FFF7FEFF 		bl	memcmp
 524 0288 031E     		subs	r3, r0, #0
 525 028a 00D0     		beq	.LCB346
 526 028c E3E0     		b	.L39	@long jump
 527              	.LCB346:
 318:ble_process.c **** 							{
 528              		.loc 1 318 0
 529 028e 2823     		movs	r3, #40
 530 0290 FB18     		adds	r3, r7, r3
 531 0292 5A78     		ldrb	r2, [r3, #1]
ARM GAS  C:\Users\ASUS\AppData\Local\Temp\cc5kiVkP.s 			page 20


 532 0294 5A4B     		ldr	r3, .L43+32
 533 0296 1B78     		ldrb	r3, [r3]
 534 0298 9A42     		cmp	r2, r3
 535 029a 00D0     		beq	.LCB353
 536 029c DBE0     		b	.L39	@long jump
 537              	.LCB353:
 323:ble_process.c **** 								{
 538              		.loc 1 323 0
 539 029e 2823     		movs	r3, #40
 540 02a0 FB18     		adds	r3, r7, r3
 541 02a2 D868     		ldr	r0, [r3, #12]
 542 02a4 2823     		movs	r3, #40
 543 02a6 FB18     		adds	r3, r7, r3
 544 02a8 1B7A     		ldrb	r3, [r3, #8]
 545 02aa 1A00     		movs	r2, r3
 546 02ac 554B     		ldr	r3, .L43+36
 547 02ae 1900     		movs	r1, r3
 548 02b0 FFF7FEFF 		bl	memcmp
 549 02b4 031E     		subs	r3, r0, #0
 550 02b6 00D0     		beq	.LCB366
 551 02b8 CDE0     		b	.L39	@long jump
 552              	.LCB366:
 330:ble_process.c **** 									#ifdef DEBUG_ENABLED
 553              		.loc 1 330 0
 554 02ba FFF7FEFF 		bl	CyBle_GapcStopScan
 337:ble_process.c **** 									peripAddr.bdAddr[0] = scan_report.peerBdAddr[0];
 555              		.loc 1 337 0
 556 02be 2823     		movs	r3, #40
 557 02c0 FB18     		adds	r3, r7, r3
 558 02c2 5A78     		ldrb	r2, [r3, #1]
 559 02c4 504B     		ldr	r3, .L43+40
 560 02c6 9A71     		strb	r2, [r3, #6]
 338:ble_process.c **** 									peripAddr.bdAddr[1] = scan_report.peerBdAddr[1];
 561              		.loc 1 338 0
 562 02c8 2823     		movs	r3, #40
 563 02ca FB18     		adds	r3, r7, r3
 564 02cc 5B68     		ldr	r3, [r3, #4]
 565 02ce 1A78     		ldrb	r2, [r3]
 566 02d0 4D4B     		ldr	r3, .L43+40
 567 02d2 1A70     		strb	r2, [r3]
 339:ble_process.c **** 									peripAddr.bdAddr[2] = scan_report.peerBdAddr[2];
 568              		.loc 1 339 0
 569 02d4 2823     		movs	r3, #40
 570 02d6 FB18     		adds	r3, r7, r3
 571 02d8 5B68     		ldr	r3, [r3, #4]
 572 02da 5A78     		ldrb	r2, [r3, #1]
 573 02dc 4A4B     		ldr	r3, .L43+40
 574 02de 5A70     		strb	r2, [r3, #1]
 340:ble_process.c **** 									peripAddr.bdAddr[3] = scan_report.peerBdAddr[3];
 575              		.loc 1 340 0
 576 02e0 2823     		movs	r3, #40
 577 02e2 FB18     		adds	r3, r7, r3
 578 02e4 5B68     		ldr	r3, [r3, #4]
 579 02e6 9A78     		ldrb	r2, [r3, #2]
 580 02e8 474B     		ldr	r3, .L43+40
 581 02ea 9A70     		strb	r2, [r3, #2]
 341:ble_process.c **** 									peripAddr.bdAddr[4] = scan_report.peerBdAddr[4];
ARM GAS  C:\Users\ASUS\AppData\Local\Temp\cc5kiVkP.s 			page 21


 582              		.loc 1 341 0
 583 02ec 2823     		movs	r3, #40
 584 02ee FB18     		adds	r3, r7, r3
 585 02f0 5B68     		ldr	r3, [r3, #4]
 586 02f2 DA78     		ldrb	r2, [r3, #3]
 587 02f4 444B     		ldr	r3, .L43+40
 588 02f6 DA70     		strb	r2, [r3, #3]
 342:ble_process.c **** 									peripAddr.bdAddr[5] = scan_report.peerBdAddr[5];
 589              		.loc 1 342 0
 590 02f8 2823     		movs	r3, #40
 591 02fa FB18     		adds	r3, r7, r3
 592 02fc 5B68     		ldr	r3, [r3, #4]
 593 02fe 1A79     		ldrb	r2, [r3, #4]
 594 0300 414B     		ldr	r3, .L43+40
 595 0302 1A71     		strb	r2, [r3, #4]
 343:ble_process.c **** 
 596              		.loc 1 343 0
 597 0304 2823     		movs	r3, #40
 598 0306 FB18     		adds	r3, r7, r3
 599 0308 5B68     		ldr	r3, [r3, #4]
 600 030a 5A79     		ldrb	r2, [r3, #5]
 601 030c 3E4B     		ldr	r3, .L43+40
 602 030e 5A71     		strb	r2, [r3, #5]
 347:ble_process.c **** 									
 603              		.loc 1 347 0
 604 0310 3E4B     		ldr	r3, .L43+44
 605 0312 0122     		movs	r2, #1
 606 0314 1A70     		strb	r2, [r3]
 351:ble_process.c **** 									#endif
 607              		.loc 1 351 0
 608 0316 384B     		ldr	r3, .L43+24
 609 0318 0022     		movs	r2, #0
 610 031a 1A70     		strb	r2, [r3]
 362:ble_process.c **** 			
 611              		.loc 1 362 0
 612 031c 9BE0     		b	.L39
 613              	.L9:
 366:ble_process.c **** 			{
 614              		.loc 1 366 0
 615 031e 3C4B     		ldr	r3, .L43+48
 616 0320 1B78     		ldrb	r3, [r3]
 617 0322 022B     		cmp	r3, #2
 618 0324 00D0     		beq	.LCB422
 619 0326 98E0     		b	.L40	@long jump
 620              	.LCB422:
 382:ble_process.c **** 					
 621              		.loc 1 382 0
 622 0328 3A4B     		ldr	r3, .L43+52
 623 032a 0122     		movs	r2, #1
 624 032c 1A70     		strb	r2, [r3]
 391:ble_process.c **** 					writeADVcounterdata.value.val = &dataADVCounter;
 625              		.loc 1 391 0
 626 032e 3C23     		movs	r3, #60
 627 0330 FB18     		adds	r3, r7, r3
 628 0332 1122     		movs	r2, #17
 629 0334 1A81     		strh	r2, [r3, #8]
 392:ble_process.c **** 					writeADVcounterdata.value.len = 1;
ARM GAS  C:\Users\ASUS\AppData\Local\Temp\cc5kiVkP.s 			page 22


 630              		.loc 1 392 0
 631 0336 3C23     		movs	r3, #60
 632 0338 FB18     		adds	r3, r7, r3
 633 033a 2D4A     		ldr	r2, .L43+16
 634 033c 1A60     		str	r2, [r3]
 393:ble_process.c **** 					CyBle_GattcWriteWithoutResponse(cyBle_connHandle, &writeADVcounterdata);
 635              		.loc 1 393 0
 636 033e 3C23     		movs	r3, #60
 637 0340 FB18     		adds	r3, r7, r3
 638 0342 0122     		movs	r2, #1
 639 0344 9A80     		strh	r2, [r3, #4]
 394:ble_process.c **** 				
 640              		.loc 1 394 0
 641 0346 3C23     		movs	r3, #60
 642 0348 F918     		adds	r1, r7, r3
 643 034a 284B     		ldr	r3, .L43+12
 644 034c 1A78     		ldrb	r2, [r3]
 645 034e 5B78     		ldrb	r3, [r3, #1]
 646 0350 1B02     		lsls	r3, r3, #8
 647 0352 1A43     		orrs	r2, r3
 648 0354 0023     		movs	r3, #0
 649 0356 1204     		lsls	r2, r2, #16
 650 0358 120C     		lsrs	r2, r2, #16
 651 035a 1B0C     		lsrs	r3, r3, #16
 652 035c 1B04     		lsls	r3, r3, #16
 653 035e 1343     		orrs	r3, r2
 654 0360 1800     		movs	r0, r3
 655 0362 FFF7FEFF 		bl	CyBle_GattcWriteWithoutResponse
 397:ble_process.c **** 					writeRGBdata.value.val = RGBData;
 656              		.loc 1 397 0
 657 0366 0C23     		movs	r3, #12
 658 0368 FB18     		adds	r3, r7, r3
 659 036a 0E22     		movs	r2, #14
 660 036c 1A81     		strh	r2, [r3, #8]
 398:ble_process.c **** 					writeRGBdata.value.len = RGB_LED_DATA_LEN;
 661              		.loc 1 398 0
 662 036e 0C23     		movs	r3, #12
 663 0370 FB18     		adds	r3, r7, r3
 664 0372 1D4A     		ldr	r2, .L43+8
 665 0374 1A60     		str	r2, [r3]
 399:ble_process.c **** 					CyBle_GattcWriteCharacteristicValue(cyBle_connHandle, &writeRGBdata);
 666              		.loc 1 399 0
 667 0376 0C23     		movs	r3, #12
 668 0378 FB18     		adds	r3, r7, r3
 669 037a 0422     		movs	r2, #4
 670 037c 9A80     		strh	r2, [r3, #4]
 400:ble_process.c **** 				#endif
 671              		.loc 1 400 0
 672 037e 0C23     		movs	r3, #12
 673 0380 F918     		adds	r1, r7, r3
 674 0382 1A4B     		ldr	r3, .L43+12
 675 0384 1A78     		ldrb	r2, [r3]
 676 0386 5B78     		ldrb	r3, [r3, #1]
 677 0388 1B02     		lsls	r3, r3, #8
 678 038a 1A43     		orrs	r2, r3
 679 038c 0023     		movs	r3, #0
 680 038e 1204     		lsls	r2, r2, #16
ARM GAS  C:\Users\ASUS\AppData\Local\Temp\cc5kiVkP.s 			page 23


 681 0390 120C     		lsrs	r2, r2, #16
 682 0392 1B0C     		lsrs	r3, r3, #16
 683 0394 1B04     		lsls	r3, r3, #16
 684 0396 1343     		orrs	r3, r2
 685 0398 1800     		movs	r0, r3
 686 039a FFF7FEFF 		bl	CyBle_GattcWriteCharacteristicValue
 403:ble_process.c **** 			
 687              		.loc 1 403 0
 688 039e 5CE0     		b	.L40
 689              	.L16:
 441:ble_process.c **** 			{
 690              		.loc 1 441 0
 691 03a0 124B     		ldr	r3, .L43+12
 692 03a2 1B78     		ldrb	r3, [r3]
 693 03a4 002B     		cmp	r3, #0
 694 03a6 5AD0     		beq	.L41
 443:ble_process.c **** 				
 695              		.loc 1 443 0
 696 03a8 104B     		ldr	r3, .L43+12
 697 03aa 1B78     		ldrb	r3, [r3]
 698 03ac 1800     		movs	r0, r3
 699 03ae FFF7FEFF 		bl	CyBle_GapDisconnect
 445:ble_process.c **** 				#ifdef DEBUG_ENABLED
 700              		.loc 1 445 0
 701 03b2 194B     		ldr	r3, .L43+56
 702 03b4 0122     		movs	r2, #1
 703 03b6 1A70     		strb	r2, [r3]
 452:ble_process.c **** 
 704              		.loc 1 452 0
 705 03b8 51E0     		b	.L41
 706              	.L10:
 457:ble_process.c **** 			
 707              		.loc 1 457 0
 708 03ba 164B     		ldr	r3, .L43+52
 709 03bc 0022     		movs	r2, #0
 710 03be 1A70     		strb	r2, [r3]
 465:ble_process.c **** 			{
 711              		.loc 1 465 0
 712 03c0 134B     		ldr	r3, .L43+48
 713 03c2 1B78     		ldrb	r3, [r3]
 714 03c4 012B     		cmp	r3, #1
 715 03c6 29D1     		bne	.L30
 465:ble_process.c **** 			{
 716              		.loc 1 465 0 is_stmt 0 discriminator 1
 717 03c8 064B     		ldr	r3, .L43+4
 718 03ca 1B78     		ldrb	r3, [r3]
 719 03cc 012B     		cmp	r3, #1
 720 03ce 25D0     		beq	.L30
 469:ble_process.c **** 				{
 721              		.loc 1 469 0 is_stmt 1
 722 03d0 034B     		ldr	r3, .L43
 723 03d2 1B78     		ldrb	r3, [r3]
 724 03d4 062B     		cmp	r3, #6
 725 03d6 31D1     		bne	.L32
 471:ble_process.c **** 					#ifdef DEBUG_ENABLED
 726              		.loc 1 471 0
 727 03d8 0020     		movs	r0, #0
ARM GAS  C:\Users\ASUS\AppData\Local\Temp\cc5kiVkP.s 			page 24


 728 03da FFF7FEFF 		bl	CyBle_GappStartAdvertisement
 469:ble_process.c **** 				{
 729              		.loc 1 469 0
 730 03de 2DE0     		b	.L32
 731              	.L44:
 732              		.align	2
 733              	.L43:
 734 03e0 00000000 		.word	cyBle_state
 735 03e4 00000000 		.word	switch_Role
 736 03e8 00000000 		.word	RGBData
 737 03ec 00000000 		.word	cyBle_connHandle
 738 03f0 00000000 		.word	dataADVCounter
 739 03f4 00000000 		.word	new_advData
 740 03f8 00000000 		.word	potential_node_found
 741 03fc 00000000 		.word	potential_node_bdAddr
 742 0400 00000000 		.word	potential_node_bdAddrType
 743 0404 00000000 		.word	scan_tag
 744 0408 00000000 		.word	peripAddr
 745 040c 00000000 		.word	clientConnectToDevice
 746 0410 00000000 		.word	ble_gap_state
 747 0414 00000000 		.word	deviceConnected
 748 0418 00000000 		.word	restartScanning
 749              	.L30:
 479:ble_process.c **** 			{
 750              		.loc 1 479 0
 751 041c 134B     		ldr	r3, .L45
 752 041e 1B78     		ldrb	r3, [r3]
 753 0420 022B     		cmp	r3, #2
 754 0422 1ED1     		bne	.L42
 479:ble_process.c **** 			{
 755              		.loc 1 479 0 is_stmt 0 discriminator 1
 756 0424 124B     		ldr	r3, .L45+4
 757 0426 1B78     		ldrb	r3, [r3]
 758 0428 012B     		cmp	r3, #1
 759 042a 1AD0     		beq	.L42
 483:ble_process.c **** 				{
 760              		.loc 1 483 0 is_stmt 1
 761 042c 114B     		ldr	r3, .L45+8
 762 042e 1B78     		ldrb	r3, [r3]
 763 0430 062B     		cmp	r3, #6
 764 0432 16D1     		bne	.L42
 485:ble_process.c **** 					#ifdef DEBUG_ENABLED
 765              		.loc 1 485 0
 766 0434 0020     		movs	r0, #0
 767 0436 FFF7FEFF 		bl	CyBle_GapcStartScan
 493:ble_process.c **** 			
 768              		.loc 1 493 0
 769 043a 12E0     		b	.L42
 770              	.L32:
 493:ble_process.c **** 			
 771              		.loc 1 493 0 is_stmt 0 discriminator 10
 772 043c 11E0     		b	.L42
 773              	.L33:
 112:ble_process.c **** 			
 774              		.loc 1 112 0 is_stmt 1
 775 043e C046     		nop
 776 0440 10E0     		b	.L1
ARM GAS  C:\Users\ASUS\AppData\Local\Temp\cc5kiVkP.s 			page 25


 777              	.L34:
 121:ble_process.c **** 		
 778              		.loc 1 121 0
 779 0442 C046     		nop
 780 0444 0EE0     		b	.L1
 781              	.L35:
 130:ble_process.c **** 			
 782              		.loc 1 130 0
 783 0446 C046     		nop
 784 0448 0CE0     		b	.L1
 785              	.L36:
 428:ble_process.c **** 			
 786              		.loc 1 428 0
 787 044a C046     		nop
 788 044c 0AE0     		b	.L1
 789              	.L37:
 103:ble_process.c **** 			
 790              		.loc 1 103 0
 791 044e C046     		nop
 792 0450 08E0     		b	.L1
 793              	.L38:
 233:ble_process.c **** 		
 794              		.loc 1 233 0
 795 0452 C046     		nop
 796 0454 06E0     		b	.L1
 797              	.L39:
 362:ble_process.c **** 			
 798              		.loc 1 362 0
 799 0456 C046     		nop
 800 0458 04E0     		b	.L1
 801              	.L40:
 403:ble_process.c **** 			
 802              		.loc 1 403 0
 803 045a C046     		nop
 804 045c 02E0     		b	.L1
 805              	.L41:
 452:ble_process.c **** 
 806              		.loc 1 452 0
 807 045e C046     		nop
 808 0460 00E0     		b	.L1
 809              	.L42:
 493:ble_process.c **** 			
 810              		.loc 1 493 0
 811 0462 C046     		nop
 812              	.L1:
 498:ble_process.c **** 	}
 499:ble_process.c **** }
 813              		.loc 1 499 0
 814 0464 BD46     		mov	sp, r7
 815 0466 17B0     		add	sp, sp, #92
 816              		@ sp needed
 817 0468 90BD     		pop	{r4, r7, pc}
 818              	.L46:
 819 046a C046     		.align	2
 820              	.L45:
 821 046c 00000000 		.word	ble_gap_state
 822 0470 00000000 		.word	switch_Role
ARM GAS  C:\Users\ASUS\AppData\Local\Temp\cc5kiVkP.s 			page 26


 823 0474 00000000 		.word	cyBle_state
 824              		.cfi_endproc
 825              	.LFE35:
 826              		.size	GenericEventHandler, .-GenericEventHandler
 827              		.section	.text.SwitchRole,"ax",%progbits
 828              		.align	2
 829              		.global	SwitchRole
 830              		.code	16
 831              		.thumb_func
 832              		.type	SwitchRole, %function
 833              	SwitchRole:
 834              	.LFB36:
 500:ble_process.c **** 
 501:ble_process.c **** /*******************************************************************************
 502:ble_process.c **** * Function Name: SwitchRole
 503:ble_process.c **** ********************************************************************************
 504:ble_process.c **** * Summary:
 505:ble_process.c **** *        This function switches the role between Central and Peripheral. If device 
 506:ble_process.c **** * is connected while switching role, then it is first disconnected.
 507:ble_process.c **** *
 508:ble_process.c **** * Parameters:
 509:ble_process.c **** *  void
 510:ble_process.c **** *
 511:ble_process.c **** * Return:
 512:ble_process.c **** *  void
 513:ble_process.c **** *
 514:ble_process.c **** *******************************************************************************/
 515:ble_process.c **** void SwitchRole(void)
 516:ble_process.c **** {
 835              		.loc 1 516 0
 836              		.cfi_startproc
 837              		@ args = 0, pretend = 0, frame = 8
 838              		@ frame_needed = 1, uses_anonymous_args = 0
 839 0000 90B5     		push	{r4, r7, lr}
 840              		.cfi_def_cfa_offset 12
 841              		.cfi_offset 4, -12
 842              		.cfi_offset 7, -8
 843              		.cfi_offset 14, -4
 844 0002 83B0     		sub	sp, sp, #12
 845              		.cfi_def_cfa_offset 24
 846 0004 00AF     		add	r7, sp, #0
 847              		.cfi_def_cfa_register 7
 517:ble_process.c **** 	CYBLE_API_RESULT_T  apiResult;
 518:ble_process.c **** 	
 519:ble_process.c **** 	/* if the switch role flag is set... */
 520:ble_process.c **** 	if(switch_Role == TRUE)
 848              		.loc 1 520 0
 849 0006 3A4B     		ldr	r3, .L60
 850 0008 1B78     		ldrb	r3, [r3]
 851 000a 012B     		cmp	r3, #1
 852 000c 00D0     		beq	.LCB644
 853 000e 6BE0     		b	.L59	@long jump
 854              	.LCB644:
 521:ble_process.c **** 	{	
 522:ble_process.c **** 		/* Process pending BLE events */
 523:ble_process.c **** 		CyBle_ProcessEvents();
 855              		.loc 1 523 0
ARM GAS  C:\Users\ASUS\AppData\Local\Temp\cc5kiVkP.s 			page 27


 856 0010 FFF7FEFF 		bl	CyBle_ProcessEvents
 524:ble_process.c **** 		
 525:ble_process.c **** 		/* If there is an existing connection, then disconnect before switching
 526:ble_process.c **** 		* role. */
 527:ble_process.c **** 		if((cyBle_connHandle.bdHandle != 0))
 857              		.loc 1 527 0
 858 0014 374B     		ldr	r3, .L60+4
 859 0016 1B78     		ldrb	r3, [r3]
 860 0018 002B     		cmp	r3, #0
 861 001a 06D0     		beq	.L49
 528:ble_process.c **** 		{
 529:ble_process.c **** 			/* Disconnect the device and process the event */
 530:ble_process.c **** 			CyBle_GapDisconnect(cyBle_connHandle.bdHandle);
 862              		.loc 1 530 0
 863 001c 354B     		ldr	r3, .L60+4
 864 001e 1B78     		ldrb	r3, [r3]
 865 0020 1800     		movs	r0, r3
 866 0022 FFF7FEFF 		bl	CyBle_GapDisconnect
 531:ble_process.c **** 			CyBle_ProcessEvents();
 867              		.loc 1 531 0
 868 0026 FFF7FEFF 		bl	CyBle_ProcessEvents
 869              	.L49:
 532:ble_process.c **** 			#ifdef DEBUG_ENABLED
 533:ble_process.c **** 			UART_UartPutString("Peripheral closed connection ");
 534:ble_process.c **** 			SendBLEStatetoUART(CyBle_GetState());
 535:ble_process.c **** 			UART_UartPutCRLF(' ');
 536:ble_process.c **** 			#endif
 537:ble_process.c **** 		}		
 538:ble_process.c **** 		
 539:ble_process.c **** 		switch(ble_gap_state)
 870              		.loc 1 539 0
 871 002a 334B     		ldr	r3, .L60+8
 872 002c 1B78     		ldrb	r3, [r3]
 873 002e 012B     		cmp	r3, #1
 874 0030 02D0     		beq	.L51
 875 0032 022B     		cmp	r3, #2
 876 0034 28D0     		beq	.L52
 540:ble_process.c **** 		{
 541:ble_process.c **** 			case BLE_PERIPHERAL:
 542:ble_process.c **** 				/* If the current role is Peripheral and system is advertising,
 543:ble_process.c **** 				* then stop advertisement before switching role */
 544:ble_process.c **** 				if(CyBle_GetState() == CYBLE_STATE_ADVERTISING)
 545:ble_process.c **** 				{
 546:ble_process.c **** 					CyBle_GappStopAdvertisement();
 547:ble_process.c **** 					CyBle_ProcessEvents();
 548:ble_process.c **** 
 549:ble_process.c **** 					#ifdef DEBUG_ENABLED
 550:ble_process.c **** 						UART_UartPutString("Peripheral Advertisment Stopped ");
 551:ble_process.c **** 						SendBLEStatetoUART(CyBle_GetState());
 552:ble_process.c **** 						UART_UartPutCRLF(' ');
 553:ble_process.c **** 					#endif
 554:ble_process.c **** 				}
 555:ble_process.c **** 				
 556:ble_process.c **** 				if(CyBle_GetState() == CYBLE_STATE_DISCONNECTED)
 557:ble_process.c **** 				{
 558:ble_process.c **** 					/* Switch BLE role by starting scan. This way, the system is set
 559:ble_process.c **** 					* to Central role */
ARM GAS  C:\Users\ASUS\AppData\Local\Temp\cc5kiVkP.s 			page 28


 560:ble_process.c **** 					apiResult = CyBle_GapcStartScan(CYBLE_SCANNING_FAST);
 561:ble_process.c **** 					
 562:ble_process.c **** 					if(CYBLE_ERROR_OK == apiResult)
 563:ble_process.c **** 					{
 564:ble_process.c **** 						#ifdef DEBUG_ENABLED
 565:ble_process.c **** 						UART_UartPutString("Start Scan API called ");
 566:ble_process.c **** 						SendBLEStatetoUART(CyBle_GetState());
 567:ble_process.c **** 						UART_UartPutCRLF(' ');
 568:ble_process.c **** 						#endif
 569:ble_process.c **** 						
 570:ble_process.c **** 						/* Record the time at which Central role was started. This will be 
 571:ble_process.c **** 						* used for timeout and switching to Peripheral operation*/
 572:ble_process.c **** 						centralStartedTime = WatchDog_CurrentCount();
 573:ble_process.c **** 						
 574:ble_process.c **** 						/* Update the current BLE role to Central */
 575:ble_process.c **** 						ble_gap_state = BLE_CENTRAL;
 576:ble_process.c **** 						
 577:ble_process.c **** 						/* Reset the switch role flag*/
 578:ble_process.c **** 						switch_Role = FALSE;
 579:ble_process.c **** 					}
 580:ble_process.c **** 					else
 581:ble_process.c **** 					{
 582:ble_process.c **** 						/* If scanning did not start, maintain the current role and retry later */
 583:ble_process.c **** 						ble_gap_state = BLE_PERIPHERAL;
 584:ble_process.c **** 						
 585:ble_process.c **** 						#ifdef DEBUG_ENABLED
 586:ble_process.c **** 						UART_UartPutString("Start Scan API failed ");
 587:ble_process.c **** 						SendBLEStatetoUART(CyBle_GetState());
 588:ble_process.c **** 						UART_UartPutCRLF(' ');
 589:ble_process.c **** 						#endif
 590:ble_process.c **** 					}
 591:ble_process.c **** 				}
 592:ble_process.c **** 				
 593:ble_process.c **** 				/* Process Pending BLE Events */
 594:ble_process.c **** 				CyBle_ProcessEvents();
 595:ble_process.c **** 				
 596:ble_process.c **** 			break;
 597:ble_process.c **** 			
 598:ble_process.c **** 			case BLE_CENTRAL:
 599:ble_process.c **** 				/* If the current role is Central and system is scanning,
 600:ble_process.c **** 				* then stop scanning before switching role */
 601:ble_process.c **** 				if(CyBle_GetState() == CYBLE_STATE_SCANNING)
 602:ble_process.c **** 				{
 603:ble_process.c **** 					CyBle_GapcStopScan();
 604:ble_process.c **** 					CyBle_ProcessEvents();
 605:ble_process.c **** 					
 606:ble_process.c **** 					#ifdef DEBUG_ENABLED
 607:ble_process.c **** 						UART_UartPutString("Central Scan stopped ");
 608:ble_process.c **** 						UART_UartPutCRLF(' ');
 609:ble_process.c **** 					#endif
 610:ble_process.c **** 				}
 611:ble_process.c **** 				
 612:ble_process.c **** 				if(CyBle_GetState() == CYBLE_STATE_DISCONNECTED)
 613:ble_process.c **** 				{
 614:ble_process.c **** 					#ifdef ENABLE_ADV_DATA_COUNTER
 615:ble_process.c **** 					/* Increment data counter */
 616:ble_process.c **** 					new_advData.advData[new_advData.advDataLen - 1] = dataADVCounter;
ARM GAS  C:\Users\ASUS\AppData\Local\Temp\cc5kiVkP.s 			page 29


 617:ble_process.c **** 					
 618:ble_process.c **** 					cyBle_discoveryModeInfo.advData = &new_advData;
 619:ble_process.c **** 					
 620:ble_process.c **** 					#ifdef DEBUG_ENABLED
 621:ble_process.c **** 						UART_UartPutString("Updated ADV data = ");
 622:ble_process.c **** 						PrintNum(dataADVCounter);
 623:ble_process.c **** 						UART_UartPutCRLF(' ');
 624:ble_process.c **** 					#endif
 625:ble_process.c **** 					#endif
 626:ble_process.c **** 					
 627:ble_process.c **** 					/* Switch BLE role by starting advertisement. This way, the system is 
 628:ble_process.c **** 					* set to Peripheral role */
 629:ble_process.c **** 					apiResult = CyBle_GappStartAdvertisement(CYBLE_ADVERTISING_FAST);
 630:ble_process.c **** 					
 631:ble_process.c **** 					if(apiResult == CYBLE_ERROR_OK)
 632:ble_process.c **** 					{
 633:ble_process.c **** 						/* If advertisement started successfully, set the BLE state and
 634:ble_process.c **** 						* reset the switch role flag*/
 635:ble_process.c **** 						ble_gap_state = BLE_PERIPHERAL;
 636:ble_process.c **** 						clientConnectToDevice = FALSE;	
 637:ble_process.c **** 						switch_Role = FALSE;
 638:ble_process.c **** 						
 639:ble_process.c **** 						#ifdef DEBUG_ENABLED
 640:ble_process.c **** 						UART_UartPutString("Peripheral Advertisment called ");
 641:ble_process.c **** 						SendBLEStatetoUART(CyBle_GetState());
 642:ble_process.c **** 						UART_UartPutCRLF(' ');
 643:ble_process.c **** 						#endif
 644:ble_process.c **** 					}
 645:ble_process.c **** 					else
 646:ble_process.c **** 					{
 647:ble_process.c **** 						/* If advertisement did not start, maintain the current role and retry later */
 648:ble_process.c **** 						ble_gap_state = BLE_CENTRAL;
 649:ble_process.c **** 						
 650:ble_process.c **** 						#ifdef DEBUG_ENABLED
 651:ble_process.c **** 						UART_UartPutString("Start Peripheral Advertisment Failed ");
 652:ble_process.c **** 						SendBLEStatetoUART(CyBle_GetState());
 653:ble_process.c **** 						UART_UartPutCRLF(' ');
 654:ble_process.c **** 						#endif					
 655:ble_process.c **** 					}
 656:ble_process.c **** 				}
 657:ble_process.c **** 				
 658:ble_process.c **** 				/* Process Pending BLE Events */
 659:ble_process.c **** 				CyBle_ProcessEvents();
 660:ble_process.c **** 			break;
 661:ble_process.c **** 			
 662:ble_process.c **** 			default:
 663:ble_process.c **** 			
 664:ble_process.c **** 			break;
 877              		.loc 1 664 0
 878 0036 57E0     		b	.L48
 879              	.L51:
 544:ble_process.c **** 				{
 880              		.loc 1 544 0
 881 0038 304B     		ldr	r3, .L60+12
 882 003a 1B78     		ldrb	r3, [r3]
 883 003c 032B     		cmp	r3, #3
 884 003e 03D1     		bne	.L53
ARM GAS  C:\Users\ASUS\AppData\Local\Temp\cc5kiVkP.s 			page 30


 546:ble_process.c **** 					CyBle_ProcessEvents();
 885              		.loc 1 546 0
 886 0040 FFF7FEFF 		bl	CyBle_GappStopAdvertisement
 547:ble_process.c **** 
 887              		.loc 1 547 0
 888 0044 FFF7FEFF 		bl	CyBle_ProcessEvents
 889              	.L53:
 556:ble_process.c **** 				{
 890              		.loc 1 556 0
 891 0048 2C4B     		ldr	r3, .L60+12
 892 004a 1B78     		ldrb	r3, [r3]
 893 004c 062B     		cmp	r3, #6
 894 004e 18D1     		bne	.L54
 560:ble_process.c **** 					
 895              		.loc 1 560 0
 896 0050 BC1D     		adds	r4, r7, #6
 897 0052 0020     		movs	r0, #0
 898 0054 FFF7FEFF 		bl	CyBle_GapcStartScan
 899 0058 0300     		movs	r3, r0
 900 005a 2380     		strh	r3, [r4]
 562:ble_process.c **** 					{
 901              		.loc 1 562 0
 902 005c BB1D     		adds	r3, r7, #6
 903 005e 1B88     		ldrh	r3, [r3]
 904 0060 002B     		cmp	r3, #0
 905 0062 0BD1     		bne	.L55
 572:ble_process.c **** 						
 906              		.loc 1 572 0
 907 0064 264B     		ldr	r3, .L60+16
 908 0066 1B88     		ldrh	r3, [r3]
 909 0068 9AB2     		uxth	r2, r3
 910 006a 264B     		ldr	r3, .L60+20
 911 006c 1A80     		strh	r2, [r3]
 575:ble_process.c **** 						
 912              		.loc 1 575 0
 913 006e 224B     		ldr	r3, .L60+8
 914 0070 0222     		movs	r2, #2
 915 0072 1A70     		strb	r2, [r3]
 578:ble_process.c **** 					}
 916              		.loc 1 578 0
 917 0074 1E4B     		ldr	r3, .L60
 918 0076 0022     		movs	r2, #0
 919 0078 1A70     		strb	r2, [r3]
 920 007a 02E0     		b	.L54
 921              	.L55:
 583:ble_process.c **** 						
 922              		.loc 1 583 0
 923 007c 1E4B     		ldr	r3, .L60+8
 924 007e 0122     		movs	r2, #1
 925 0080 1A70     		strb	r2, [r3]
 926              	.L54:
 594:ble_process.c **** 				
 927              		.loc 1 594 0
 928 0082 FFF7FEFF 		bl	CyBle_ProcessEvents
 596:ble_process.c **** 			
 929              		.loc 1 596 0
 930 0086 2FE0     		b	.L48
ARM GAS  C:\Users\ASUS\AppData\Local\Temp\cc5kiVkP.s 			page 31


 931              	.L52:
 601:ble_process.c **** 				{
 932              		.loc 1 601 0
 933 0088 1C4B     		ldr	r3, .L60+12
 934 008a 1B78     		ldrb	r3, [r3]
 935 008c 042B     		cmp	r3, #4
 936 008e 03D1     		bne	.L56
 603:ble_process.c **** 					CyBle_ProcessEvents();
 937              		.loc 1 603 0
 938 0090 FFF7FEFF 		bl	CyBle_GapcStopScan
 604:ble_process.c **** 					
 939              		.loc 1 604 0
 940 0094 FFF7FEFF 		bl	CyBle_ProcessEvents
 941              	.L56:
 612:ble_process.c **** 				{
 942              		.loc 1 612 0
 943 0098 184B     		ldr	r3, .L60+12
 944 009a 1B78     		ldrb	r3, [r3]
 945 009c 062B     		cmp	r3, #6
 946 009e 20D1     		bne	.L57
 616:ble_process.c **** 					
 947              		.loc 1 616 0
 948 00a0 194B     		ldr	r3, .L60+24
 949 00a2 DB7F     		ldrb	r3, [r3, #31]
 950 00a4 013B     		subs	r3, r3, #1
 951 00a6 194A     		ldr	r2, .L60+28
 952 00a8 1178     		ldrb	r1, [r2]
 953 00aa 174A     		ldr	r2, .L60+24
 954 00ac D154     		strb	r1, [r2, r3]
 618:ble_process.c **** 					
 955              		.loc 1 618 0
 956 00ae 184B     		ldr	r3, .L60+32
 957 00b0 154A     		ldr	r2, .L60+24
 958 00b2 9A60     		str	r2, [r3, #8]
 629:ble_process.c **** 					
 959              		.loc 1 629 0
 960 00b4 BC1D     		adds	r4, r7, #6
 961 00b6 0020     		movs	r0, #0
 962 00b8 FFF7FEFF 		bl	CyBle_GappStartAdvertisement
 963 00bc 0300     		movs	r3, r0
 964 00be 2380     		strh	r3, [r4]
 631:ble_process.c **** 					{
 965              		.loc 1 631 0
 966 00c0 BB1D     		adds	r3, r7, #6
 967 00c2 1B88     		ldrh	r3, [r3]
 968 00c4 002B     		cmp	r3, #0
 969 00c6 09D1     		bne	.L58
 635:ble_process.c **** 						clientConnectToDevice = FALSE;	
 970              		.loc 1 635 0
 971 00c8 0B4B     		ldr	r3, .L60+8
 972 00ca 0122     		movs	r2, #1
 973 00cc 1A70     		strb	r2, [r3]
 636:ble_process.c **** 						switch_Role = FALSE;
 974              		.loc 1 636 0
 975 00ce 114B     		ldr	r3, .L60+36
 976 00d0 0022     		movs	r2, #0
 977 00d2 1A70     		strb	r2, [r3]
ARM GAS  C:\Users\ASUS\AppData\Local\Temp\cc5kiVkP.s 			page 32


 637:ble_process.c **** 						
 978              		.loc 1 637 0
 979 00d4 064B     		ldr	r3, .L60
 980 00d6 0022     		movs	r2, #0
 981 00d8 1A70     		strb	r2, [r3]
 982 00da 02E0     		b	.L57
 983              	.L58:
 648:ble_process.c **** 						
 984              		.loc 1 648 0
 985 00dc 064B     		ldr	r3, .L60+8
 986 00de 0222     		movs	r2, #2
 987 00e0 1A70     		strb	r2, [r3]
 988              	.L57:
 659:ble_process.c **** 			break;
 989              		.loc 1 659 0
 990 00e2 FFF7FEFF 		bl	CyBle_ProcessEvents
 660:ble_process.c **** 			
 991              		.loc 1 660 0
 992 00e6 C046     		nop
 993              	.L48:
 994              	.L59:
 665:ble_process.c **** 			
 666:ble_process.c **** 		}
 667:ble_process.c **** 	}
 668:ble_process.c **** }
 995              		.loc 1 668 0
 996 00e8 C046     		nop
 997 00ea BD46     		mov	sp, r7
 998 00ec 03B0     		add	sp, sp, #12
 999              		@ sp needed
 1000 00ee 90BD     		pop	{r4, r7, pc}
 1001              	.L61:
 1002              		.align	2
 1003              	.L60:
 1004 00f0 00000000 		.word	switch_Role
 1005 00f4 00000000 		.word	cyBle_connHandle
 1006 00f8 00000000 		.word	ble_gap_state
 1007 00fc 00000000 		.word	cyBle_state
 1008 0100 00000000 		.word	current_watchdog_counter
 1009 0104 00000000 		.word	centralStartedTime
 1010 0108 00000000 		.word	new_advData
 1011 010c 00000000 		.word	dataADVCounter
 1012 0110 00000000 		.word	cyBle_discoveryModeInfo
 1013 0114 00000000 		.word	clientConnectToDevice
 1014              		.cfi_endproc
 1015              	.LFE36:
 1016              		.size	SwitchRole, .-SwitchRole
 1017              		.section	.text.ConnectToPeripheralDevice,"ax",%progbits
 1018              		.align	2
 1019              		.global	ConnectToPeripheralDevice
 1020              		.code	16
 1021              		.thumb_func
 1022              		.type	ConnectToPeripheralDevice, %function
 1023              	ConnectToPeripheralDevice:
 1024              	.LFB37:
 669:ble_process.c **** 
 670:ble_process.c **** /*******************************************************************************
ARM GAS  C:\Users\ASUS\AppData\Local\Temp\cc5kiVkP.s 			page 33


 671:ble_process.c **** * Function Name: ConnectToPeripheralDevice
 672:ble_process.c **** ********************************************************************************
 673:ble_process.c **** * Summary:
 674:ble_process.c **** *        Connects to Peripheral device with given BD Address.
 675:ble_process.c **** *
 676:ble_process.c **** * Parameters:
 677:ble_process.c **** *  void
 678:ble_process.c **** *
 679:ble_process.c **** * Return:
 680:ble_process.c **** *  void
 681:ble_process.c **** *
 682:ble_process.c **** *******************************************************************************/
 683:ble_process.c **** void ConnectToPeripheralDevice(void)
 684:ble_process.c **** {
 1025              		.loc 1 684 0
 1026              		.cfi_startproc
 1027              		@ args = 0, pretend = 0, frame = 8
 1028              		@ frame_needed = 1, uses_anonymous_args = 0
 1029 0000 90B5     		push	{r4, r7, lr}
 1030              		.cfi_def_cfa_offset 12
 1031              		.cfi_offset 4, -12
 1032              		.cfi_offset 7, -8
 1033              		.cfi_offset 14, -4
 1034 0002 83B0     		sub	sp, sp, #12
 1035              		.cfi_def_cfa_offset 24
 1036 0004 00AF     		add	r7, sp, #0
 1037              		.cfi_def_cfa_register 7
 685:ble_process.c **** 	CYBLE_API_RESULT_T  apiResult;
 686:ble_process.c **** 	
 687:ble_process.c **** 	/* If flag has been set to connect to a device... */
 688:ble_process.c **** 	if(clientConnectToDevice)
 1038              		.loc 1 688 0
 1039 0006 0D4B     		ldr	r3, .L65
 1040 0008 1B78     		ldrb	r3, [r3]
 1041 000a 002B     		cmp	r3, #0
 1042 000c 11D0     		beq	.L64
 689:ble_process.c **** 	{
 690:ble_process.c **** 		/* Process pending BLE events */
 691:ble_process.c **** 		CyBle_ProcessEvents();
 1043              		.loc 1 691 0
 1044 000e FFF7FEFF 		bl	CyBle_ProcessEvents
 692:ble_process.c **** 			
 693:ble_process.c **** 		#if 0
 694:ble_process.c **** 		if(CYBLE_STATE_SCANNING == CyBle_GetState())
 695:ble_process.c **** 		{
 696:ble_process.c **** 			CyBle_GapcStopScan();
 697:ble_process.c **** 			#ifdef DEBUG_ENABLED
 698:ble_process.c **** 				UART_UartPutString("Stop Scan called from clientConnectToDevice ");
 699:ble_process.c **** 				SendBLEStatetoUART(CyBle_GetState());
 700:ble_process.c **** 				UART_UartPutCRLF(' ');
 701:ble_process.c **** 			#endif
 702:ble_process.c **** 			CyBle_ProcessEvents();
 703:ble_process.c **** 		}
 704:ble_process.c **** 		#endif
 705:ble_process.c **** 			
 706:ble_process.c **** 		if(CYBLE_STATE_DISCONNECTED == CyBle_GetState())
 1045              		.loc 1 706 0
ARM GAS  C:\Users\ASUS\AppData\Local\Temp\cc5kiVkP.s 			page 34


 1046 0012 0B4B     		ldr	r3, .L65+4
 1047 0014 1B78     		ldrb	r3, [r3]
 1048 0016 062B     		cmp	r3, #6
 1049 0018 0BD1     		bne	.L64
 707:ble_process.c **** 		{
 708:ble_process.c **** 			/* Reset the flag to connect to a device*/
 709:ble_process.c **** 			clientConnectToDevice = FALSE;
 1050              		.loc 1 709 0
 1051 001a 084B     		ldr	r3, .L65
 1052 001c 0022     		movs	r2, #0
 1053 001e 1A70     		strb	r2, [r3]
 710:ble_process.c **** 
 711:ble_process.c **** 			/* Connect to the device whose address has been saved as part of 
 712:ble_process.c **** 			* potential node search */
 713:ble_process.c **** 			apiResult = CyBle_GapcConnectDevice(&peripAddr);
 1054              		.loc 1 713 0
 1055 0020 BC1D     		adds	r4, r7, #6
 1056 0022 084B     		ldr	r3, .L65+8
 1057 0024 1800     		movs	r0, r3
 1058 0026 FFF7FEFF 		bl	CyBle_GapcConnectDevice
 1059 002a 0300     		movs	r3, r0
 1060 002c 2380     		strh	r3, [r4]
 714:ble_process.c **** 			
 715:ble_process.c **** 			if(apiResult != CYBLE_ERROR_OK)
 716:ble_process.c **** 			{
 717:ble_process.c **** 				#ifdef DEBUG_ENABLED
 718:ble_process.c **** 					UART_UartPutString("Connect Request failed ");
 719:ble_process.c **** 					SendBLEStatetoUART(CyBle_GetState());
 720:ble_process.c **** 					UART_UartPutCRLF(' ');
 721:ble_process.c **** 				#endif
 722:ble_process.c **** 			}
 723:ble_process.c **** 			else
 724:ble_process.c **** 			{
 725:ble_process.c **** 				#ifdef DEBUG_ENABLED
 726:ble_process.c **** 					UART_UartPutString("Connect Request Sent ");
 727:ble_process.c **** 					SendBLEStatetoUART(CyBle_GetState());
 728:ble_process.c **** 					UART_UartPutCRLF(' ');
 729:ble_process.c **** 				#endif	
 730:ble_process.c **** 			}
 731:ble_process.c **** 		
 732:ble_process.c **** 			/* Process pending BLE events */
 733:ble_process.c **** 			CyBle_ProcessEvents();
 1061              		.loc 1 733 0
 1062 002e FFF7FEFF 		bl	CyBle_ProcessEvents
 1063              	.L64:
 734:ble_process.c **** 		}
 735:ble_process.c **** 	}
 736:ble_process.c **** }
 1064              		.loc 1 736 0
 1065 0032 C046     		nop
 1066 0034 BD46     		mov	sp, r7
 1067 0036 03B0     		add	sp, sp, #12
 1068              		@ sp needed
 1069 0038 90BD     		pop	{r4, r7, pc}
 1070              	.L66:
 1071 003a C046     		.align	2
 1072              	.L65:
ARM GAS  C:\Users\ASUS\AppData\Local\Temp\cc5kiVkP.s 			page 35


 1073 003c 00000000 		.word	clientConnectToDevice
 1074 0040 00000000 		.word	cyBle_state
 1075 0044 00000000 		.word	peripAddr
 1076              		.cfi_endproc
 1077              	.LFE37:
 1078              		.size	ConnectToPeripheralDevice, .-ConnectToPeripheralDevice
 1079              		.section	.text.RestartCentralScanning,"ax",%progbits
 1080              		.align	2
 1081              		.global	RestartCentralScanning
 1082              		.code	16
 1083              		.thumb_func
 1084              		.type	RestartCentralScanning, %function
 1085              	RestartCentralScanning:
 1086              	.LFB38:
 737:ble_process.c **** 
 738:ble_process.c **** /*******************************************************************************
 739:ble_process.c **** * Function Name: RestartCentralScanning
 740:ble_process.c **** ********************************************************************************
 741:ble_process.c **** * Summary:
 742:ble_process.c **** *        Restarts Central scanning. Also, if the time that the device has remained
 743:ble_process.c **** * in Central role exceeds pre-determined value, then the switch role flag is set.
 744:ble_process.c **** *
 745:ble_process.c **** * Parameters:
 746:ble_process.c **** *  void
 747:ble_process.c **** *
 748:ble_process.c **** * Return:
 749:ble_process.c **** *  void
 750:ble_process.c **** *
 751:ble_process.c **** *******************************************************************************/
 752:ble_process.c **** void RestartCentralScanning(void)
 753:ble_process.c **** {
 1087              		.loc 1 753 0
 1088              		.cfi_startproc
 1089              		@ args = 0, pretend = 0, frame = 0
 1090              		@ frame_needed = 1, uses_anonymous_args = 0
 1091 0000 80B5     		push	{r7, lr}
 1092              		.cfi_def_cfa_offset 8
 1093              		.cfi_offset 7, -8
 1094              		.cfi_offset 14, -4
 1095 0002 00AF     		add	r7, sp, #0
 1096              		.cfi_def_cfa_register 7
 754:ble_process.c **** 	/* If the current role is Central and the Central time has exceeded the preset time,
 755:ble_process.c **** 	* then set the flag to switch role to Peripheral */
 756:ble_process.c **** 	if((BLE_CENTRAL == ble_gap_state) && 
 1097              		.loc 1 756 0
 1098 0004 164B     		ldr	r3, .L71
 1099 0006 1B78     		ldrb	r3, [r3]
 1100 0008 022B     		cmp	r3, #2
 1101 000a 15D1     		bne	.L68
 757:ble_process.c **** 		(WatchDog_CurrentCount() - centralStartedTime > CENTRAL_STATE_SPAN) &&
 1102              		.loc 1 757 0 discriminator 1
 1103 000c 154B     		ldr	r3, .L71+4
 1104 000e 1B88     		ldrh	r3, [r3]
 1105 0010 9BB2     		uxth	r3, r3
 1106 0012 1A00     		movs	r2, r3
 1107 0014 144B     		ldr	r3, .L71+8
 1108 0016 1B88     		ldrh	r3, [r3]
ARM GAS  C:\Users\ASUS\AppData\Local\Temp\cc5kiVkP.s 			page 36


 1109 0018 9BB2     		uxth	r3, r3
 1110 001a D31A     		subs	r3, r2, r3
 756:ble_process.c **** 		(WatchDog_CurrentCount() - centralStartedTime > CENTRAL_STATE_SPAN) &&
 1111              		.loc 1 756 0 discriminator 1
 1112 001c 2D2B     		cmp	r3, #45
 1113 001e 0BDD     		ble	.L68
 758:ble_process.c **** 		((CYBLE_STATE_DISCONNECTED == CyBle_GetState()) || (CYBLE_STATE_SCANNING == CyBle_GetState())))
 1114              		.loc 1 758 0
 1115 0020 124B     		ldr	r3, .L71+12
 1116 0022 1B78     		ldrb	r3, [r3]
 757:ble_process.c **** 		(WatchDog_CurrentCount() - centralStartedTime > CENTRAL_STATE_SPAN) &&
 1117              		.loc 1 757 0
 1118 0024 062B     		cmp	r3, #6
 1119 0026 03D0     		beq	.L69
 1120              		.loc 1 758 0
 1121 0028 104B     		ldr	r3, .L71+12
 1122 002a 1B78     		ldrb	r3, [r3]
 1123 002c 042B     		cmp	r3, #4
 1124 002e 03D1     		bne	.L68
 1125              	.L69:
 759:ble_process.c **** 	{
 760:ble_process.c **** 		/* Switch role flag set */
 761:ble_process.c **** 		switch_Role = TRUE;
 1126              		.loc 1 761 0
 1127 0030 0F4B     		ldr	r3, .L71+16
 1128 0032 0122     		movs	r2, #1
 1129 0034 1A70     		strb	r2, [r3]
 762:ble_process.c **** 		#ifdef DEBUG_ENABLED
 763:ble_process.c **** 		UART_UartPutString("switchRole from restartScanning loop ");
 764:ble_process.c **** 		UART_UartPutCRLF(' ');
 765:ble_process.c **** 		#endif
 766:ble_process.c **** 		
 767:ble_process.c **** 		return;
 1130              		.loc 1 767 0
 1131 0036 11E0     		b	.L67
 1132              	.L68:
 768:ble_process.c **** 	}
 769:ble_process.c **** 			
 770:ble_process.c **** 	/* If restart scanning flag is set, the restart the Central scanning */
 771:ble_process.c **** 	if(restartScanning)
 1133              		.loc 1 771 0
 1134 0038 0E4B     		ldr	r3, .L71+20
 1135 003a 1B78     		ldrb	r3, [r3]
 1136 003c 002B     		cmp	r3, #0
 1137 003e 0DD0     		beq	.L67
 772:ble_process.c **** 	{
 773:ble_process.c **** 		/* Process pending BLE events */
 774:ble_process.c **** 		CyBle_ProcessEvents();
 1138              		.loc 1 774 0
 1139 0040 FFF7FEFF 		bl	CyBle_ProcessEvents
 775:ble_process.c **** 		if(CYBLE_STATE_DISCONNECTED == CyBle_GetState())
 1140              		.loc 1 775 0
 1141 0044 094B     		ldr	r3, .L71+12
 1142 0046 1B78     		ldrb	r3, [r3]
 1143 0048 062B     		cmp	r3, #6
 1144 004a 07D1     		bne	.L67
 776:ble_process.c **** 		{
ARM GAS  C:\Users\ASUS\AppData\Local\Temp\cc5kiVkP.s 			page 37


 777:ble_process.c **** 			/* Reset the restart scanning flag */
 778:ble_process.c **** 			restartScanning = FALSE;
 1145              		.loc 1 778 0
 1146 004c 094B     		ldr	r3, .L71+20
 1147 004e 0022     		movs	r2, #0
 1148 0050 1A70     		strb	r2, [r3]
 779:ble_process.c **** 			#ifdef DEBUG_ENABLED
 780:ble_process.c **** 			UART_UartPutString("restartScanning loop ");
 781:ble_process.c **** 			UART_UartPutCRLF(' ');
 782:ble_process.c **** 			#endif
 783:ble_process.c **** 			
 784:ble_process.c **** 			/* Start Central scan and process the event */
 785:ble_process.c **** 			CyBle_GapcStartScan(CYBLE_SCANNING_FAST);
 1149              		.loc 1 785 0
 1150 0052 0020     		movs	r0, #0
 1151 0054 FFF7FEFF 		bl	CyBle_GapcStartScan
 786:ble_process.c **** 			CyBle_ProcessEvents();
 1152              		.loc 1 786 0
 1153 0058 FFF7FEFF 		bl	CyBle_ProcessEvents
 1154              	.L67:
 787:ble_process.c **** 			
 788:ble_process.c **** 			#ifdef DEBUG_ENABLED
 789:ble_process.c **** 			UART_UartPutString("Start Scan from restartScanning loop ");
 790:ble_process.c **** 			UART_UartPutCRLF(' ');
 791:ble_process.c **** 			#endif
 792:ble_process.c **** 		}
 793:ble_process.c **** 	}
 794:ble_process.c **** }	
 1155              		.loc 1 794 0
 1156 005c BD46     		mov	sp, r7
 1157              		@ sp needed
 1158 005e 80BD     		pop	{r7, pc}
 1159              	.L72:
 1160              		.align	2
 1161              	.L71:
 1162 0060 00000000 		.word	ble_gap_state
 1163 0064 00000000 		.word	current_watchdog_counter
 1164 0068 00000000 		.word	centralStartedTime
 1165 006c 00000000 		.word	cyBle_state
 1166 0070 00000000 		.word	switch_Role
 1167 0074 00000000 		.word	restartScanning
 1168              		.cfi_endproc
 1169              	.LFE38:
 1170              		.size	RestartCentralScanning, .-RestartCentralScanning
 1171              		.section	.text.SendErrorCode,"ax",%progbits
 1172              		.align	2
 1173              		.global	SendErrorCode
 1174              		.code	16
 1175              		.thumb_func
 1176              		.type	SendErrorCode, %function
 1177              	SendErrorCode:
 1178              	.LFB39:
 795:ble_process.c **** 
 796:ble_process.c **** /*******************************************************************************
 797:ble_process.c **** * Function Name: SendErrorCode
 798:ble_process.c **** ********************************************************************************
 799:ble_process.c **** * Summary:
ARM GAS  C:\Users\ASUS\AppData\Local\Temp\cc5kiVkP.s 			page 38


 800:ble_process.c **** *        Send Error code at GATT Layer
 801:ble_process.c **** *
 802:ble_process.c **** * Parameters:
 803:ble_process.c **** *  uint8 opCode, 
 804:ble_process.c **** *  CYBLE_GATT_DB_ATTR_HANDLE_T  attrHandle, 
 805:ble_process.c **** *  CYBLE_GATT_ERR_CODE_T errorCode
 806:ble_process.c **** *
 807:ble_process.c **** * Return:
 808:ble_process.c **** *  void
 809:ble_process.c **** *
 810:ble_process.c **** *******************************************************************************/
 811:ble_process.c **** void SendErrorCode(uint8 opCode, CYBLE_GATT_DB_ATTR_HANDLE_T  attrHandle, CYBLE_GATT_ERR_CODE_T err
 812:ble_process.c **** {
 1179              		.loc 1 812 0
 1180              		.cfi_startproc
 1181              		@ args = 0, pretend = 0, frame = 16
 1182              		@ frame_needed = 1, uses_anonymous_args = 0
 1183 0000 90B5     		push	{r4, r7, lr}
 1184              		.cfi_def_cfa_offset 12
 1185              		.cfi_offset 4, -12
 1186              		.cfi_offset 7, -8
 1187              		.cfi_offset 14, -4
 1188 0002 85B0     		sub	sp, sp, #20
 1189              		.cfi_def_cfa_offset 32
 1190 0004 00AF     		add	r7, sp, #0
 1191              		.cfi_def_cfa_register 7
 1192 0006 0400     		movs	r4, r0
 1193 0008 0800     		movs	r0, r1
 1194 000a 1100     		movs	r1, r2
 1195 000c FB1D     		adds	r3, r7, #7
 1196 000e 221C     		adds	r2, r4, #0
 1197 0010 1A70     		strb	r2, [r3]
 1198 0012 3B1D     		adds	r3, r7, #4
 1199 0014 021C     		adds	r2, r0, #0
 1200 0016 1A80     		strh	r2, [r3]
 1201 0018 BB1D     		adds	r3, r7, #6
 1202 001a 0A1C     		adds	r2, r1, #0
 1203 001c 1A70     		strb	r2, [r3]
 813:ble_process.c **** 	CYBLE_GATTS_ERR_PARAM_T err_param;
 814:ble_process.c **** 		            
 815:ble_process.c ****     err_param.opcode = opCode;
 1204              		.loc 1 815 0
 1205 001e 0C23     		movs	r3, #12
 1206 0020 FB18     		adds	r3, r7, r3
 1207 0022 FA1D     		adds	r2, r7, #7
 1208 0024 1278     		ldrb	r2, [r2]
 1209 0026 9A70     		strb	r2, [r3, #2]
 816:ble_process.c ****     err_param.attrHandle = attrHandle;
 1210              		.loc 1 816 0
 1211 0028 0C23     		movs	r3, #12
 1212 002a FB18     		adds	r3, r7, r3
 1213 002c 3A1D     		adds	r2, r7, #4
 1214 002e 1288     		ldrh	r2, [r2]
 1215 0030 1A80     		strh	r2, [r3]
 817:ble_process.c ****     err_param.errorCode = errorCode;
 1216              		.loc 1 817 0
 1217 0032 0C23     		movs	r3, #12
ARM GAS  C:\Users\ASUS\AppData\Local\Temp\cc5kiVkP.s 			page 39


 1218 0034 FB18     		adds	r3, r7, r3
 1219 0036 BA1D     		adds	r2, r7, #6
 1220 0038 1278     		ldrb	r2, [r2]
 1221 003a DA70     		strb	r2, [r3, #3]
 818:ble_process.c **** 
 819:ble_process.c ****     /* Send Error Response */
 820:ble_process.c ****     (void)CyBle_GattsErrorRsp(cyBle_connHandle, &err_param);
 1222              		.loc 1 820 0
 1223 003c 0C23     		movs	r3, #12
 1224 003e F918     		adds	r1, r7, r3
 1225 0040 084B     		ldr	r3, .L74
 1226 0042 1A78     		ldrb	r2, [r3]
 1227 0044 5B78     		ldrb	r3, [r3, #1]
 1228 0046 1B02     		lsls	r3, r3, #8
 1229 0048 1A43     		orrs	r2, r3
 1230 004a 0023     		movs	r3, #0
 1231 004c 1204     		lsls	r2, r2, #16
 1232 004e 120C     		lsrs	r2, r2, #16
 1233 0050 1B0C     		lsrs	r3, r3, #16
 1234 0052 1B04     		lsls	r3, r3, #16
 1235 0054 1343     		orrs	r3, r2
 1236 0056 1800     		movs	r0, r3
 1237 0058 FFF7FEFF 		bl	CyBle_GattsErrorRsp
 821:ble_process.c **** }
 1238              		.loc 1 821 0
 1239 005c C046     		nop
 1240 005e BD46     		mov	sp, r7
 1241 0060 05B0     		add	sp, sp, #20
 1242              		@ sp needed
 1243 0062 90BD     		pop	{r4, r7, pc}
 1244              	.L75:
 1245              		.align	2
 1246              	.L74:
 1247 0064 00000000 		.word	cyBle_connHandle
 1248              		.cfi_endproc
 1249              	.LFE39:
 1250              		.size	SendErrorCode, .-SendErrorCode
 1251              		.text
 1252              	.Letext0:
 1253              		.file 2 "Generated_Source\\PSoC4/cytypes.h"
 1254              		.file 3 "Generated_Source\\PSoC4/BLE_Stack.h"
 1255              		.file 4 "Generated_Source\\PSoC4/BLE_StackGap.h"
 1256              		.file 5 "Generated_Source\\PSoC4/BLE_StackGatt.h"
 1257              		.file 6 "Generated_Source\\PSoC4/BLE_StackGattServer.h"
 1258              		.file 7 "Generated_Source\\PSoC4/BLE_StackGattClient.h"
 1259              		.file 8 "Generated_Source\\PSoC4/BLE_eventHandler.h"
 1260              		.file 9 "Generated_Source\\PSoC4/BLE.h"
 1261              		.file 10 "./main.h"