ARM GAS  C:\Users\ASUS\AppData\Local\Temp\cchfHRHg.s 			page 1


   1              		.syntax unified
   2              		.cpu cortex-m0
   3              		.fpu softvfp
   4              		.eabi_attribute 20, 1
   5              		.eabi_attribute 21, 1
   6              		.eabi_attribute 23, 3
   7              		.eabi_attribute 24, 1
   8              		.eabi_attribute 25, 1
   9              		.eabi_attribute 26, 1
  10              		.eabi_attribute 30, 6
  11              		.eabi_attribute 34, 0
  12              		.eabi_attribute 18, 4
  13              		.thumb
  14              		.syntax unified
  15              		.file	"debug.c"
  16              		.text
  17              	.Ltext0:
  18              		.cfi_sections	.debug_frame
  19              		.comm	current_watchdog_counter,2,2
  20              		.section	.text.SendBLEStatetoUART,"ax",%progbits
  21              		.align	2
  22              		.global	SendBLEStatetoUART
  23              		.code	16
  24              		.thumb_func
  25              		.type	SendBLEStatetoUART, %function
  26              	SendBLEStatetoUART:
  27              	.LFB35:
  28              		.file 1 "debug.c"
   1:debug.c       **** /*******************************************************************************
   2:debug.c       **** * File Name: debug.c
   3:debug.c       **** *
   4:debug.c       **** * Version: 1.0
   5:debug.c       **** *
   6:debug.c       **** * Description:
   7:debug.c       **** * This file contains the definiton for debug functions, using UART as communication
   8:debug.c       **** * medium. These function sends UART data to KitProg/PSoC 5LP, which enumerats as
   9:debug.c       **** * COM port on connected PC.
  10:debug.c       **** *
  11:debug.c       **** ********************************************************************************
  12:debug.c       **** * Copyright 2015, Cypress Semiconductor Corporation.  All rights reserved.
  13:debug.c       **** * You may use this file only in accordance with the license, terms, conditions,
  14:debug.c       **** * disclaimers, and limitations in the end user license agreement accompanying
  15:debug.c       **** * the software package with which this file was provided.
  16:debug.c       **** *******************************************************************************/
  17:debug.c       **** #include <debug.h>
  18:debug.c       **** 
  19:debug.c       **** /*******************************************************************************
  20:debug.c       **** * Function Name: SendBLEStatetoUART
  21:debug.c       **** ********************************************************************************
  22:debug.c       **** * Summary:
  23:debug.c       **** *        Sends the string to UART corresponding to the present BLE state
  24:debug.c       **** *
  25:debug.c       **** * Parameters:
  26:debug.c       **** *  ble_state: current state of the BLE.
  27:debug.c       **** *
  28:debug.c       **** * Return:
  29:debug.c       **** *  void
ARM GAS  C:\Users\ASUS\AppData\Local\Temp\cchfHRHg.s 			page 2


  30:debug.c       **** *
  31:debug.c       **** *******************************************************************************/
  32:debug.c       **** void SendBLEStatetoUART(CYBLE_STATE_T ble_state)
  33:debug.c       **** {
  29              		.loc 1 33 0
  30              		.cfi_startproc
  31              		@ args = 0, pretend = 0, frame = 8
  32              		@ frame_needed = 1, uses_anonymous_args = 0
  33 0000 80B5     		push	{r7, lr}
  34              		.cfi_def_cfa_offset 8
  35              		.cfi_offset 7, -8
  36              		.cfi_offset 14, -4
  37 0002 82B0     		sub	sp, sp, #8
  38              		.cfi_def_cfa_offset 16
  39 0004 00AF     		add	r7, sp, #0
  40              		.cfi_def_cfa_register 7
  41 0006 0200     		movs	r2, r0
  42 0008 FB1D     		adds	r3, r7, #7
  43 000a 1A70     		strb	r2, [r3]
  34:debug.c       **** 	switch(ble_state)
  44              		.loc 1 34 0
  45 000c FB1D     		adds	r3, r7, #7
  46 000e 1B78     		ldrb	r3, [r3]
  47 0010 062B     		cmp	r3, #6
  48 0012 04D8     		bhi	.L12
  49 0014 9A00     		lsls	r2, r3, #2
  50 0016 054B     		ldr	r3, .L14
  51 0018 D318     		adds	r3, r2, r3
  52 001a 1B68     		ldr	r3, [r3]
  53 001c 9F46     		mov	pc, r3
  54              		.section	.rodata
  55              		.align	2
  56              	.L4:
  57 0000 22000000 		.word	.L13
  58 0004 22000000 		.word	.L13
  59 0008 22000000 		.word	.L13
  60 000c 22000000 		.word	.L13
  61 0010 22000000 		.word	.L13
  62 0014 22000000 		.word	.L13
  63 0018 22000000 		.word	.L13
  64              		.section	.text.SendBLEStatetoUART
  65              	.L12:
  35:debug.c       **** 	{
  36:debug.c       **** 		case CYBLE_STATE_STOPPED:
  37:debug.c       **** 		#ifdef DEBUG_ENABLED
  38:debug.c       **** 			UART_UartPutString(" |BLE State: CYBLE_STATE_STOPPED ");
  39:debug.c       **** 		#endif
  40:debug.c       **** 		break;
  41:debug.c       **** 		
  42:debug.c       **** 		case CYBLE_STATE_INITIALIZING:
  43:debug.c       **** 		#ifdef DEBUG_ENABLED
  44:debug.c       **** 			UART_UartPutString(" |BLE State: CYBLE_STATE_INITIALIZING ");
  45:debug.c       **** 		#endif
  46:debug.c       **** 		break;
  47:debug.c       **** 		
  48:debug.c       **** 		case CYBLE_STATE_CONNECTED:
  49:debug.c       **** 		#ifdef DEBUG_ENABLED
ARM GAS  C:\Users\ASUS\AppData\Local\Temp\cchfHRHg.s 			page 3


  50:debug.c       **** 			UART_UartPutString(" |BLE State: CYBLE_STATE_CONNECTED ");
  51:debug.c       **** 		#endif
  52:debug.c       **** 		break;
  53:debug.c       **** 		
  54:debug.c       **** 		case CYBLE_STATE_ADVERTISING:
  55:debug.c       **** 		#ifdef DEBUG_ENABLED
  56:debug.c       **** 			UART_UartPutString(" |BLE State: CYBLE_STATE_ADVERTISING ");
  57:debug.c       **** 		#endif
  58:debug.c       **** 		break;
  59:debug.c       **** 		
  60:debug.c       **** 		case CYBLE_STATE_SCANNING:
  61:debug.c       **** 		#ifdef DEBUG_ENABLED
  62:debug.c       **** 			UART_UartPutString(" |BLE State: CYBLE_STATE_SCANNING ");
  63:debug.c       **** 		#endif
  64:debug.c       **** 		break;
  65:debug.c       **** 		
  66:debug.c       **** 		case CYBLE_STATE_CONNECTING:
  67:debug.c       **** 		#ifdef DEBUG_ENABLED
  68:debug.c       **** 			UART_UartPutString(" |BLE State: CYBLE_STATE_CONNECTING ");
  69:debug.c       **** 		#endif
  70:debug.c       **** 		break;
  71:debug.c       **** 		
  72:debug.c       **** 		case CYBLE_STATE_DISCONNECTED:
  73:debug.c       **** 		#ifdef DEBUG_ENABLED
  74:debug.c       **** 			UART_UartPutString(" |BLE State: CYBLE_STATE_DISCONNECTED ");
  75:debug.c       **** 		#endif
  76:debug.c       **** 		break;
  77:debug.c       **** 		
  78:debug.c       **** 		default:
  79:debug.c       **** 		#ifdef DEBUG_ENABLED
  80:debug.c       **** 			UART_UartPutString(" |BLE State: UNKNOWN STATE ");
  81:debug.c       **** 		#endif
  82:debug.c       **** 		break;
  66              		.loc 1 82 0
  67 001e C046     		nop
  68 0020 00E0     		b	.L11
  69              	.L13:
  76:debug.c       **** 		
  70              		.loc 1 76 0
  71 0022 C046     		nop
  72              	.L11:
  83:debug.c       **** 	}
  84:debug.c       **** }
  73              		.loc 1 84 0
  74 0024 C046     		nop
  75 0026 BD46     		mov	sp, r7
  76 0028 02B0     		add	sp, sp, #8
  77              		@ sp needed
  78 002a 80BD     		pop	{r7, pc}
  79              	.L15:
  80              		.align	2
  81              	.L14:
  82 002c 00000000 		.word	.L4
  83              		.cfi_endproc
  84              	.LFE35:
  85              		.size	SendBLEStatetoUART, .-SendBLEStatetoUART
  86              		.section	.text.PrintNum,"ax",%progbits
ARM GAS  C:\Users\ASUS\AppData\Local\Temp\cchfHRHg.s 			page 4


  87              		.align	2
  88              		.global	PrintNum
  89              		.code	16
  90              		.thumb_func
  91              		.type	PrintNum, %function
  92              	PrintNum:
  93              	.LFB36:
  85:debug.c       **** 
  86:debug.c       **** /*******************************************************************************
  87:debug.c       **** * Function Name: PrintNum
  88:debug.c       **** ********************************************************************************
  89:debug.c       **** * Summary:
  90:debug.c       **** *        Converts decimal number to characters in ASCII that can be printed on 
  91:debug.c       **** * terminal.
  92:debug.c       **** *
  93:debug.c       **** * Parameters:
  94:debug.c       **** *  num: number to be converted to string.
  95:debug.c       **** *
  96:debug.c       **** * Return:
  97:debug.c       **** *  void
  98:debug.c       **** *
  99:debug.c       **** *******************************************************************************/
 100:debug.c       **** void PrintNum(uint8 num)
 101:debug.c       **** {
  94              		.loc 1 101 0
  95              		.cfi_startproc
  96              		@ args = 0, pretend = 0, frame = 8
  97              		@ frame_needed = 1, uses_anonymous_args = 0
  98 0000 80B5     		push	{r7, lr}
  99              		.cfi_def_cfa_offset 8
 100              		.cfi_offset 7, -8
 101              		.cfi_offset 14, -4
 102 0002 82B0     		sub	sp, sp, #8
 103              		.cfi_def_cfa_offset 16
 104 0004 00AF     		add	r7, sp, #0
 105              		.cfi_def_cfa_register 7
 106 0006 0200     		movs	r2, r0
 107 0008 FB1D     		adds	r3, r7, #7
 108 000a 1A70     		strb	r2, [r3]
 102:debug.c       **** 	#ifdef DEBUG_ENABLED
 103:debug.c       **** 	uint8 temp[3];
 104:debug.c       **** 	
 105:debug.c       **** 	temp[0] = num%10;
 106:debug.c       **** 	num = num/10;
 107:debug.c       **** 	temp[1] = num%10;
 108:debug.c       **** 	num = num/10;
 109:debug.c       **** 	temp[2] = num%10;
 110:debug.c       **** 	
 111:debug.c       **** 	if(temp[2] == 0)
 112:debug.c       **** 	{
 113:debug.c       **** 		if(temp[1] == 0)
 114:debug.c       **** 		{
 115:debug.c       **** 			UART_UartPutChar('0' + temp[0]);
 116:debug.c       **** 		}
 117:debug.c       **** 		else
 118:debug.c       **** 		{
 119:debug.c       **** 			UART_UartPutChar('0' + temp[1]);
ARM GAS  C:\Users\ASUS\AppData\Local\Temp\cchfHRHg.s 			page 5


 120:debug.c       **** 			UART_UartPutChar('0' + temp[0]);	
 121:debug.c       **** 		}
 122:debug.c       **** 	}
 123:debug.c       **** 	else
 124:debug.c       **** 	{
 125:debug.c       **** 		UART_UartPutChar('0' + temp[2]);
 126:debug.c       **** 		UART_UartPutChar('0' + temp[1]);
 127:debug.c       **** 		UART_UartPutChar('0' + temp[0]);
 128:debug.c       **** 	}
 129:debug.c       **** 	#else
 130:debug.c       **** 		num = num;
 109              		.loc 1 130 0
 110 000c FB1D     		adds	r3, r7, #7
 111 000e FA1D     		adds	r2, r7, #7
 112 0010 1278     		ldrb	r2, [r2]
 113 0012 1A70     		strb	r2, [r3]
 131:debug.c       **** 	#endif
 132:debug.c       **** }
 114              		.loc 1 132 0
 115 0014 C046     		nop
 116 0016 BD46     		mov	sp, r7
 117 0018 02B0     		add	sp, sp, #8
 118              		@ sp needed
 119 001a 80BD     		pop	{r7, pc}
 120              		.cfi_endproc
 121              	.LFE36:
 122              		.size	PrintNum, .-PrintNum
 123              		.section	.text.PrintHex,"ax",%progbits
 124              		.align	2
 125              		.global	PrintHex
 126              		.code	16
 127              		.thumb_func
 128              		.type	PrintHex, %function
 129              	PrintHex:
 130              	.LFB37:
 133:debug.c       **** 
 134:debug.c       **** /*******************************************************************************
 135:debug.c       **** * Function Name: PrintHex
 136:debug.c       **** ********************************************************************************
 137:debug.c       **** * Summary:
 138:debug.c       **** *        Converts HEX number to characters in ASCII that can be printed on 
 139:debug.c       **** * terminal.
 140:debug.c       **** *
 141:debug.c       **** * Parameters:
 142:debug.c       **** *  num: HEX to be converted to string.
 143:debug.c       **** *
 144:debug.c       **** * Return:
 145:debug.c       **** *  void
 146:debug.c       **** *
 147:debug.c       **** *******************************************************************************/
 148:debug.c       **** void PrintHex(uint8 num)
 149:debug.c       **** {
 131              		.loc 1 149 0
 132              		.cfi_startproc
 133              		@ args = 0, pretend = 0, frame = 8
 134              		@ frame_needed = 1, uses_anonymous_args = 0
 135 0000 80B5     		push	{r7, lr}
ARM GAS  C:\Users\ASUS\AppData\Local\Temp\cchfHRHg.s 			page 6


 136              		.cfi_def_cfa_offset 8
 137              		.cfi_offset 7, -8
 138              		.cfi_offset 14, -4
 139 0002 82B0     		sub	sp, sp, #8
 140              		.cfi_def_cfa_offset 16
 141 0004 00AF     		add	r7, sp, #0
 142              		.cfi_def_cfa_register 7
 143 0006 0200     		movs	r2, r0
 144 0008 FB1D     		adds	r3, r7, #7
 145 000a 1A70     		strb	r2, [r3]
 150:debug.c       **** 	#ifdef DEBUG_ENABLED
 151:debug.c       **** 	uint8 temp[2];
 152:debug.c       **** 	
 153:debug.c       **** 	temp[0] = num%16;
 154:debug.c       **** 	num = num/16;
 155:debug.c       **** 	temp[1] = num%16;
 156:debug.c       **** 
 157:debug.c       **** 	UART_UartPutString("0x");
 158:debug.c       **** 	if(temp[1] < 10)
 159:debug.c       **** 	{
 160:debug.c       **** 		UART_UartPutChar('0' + temp[1]);
 161:debug.c       **** 	}
 162:debug.c       **** 	else
 163:debug.c       **** 	{
 164:debug.c       **** 		UART_UartPutChar('A' + (temp[1] - 10));
 165:debug.c       **** 	}
 166:debug.c       **** 
 167:debug.c       **** 	if(temp[0] < 10)
 168:debug.c       **** 	{
 169:debug.c       **** 		UART_UartPutChar('0' + temp[0]);
 170:debug.c       **** 	}
 171:debug.c       **** 	else
 172:debug.c       **** 	{
 173:debug.c       **** 		UART_UartPutChar('A' + (temp[0] - 10));
 174:debug.c       **** 	}	
 175:debug.c       **** 	#else
 176:debug.c       **** 		num = num;
 146              		.loc 1 176 0
 147 000c FB1D     		adds	r3, r7, #7
 148 000e FA1D     		adds	r2, r7, #7
 149 0010 1278     		ldrb	r2, [r2]
 150 0012 1A70     		strb	r2, [r3]
 177:debug.c       **** 	#endif
 178:debug.c       **** }
 151              		.loc 1 178 0
 152 0014 C046     		nop
 153 0016 BD46     		mov	sp, r7
 154 0018 02B0     		add	sp, sp, #8
 155              		@ sp needed
 156 001a 80BD     		pop	{r7, pc}
 157              		.cfi_endproc
 158              	.LFE37:
 159              		.size	PrintHex, .-PrintHex
 160              		.text
 161              	.Letext0:
 162              		.file 2 "Generated_Source\\PSoC4/cytypes.h"
 163              		.file 3 "Generated_Source\\PSoC4/BLE_Stack.h"
ARM GAS  C:\Users\ASUS\AppData\Local\Temp\cchfHRHg.s 			page 7


 164              		.file 4 "Generated_Source\\PSoC4/BLE_eventHandler.h"
 165              		.file 5 "./main.h"