ARM GAS  C:\Users\ASUS\AppData\Local\Temp\ccEd6FxX.s 			page 1


   1              		.syntax unified
   2              		.cpu cortex-m0
   3              		.fpu softvfp
   4              		.eabi_attribute 20, 1
   5              		.eabi_attribute 21, 1
   6              		.eabi_attribute 23, 3
   7              		.eabi_attribute 24, 1
   8              		.eabi_attribute 25, 1
   9              		.eabi_attribute 26, 1
  10              		.eabi_attribute 30, 6
  11              		.eabi_attribute 34, 0
  12              		.eabi_attribute 18, 4
  13              		.thumb
  14              		.syntax unified
  15              		.file	"main.c"
  16              		.text
  17              	.Ltext0:
  18              		.cfi_sections	.debug_frame
  19              		.comm	current_watchdog_counter,2,2
  20              		.section	.text.main,"ax",%progbits
  21              		.align	2
  22              		.global	main
  23              		.code	16
  24              		.thumb_func
  25              		.type	main, %function
  26              	main:
  27              	.LFB35:
  28              		.file 1 "main.c"
   1:main.c        **** /******************************************************************************
   2:main.c        **** * Project Name		: Mesh_Flood_PSoC4BLE
   3:main.c        **** * File Name			: main.c
   4:main.c        **** * Version 			: 1.0
   5:main.c        **** * Device Used		: CY8C4247LQI-BL483
   6:main.c        **** * Software Used		: PSoC Creator 3.1 SP1
   7:main.c        **** * Compiler    		: ARM GCC 4.8.4, ARM RVDS Generic, ARM MDK Generic
   8:main.c        **** * Related Hardware	: CY8CKIT-042-BLE Bluetooth Low Energy Pioneer Kit 
   9:main.c        **** * Owner             : roit@cypress.com
  10:main.c        **** *
  11:main.c        **** ********************************************************************************
  12:main.c        **** * Copyright (2014-15), Cypress Semiconductor Corporation. All Rights Reserved.
  13:main.c        **** ********************************************************************************
  14:main.c        **** * This software is owned by Cypress Semiconductor Corporation (Cypress)
  15:main.c        **** * and is protected by and subject to worldwide patent protection (United
  16:main.c        **** * States and foreign), United States copyright laws and international treaty
  17:main.c        **** * provisions. Cypress hereby grants to licensee a personal, non-exclusive,
  18:main.c        **** * non-transferable license to copy, use, modify, create derivative works of,
  19:main.c        **** * and compile the Cypress Source Code and derivative works for the sole
  20:main.c        **** * purpose of creating custom software in support of licensee product to be
  21:main.c        **** * used only in conjunction with a Cypress integrated circuit as specified in
  22:main.c        **** * the applicable agreement. Any reproduction, modification, translation,
  23:main.c        **** * compilation, or representation of this software except as specified above 
  24:main.c        **** * is prohibited without the express written permission of Cypress.
  25:main.c        **** *
  26:main.c        **** * Disclaimer: CYPRESS MAKES NO WARRANTY OF ANY KIND, EXPRESS OR IMPLIED, WITH 
  27:main.c        **** * REGARD TO THIS MATERIAL, INCLUDING, BUT NOT LIMITED TO, THE IMPLIED 
  28:main.c        **** * WARRANTIES OF MERCHANTABILITY AND FITNESS FOR A PARTICULAR PURPOSE.
  29:main.c        **** * Cypress reserves the right to make changes without further notice to the 
ARM GAS  C:\Users\ASUS\AppData\Local\Temp\ccEd6FxX.s 			page 2


  30:main.c        **** * materials described herein. Cypress does not assume any liability arising out 
  31:main.c        **** * of the application or use of any product or circuit described herein. Cypress 
  32:main.c        **** * does not authorize its products for use as critical components in life-support 
  33:main.c        **** * systems where a malfunction or failure may reasonably be expected to result in 
  34:main.c        **** * significant injury to the user. The inclusion of Cypress' product in a life-
  35:main.c        **** * support systems application implies that the manufacturer assumes all risk of 
  36:main.c        **** * such use and in doing so indemnifies Cypress against all charges. 
  37:main.c        **** *
  38:main.c        **** * Use of this Software may be limited by and subject to the applicable Cypress
  39:main.c        **** * software license agreement. 
  40:main.c        **** *******************************************************************************/
  41:main.c        **** #include <main.h>
  42:main.c        **** 
  43:main.c        **** extern uint8 switch_Role;
  44:main.c        **** extern uint8 ble_gap_state;
  45:main.c        **** extern uint8 deviceConnected;
  46:main.c        **** 
  47:main.c        **** extern uint8 restartScanning;
  48:main.c        **** 
  49:main.c        **** extern uint8 dataADVCounter;
  50:main.c        **** 
  51:main.c        **** #ifdef ENABLE_ADV_DATA_COUNTER
  52:main.c        **** extern CYBLE_GAPP_DISC_DATA_T  new_advData;
  53:main.c        **** extern uint8 potential_node_found;
  54:main.c        **** extern uint8 potential_node_bdAddr[6];
  55:main.c        **** extern uint8 potential_node_bdAddrType;
  56:main.c        **** #endif
  57:main.c        **** 
  58:main.c        **** extern uint8 clientConnectToDevice;
  59:main.c        **** extern CYBLE_GAP_BD_ADDR_T				peripAddr;;
  60:main.c        **** /*******************************************************************************
  61:main.c        **** * Function Name: main
  62:main.c        **** ********************************************************************************
  63:main.c        **** * Summary:
  64:main.c        **** *       Entry point for the firmware, Starts the system and continuously processes
  65:main.c        **** * Application and BLE events.
  66:main.c        **** *
  67:main.c        **** * Parameters:
  68:main.c        **** *  void
  69:main.c        **** *
  70:main.c        **** * Return:
  71:main.c        **** *  int
  72:main.c        **** *
  73:main.c        **** *******************************************************************************/
  74:main.c        **** int main()
  75:main.c        **** {
  29              		.loc 1 75 0
  30              		.cfi_startproc
  31              		@ args = 0, pretend = 0, frame = 0
  32              		@ frame_needed = 1, uses_anonymous_args = 0
  33 0000 80B5     		push	{r7, lr}
  34              		.cfi_def_cfa_offset 8
  35              		.cfi_offset 7, -8
  36              		.cfi_offset 14, -4
  37 0002 00AF     		add	r7, sp, #0
  38              		.cfi_def_cfa_register 7
  76:main.c        ****     /* Initialize system */	
ARM GAS  C:\Users\ASUS\AppData\Local\Temp\ccEd6FxX.s 			page 3


  77:main.c        **** 	InitializeSystem();
  39              		.loc 1 77 0
  40 0004 FFF7FEFF 		bl	InitializeSystem
  41              	.L2:
  78:main.c        **** 	
  79:main.c        **** 	#ifdef DEBUG_ENABLED
  80:main.c        **** 		UART_UartPutString("Sytem Started ");
  81:main.c        **** 		UART_UartPutCRLF(' ');
  82:main.c        **** 	#endif
  83:main.c        **** 	
  84:main.c        ****     for(;;)
  85:main.c        ****     {
  86:main.c        **** 		/* Process BLE Events. This function generates the respective 
  87:main.c        **** 		* events to application layer */
  88:main.c        **** 		CyBle_ProcessEvents();
  42              		.loc 1 88 0 discriminator 1
  43 0008 FFF7FEFF 		bl	CyBle_ProcessEvents
  89:main.c        **** 
  90:main.c        **** 		/* If flag is set, then switch the GAP role between Peripheral and 
  91:main.c        **** 		* Central. This function disconnects existing connection, if any, 
  92:main.c        **** 		* before switching role. Depending on switched role, the system will
  93:main.c        **** 		* either start scanning or start advertisement */
  94:main.c        **** 		SwitchRole();
  44              		.loc 1 94 0 discriminator 1
  45 000c FFF7FEFF 		bl	SwitchRole
  95:main.c        **** 		
  96:main.c        **** 		/* If a valid node is found, then this function will initiate a connection 
  97:main.c        **** 		* to that node. */
  98:main.c        **** 		ConnectToPeripheralDevice();
  46              		.loc 1 98 0 discriminator 1
  47 0010 FFF7FEFF 		bl	ConnectToPeripheralDevice
  99:main.c        **** 		
 100:main.c        **** 		/* This function will restart scanning when earlier connection has been
 101:main.c        **** 		* disconnected. This function also checks internal counter and sets flag to
 102:main.c        **** 		* switch role from Central to Peripheral when the count is above set value. */
 103:main.c        **** 		RestartCentralScanning();
  48              		.loc 1 103 0 discriminator 1
  49 0014 FFF7FEFF 		bl	RestartCentralScanning
 104:main.c        ****     }
  50              		.loc 1 104 0 discriminator 1
  51 0018 F6E7     		b	.L2
  52              		.cfi_endproc
  53              	.LFE35:
  54              		.size	main, .-main
  55 001a C046     		.section	.text.InitializeSystem,"ax",%progbits
  56              		.align	2
  57              		.global	InitializeSystem
  58              		.code	16
  59              		.thumb_func
  60              		.type	InitializeSystem, %function
  61              	InitializeSystem:
  62              	.LFB36:
 105:main.c        **** }
 106:main.c        **** 
 107:main.c        **** /*******************************************************************************
 108:main.c        **** * Function Name: InitializeSystem
 109:main.c        **** ********************************************************************************
ARM GAS  C:\Users\ASUS\AppData\Local\Temp\ccEd6FxX.s 			page 4


 110:main.c        **** * Summary:
 111:main.c        **** *       Starts the components in the project and registers BLE event handler 
 112:main.c        **** * function. It also modifies the advertisement packet and appends data counter
 113:main.c        **** * at its end.
 114:main.c        **** *
 115:main.c        **** * Parameters:
 116:main.c        **** *  void
 117:main.c        **** *
 118:main.c        **** * Return:
 119:main.c        **** *  void
 120:main.c        **** *
 121:main.c        **** *******************************************************************************/
 122:main.c        **** void InitializeSystem(void)
 123:main.c        **** {
  63              		.loc 1 123 0
  64              		.cfi_startproc
  65              		@ args = 0, pretend = 0, frame = 0
  66              		@ frame_needed = 1, uses_anonymous_args = 0
  67 0000 80B5     		push	{r7, lr}
  68              		.cfi_def_cfa_offset 8
  69              		.cfi_offset 7, -8
  70              		.cfi_offset 14, -4
  71 0002 00AF     		add	r7, sp, #0
  72              		.cfi_def_cfa_register 7
 124:main.c        **** 	/* Enable global interrupts. */
 125:main.c        **** 	CyGlobalIntEnable;
  73              		.loc 1 125 0
  74              		.syntax divided
  75              	@ 125 "main.c" 1
  76 0004 62B6     		CPSIE   i
  77              	@ 0 "" 2
 126:main.c        **** 	
 127:main.c        **** 	/* Start BLE component and Register the generic Event callback function */
 128:main.c        **** 	CyBle_Start(GenericEventHandler);
  78              		.loc 1 128 0
  79              		.thumb
  80              		.syntax unified
  81 0006 284B     		ldr	r3, .L5
  82 0008 1800     		movs	r0, r3
  83 000a FFF7FEFF 		bl	CyBle_Start
 129:main.c        **** 	
 130:main.c        **** 	/* Start the PrISM component and configure drive mode of LED pins to be
 131:main.c        **** 	* initially OFF*/
 132:main.c        **** 	PrISM_1_Start();
  84              		.loc 1 132 0
  85 000e FFF7FEFF 		bl	PrISM_1_Start
 133:main.c        **** 	PrISM_2_Start();
  86              		.loc 1 133 0
  87 0012 FFF7FEFF 		bl	PrISM_2_Start
 134:main.c        **** 	
 135:main.c        **** 	PrISM_1_WritePulse0(255);
  88              		.loc 1 135 0
  89 0016 FF20     		movs	r0, #255
  90 0018 FFF7FEFF 		bl	PrISM_1_WritePulse0
 136:main.c        **** 	PrISM_1_WritePulse1(255);
  91              		.loc 1 136 0
  92 001c FF20     		movs	r0, #255
ARM GAS  C:\Users\ASUS\AppData\Local\Temp\ccEd6FxX.s 			page 5


  93 001e FFF7FEFF 		bl	PrISM_1_WritePulse1
 137:main.c        **** 	PrISM_2_WritePulse0(255);
  94              		.loc 1 137 0
  95 0022 FF20     		movs	r0, #255
  96 0024 FFF7FEFF 		bl	PrISM_2_WritePulse0
 138:main.c        **** 	
 139:main.c        **** 	RED_SetDriveMode(RED_DM_STRONG);
  97              		.loc 1 139 0
  98 0028 0620     		movs	r0, #6
  99 002a FFF7FEFF 		bl	RED_SetDriveMode
 140:main.c        **** 	GREEN_SetDriveMode(GREEN_DM_STRONG);
 100              		.loc 1 140 0
 101 002e 0620     		movs	r0, #6
 102 0030 FFF7FEFF 		bl	GREEN_SetDriveMode
 141:main.c        **** 	BLUE_SetDriveMode(BLUE_DM_STRONG);
 103              		.loc 1 141 0
 104 0034 0620     		movs	r0, #6
 105 0036 FFF7FEFF 		bl	BLUE_SetDriveMode
 142:main.c        **** 	
 143:main.c        **** 	/* Configure the Watchdog (WDT) timer for 100 millisecond timing */
 144:main.c        **** 	InitializeWatchdog(WATCHDOG_COUNT_VAL);
 106              		.loc 1 144 0
 107 003a 1C4B     		ldr	r3, .L5+4
 108 003c 1800     		movs	r0, r3
 109 003e FFF7FEFF 		bl	InitializeWatchdog
 145:main.c        **** 
 146:main.c        **** 	#ifdef ENABLE_ADV_DATA_COUNTER
 147:main.c        **** 	new_advData = *cyBle_discoveryModeInfo.advData;
 110              		.loc 1 147 0
 111 0042 1B4B     		ldr	r3, .L5+8
 112 0044 9B68     		ldr	r3, [r3, #8]
 113 0046 1B4A     		ldr	r2, .L5+12
 114 0048 1000     		movs	r0, r2
 115 004a 1900     		movs	r1, r3
 116 004c 2023     		movs	r3, #32
 117 004e 1A00     		movs	r2, r3
 118 0050 FFF7FEFF 		bl	memcpy
 148:main.c        **** 	
 149:main.c        **** 	if( cyBle_discoveryModeInfo.advData->advDataLen < 29)
 119              		.loc 1 149 0
 120 0054 164B     		ldr	r3, .L5+8
 121 0056 9B68     		ldr	r3, [r3, #8]
 122 0058 DB7F     		ldrb	r3, [r3, #31]
 123 005a 1C2B     		cmp	r3, #28
 124 005c 15D8     		bhi	.L4
 150:main.c        **** 	{
 151:main.c        **** 		/* Initialize the DataCounter data in advertisement packet. This is custom data in 
 152:main.c        **** 		* ADV packet and used to track whether the RGB LED data is latest or not */
 153:main.c        **** 		new_advData.advData[cyBle_discoveryModeInfo.advData->advDataLen] = CUSTOM_ADV_DATA_MARKER;	
 125              		.loc 1 153 0
 126 005e 144B     		ldr	r3, .L5+8
 127 0060 9B68     		ldr	r3, [r3, #8]
 128 0062 DB7F     		ldrb	r3, [r3, #31]
 129 0064 1A00     		movs	r2, r3
 130 0066 134B     		ldr	r3, .L5+12
 131 0068 0121     		movs	r1, #1
 132 006a 9954     		strb	r1, [r3, r2]
ARM GAS  C:\Users\ASUS\AppData\Local\Temp\ccEd6FxX.s 			page 6


 154:main.c        **** 		new_advData.advData[cyBle_discoveryModeInfo.advData->advDataLen+1] = dataADVCounter;
 133              		.loc 1 154 0
 134 006c 104B     		ldr	r3, .L5+8
 135 006e 9B68     		ldr	r3, [r3, #8]
 136 0070 DB7F     		ldrb	r3, [r3, #31]
 137 0072 0133     		adds	r3, r3, #1
 138 0074 104A     		ldr	r2, .L5+16
 139 0076 1178     		ldrb	r1, [r2]
 140 0078 0E4A     		ldr	r2, .L5+12
 141 007a D154     		strb	r1, [r2, r3]
 155:main.c        **** 		new_advData.advDataLen = cyBle_discoveryModeInfo.advData->advDataLen+2;
 142              		.loc 1 155 0
 143 007c 0C4B     		ldr	r3, .L5+8
 144 007e 9B68     		ldr	r3, [r3, #8]
 145 0080 DB7F     		ldrb	r3, [r3, #31]
 146 0082 0233     		adds	r3, r3, #2
 147 0084 DAB2     		uxtb	r2, r3
 148 0086 0B4B     		ldr	r3, .L5+12
 149 0088 DA77     		strb	r2, [r3, #31]
 150              	.L4:
 156:main.c        **** 	}
 157:main.c        **** 	
 158:main.c        **** 	/* Assign the new ADV data to stack */
 159:main.c        **** 	cyBle_discoveryModeInfo.advData = &new_advData;
 151              		.loc 1 159 0
 152 008a 094B     		ldr	r3, .L5+8
 153 008c 094A     		ldr	r2, .L5+12
 154 008e 9A60     		str	r2, [r3, #8]
 160:main.c        **** 	#endif
 161:main.c        **** 		
 162:main.c        **** 	/* Provide a color pusle on RGB LED to indicate startup */
 163:main.c        **** 	PrISM_1_WritePulse1(128);
 155              		.loc 1 163 0
 156 0090 8020     		movs	r0, #128
 157 0092 FFF7FEFF 		bl	PrISM_1_WritePulse1
 164:main.c        **** 	CyDelay(20);
 158              		.loc 1 164 0
 159 0096 1420     		movs	r0, #20
 160 0098 FFF7FEFF 		bl	CyDelay
 165:main.c        **** 	PrISM_1_WritePulse1(255);
 161              		.loc 1 165 0
 162 009c FF20     		movs	r0, #255
 163 009e FFF7FEFF 		bl	PrISM_1_WritePulse1
 166:main.c        **** 	
 167:main.c        **** 	#ifdef DEBUG_ENABLED
 168:main.c        **** 		UART_Start();
 169:main.c        **** 		UART_UartPutString("--------------------------Mesh Flood-----------------------------------------
 170:main.c        **** 		UART_UartPutCRLF(' ');
 171:main.c        **** 	#endif
 172:main.c        **** }
 164              		.loc 1 172 0
 165 00a2 C046     		nop
 166 00a4 BD46     		mov	sp, r7
 167              		@ sp needed
 168 00a6 80BD     		pop	{r7, pc}
 169              	.L6:
 170              		.align	2
ARM GAS  C:\Users\ASUS\AppData\Local\Temp\ccEd6FxX.s 			page 7


 171              	.L5:
 172 00a8 00000000 		.word	GenericEventHandler
 173 00ac CC0C0000 		.word	3276
 174 00b0 00000000 		.word	cyBle_discoveryModeInfo
 175 00b4 00000000 		.word	new_advData
 176 00b8 00000000 		.word	dataADVCounter
 177              		.cfi_endproc
 178              	.LFE36:
 179              		.size	InitializeSystem, .-InitializeSystem
 180              		.global	__aeabi_idiv
 181              		.section	.text.UpdateRGBled,"ax",%progbits
 182              		.align	2
 183              		.global	UpdateRGBled
 184              		.code	16
 185              		.thumb_func
 186              		.type	UpdateRGBled, %function
 187              	UpdateRGBled:
 188              	.LFB37:
 173:main.c        **** 
 174:main.c        **** /*******************************************************************************
 175:main.c        **** * Function Name: UpdateRGBled
 176:main.c        **** ********************************************************************************
 177:main.c        **** * Summary:
 178:main.c        **** *        Update the RGB LED color by reconfiguring PrISM component. This function 
 179:main.c        **** * is valid for PSoC 4 BLE parts and not PROC BLE, as PRoC BLE does not have UDBs
 180:main.c        **** * that makes up the PrISM component. To replace this with software PrISM, refer to
 181:main.c        **** * CY8CKIT-042-BLE Pioneer Kit example project, PRoC_BLE_CapSense_Slider_LED, from
 182:main.c        **** * http://www.cypress.com/CY8CKIT-042-BLE
 183:main.c        **** *
 184:main.c        **** * Parameters:
 185:main.c        **** *  rgb_led_data: array storing the RGB and Intensity vlaue
 186:main.c        **** *  len: length of the array.
 187:main.c        **** *
 188:main.c        **** * Return:
 189:main.c        **** *  void
 190:main.c        **** *
 191:main.c        **** *******************************************************************************/
 192:main.c        **** void UpdateRGBled(uint8 * rgb_led_data, uint8 len)
 193:main.c        **** {
 189              		.loc 1 193 0
 190              		.cfi_startproc
 191              		@ args = 0, pretend = 0, frame = 16
 192              		@ frame_needed = 1, uses_anonymous_args = 0
 193 0000 80B5     		push	{r7, lr}
 194              		.cfi_def_cfa_offset 8
 195              		.cfi_offset 7, -8
 196              		.cfi_offset 14, -4
 197 0002 84B0     		sub	sp, sp, #16
 198              		.cfi_def_cfa_offset 24
 199 0004 00AF     		add	r7, sp, #0
 200              		.cfi_def_cfa_register 7
 201 0006 7860     		str	r0, [r7, #4]
 202 0008 0A00     		movs	r2, r1
 203 000a FB1C     		adds	r3, r7, #3
 204 000c 1A70     		strb	r2, [r3]
 194:main.c        **** 	uint8 calc_red, calc_green, calc_blue;
 195:main.c        **** 	
ARM GAS  C:\Users\ASUS\AppData\Local\Temp\ccEd6FxX.s 			page 8


 196:main.c        **** 	if(len == RGB_LED_DATA_LEN)
 205              		.loc 1 196 0
 206 000e FB1C     		adds	r3, r7, #3
 207 0010 1B78     		ldrb	r3, [r3]
 208 0012 042B     		cmp	r3, #4
 209 0014 49D1     		bne	.L9
 197:main.c        **** 	{
 198:main.c        **** 		/* If a valid length packet has been sent, calculate the intensity of each of
 199:main.c        **** 		* R, G and B color and update the PrISM module */
 200:main.c        **** 		calc_red = (uint8)(((uint16)rgb_led_data[RGB_RED_INDEX]*rgb_led_data[RGB_INTENSITY_INDEX])/RGB_LE
 210              		.loc 1 200 0
 211 0016 7B68     		ldr	r3, [r7, #4]
 212 0018 1B78     		ldrb	r3, [r3]
 213 001a 1A00     		movs	r2, r3
 214 001c 7B68     		ldr	r3, [r7, #4]
 215 001e 0333     		adds	r3, r3, #3
 216 0020 1B78     		ldrb	r3, [r3]
 217 0022 5343     		muls	r3, r2
 218 0024 FF21     		movs	r1, #255
 219 0026 1800     		movs	r0, r3
 220 0028 FFF7FEFF 		bl	__aeabi_idiv
 221 002c 0300     		movs	r3, r0
 222 002e 1A00     		movs	r2, r3
 223 0030 0F23     		movs	r3, #15
 224 0032 FB18     		adds	r3, r7, r3
 225 0034 1A70     		strb	r2, [r3]
 201:main.c        **** 		calc_green = (uint8)(((uint16)rgb_led_data[RGB_GREEN_INDEX]*rgb_led_data[RGB_INTENSITY_INDEX])/RG
 226              		.loc 1 201 0
 227 0036 7B68     		ldr	r3, [r7, #4]
 228 0038 0133     		adds	r3, r3, #1
 229 003a 1B78     		ldrb	r3, [r3]
 230 003c 1A00     		movs	r2, r3
 231 003e 7B68     		ldr	r3, [r7, #4]
 232 0040 0333     		adds	r3, r3, #3
 233 0042 1B78     		ldrb	r3, [r3]
 234 0044 5343     		muls	r3, r2
 235 0046 FF21     		movs	r1, #255
 236 0048 1800     		movs	r0, r3
 237 004a FFF7FEFF 		bl	__aeabi_idiv
 238 004e 0300     		movs	r3, r0
 239 0050 1A00     		movs	r2, r3
 240 0052 0E23     		movs	r3, #14
 241 0054 FB18     		adds	r3, r7, r3
 242 0056 1A70     		strb	r2, [r3]
 202:main.c        **** 		calc_blue = (uint8)(((uint16)rgb_led_data[RGB_BLUE_INDEX]*rgb_led_data[RGB_INTENSITY_INDEX])/RGB_
 243              		.loc 1 202 0
 244 0058 7B68     		ldr	r3, [r7, #4]
 245 005a 0233     		adds	r3, r3, #2
 246 005c 1B78     		ldrb	r3, [r3]
 247 005e 1A00     		movs	r2, r3
 248 0060 7B68     		ldr	r3, [r7, #4]
 249 0062 0333     		adds	r3, r3, #3
 250 0064 1B78     		ldrb	r3, [r3]
 251 0066 5343     		muls	r3, r2
 252 0068 FF21     		movs	r1, #255
 253 006a 1800     		movs	r0, r3
 254 006c FFF7FEFF 		bl	__aeabi_idiv
ARM GAS  C:\Users\ASUS\AppData\Local\Temp\ccEd6FxX.s 			page 9


 255 0070 0300     		movs	r3, r0
 256 0072 1A00     		movs	r2, r3
 257 0074 0D23     		movs	r3, #13
 258 0076 FB18     		adds	r3, r7, r3
 259 0078 1A70     		strb	r2, [r3]
 203:main.c        **** 		
 204:main.c        **** 		PrISM_1_WritePulse0(RGB_LED_MAX_VAL - calc_red);
 260              		.loc 1 204 0
 261 007a 0F23     		movs	r3, #15
 262 007c FB18     		adds	r3, r7, r3
 263 007e 1B78     		ldrb	r3, [r3]
 264 0080 DB43     		mvns	r3, r3
 265 0082 DBB2     		uxtb	r3, r3
 266 0084 1800     		movs	r0, r3
 267 0086 FFF7FEFF 		bl	PrISM_1_WritePulse0
 205:main.c        **** 		PrISM_1_WritePulse1(RGB_LED_MAX_VAL - calc_green);
 268              		.loc 1 205 0
 269 008a 0E23     		movs	r3, #14
 270 008c FB18     		adds	r3, r7, r3
 271 008e 1B78     		ldrb	r3, [r3]
 272 0090 DB43     		mvns	r3, r3
 273 0092 DBB2     		uxtb	r3, r3
 274 0094 1800     		movs	r0, r3
 275 0096 FFF7FEFF 		bl	PrISM_1_WritePulse1
 206:main.c        **** 		PrISM_2_WritePulse0(RGB_LED_MAX_VAL - calc_blue);
 276              		.loc 1 206 0
 277 009a 0D23     		movs	r3, #13
 278 009c FB18     		adds	r3, r7, r3
 279 009e 1B78     		ldrb	r3, [r3]
 280 00a0 DB43     		mvns	r3, r3
 281 00a2 DBB2     		uxtb	r3, r3
 282 00a4 1800     		movs	r0, r3
 283 00a6 FFF7FEFF 		bl	PrISM_2_WritePulse0
 284              	.L9:
 207:main.c        **** 		
 208:main.c        **** 		#ifdef DEBUG_ENABLED
 209:main.c        **** 			UART_UartPutString("PrISM Updated ");
 210:main.c        **** 			UART_UartPutCRLF(' ');
 211:main.c        **** 		#endif
 212:main.c        **** 	}
 213:main.c        **** }
 285              		.loc 1 213 0
 286 00aa C046     		nop
 287 00ac BD46     		mov	sp, r7
 288 00ae 04B0     		add	sp, sp, #16
 289              		@ sp needed
 290 00b0 80BD     		pop	{r7, pc}
 291              		.cfi_endproc
 292              	.LFE37:
 293              		.size	UpdateRGBled, .-UpdateRGBled
 294 00b2 C046     		.text
 295              	.Letext0:
 296              		.file 2 "Generated_Source\\PSoC4/cytypes.h"
 297              		.file 3 "Generated_Source\\PSoC4/BLE_Stack.h"
 298              		.file 4 "Generated_Source\\PSoC4/BLE_StackGap.h"
 299              		.file 5 "Generated_Source\\PSoC4/BLE_eventHandler.h"
 300              		.file 6 "Generated_Source\\PSoC4/BLE.h"
ARM GAS  C:\Users\ASUS\AppData\Local\Temp\ccEd6FxX.s 			page 10


 301              		.file 7 "./main.h"