ARM GAS  C:\Users\JANUSD~1\AppData\Local\Temp\ccfRFGRf.s 			page 1


   1              		.syntax unified
   2              		.cpu cortex-m0
   3              		.fpu softvfp
   4              		.eabi_attribute 20, 1
   5              		.eabi_attribute 21, 1
   6              		.eabi_attribute 23, 3
   7              		.eabi_attribute 24, 1
   8              		.eabi_attribute 25, 1
   9              		.eabi_attribute 26, 1
  10              		.eabi_attribute 30, 1
  11              		.eabi_attribute 34, 0
  12              		.eabi_attribute 18, 4
  13              		.thumb
  14              		.syntax unified
  15              		.file	"main.c"
  16              		.text
  17              	.Ltext0:
  18              		.cfi_sections	.debug_frame
  19              		.section	.text.CC_TC_InterruptHandler,"ax",%progbits
  20              		.align	2
  21              		.global	CC_TC_InterruptHandler
  22              		.code	16
  23              		.thumb_func
  24              		.type	CC_TC_InterruptHandler, %function
  25              	CC_TC_InterruptHandler:
  26              	.LFB37:
  27              		.file 1 "main.c"
   1:main.c        **** #include <stdio.h>
   2:main.c        **** 
   3:main.c        **** /* ========================================
   4:main.c        ****  *
   5:main.c        ****  * Copyright YOUR COMPANY, THE YEAR
   6:main.c        ****  * All Rights Reserved
   7:main.c        ****  * UNPUBLISHED, LICENSED SOFTWARE.
   8:main.c        ****  *
   9:main.c        ****  * CONFIDENTIAL AND PROPRIETARY INFORMATION
  10:main.c        ****  * WHICH IS THE PROPERTY OF your company.
  11:main.c        ****  *
  12:main.c        ****  * ========================================
  13:main.c        **** */
  14:main.c        **** #include "project.h"
  15:main.c        **** 
  16:main.c        **** int get_compare_from_analog(uint16 val, uint16 init_val, uint16 prev_val){
  17:main.c        ****     //int change = val > prev_val ? val-prev_val : prev_val - val;
  18:main.c        ****     
  19:main.c        ****     //if (change > 2){
  20:main.c        ****       //  val = val > prev_val ? prev_val + 2 : prev_val - 2;
  21:main.c        ****     //}else{val = prev_val;}
  22:main.c        ****     
  23:main.c        ****     int diff = val > init_val ? val-init_val : init_val - val;
  24:main.c        ****     CyDelay(50);
  25:main.c        ****     
  26:main.c        ****     return 500*(diff);
  27:main.c        **** }
  28:main.c        **** 
  29:main.c        **** CY_ISR(CC_TC_InterruptHandler)
  30:main.c        **** {
ARM GAS  C:\Users\JANUSD~1\AppData\Local\Temp\ccfRFGRf.s 			page 2


  28              		.loc 1 30 0
  29              		.cfi_startproc
  30              		@ args = 0, pretend = 0, frame = 0
  31              		@ frame_needed = 0, uses_anonymous_args = 0
  32 0000 10B5     		push	{r4, lr}
  33              		.cfi_def_cfa_offset 8
  34              		.cfi_offset 4, -8
  35              		.cfi_offset 14, -4
  31:main.c        ****     Pin_DLed_Write(~Pin_DLed_Read());
  36              		.loc 1 31 0
  37 0002 FFF7FEFF 		bl	Pin_DLed_Read
  38              	.LVL0:
  39 0006 C043     		mvns	r0, r0
  40 0008 C0B2     		uxtb	r0, r0
  41 000a FFF7FEFF 		bl	Pin_DLed_Write
  42              	.LVL1:
  32:main.c        ****     
  33:main.c        ****     //isr_Counter_ClearPending();
  34:main.c        ****     //CyDelay(100);
  35:main.c        ****     
  36:main.c        ****     //PWM_1sWindow_ClearInterrupt(PWM_1sWindow_INTR_MASK_CC_MATCH);
  37:main.c        ****     //PWM_1sWindow_ClearInterrupt(PWM_1sWindow_INTR_MASK_TC);
  38:main.c        **** }
  43              		.loc 1 38 0
  44              		@ sp needed
  45 000e 10BD     		pop	{r4, pc}
  46              		.cfi_endproc
  47              	.LFE37:
  48              		.size	CC_TC_InterruptHandler, .-CC_TC_InterruptHandler
  49              		.section	.text.get_compare_from_analog,"ax",%progbits
  50              		.align	2
  51              		.global	get_compare_from_analog
  52              		.code	16
  53              		.thumb_func
  54              		.type	get_compare_from_analog, %function
  55              	get_compare_from_analog:
  56              	.LFB36:
  16:main.c        ****     //int change = val > prev_val ? val-prev_val : prev_val - val;
  57              		.loc 1 16 0
  58              		.cfi_startproc
  59              		@ args = 0, pretend = 0, frame = 0
  60              		@ frame_needed = 0, uses_anonymous_args = 0
  61              	.LVL2:
  62 0000 10B5     		push	{r4, lr}
  63              		.cfi_def_cfa_offset 8
  64              		.cfi_offset 4, -8
  65              		.cfi_offset 14, -4
  23:main.c        ****     CyDelay(50);
  66              		.loc 1 23 0
  67 0002 8842     		cmp	r0, r1
  68 0004 01D9     		bls	.L3
  23:main.c        ****     CyDelay(50);
  69              		.loc 1 23 0 is_stmt 0 discriminator 1
  70 0006 441A     		subs	r4, r0, r1
  71 0008 00E0     		b	.L4
  72              	.L3:
  23:main.c        ****     CyDelay(50);
ARM GAS  C:\Users\JANUSD~1\AppData\Local\Temp\ccfRFGRf.s 			page 3


  73              		.loc 1 23 0 discriminator 2
  74 000a 0C1A     		subs	r4, r1, r0
  75              	.L4:
  76              	.LVL3:
  24:main.c        ****     
  77              		.loc 1 24 0 is_stmt 1 discriminator 4
  78 000c 3220     		movs	r0, #50
  79              	.LVL4:
  80 000e FFF7FEFF 		bl	CyDelay
  81              	.LVL5:
  26:main.c        **** }
  82              		.loc 1 26 0 discriminator 4
  83 0012 FA20     		movs	r0, #250
  84 0014 4000     		lsls	r0, r0, #1
  85 0016 6043     		muls	r0, r4
  27:main.c        **** 
  86              		.loc 1 27 0 discriminator 4
  87              		@ sp needed
  88              	.LVL6:
  89 0018 10BD     		pop	{r4, pc}
  90              		.cfi_endproc
  91              	.LFE36:
  92              		.size	get_compare_from_analog, .-get_compare_from_analog
  93 001a C046     		.section	.text.main,"ax",%progbits
  94              		.align	2
  95              		.global	main
  96              		.code	16
  97              		.thumb_func
  98              		.type	main, %function
  99              	main:
 100              	.LFB38:
  39:main.c        **** 
  40:main.c        **** int main(void)
  41:main.c        **** {
 101              		.loc 1 41 0
 102              		.cfi_startproc
 103              		@ args = 0, pretend = 0, frame = 32
 104              		@ frame_needed = 0, uses_anonymous_args = 0
 105 0000 70B5     		push	{r4, r5, r6, lr}
 106              		.cfi_def_cfa_offset 16
 107              		.cfi_offset 4, -16
 108              		.cfi_offset 5, -12
 109              		.cfi_offset 6, -8
 110              		.cfi_offset 14, -4
 111 0002 88B0     		sub	sp, sp, #32
 112              		.cfi_def_cfa_offset 48
  42:main.c        ****     CyGlobalIntEnable; /* Enable global interrupts. */
 113              		.loc 1 42 0
 114              		.syntax divided
 115              	@ 42 "main.c" 1
 116 0004 62B6     		CPSIE   i
 117              	@ 0 "" 2
  43:main.c        **** 
  44:main.c        ****     // UART
  45:main.c        ****     UART_Start();
 118              		.loc 1 45 0
 119              		.thumb
ARM GAS  C:\Users\JANUSD~1\AppData\Local\Temp\ccfRFGRf.s 			page 4


 120              		.syntax unified
 121 0006 FFF7FEFF 		bl	UART_Start
 122              	.LVL7:
  46:main.c        ****     char rez[30];
  47:main.c        ****     
  48:main.c        ****     // ADC
  49:main.c        ****     ADC_MIC_Start();
 123              		.loc 1 49 0
 124 000a FFF7FEFF 		bl	ADC_MIC_Start
 125              	.LVL8:
  50:main.c        ****     ADC_MIC_StartConvert();
 126              		.loc 1 50 0
 127 000e FFF7FEFF 		bl	ADC_MIC_StartConvert
 128              	.LVL9:
  51:main.c        ****     uint16 val = ADC_MIC_GetResult16(0);
 129              		.loc 1 51 0
 130 0012 0020     		movs	r0, #0
 131 0014 FFF7FEFF 		bl	ADC_MIC_GetResult16
 132              	.LVL10:
 133 0018 85B2     		uxth	r5, r0
 134              	.LVL11:
  52:main.c        ****     uint16 prev_val;
  53:main.c        ****     uint16 init_val = ADC_MIC_GetResult16(0);
 135              		.loc 1 53 0
 136 001a 0020     		movs	r0, #0
 137 001c FFF7FEFF 		bl	ADC_MIC_GetResult16
 138              	.LVL12:
 139 0020 86B2     		uxth	r6, r0
 140              	.LVL13:
  54:main.c        ****     
  55:main.c        ****     isr_Counter_StartEx(CC_TC_InterruptHandler);
 141              		.loc 1 55 0
 142 0022 0F48     		ldr	r0, .L7
 143 0024 FFF7FEFF 		bl	isr_Counter_StartEx
 144              	.LVL14:
  56:main.c        ****     
  57:main.c        ****     // PWM
  58:main.c        ****     PWM_Brightness_Start();
 145              		.loc 1 58 0
 146 0028 FFF7FEFF 		bl	PWM_Brightness_Start
 147              	.LVL15:
 148              	.L6:
  59:main.c        ****     int compare;
  60:main.c        ****     
  61:main.c        ****     for(;;)
  62:main.c        ****     {
  63:main.c        ****         prev_val = val;
  64:main.c        ****         val = ADC_MIC_GetResult16(0); // analog value from microphone
 149              		.loc 1 64 0 discriminator 1
 150 002c 0020     		movs	r0, #0
 151 002e FFF7FEFF 		bl	ADC_MIC_GetResult16
 152              	.LVL16:
 153 0032 84B2     		uxth	r4, r0
 154              	.LVL17:
  65:main.c        ****         
  66:main.c        ****         compare = get_compare_from_analog(val, init_val, prev_val); 
 155              		.loc 1 66 0 discriminator 1
ARM GAS  C:\Users\JANUSD~1\AppData\Local\Temp\ccfRFGRf.s 			page 5


 156 0034 2A00     		movs	r2, r5
 157 0036 3100     		movs	r1, r6
 158 0038 2000     		movs	r0, r4
 159 003a FFF7FEFF 		bl	get_compare_from_analog
 160              	.LVL18:
 161 003e 0500     		movs	r5, r0
 162              	.LVL19:
  67:main.c        ****         PWM_Brightness_WriteCompare(compare); // change the brightness of LED
 163              		.loc 1 67 0 discriminator 1
 164 0040 FFF7FEFF 		bl	PWM_Brightness_WriteCompare
 165              	.LVL20:
  68:main.c        ****         
  69:main.c        ****         sprintf(rez, "analog = %d led = %d \n ", val, compare);
 166              		.loc 1 69 0 discriminator 1
 167 0044 2B00     		movs	r3, r5
 168 0046 2200     		movs	r2, r4
 169 0048 0649     		ldr	r1, .L7+4
 170 004a 6846     		mov	r0, sp
 171 004c FFF7FEFF 		bl	sprintf
 172              	.LVL21:
  70:main.c        ****         UART_UartPutString(rez);
 173              		.loc 1 70 0 discriminator 1
 174 0050 6846     		mov	r0, sp
 175 0052 FFF7FEFF 		bl	UART_UartPutString
 176              	.LVL22:
  71:main.c        ****         
  72:main.c        ****         CyDelay(10);
 177              		.loc 1 72 0 discriminator 1
 178 0056 0A20     		movs	r0, #10
 179 0058 FFF7FEFF 		bl	CyDelay
 180              	.LVL23:
  64:main.c        ****         
 181              		.loc 1 64 0 discriminator 1
 182 005c 2500     		movs	r5, r4
 183              	.LVL24:
 184 005e E5E7     		b	.L6
 185              	.L8:
 186              		.align	2
 187              	.L7:
 188 0060 00000000 		.word	CC_TC_InterruptHandler
 189 0064 00000000 		.word	.LC1
 190              		.cfi_endproc
 191              	.LFE38:
 192              		.size	main, .-main
 193              		.section	.rodata.str1.4,"aMS",%progbits,1
 194              		.align	2
 195              	.LC1:
 196 0000 616E616C 		.ascii	"analog = %d led = %d \012 \000"
 196      6F67203D 
 196      20256420 
 196      6C656420 
 196      3D202564 
 197              		.text
 198              	.Letext0:
 199              		.file 2 "Generated_Source\\PSoC4/Pin_DLed.h"
 200              		.file 3 "Generated_Source\\PSoC4/CyLib.h"
 201              		.file 4 "Generated_Source\\PSoC4/UART.h"
ARM GAS  C:\Users\JANUSD~1\AppData\Local\Temp\ccfRFGRf.s 			page 6


 202              		.file 5 "Generated_Source\\PSoC4/ADC_MIC.h"
 203              		.file 6 "Generated_Source\\PSoC4/isr_Counter.h"
 204              		.file 7 "Generated_Source\\PSoC4/PWM_Brightness.h"
 205              		.file 8 "c:\\program files (x86)\\cypress\\psoc creator\\4.2\\psoc creator\\import\\gnu\\arm\\5.4.
 206              		.file 9 "Generated_Source\\PSoC4/UART_SPI_UART.h"
 207              		.file 10 "Generated_Source\\PSoC4/cytypes.h"