ARM GAS  C:\Users\JANUSD~1\AppData\Local\Temp\ccuIfFmR.s 			page 1


   1              		.syntax unified
   2              		.cpu cortex-m0
   3              		.fpu softvfp
   4              		.eabi_attribute 20, 1
   5              		.eabi_attribute 21, 1
   6              		.eabi_attribute 23, 3
   7              		.eabi_attribute 24, 1
   8              		.eabi_attribute 25, 1
   9              		.eabi_attribute 26, 1
  10              		.eabi_attribute 30, 6
  11              		.eabi_attribute 34, 0
  12              		.eabi_attribute 18, 4
  13              		.thumb
  14              		.syntax unified
  15              		.file	"customize.c"
  16              		.text
  17              	.Ltext0:
  18              		.cfi_sections	.debug_frame
  19              		.comm	current_watchdog_counter,2,2
  20              		.section	.text.get_compare_from_analog,"ax",%progbits
  21              		.align	2
  22              		.global	get_compare_from_analog
  23              		.code	16
  24              		.thumb_func
  25              		.type	get_compare_from_analog, %function
  26              	get_compare_from_analog:
  27              	.LFB35:
  28              		.file 1 "customize.c"
   1:customize.c   **** #include <main.h>
   2:customize.c   **** 
   3:customize.c   **** extern uint8 RGBData;
   4:customize.c   **** 
   5:customize.c   **** int get_compare_from_analog(uint16 val, uint16 init_val, uint16 prev_val){
  29              		.loc 1 5 0
  30              		.cfi_startproc
  31              		@ args = 0, pretend = 0, frame = 16
  32              		@ frame_needed = 1, uses_anonymous_args = 0
  33 0000 90B5     		push	{r4, r7, lr}
  34              		.cfi_def_cfa_offset 12
  35              		.cfi_offset 4, -12
  36              		.cfi_offset 7, -8
  37              		.cfi_offset 14, -4
  38 0002 85B0     		sub	sp, sp, #20
  39              		.cfi_def_cfa_offset 32
  40 0004 00AF     		add	r7, sp, #0
  41              		.cfi_def_cfa_register 7
  42 0006 0400     		movs	r4, r0
  43 0008 0800     		movs	r0, r1
  44 000a 1100     		movs	r1, r2
  45 000c BB1D     		adds	r3, r7, #6
  46 000e 221C     		adds	r2, r4, #0
  47 0010 1A80     		strh	r2, [r3]
  48 0012 3B1D     		adds	r3, r7, #4
  49 0014 021C     		adds	r2, r0, #0
  50 0016 1A80     		strh	r2, [r3]
  51 0018 BB1C     		adds	r3, r7, #2
  52 001a 0A1C     		adds	r2, r1, #0
ARM GAS  C:\Users\JANUSD~1\AppData\Local\Temp\ccuIfFmR.s 			page 2


  53 001c 1A80     		strh	r2, [r3]
   6:customize.c   ****     /*if (val < init_val){
   7:customize.c   ****         val = init_val;
   8:customize.c   ****     }*/
   9:customize.c   ****     int diff = val > init_val ? val-init_val : init_val - val;
  54              		.loc 1 9 0
  55 001e BA1D     		adds	r2, r7, #6
  56 0020 3B1D     		adds	r3, r7, #4
  57 0022 1288     		ldrh	r2, [r2]
  58 0024 1B88     		ldrh	r3, [r3]
  59 0026 9A42     		cmp	r2, r3
  60 0028 05D9     		bls	.L2
  61              		.loc 1 9 0 is_stmt 0 discriminator 1
  62 002a BB1D     		adds	r3, r7, #6
  63 002c 1A88     		ldrh	r2, [r3]
  64 002e 3B1D     		adds	r3, r7, #4
  65 0030 1B88     		ldrh	r3, [r3]
  66 0032 D31A     		subs	r3, r2, r3
  67 0034 04E0     		b	.L3
  68              	.L2:
  69              		.loc 1 9 0 discriminator 2
  70 0036 3B1D     		adds	r3, r7, #4
  71 0038 1A88     		ldrh	r2, [r3]
  72 003a BB1D     		adds	r3, r7, #6
  73 003c 1B88     		ldrh	r3, [r3]
  74 003e D31A     		subs	r3, r2, r3
  75              	.L3:
  76              		.loc 1 9 0 discriminator 4
  77 0040 FB60     		str	r3, [r7, #12]
  10:customize.c   ****     
  11:customize.c   ****     CyDelay(150);
  78              		.loc 1 11 0 is_stmt 1 discriminator 4
  79 0042 9620     		movs	r0, #150
  80 0044 FFF7FEFF 		bl	CyDelay
  12:customize.c   ****     return 10 + diff*12 ;
  81              		.loc 1 12 0 discriminator 4
  82 0048 FA68     		ldr	r2, [r7, #12]
  83 004a 1300     		movs	r3, r2
  84 004c 5B00     		lsls	r3, r3, #1
  85 004e 9B18     		adds	r3, r3, r2
  86 0050 9B00     		lsls	r3, r3, #2
  87 0052 0A33     		adds	r3, r3, #10
  13:customize.c   **** }...
  88              		.loc 1 13 0 discriminator 4
  89 0054 1800     		movs	r0, r3
  90 0056 BD46     		mov	sp, r7
  91 0058 05B0     		add	sp, sp, #20
  92              		@ sp needed
  93 005a 90BD     		pop	{r4, r7, pc}
  94              		.cfi_endproc
  95              	.LFE35:
  96              		.size	get_compare_from_analog, .-get_compare_from_analog
  97              		.text
  98              	.Letext0:
  99              		.file 2 "Generated_Source\\PSoC4/BLE_Stack.h"
 100              		.file 3 "Generated_Source\\PSoC4/BLE_eventHandler.h"
 101              		.file 4 "Generated_Source\\PSoC4/cytypes.h"
ARM GAS  C:\Users\JANUSD~1\AppData\Local\Temp\ccuIfFmR.s 			page 3


 102              		.file 5 "./main.h"