ARM GAS  C:\Users\JANUSD~1\AppData\Local\Temp\cc8UZu5N.s 			page 1


   1              		.syntax unified
   2              		.cpu cortex-m0
   3              		.fpu softvfp
   4              		.eabi_attribute 20, 1
   5              		.eabi_attribute 21, 1
   6              		.eabi_attribute 23, 3
   7              		.eabi_attribute 24, 1
   8              		.eabi_attribute 25, 1
   9              		.eabi_attribute 26, 1
  10              		.eabi_attribute 30, 6
  11              		.eabi_attribute 34, 0
  12              		.eabi_attribute 18, 4
  13              		.thumb
  14              		.syntax unified
  15              		.file	"cyfitter_cfg.c"
  16              		.text
  17              	.Ltext0:
  18              		.cfi_sections	.debug_frame
  19              		.section	.text.CYMEMZERO,"ax",%progbits
  20              		.align	2
  21              		.code	16
  22              		.thumb_func
  23              		.type	CYMEMZERO, %function
  24              	CYMEMZERO:
  25              	.LFB2:
  26              		.file 1 "Generated_Source\\PSoC4\\cyfitter_cfg.c"
   1:Generated_Source\PSoC4/cyfitter_cfg.c **** 
   2:Generated_Source\PSoC4/cyfitter_cfg.c **** /*******************************************************************************
   3:Generated_Source\PSoC4/cyfitter_cfg.c **** * File Name: cyfitter_cfg.c
   4:Generated_Source\PSoC4/cyfitter_cfg.c **** * 
   5:Generated_Source\PSoC4/cyfitter_cfg.c **** * PSoC Creator  4.2
   6:Generated_Source\PSoC4/cyfitter_cfg.c **** *
   7:Generated_Source\PSoC4/cyfitter_cfg.c **** * Description:
   8:Generated_Source\PSoC4/cyfitter_cfg.c **** * This file contains device initialization code.
   9:Generated_Source\PSoC4/cyfitter_cfg.c **** * Except for the user defined sections in CyClockStartupError(), this file should not be modified.
  10:Generated_Source\PSoC4/cyfitter_cfg.c **** * This file is automatically generated by PSoC Creator.
  11:Generated_Source\PSoC4/cyfitter_cfg.c **** *
  12:Generated_Source\PSoC4/cyfitter_cfg.c **** ********************************************************************************
  13:Generated_Source\PSoC4/cyfitter_cfg.c **** * Copyright (c) 2007-2018 Cypress Semiconductor.  All rights reserved.
  14:Generated_Source\PSoC4/cyfitter_cfg.c **** * You may use this file only in accordance with the license, terms, conditions, 
  15:Generated_Source\PSoC4/cyfitter_cfg.c **** * disclaimers, and limitations in the end user license agreement accompanying 
  16:Generated_Source\PSoC4/cyfitter_cfg.c **** * the software package with which this file was provided.
  17:Generated_Source\PSoC4/cyfitter_cfg.c **** ********************************************************************************/
  18:Generated_Source\PSoC4/cyfitter_cfg.c **** 
  19:Generated_Source\PSoC4/cyfitter_cfg.c **** #include <string.h>
  20:Generated_Source\PSoC4/cyfitter_cfg.c **** #include "cytypes.h"
  21:Generated_Source\PSoC4/cyfitter_cfg.c **** #include "cydevice_trm.h"
  22:Generated_Source\PSoC4/cyfitter_cfg.c **** #include "cyfitter.h"
  23:Generated_Source\PSoC4/cyfitter_cfg.c **** #include "CyLib.h"
  24:Generated_Source\PSoC4/cyfitter_cfg.c **** #include "cyfitter_cfg.h"
  25:Generated_Source\PSoC4/cyfitter_cfg.c **** 
  26:Generated_Source\PSoC4/cyfitter_cfg.c **** 
  27:Generated_Source\PSoC4/cyfitter_cfg.c **** #if defined(__GNUC__) || defined(__ARMCC_VERSION)
  28:Generated_Source\PSoC4/cyfitter_cfg.c ****     #define CYPACKED 
  29:Generated_Source\PSoC4/cyfitter_cfg.c ****     #define CYPACKED_ATTR __attribute__ ((packed))
  30:Generated_Source\PSoC4/cyfitter_cfg.c ****     #define CYALIGNED __attribute__ ((aligned))
  31:Generated_Source\PSoC4/cyfitter_cfg.c ****     #define CY_CFG_UNUSED __attribute__ ((unused))
ARM GAS  C:\Users\JANUSD~1\AppData\Local\Temp\cc8UZu5N.s 			page 2


  32:Generated_Source\PSoC4/cyfitter_cfg.c ****     #ifndef CY_CFG_SECTION
  33:Generated_Source\PSoC4/cyfitter_cfg.c ****         #define CY_CFG_SECTION __attribute__ ((section(".psocinit")))
  34:Generated_Source\PSoC4/cyfitter_cfg.c ****     #endif
  35:Generated_Source\PSoC4/cyfitter_cfg.c ****     
  36:Generated_Source\PSoC4/cyfitter_cfg.c ****     #if defined(__ARMCC_VERSION)
  37:Generated_Source\PSoC4/cyfitter_cfg.c ****         #define CY_CFG_MEMORY_BARRIER() __memory_changed()
  38:Generated_Source\PSoC4/cyfitter_cfg.c ****     #else
  39:Generated_Source\PSoC4/cyfitter_cfg.c ****         #define CY_CFG_MEMORY_BARRIER() __sync_synchronize()
  40:Generated_Source\PSoC4/cyfitter_cfg.c ****     #endif
  41:Generated_Source\PSoC4/cyfitter_cfg.c ****     
  42:Generated_Source\PSoC4/cyfitter_cfg.c **** #elif defined(__ICCARM__)
  43:Generated_Source\PSoC4/cyfitter_cfg.c ****     #include <intrinsics.h>
  44:Generated_Source\PSoC4/cyfitter_cfg.c **** 
  45:Generated_Source\PSoC4/cyfitter_cfg.c ****     #define CYPACKED __packed
  46:Generated_Source\PSoC4/cyfitter_cfg.c ****     #define CYPACKED_ATTR 
  47:Generated_Source\PSoC4/cyfitter_cfg.c ****     #define CYALIGNED _Pragma("data_alignment=4")
  48:Generated_Source\PSoC4/cyfitter_cfg.c ****     #define CY_CFG_UNUSED _Pragma("diag_suppress=Pe177")
  49:Generated_Source\PSoC4/cyfitter_cfg.c ****     #define CY_CFG_SECTION _Pragma("location=\".psocinit\"")
  50:Generated_Source\PSoC4/cyfitter_cfg.c ****     
  51:Generated_Source\PSoC4/cyfitter_cfg.c ****     #define CY_CFG_MEMORY_BARRIER() __DMB()
  52:Generated_Source\PSoC4/cyfitter_cfg.c ****     
  53:Generated_Source\PSoC4/cyfitter_cfg.c **** #else
  54:Generated_Source\PSoC4/cyfitter_cfg.c ****     #error Unsupported toolchain
  55:Generated_Source\PSoC4/cyfitter_cfg.c **** #endif
  56:Generated_Source\PSoC4/cyfitter_cfg.c **** 
  57:Generated_Source\PSoC4/cyfitter_cfg.c **** #ifndef CYCODE
  58:Generated_Source\PSoC4/cyfitter_cfg.c ****     #define CYCODE
  59:Generated_Source\PSoC4/cyfitter_cfg.c **** #endif
  60:Generated_Source\PSoC4/cyfitter_cfg.c **** #ifndef CYDATA
  61:Generated_Source\PSoC4/cyfitter_cfg.c ****     #define CYDATA
  62:Generated_Source\PSoC4/cyfitter_cfg.c **** #endif
  63:Generated_Source\PSoC4/cyfitter_cfg.c **** #ifndef CYFAR
  64:Generated_Source\PSoC4/cyfitter_cfg.c ****     #define CYFAR
  65:Generated_Source\PSoC4/cyfitter_cfg.c **** #endif
  66:Generated_Source\PSoC4/cyfitter_cfg.c **** #ifndef CYXDATA
  67:Generated_Source\PSoC4/cyfitter_cfg.c ****     #define CYXDATA
  68:Generated_Source\PSoC4/cyfitter_cfg.c **** #endif
  69:Generated_Source\PSoC4/cyfitter_cfg.c **** 
  70:Generated_Source\PSoC4/cyfitter_cfg.c **** 
  71:Generated_Source\PSoC4/cyfitter_cfg.c **** CY_CFG_UNUSED
  72:Generated_Source\PSoC4/cyfitter_cfg.c **** static void CYMEMZERO(void *s, size_t n);
  73:Generated_Source\PSoC4/cyfitter_cfg.c **** CY_CFG_UNUSED
  74:Generated_Source\PSoC4/cyfitter_cfg.c **** static void CYMEMZERO(void *s, size_t n)
  75:Generated_Source\PSoC4/cyfitter_cfg.c **** {
  27              		.loc 1 75 0
  28              		.cfi_startproc
  29              		@ args = 0, pretend = 0, frame = 8
  30              		@ frame_needed = 1, uses_anonymous_args = 0
  31 0000 80B5     		push	{r7, lr}
  32              		.cfi_def_cfa_offset 8
  33              		.cfi_offset 7, -8
  34              		.cfi_offset 14, -4
  35 0002 82B0     		sub	sp, sp, #8
  36              		.cfi_def_cfa_offset 16
  37 0004 00AF     		add	r7, sp, #0
  38              		.cfi_def_cfa_register 7
  39 0006 7860     		str	r0, [r7, #4]
ARM GAS  C:\Users\JANUSD~1\AppData\Local\Temp\cc8UZu5N.s 			page 3


  40 0008 3960     		str	r1, [r7]
  76:Generated_Source\PSoC4/cyfitter_cfg.c **** 	(void)memset(s, 0, n);
  41              		.loc 1 76 0
  42 000a 3A68     		ldr	r2, [r7]
  43 000c 7B68     		ldr	r3, [r7, #4]
  44 000e 0021     		movs	r1, #0
  45 0010 1800     		movs	r0, r3
  46 0012 FFF7FEFF 		bl	memset
  77:Generated_Source\PSoC4/cyfitter_cfg.c **** }
  47              		.loc 1 77 0
  48 0016 C046     		nop
  49 0018 BD46     		mov	sp, r7
  50 001a 02B0     		add	sp, sp, #8
  51              		@ sp needed
  52 001c 80BD     		pop	{r7, pc}
  53              		.cfi_endproc
  54              	.LFE2:
  55              		.size	CYMEMZERO, .-CYMEMZERO
  56 001e C046     		.section	.text.CYCONFIGCPY,"ax",%progbits
  57              		.align	2
  58              		.code	16
  59              		.thumb_func
  60              		.type	CYCONFIGCPY, %function
  61              	CYCONFIGCPY:
  62              	.LFB3:
  78:Generated_Source\PSoC4/cyfitter_cfg.c **** CY_CFG_UNUSED
  79:Generated_Source\PSoC4/cyfitter_cfg.c **** static void CYCONFIGCPY(void *dest, const void *src, size_t n);
  80:Generated_Source\PSoC4/cyfitter_cfg.c **** CY_CFG_UNUSED
  81:Generated_Source\PSoC4/cyfitter_cfg.c **** static void CYCONFIGCPY(void *dest, const void *src, size_t n)
  82:Generated_Source\PSoC4/cyfitter_cfg.c **** {
  63              		.loc 1 82 0
  64              		.cfi_startproc
  65              		@ args = 0, pretend = 0, frame = 16
  66              		@ frame_needed = 1, uses_anonymous_args = 0
  67 0000 80B5     		push	{r7, lr}
  68              		.cfi_def_cfa_offset 8
  69              		.cfi_offset 7, -8
  70              		.cfi_offset 14, -4
  71 0002 84B0     		sub	sp, sp, #16
  72              		.cfi_def_cfa_offset 24
  73 0004 00AF     		add	r7, sp, #0
  74              		.cfi_def_cfa_register 7
  75 0006 F860     		str	r0, [r7, #12]
  76 0008 B960     		str	r1, [r7, #8]
  77 000a 7A60     		str	r2, [r7, #4]
  83:Generated_Source\PSoC4/cyfitter_cfg.c **** 	(void)memcpy(dest, src, n);
  78              		.loc 1 83 0
  79 000c 7A68     		ldr	r2, [r7, #4]
  80 000e B968     		ldr	r1, [r7, #8]
  81 0010 FB68     		ldr	r3, [r7, #12]
  82 0012 1800     		movs	r0, r3
  83 0014 FFF7FEFF 		bl	memcpy
  84:Generated_Source\PSoC4/cyfitter_cfg.c **** }
  84              		.loc 1 84 0
  85 0018 C046     		nop
  86 001a BD46     		mov	sp, r7
  87 001c 04B0     		add	sp, sp, #16
ARM GAS  C:\Users\JANUSD~1\AppData\Local\Temp\cc8UZu5N.s 			page 4


  88              		@ sp needed
  89 001e 80BD     		pop	{r7, pc}
  90              		.cfi_endproc
  91              	.LFE3:
  92              		.size	CYCONFIGCPY, .-CYCONFIGCPY
  93              		.section	.text.CYCONFIGCPYCODE,"ax",%progbits
  94              		.align	2
  95              		.code	16
  96              		.thumb_func
  97              		.type	CYCONFIGCPYCODE, %function
  98              	CYCONFIGCPYCODE:
  99              	.LFB4:
  85:Generated_Source\PSoC4/cyfitter_cfg.c **** CY_CFG_UNUSED
  86:Generated_Source\PSoC4/cyfitter_cfg.c **** static void CYCONFIGCPYCODE(void *dest, const void *src, size_t n);
  87:Generated_Source\PSoC4/cyfitter_cfg.c **** CY_CFG_UNUSED
  88:Generated_Source\PSoC4/cyfitter_cfg.c **** static void CYCONFIGCPYCODE(void *dest, const void *src, size_t n)
  89:Generated_Source\PSoC4/cyfitter_cfg.c **** {
 100              		.loc 1 89 0
 101              		.cfi_startproc
 102              		@ args = 0, pretend = 0, frame = 16
 103              		@ frame_needed = 1, uses_anonymous_args = 0
 104 0000 80B5     		push	{r7, lr}
 105              		.cfi_def_cfa_offset 8
 106              		.cfi_offset 7, -8
 107              		.cfi_offset 14, -4
 108 0002 84B0     		sub	sp, sp, #16
 109              		.cfi_def_cfa_offset 24
 110 0004 00AF     		add	r7, sp, #0
 111              		.cfi_def_cfa_register 7
 112 0006 F860     		str	r0, [r7, #12]
 113 0008 B960     		str	r1, [r7, #8]
 114 000a 7A60     		str	r2, [r7, #4]
  90:Generated_Source\PSoC4/cyfitter_cfg.c **** 	(void)memcpy(dest, src, n);
 115              		.loc 1 90 0
 116 000c 7A68     		ldr	r2, [r7, #4]
 117 000e B968     		ldr	r1, [r7, #8]
 118 0010 FB68     		ldr	r3, [r7, #12]
 119 0012 1800     		movs	r0, r3
 120 0014 FFF7FEFF 		bl	memcpy
  91:Generated_Source\PSoC4/cyfitter_cfg.c **** }
 121              		.loc 1 91 0
 122 0018 C046     		nop
 123 001a BD46     		mov	sp, r7
 124 001c 04B0     		add	sp, sp, #16
 125              		@ sp needed
 126 001e 80BD     		pop	{r7, pc}
 127              		.cfi_endproc
 128              	.LFE4:
 129              		.size	CYCONFIGCPYCODE, .-CYCONFIGCPYCODE
 130              		.section	.text.cfg_write_bytes32,"ax",%progbits
 131              		.align	2
 132              		.code	16
 133              		.thumb_func
 134              		.type	cfg_write_bytes32, %function
 135              	cfg_write_bytes32:
 136              	.LFB5:
  92:Generated_Source\PSoC4/cyfitter_cfg.c **** 
ARM GAS  C:\Users\JANUSD~1\AppData\Local\Temp\cc8UZu5N.s 			page 5


  93:Generated_Source\PSoC4/cyfitter_cfg.c **** 
  94:Generated_Source\PSoC4/cyfitter_cfg.c **** 
  95:Generated_Source\PSoC4/cyfitter_cfg.c **** 
  96:Generated_Source\PSoC4/cyfitter_cfg.c **** /* Clock startup error codes                                                   */
  97:Generated_Source\PSoC4/cyfitter_cfg.c **** #define CYCLOCKSTART_NO_ERROR    0u
  98:Generated_Source\PSoC4/cyfitter_cfg.c **** #define CYCLOCKSTART_XTAL_ERROR  1u
  99:Generated_Source\PSoC4/cyfitter_cfg.c **** #define CYCLOCKSTART_32KHZ_ERROR 2u
 100:Generated_Source\PSoC4/cyfitter_cfg.c **** #define CYCLOCKSTART_PLL_ERROR   3u
 101:Generated_Source\PSoC4/cyfitter_cfg.c **** #define CYCLOCKSTART_FLL_ERROR   4u
 102:Generated_Source\PSoC4/cyfitter_cfg.c **** #define CYCLOCKSTART_WCO_ERROR   5u
 103:Generated_Source\PSoC4/cyfitter_cfg.c **** 
 104:Generated_Source\PSoC4/cyfitter_cfg.c **** 
 105:Generated_Source\PSoC4/cyfitter_cfg.c **** #ifdef CY_NEED_CYCLOCKSTARTUPERROR
 106:Generated_Source\PSoC4/cyfitter_cfg.c **** /*******************************************************************************
 107:Generated_Source\PSoC4/cyfitter_cfg.c **** * Function Name: CyClockStartupError
 108:Generated_Source\PSoC4/cyfitter_cfg.c **** ********************************************************************************
 109:Generated_Source\PSoC4/cyfitter_cfg.c **** * Summary:
 110:Generated_Source\PSoC4/cyfitter_cfg.c **** *  If an error is encountered during clock configuration (crystal startup error,
 111:Generated_Source\PSoC4/cyfitter_cfg.c **** *  PLL lock error, etc.), the system will end up here.  Unless reimplemented by
 112:Generated_Source\PSoC4/cyfitter_cfg.c **** *  the customer, this function will stop in an infinite loop.
 113:Generated_Source\PSoC4/cyfitter_cfg.c **** *
 114:Generated_Source\PSoC4/cyfitter_cfg.c **** * Parameters:
 115:Generated_Source\PSoC4/cyfitter_cfg.c **** *   void
 116:Generated_Source\PSoC4/cyfitter_cfg.c **** *
 117:Generated_Source\PSoC4/cyfitter_cfg.c **** * Return:
 118:Generated_Source\PSoC4/cyfitter_cfg.c **** *   void
 119:Generated_Source\PSoC4/cyfitter_cfg.c **** *
 120:Generated_Source\PSoC4/cyfitter_cfg.c **** *******************************************************************************/
 121:Generated_Source\PSoC4/cyfitter_cfg.c **** CY_CFG_UNUSED
 122:Generated_Source\PSoC4/cyfitter_cfg.c **** static void CyClockStartupError(uint8 errorCode);
 123:Generated_Source\PSoC4/cyfitter_cfg.c **** CY_CFG_UNUSED
 124:Generated_Source\PSoC4/cyfitter_cfg.c **** static void CyClockStartupError(uint8 errorCode)
 125:Generated_Source\PSoC4/cyfitter_cfg.c **** {
 126:Generated_Source\PSoC4/cyfitter_cfg.c ****     /* To remove the compiler warning if errorCode not used.                */
 127:Generated_Source\PSoC4/cyfitter_cfg.c ****     errorCode = errorCode;
 128:Generated_Source\PSoC4/cyfitter_cfg.c **** 
 129:Generated_Source\PSoC4/cyfitter_cfg.c ****     /* If we have a clock startup error (bad MHz crystal, PLL lock, etc.),  */
 130:Generated_Source\PSoC4/cyfitter_cfg.c ****     /* we will end up here to allow the customer to implement something to  */
 131:Generated_Source\PSoC4/cyfitter_cfg.c ****     /* deal with the clock condition.                                       */
 132:Generated_Source\PSoC4/cyfitter_cfg.c **** 
 133:Generated_Source\PSoC4/cyfitter_cfg.c **** #ifdef CY_CFG_CLOCK_STARTUP_ERROR_CALLBACK
 134:Generated_Source\PSoC4/cyfitter_cfg.c ****     CY_CFG_Clock_Startup_ErrorCallback();
 135:Generated_Source\PSoC4/cyfitter_cfg.c **** #else
 136:Generated_Source\PSoC4/cyfitter_cfg.c ****     /*  If not using CY_CFG_CLOCK_STARTUP_ERROR_CALLBACK, place your clock startup code here. */
 137:Generated_Source\PSoC4/cyfitter_cfg.c ****     /* `#START CyClockStartupError` */
 138:Generated_Source\PSoC4/cyfitter_cfg.c **** 
 139:Generated_Source\PSoC4/cyfitter_cfg.c **** 
 140:Generated_Source\PSoC4/cyfitter_cfg.c **** 
 141:Generated_Source\PSoC4/cyfitter_cfg.c ****     /* `#END` */
 142:Generated_Source\PSoC4/cyfitter_cfg.c **** 
 143:Generated_Source\PSoC4/cyfitter_cfg.c ****     while(1) {}
 144:Generated_Source\PSoC4/cyfitter_cfg.c **** #endif /* CY_CFG_CLOCK_STARTUP_ERROR_CALLBACK */
 145:Generated_Source\PSoC4/cyfitter_cfg.c **** }
 146:Generated_Source\PSoC4/cyfitter_cfg.c **** #endif
 147:Generated_Source\PSoC4/cyfitter_cfg.c **** 
 148:Generated_Source\PSoC4/cyfitter_cfg.c **** #define CY_CFG_BASE_ADDR_COUNT 7u
 149:Generated_Source\PSoC4/cyfitter_cfg.c **** CYPACKED typedef struct
ARM GAS  C:\Users\JANUSD~1\AppData\Local\Temp\cc8UZu5N.s 			page 6


 150:Generated_Source\PSoC4/cyfitter_cfg.c **** {
 151:Generated_Source\PSoC4/cyfitter_cfg.c **** 	uint8 offset;
 152:Generated_Source\PSoC4/cyfitter_cfg.c **** 	uint8 value;
 153:Generated_Source\PSoC4/cyfitter_cfg.c **** } CYPACKED_ATTR cy_cfg_addrvalue_t;
 154:Generated_Source\PSoC4/cyfitter_cfg.c **** 
 155:Generated_Source\PSoC4/cyfitter_cfg.c **** 
 156:Generated_Source\PSoC4/cyfitter_cfg.c **** 
 157:Generated_Source\PSoC4/cyfitter_cfg.c **** /*******************************************************************************
 158:Generated_Source\PSoC4/cyfitter_cfg.c **** * Function Name: cfg_write_bytes32
 159:Generated_Source\PSoC4/cyfitter_cfg.c **** ********************************************************************************
 160:Generated_Source\PSoC4/cyfitter_cfg.c **** * Summary:
 161:Generated_Source\PSoC4/cyfitter_cfg.c **** *  This function is used for setting up the chip configuration areas that
 162:Generated_Source\PSoC4/cyfitter_cfg.c **** *  contain relatively sparse data.
 163:Generated_Source\PSoC4/cyfitter_cfg.c **** *
 164:Generated_Source\PSoC4/cyfitter_cfg.c **** * Parameters:
 165:Generated_Source\PSoC4/cyfitter_cfg.c **** *   void
 166:Generated_Source\PSoC4/cyfitter_cfg.c **** *
 167:Generated_Source\PSoC4/cyfitter_cfg.c **** * Return:
 168:Generated_Source\PSoC4/cyfitter_cfg.c **** *   void
 169:Generated_Source\PSoC4/cyfitter_cfg.c **** *
 170:Generated_Source\PSoC4/cyfitter_cfg.c **** *******************************************************************************/
 171:Generated_Source\PSoC4/cyfitter_cfg.c **** static void cfg_write_bytes32(const uint32 addr_table[], const cy_cfg_addrvalue_t data_table[]);
 172:Generated_Source\PSoC4/cyfitter_cfg.c **** static void cfg_write_bytes32(const uint32 addr_table[], const cy_cfg_addrvalue_t data_table[])
 173:Generated_Source\PSoC4/cyfitter_cfg.c **** {
 137              		.loc 1 173 0
 138              		.cfi_startproc
 139              		@ args = 0, pretend = 0, frame = 24
 140              		@ frame_needed = 1, uses_anonymous_args = 0
 141 0000 80B5     		push	{r7, lr}
 142              		.cfi_def_cfa_offset 8
 143              		.cfi_offset 7, -8
 144              		.cfi_offset 14, -4
 145 0002 86B0     		sub	sp, sp, #24
 146              		.cfi_def_cfa_offset 32
 147 0004 00AF     		add	r7, sp, #0
 148              		.cfi_def_cfa_register 7
 149 0006 7860     		str	r0, [r7, #4]
 150 0008 3960     		str	r1, [r7]
 174:Generated_Source\PSoC4/cyfitter_cfg.c **** 	/* For 32-bit little-endian architectures */
 175:Generated_Source\PSoC4/cyfitter_cfg.c **** 	uint32 i, j = 0u;
 151              		.loc 1 175 0
 152 000a 0023     		movs	r3, #0
 153 000c 3B61     		str	r3, [r7, #16]
 176:Generated_Source\PSoC4/cyfitter_cfg.c **** 	for (i = 0u; i < CY_CFG_BASE_ADDR_COUNT; i++)
 154              		.loc 1 176 0
 155 000e 0023     		movs	r3, #0
 156 0010 7B61     		str	r3, [r7, #20]
 157 0012 2FE0     		b	.L5
 158              	.L8:
 159              	.LBB2:
 177:Generated_Source\PSoC4/cyfitter_cfg.c **** 	{
 178:Generated_Source\PSoC4/cyfitter_cfg.c **** 		uint32 baseAddr = addr_table[i];
 160              		.loc 1 178 0
 161 0014 7B69     		ldr	r3, [r7, #20]
 162 0016 9B00     		lsls	r3, r3, #2
 163 0018 7A68     		ldr	r2, [r7, #4]
 164 001a D318     		adds	r3, r2, r3
ARM GAS  C:\Users\JANUSD~1\AppData\Local\Temp\cc8UZu5N.s 			page 7


 165 001c 1B68     		ldr	r3, [r3]
 166 001e BB60     		str	r3, [r7, #8]
 179:Generated_Source\PSoC4/cyfitter_cfg.c **** 		uint8 count = (uint8)baseAddr;
 167              		.loc 1 179 0
 168 0020 0F23     		movs	r3, #15
 169 0022 FB18     		adds	r3, r7, r3
 170 0024 BA68     		ldr	r2, [r7, #8]
 171 0026 1A70     		strb	r2, [r3]
 180:Generated_Source\PSoC4/cyfitter_cfg.c **** 		baseAddr &= 0xFFFFFF00u;
 172              		.loc 1 180 0
 173 0028 BB68     		ldr	r3, [r7, #8]
 174 002a FF22     		movs	r2, #255
 175 002c 9343     		bics	r3, r2
 176 002e BB60     		str	r3, [r7, #8]
 181:Generated_Source\PSoC4/cyfitter_cfg.c **** 		while (count != 0u)
 177              		.loc 1 181 0
 178 0030 18E0     		b	.L6
 179              	.L7:
 182:Generated_Source\PSoC4/cyfitter_cfg.c **** 		{
 183:Generated_Source\PSoC4/cyfitter_cfg.c **** 			CY_SET_REG8((void *)(baseAddr + data_table[j].offset), data_table[j].value);
 180              		.loc 1 183 0
 181 0032 3B69     		ldr	r3, [r7, #16]
 182 0034 5B00     		lsls	r3, r3, #1
 183 0036 3A68     		ldr	r2, [r7]
 184 0038 D318     		adds	r3, r2, r3
 185 003a 1B78     		ldrb	r3, [r3]
 186 003c 1A00     		movs	r2, r3
 187 003e BB68     		ldr	r3, [r7, #8]
 188 0040 D318     		adds	r3, r2, r3
 189 0042 1900     		movs	r1, r3
 190 0044 3B69     		ldr	r3, [r7, #16]
 191 0046 5B00     		lsls	r3, r3, #1
 192 0048 3A68     		ldr	r2, [r7]
 193 004a D318     		adds	r3, r2, r3
 194 004c 5B78     		ldrb	r3, [r3, #1]
 195 004e 0B70     		strb	r3, [r1]
 184:Generated_Source\PSoC4/cyfitter_cfg.c **** 			j++;
 196              		.loc 1 184 0
 197 0050 3B69     		ldr	r3, [r7, #16]
 198 0052 0133     		adds	r3, r3, #1
 199 0054 3B61     		str	r3, [r7, #16]
 185:Generated_Source\PSoC4/cyfitter_cfg.c **** 			count--;
 200              		.loc 1 185 0
 201 0056 0F23     		movs	r3, #15
 202 0058 FB18     		adds	r3, r7, r3
 203 005a 1A78     		ldrb	r2, [r3]
 204 005c 0F23     		movs	r3, #15
 205 005e FB18     		adds	r3, r7, r3
 206 0060 013A     		subs	r2, r2, #1
 207 0062 1A70     		strb	r2, [r3]
 208              	.L6:
 181:Generated_Source\PSoC4/cyfitter_cfg.c **** 		{
 209              		.loc 1 181 0
 210 0064 0F23     		movs	r3, #15
 211 0066 FB18     		adds	r3, r7, r3
 212 0068 1B78     		ldrb	r3, [r3]
 213 006a 002B     		cmp	r3, #0
ARM GAS  C:\Users\JANUSD~1\AppData\Local\Temp\cc8UZu5N.s 			page 8


 214 006c E1D1     		bne	.L7
 215              	.LBE2:
 176:Generated_Source\PSoC4/cyfitter_cfg.c **** 	{
 216              		.loc 1 176 0 discriminator 2
 217 006e 7B69     		ldr	r3, [r7, #20]
 218 0070 0133     		adds	r3, r3, #1
 219 0072 7B61     		str	r3, [r7, #20]
 220              	.L5:
 176:Generated_Source\PSoC4/cyfitter_cfg.c **** 	{
 221              		.loc 1 176 0 is_stmt 0 discriminator 1
 222 0074 7B69     		ldr	r3, [r7, #20]
 223 0076 062B     		cmp	r3, #6
 224 0078 CCD9     		bls	.L8
 186:Generated_Source\PSoC4/cyfitter_cfg.c **** 		}
 187:Generated_Source\PSoC4/cyfitter_cfg.c **** 	}
 188:Generated_Source\PSoC4/cyfitter_cfg.c **** }
 225              		.loc 1 188 0 is_stmt 1
 226 007a C046     		nop
 227 007c BD46     		mov	sp, r7
 228 007e 06B0     		add	sp, sp, #24
 229              		@ sp needed
 230 0080 80BD     		pop	{r7, pc}
 231              		.cfi_endproc
 232              	.LFE5:
 233              		.size	cfg_write_bytes32, .-cfg_write_bytes32
 234 0082 C046     		.section	.psocinit,"ax",%progbits
 235              		.align	2
 236              		.code	16
 237              		.thumb_func
 238              		.type	ClockSetup, %function
 239              	ClockSetup:
 240              	.LFB6:
 189:Generated_Source\PSoC4/cyfitter_cfg.c **** 
 190:Generated_Source\PSoC4/cyfitter_cfg.c **** 
 191:Generated_Source\PSoC4/cyfitter_cfg.c **** /*******************************************************************************
 192:Generated_Source\PSoC4/cyfitter_cfg.c **** * Function Name: ClockSetup
 193:Generated_Source\PSoC4/cyfitter_cfg.c **** ********************************************************************************
 194:Generated_Source\PSoC4/cyfitter_cfg.c **** *
 195:Generated_Source\PSoC4/cyfitter_cfg.c **** * Summary:
 196:Generated_Source\PSoC4/cyfitter_cfg.c **** *   Performs the initialization of all of the clocks in the device based on the
 197:Generated_Source\PSoC4/cyfitter_cfg.c **** *   settings in the Clock tab of the DWR.  This includes enabling the requested
 198:Generated_Source\PSoC4/cyfitter_cfg.c **** *   clocks and setting the necessary dividers to produce the desired frequency. 
 199:Generated_Source\PSoC4/cyfitter_cfg.c **** *
 200:Generated_Source\PSoC4/cyfitter_cfg.c **** * Parameters:
 201:Generated_Source\PSoC4/cyfitter_cfg.c **** *   void
 202:Generated_Source\PSoC4/cyfitter_cfg.c **** *
 203:Generated_Source\PSoC4/cyfitter_cfg.c **** * Return:
 204:Generated_Source\PSoC4/cyfitter_cfg.c **** *   void
 205:Generated_Source\PSoC4/cyfitter_cfg.c **** *
 206:Generated_Source\PSoC4/cyfitter_cfg.c **** *******************************************************************************/
 207:Generated_Source\PSoC4/cyfitter_cfg.c **** static void ClockSetup(void);
 208:Generated_Source\PSoC4/cyfitter_cfg.c **** CY_CFG_SECTION
 209:Generated_Source\PSoC4/cyfitter_cfg.c **** static void ClockSetup(void)
 210:Generated_Source\PSoC4/cyfitter_cfg.c **** {
 241              		.loc 1 210 0
 242              		.cfi_startproc
 243              		@ args = 0, pretend = 0, frame = 0
ARM GAS  C:\Users\JANUSD~1\AppData\Local\Temp\cc8UZu5N.s 			page 9


 244              		@ frame_needed = 1, uses_anonymous_args = 0
 245 0000 80B5     		push	{r7, lr}
 246              		.cfi_def_cfa_offset 8
 247              		.cfi_offset 7, -8
 248              		.cfi_offset 14, -4
 249 0002 00AF     		add	r7, sp, #0
 250              		.cfi_def_cfa_register 7
 211:Generated_Source\PSoC4/cyfitter_cfg.c **** 
 212:Generated_Source\PSoC4/cyfitter_cfg.c **** 	/* Set Flash Cycles based on max possible frequency in case a glitch occurs during ClockSetup(). *
 213:Generated_Source\PSoC4/cyfitter_cfg.c **** 	CY_SET_REG32((void CYXDATA *)(CYREG_CPUSS_FLASH_CTL), (0x0012u));
 251              		.loc 1 213 0
 252 0004 394B     		ldr	r3, .L10
 253 0006 1222     		movs	r2, #18
 254 0008 1A60     		str	r2, [r3]
 214:Generated_Source\PSoC4/cyfitter_cfg.c **** 
 215:Generated_Source\PSoC4/cyfitter_cfg.c **** 	/* Start the WCO */
 216:Generated_Source\PSoC4/cyfitter_cfg.c **** 	CySysClkWcoStart();
 255              		.loc 1 216 0
 256 000a FFF7FEFF 		bl	CySysClkWcoStart
 217:Generated_Source\PSoC4/cyfitter_cfg.c **** 	CyDelayCycles(12000000u); /* WCO may take up to 500ms to start */
 257              		.loc 1 217 0
 258 000e 384B     		ldr	r3, .L10+4
 259 0010 1800     		movs	r0, r3
 260 0012 FFF7FEFF 		bl	CyDelayCycles
 218:Generated_Source\PSoC4/cyfitter_cfg.c **** 	(void)CySysClkWcoSetPowerMode(CY_SYS_CLK_WCO_LPM);    /* Switch to the low power mode */
 261              		.loc 1 218 0
 262 0016 0120     		movs	r0, #1
 263 0018 FFF7FEFF 		bl	CySysClkWcoSetPowerMode
 219:Generated_Source\PSoC4/cyfitter_cfg.c **** 
 220:Generated_Source\PSoC4/cyfitter_cfg.c **** 	/* Setup and trim IMO based on desired frequency. */
 221:Generated_Source\PSoC4/cyfitter_cfg.c **** 	CySysClkWriteImoFreq(24u);
 264              		.loc 1 221 0
 265 001c 1820     		movs	r0, #24
 266 001e FFF7FEFF 		bl	CySysClkWriteImoFreq
 222:Generated_Source\PSoC4/cyfitter_cfg.c **** 	/* CYDEV_CLK_ILO_CONFIG Starting address: CYDEV_CLK_ILO_CONFIG */
 223:Generated_Source\PSoC4/cyfitter_cfg.c **** 	CY_SET_REG32((void *)(CYREG_CLK_ILO_CONFIG), 0x80000006u);
 267              		.loc 1 223 0
 268 0022 344B     		ldr	r3, .L10+8
 269 0024 344A     		ldr	r2, .L10+12
 270 0026 1A60     		str	r2, [r3]
 224:Generated_Source\PSoC4/cyfitter_cfg.c **** 
 225:Generated_Source\PSoC4/cyfitter_cfg.c **** 	/* CYDEV_WDT_CONFIG Starting address: CYDEV_WDT_CONFIG */
 226:Generated_Source\PSoC4/cyfitter_cfg.c **** 	CY_SET_REG32((void *)(CYREG_WDT_CONFIG), 0x40000000u);
 271              		.loc 1 226 0
 272 0028 344B     		ldr	r3, .L10+16
 273 002a 8022     		movs	r2, #128
 274 002c D205     		lsls	r2, r2, #23
 275 002e 1A60     		str	r2, [r3]
 227:Generated_Source\PSoC4/cyfitter_cfg.c **** 
 228:Generated_Source\PSoC4/cyfitter_cfg.c **** 
 229:Generated_Source\PSoC4/cyfitter_cfg.c **** 	/* Enable fast start mode for XO */
 230:Generated_Source\PSoC4/cyfitter_cfg.c **** 	CY_SET_REG32((void*)CYREG_BLE_BLERD_BB_XO, CY_GET_REG32((void*)CYREG_BLE_BLERD_BB_XO) | (uint32)0x
 276              		.loc 1 230 0
 277 0030 334B     		ldr	r3, .L10+20
 278 0032 334A     		ldr	r2, .L10+20
 279 0034 1268     		ldr	r2, [r2]
 280 0036 0221     		movs	r1, #2
ARM GAS  C:\Users\JANUSD~1\AppData\Local\Temp\cc8UZu5N.s 			page 10


 281 0038 0A43     		orrs	r2, r1
 282 003a 1A60     		str	r2, [r3]
 231:Generated_Source\PSoC4/cyfitter_cfg.c **** 	CY_SET_REG32((void *)(CYREG_BLE_BLERD_BB_XO_CAPTRIM), 0x00003E2Du);
 283              		.loc 1 231 0
 284 003c 314B     		ldr	r3, .L10+24
 285 003e 324A     		ldr	r2, .L10+28
 286 0040 1A60     		str	r2, [r3]
 232:Generated_Source\PSoC4/cyfitter_cfg.c **** 	/*Set XTAL(ECO) divider*/
 233:Generated_Source\PSoC4/cyfitter_cfg.c **** 	CY_SET_REG32((void *)(CYREG_BLE_BLESS_XTAL_CLK_DIV_CONFIG), 0x00000000u);
 287              		.loc 1 233 0
 288 0042 324B     		ldr	r3, .L10+32
 289 0044 0022     		movs	r2, #0
 290 0046 1A60     		str	r2, [r3]
 234:Generated_Source\PSoC4/cyfitter_cfg.c **** 	/* Disable Crystal Stable Interrupt before enabling ECO */
 235:Generated_Source\PSoC4/cyfitter_cfg.c **** 	CY_SET_REG32((void*)CYREG_BLE_BLESS_LL_DSM_CTRL, CY_GET_REG32((void*)CYREG_BLE_BLESS_LL_DSM_CTRL) 
 291              		.loc 1 235 0
 292 0048 314B     		ldr	r3, .L10+36
 293 004a 314A     		ldr	r2, .L10+36
 294 004c 1268     		ldr	r2, [r2]
 295 004e 0821     		movs	r1, #8
 296 0050 8A43     		bics	r2, r1
 297 0052 1A60     		str	r2, [r3]
 236:Generated_Source\PSoC4/cyfitter_cfg.c **** 	/* Start the ECO and do not check status since it is not needed for HFCLK */
 237:Generated_Source\PSoC4/cyfitter_cfg.c **** 	(void)CySysClkEcoStart(2000u);
 298              		.loc 1 237 0
 299 0054 FA23     		movs	r3, #250
 300 0056 DB00     		lsls	r3, r3, #3
 301 0058 1800     		movs	r0, r3
 302 005a FFF7FEFF 		bl	CySysClkEcoStart
 238:Generated_Source\PSoC4/cyfitter_cfg.c **** 	CyDelayUs(1500u); /* Wait to stabilize */
 303              		.loc 1 238 0
 304 005e 2D4B     		ldr	r3, .L10+40
 305 0060 1800     		movs	r0, r3
 306 0062 FFF7FEFF 		bl	CyDelayUs
 239:Generated_Source\PSoC4/cyfitter_cfg.c **** 
 240:Generated_Source\PSoC4/cyfitter_cfg.c **** 	/* Setup phase aligned clocks */
 241:Generated_Source\PSoC4/cyfitter_cfg.c **** 	CY_SET_REG32((void *)CYREG_PERI_DIV_16_CTL3, 0x0000EF00u);
 307              		.loc 1 241 0
 308 0066 2C4B     		ldr	r3, .L10+44
 309 0068 EF22     		movs	r2, #239
 310 006a 1202     		lsls	r2, r2, #8
 311 006c 1A60     		str	r2, [r3]
 242:Generated_Source\PSoC4/cyfitter_cfg.c **** 	CY_SET_REG32((void *)CYREG_PERI_DIV_CMD, 0x8000FF43u);
 312              		.loc 1 242 0
 313 006e 2B4B     		ldr	r3, .L10+48
 314 0070 2B4A     		ldr	r2, .L10+52
 315 0072 1A60     		str	r2, [r3]
 243:Generated_Source\PSoC4/cyfitter_cfg.c **** 	CY_SET_REG32((void *)CYREG_PERI_DIV_16_CTL0, 0x00000100u);
 316              		.loc 1 243 0
 317 0074 2B4B     		ldr	r3, .L10+56
 318 0076 8022     		movs	r2, #128
 319 0078 5200     		lsls	r2, r2, #1
 320 007a 1A60     		str	r2, [r3]
 244:Generated_Source\PSoC4/cyfitter_cfg.c **** 	CY_SET_REG32((void *)CYREG_PERI_DIV_CMD, 0x8000FF40u);
 321              		.loc 1 244 0
 322 007c 274B     		ldr	r3, .L10+48
 323 007e 2A4A     		ldr	r2, .L10+60
ARM GAS  C:\Users\JANUSD~1\AppData\Local\Temp\cc8UZu5N.s 			page 11


 324 0080 1A60     		str	r2, [r3]
 245:Generated_Source\PSoC4/cyfitter_cfg.c **** 	CY_SET_REG32((void *)CYREG_PERI_DIV_16_CTL4, 0x005DBF00u);
 325              		.loc 1 245 0
 326 0082 2A4B     		ldr	r3, .L10+64
 327 0084 2A4A     		ldr	r2, .L10+68
 328 0086 1A60     		str	r2, [r3]
 246:Generated_Source\PSoC4/cyfitter_cfg.c **** 	CY_SET_REG32((void *)CYREG_PERI_DIV_CMD, 0x8000FF44u);
 329              		.loc 1 246 0
 330 0088 244B     		ldr	r3, .L10+48
 331 008a 2A4A     		ldr	r2, .L10+72
 332 008c 1A60     		str	r2, [r3]
 247:Generated_Source\PSoC4/cyfitter_cfg.c **** 	CY_SET_REG32((void *)CYREG_PERI_DIV_16_CTL1, 0x00000B00u);
 333              		.loc 1 247 0
 334 008e 2A4B     		ldr	r3, .L10+76
 335 0090 B022     		movs	r2, #176
 336 0092 1201     		lsls	r2, r2, #4
 337 0094 1A60     		str	r2, [r3]
 248:Generated_Source\PSoC4/cyfitter_cfg.c **** 	CY_SET_REG32((void *)CYREG_PERI_DIV_CMD, 0x8000FF41u);
 338              		.loc 1 248 0
 339 0096 214B     		ldr	r3, .L10+48
 340 0098 284A     		ldr	r2, .L10+80
 341 009a 1A60     		str	r2, [r3]
 249:Generated_Source\PSoC4/cyfitter_cfg.c **** 	CY_SET_REG32((void *)CYREG_PERI_DIV_16_CTL2, 0x00002200u);
 342              		.loc 1 249 0
 343 009c 284B     		ldr	r3, .L10+84
 344 009e 8822     		movs	r2, #136
 345 00a0 9201     		lsls	r2, r2, #6
 346 00a2 1A60     		str	r2, [r3]
 250:Generated_Source\PSoC4/cyfitter_cfg.c **** 	CY_SET_REG32((void *)CYREG_PERI_DIV_CMD, 0x8000FF42u);
 347              		.loc 1 250 0
 348 00a4 1D4B     		ldr	r3, .L10+48
 349 00a6 274A     		ldr	r2, .L10+88
 350 00a8 1A60     		str	r2, [r3]
 251:Generated_Source\PSoC4/cyfitter_cfg.c **** 
 252:Generated_Source\PSoC4/cyfitter_cfg.c **** 	/* CYDEV_CLK_IMO_CONFIG Starting address: CYDEV_CLK_IMO_CONFIG */
 253:Generated_Source\PSoC4/cyfitter_cfg.c **** 	CY_SET_REG32((void *)(CYREG_CLK_IMO_CONFIG), 0x82000000u);
 351              		.loc 1 253 0
 352 00aa 274B     		ldr	r3, .L10+92
 353 00ac 8222     		movs	r2, #130
 354 00ae 1206     		lsls	r2, r2, #24
 355 00b0 1A60     		str	r2, [r3]
 254:Generated_Source\PSoC4/cyfitter_cfg.c **** 
 255:Generated_Source\PSoC4/cyfitter_cfg.c **** 	/* CYDEV_CLK_SELECT Starting address: CYDEV_CLK_SELECT */
 256:Generated_Source\PSoC4/cyfitter_cfg.c **** 	CY_SET_REG32((void *)(CYREG_CLK_SELECT), 0x00000000u);
 356              		.loc 1 256 0
 357 00b2 264B     		ldr	r3, .L10+96
 358 00b4 0022     		movs	r2, #0
 359 00b6 1A60     		str	r2, [r3]
 257:Generated_Source\PSoC4/cyfitter_cfg.c **** 
 258:Generated_Source\PSoC4/cyfitter_cfg.c **** 	/* CYDEV_PERI_PCLK_CTL11 Starting address: CYDEV_PERI_PCLK_CTL11 */
 259:Generated_Source\PSoC4/cyfitter_cfg.c **** 	CY_SET_REG32((void *)(CYREG_PERI_PCLK_CTL11), 0x00000043u);
 360              		.loc 1 259 0
 361 00b8 254B     		ldr	r3, .L10+100
 362 00ba 4322     		movs	r2, #67
 363 00bc 1A60     		str	r2, [r3]
 260:Generated_Source\PSoC4/cyfitter_cfg.c **** 
 261:Generated_Source\PSoC4/cyfitter_cfg.c **** 	/* CYDEV_PERI_PCLK_CTL8 Starting address: CYDEV_PERI_PCLK_CTL8 */
ARM GAS  C:\Users\JANUSD~1\AppData\Local\Temp\cc8UZu5N.s 			page 12


 262:Generated_Source\PSoC4/cyfitter_cfg.c **** 	CY_SET_REG32((void *)(CYREG_PERI_PCLK_CTL8), 0x00000040u);
 364              		.loc 1 262 0
 365 00be 254B     		ldr	r3, .L10+104
 366 00c0 4022     		movs	r2, #64
 367 00c2 1A60     		str	r2, [r3]
 263:Generated_Source\PSoC4/cyfitter_cfg.c **** 
 264:Generated_Source\PSoC4/cyfitter_cfg.c **** 	/* CYDEV_PERI_PCLK_CTL7 Starting address: CYDEV_PERI_PCLK_CTL7 */
 265:Generated_Source\PSoC4/cyfitter_cfg.c **** 	CY_SET_REG32((void *)(CYREG_PERI_PCLK_CTL7), 0x00000044u);
 368              		.loc 1 265 0
 369 00c4 244B     		ldr	r3, .L10+108
 370 00c6 4422     		movs	r2, #68
 371 00c8 1A60     		str	r2, [r3]
 266:Generated_Source\PSoC4/cyfitter_cfg.c **** 
 267:Generated_Source\PSoC4/cyfitter_cfg.c **** 	/* CYDEV_PERI_PCLK_CTL6 Starting address: CYDEV_PERI_PCLK_CTL6 */
 268:Generated_Source\PSoC4/cyfitter_cfg.c **** 	CY_SET_REG32((void *)(CYREG_PERI_PCLK_CTL6), 0x00000041u);
 372              		.loc 1 268 0
 373 00ca 244B     		ldr	r3, .L10+112
 374 00cc 4122     		movs	r2, #65
 375 00ce 1A60     		str	r2, [r3]
 269:Generated_Source\PSoC4/cyfitter_cfg.c **** 
 270:Generated_Source\PSoC4/cyfitter_cfg.c **** 	/* CYDEV_PERI_PCLK_CTL1 Starting address: CYDEV_PERI_PCLK_CTL1 */
 271:Generated_Source\PSoC4/cyfitter_cfg.c **** 	CY_SET_REG32((void *)(CYREG_PERI_PCLK_CTL1), 0x00000042u);
 376              		.loc 1 271 0
 377 00d0 234B     		ldr	r3, .L10+116
 378 00d2 4222     		movs	r2, #66
 379 00d4 1A60     		str	r2, [r3]
 272:Generated_Source\PSoC4/cyfitter_cfg.c **** 
 273:Generated_Source\PSoC4/cyfitter_cfg.c **** 	CY_SET_REG32((void *)(CYREG_WDT_CONFIG), 0x40000000u);
 380              		.loc 1 273 0
 381 00d6 094B     		ldr	r3, .L10+16
 382 00d8 8022     		movs	r2, #128
 383 00da D205     		lsls	r2, r2, #23
 384 00dc 1A60     		str	r2, [r3]
 274:Generated_Source\PSoC4/cyfitter_cfg.c **** 	/* Set Flash Cycles based on newly configured 24.00MHz HFCLK. */
 275:Generated_Source\PSoC4/cyfitter_cfg.c **** 	CY_SET_REG32((void CYXDATA *)(CYREG_CPUSS_FLASH_CTL), (0x0011u));
 385              		.loc 1 275 0
 386 00de 034B     		ldr	r3, .L10
 387 00e0 1122     		movs	r2, #17
 388 00e2 1A60     		str	r2, [r3]
 276:Generated_Source\PSoC4/cyfitter_cfg.c **** }
 389              		.loc 1 276 0
 390 00e4 C046     		nop
 391 00e6 BD46     		mov	sp, r7
 392              		@ sp needed
 393 00e8 80BD     		pop	{r7, pc}
 394              	.L11:
 395 00ea C046     		.align	2
 396              	.L10:
 397 00ec 30001040 		.word	1074790448
 398 00f0 001BB700 		.word	12000000
 399 00f4 04010B40 		.word	1074462980
 400 00f8 06000080 		.word	-2147483642
 401 00fc 0C020B40 		.word	1074463244
 402 0100 78002E40 		.word	1076756600
 403 0104 7C002E40 		.word	1076756604
 404 0108 2D3E0000 		.word	15917
 405 010c 64F02E40 		.word	1076818020
ARM GAS  C:\Users\JANUSD~1\AppData\Local\Temp\cc8UZu5N.s 			page 13


 406 0110 6CF02E40 		.word	1076818028
 407 0114 DC050000 		.word	1500
 408 0118 0C030140 		.word	1073808140
 409 011c 00000140 		.word	1073807360
 410 0120 43FF0080 		.word	-2147418301
 411 0124 00030140 		.word	1073808128
 412 0128 40FF0080 		.word	-2147418304
 413 012c 10030140 		.word	1073808144
 414 0130 00BF5D00 		.word	6143744
 415 0134 44FF0080 		.word	-2147418300
 416 0138 04030140 		.word	1073808132
 417 013c 41FF0080 		.word	-2147418303
 418 0140 08030140 		.word	1073808136
 419 0144 42FF0080 		.word	-2147418302
 420 0148 08010B40 		.word	1074462984
 421 014c 00010B40 		.word	1074462976
 422 0150 2C010140 		.word	1073807660
 423 0154 20010140 		.word	1073807648
 424 0158 1C010140 		.word	1073807644
 425 015c 18010140 		.word	1073807640
 426 0160 04010140 		.word	1073807620
 427              		.cfi_endproc
 428              	.LFE6:
 429              		.size	ClockSetup, .-ClockSetup
 430              		.section	.text.AnalogSetDefault,"ax",%progbits
 431              		.align	2
 432              		.code	16
 433              		.thumb_func
 434              		.type	AnalogSetDefault, %function
 435              	AnalogSetDefault:
 436              	.LFB7:
 277:Generated_Source\PSoC4/cyfitter_cfg.c **** 
 278:Generated_Source\PSoC4/cyfitter_cfg.c **** 
 279:Generated_Source\PSoC4/cyfitter_cfg.c **** /* Analog API Functions */
 280:Generated_Source\PSoC4/cyfitter_cfg.c **** 
 281:Generated_Source\PSoC4/cyfitter_cfg.c **** 
 282:Generated_Source\PSoC4/cyfitter_cfg.c **** /*******************************************************************************
 283:Generated_Source\PSoC4/cyfitter_cfg.c **** * Function Name: AnalogSetDefault
 284:Generated_Source\PSoC4/cyfitter_cfg.c **** ********************************************************************************
 285:Generated_Source\PSoC4/cyfitter_cfg.c **** *
 286:Generated_Source\PSoC4/cyfitter_cfg.c **** * Summary:
 287:Generated_Source\PSoC4/cyfitter_cfg.c **** *  Sets up the analog portions of the chip to default values based on chip
 288:Generated_Source\PSoC4/cyfitter_cfg.c **** *  configuration options from the project.
 289:Generated_Source\PSoC4/cyfitter_cfg.c **** *
 290:Generated_Source\PSoC4/cyfitter_cfg.c **** * Parameters:
 291:Generated_Source\PSoC4/cyfitter_cfg.c **** *  void
 292:Generated_Source\PSoC4/cyfitter_cfg.c **** *
 293:Generated_Source\PSoC4/cyfitter_cfg.c **** * Return:
 294:Generated_Source\PSoC4/cyfitter_cfg.c **** *  void
 295:Generated_Source\PSoC4/cyfitter_cfg.c **** *
 296:Generated_Source\PSoC4/cyfitter_cfg.c **** *******************************************************************************/
 297:Generated_Source\PSoC4/cyfitter_cfg.c **** static void AnalogSetDefault(void);
 298:Generated_Source\PSoC4/cyfitter_cfg.c **** static void AnalogSetDefault(void)
 299:Generated_Source\PSoC4/cyfitter_cfg.c **** {
 437              		.loc 1 299 0
 438              		.cfi_startproc
 439              		@ args = 0, pretend = 0, frame = 0
ARM GAS  C:\Users\JANUSD~1\AppData\Local\Temp\cc8UZu5N.s 			page 14


 440              		@ frame_needed = 1, uses_anonymous_args = 0
 441 0000 80B5     		push	{r7, lr}
 442              		.cfi_def_cfa_offset 8
 443              		.cfi_offset 7, -8
 444              		.cfi_offset 14, -4
 445 0002 00AF     		add	r7, sp, #0
 446              		.cfi_def_cfa_register 7
 300:Generated_Source\PSoC4/cyfitter_cfg.c **** 	CY_SET_XTND_REG32((void CYFAR *)CYREG_CTBM0_DFT_CTRL, 0x00000003u);
 447              		.loc 1 300 0
 448 0004 0A4B     		ldr	r3, .L13
 449 0006 0322     		movs	r2, #3
 450 0008 1A60     		str	r2, [r3]
 301:Generated_Source\PSoC4/cyfitter_cfg.c **** 	CY_SET_XTND_REG32((void CYFAR *)CYREG_CTBM1_DFT_CTRL, 0x00000003u);
 451              		.loc 1 301 0
 452 000a 0A4B     		ldr	r3, .L13+4
 453 000c 0322     		movs	r2, #3
 454 000e 1A60     		str	r2, [r3]
 302:Generated_Source\PSoC4/cyfitter_cfg.c **** 	CY_SET_XTND_REG32((void CYFAR *)CYREG_SAR_CTRL, 0x80000000u);
 455              		.loc 1 302 0
 456 0010 094B     		ldr	r3, .L13+8
 457 0012 8022     		movs	r2, #128
 458 0014 1206     		lsls	r2, r2, #24
 459 0016 1A60     		str	r2, [r3]
 303:Generated_Source\PSoC4/cyfitter_cfg.c **** 	CY_SET_XTND_REG32((void CYFAR *)CYREG_SAR_MUX_SWITCH0, 0x00000004u);
 460              		.loc 1 303 0
 461 0018 084B     		ldr	r3, .L13+12
 462 001a 0422     		movs	r2, #4
 463 001c 1A60     		str	r2, [r3]
 304:Generated_Source\PSoC4/cyfitter_cfg.c **** 	CY_SET_XTND_REG32((void CYFAR *)CYREG_PASS_DSAB_DSAB_CTRL, 0x00000000u);
 464              		.loc 1 304 0
 465 001e 084B     		ldr	r3, .L13+16
 466 0020 0022     		movs	r2, #0
 467 0022 1A60     		str	r2, [r3]
 305:Generated_Source\PSoC4/cyfitter_cfg.c **** 	SetAnalogRoutingPumps(1);
 468              		.loc 1 305 0
 469 0024 0120     		movs	r0, #1
 470 0026 FFF7FEFF 		bl	SetAnalogRoutingPumps
 306:Generated_Source\PSoC4/cyfitter_cfg.c **** }
 471              		.loc 1 306 0
 472 002a C046     		nop
 473 002c BD46     		mov	sp, r7
 474              		@ sp needed
 475 002e 80BD     		pop	{r7, pc}
 476              	.L14:
 477              		.align	2
 478              	.L13:
 479 0030 30003040 		.word	1076887600
 480 0034 30003140 		.word	1076953136
 481 0038 00003A40 		.word	1077542912
 482 003c 00033A40 		.word	1077543680
 483 0040 000E3F40 		.word	1077874176
 484              		.cfi_endproc
 485              	.LFE7:
 486              		.size	AnalogSetDefault, .-AnalogSetDefault
 487              		.section	.text.SetAnalogRoutingPumps,"ax",%progbits
 488              		.align	2
 489              		.global	SetAnalogRoutingPumps
ARM GAS  C:\Users\JANUSD~1\AppData\Local\Temp\cc8UZu5N.s 			page 15


 490              		.code	16
 491              		.thumb_func
 492              		.type	SetAnalogRoutingPumps, %function
 493              	SetAnalogRoutingPumps:
 494              	.LFB8:
 307:Generated_Source\PSoC4/cyfitter_cfg.c **** 
 308:Generated_Source\PSoC4/cyfitter_cfg.c **** 
 309:Generated_Source\PSoC4/cyfitter_cfg.c **** /*******************************************************************************
 310:Generated_Source\PSoC4/cyfitter_cfg.c **** * Function Name: SetAnalogRoutingPumps
 311:Generated_Source\PSoC4/cyfitter_cfg.c **** ********************************************************************************
 312:Generated_Source\PSoC4/cyfitter_cfg.c **** *
 313:Generated_Source\PSoC4/cyfitter_cfg.c **** * Summary:
 314:Generated_Source\PSoC4/cyfitter_cfg.c **** * Enables or disables the analog pumps feeding analog routing switches.
 315:Generated_Source\PSoC4/cyfitter_cfg.c **** * Intended to be called at startup, based on the Vdda system configuration;
 316:Generated_Source\PSoC4/cyfitter_cfg.c **** * may be called during operation when the user informs us that the Vdda voltage crossed the pump th
 317:Generated_Source\PSoC4/cyfitter_cfg.c **** *
 318:Generated_Source\PSoC4/cyfitter_cfg.c **** * Parameters:
 319:Generated_Source\PSoC4/cyfitter_cfg.c **** *  enabled - 1 to enable the pumps, 0 to disable the pumps
 320:Generated_Source\PSoC4/cyfitter_cfg.c **** *
 321:Generated_Source\PSoC4/cyfitter_cfg.c **** * Return:
 322:Generated_Source\PSoC4/cyfitter_cfg.c **** *  void
 323:Generated_Source\PSoC4/cyfitter_cfg.c **** *
 324:Generated_Source\PSoC4/cyfitter_cfg.c **** *******************************************************************************/
 325:Generated_Source\PSoC4/cyfitter_cfg.c **** void SetAnalogRoutingPumps(uint8 enabled)
 326:Generated_Source\PSoC4/cyfitter_cfg.c **** {
 495              		.loc 1 326 0
 496              		.cfi_startproc
 497              		@ args = 0, pretend = 0, frame = 16
 498              		@ frame_needed = 1, uses_anonymous_args = 0
 499 0000 80B5     		push	{r7, lr}
 500              		.cfi_def_cfa_offset 8
 501              		.cfi_offset 7, -8
 502              		.cfi_offset 14, -4
 503 0002 84B0     		sub	sp, sp, #16
 504              		.cfi_def_cfa_offset 24
 505 0004 00AF     		add	r7, sp, #0
 506              		.cfi_def_cfa_register 7
 507 0006 0200     		movs	r2, r0
 508 0008 FB1D     		adds	r3, r7, #7
 509 000a 1A70     		strb	r2, [r3]
 327:Generated_Source\PSoC4/cyfitter_cfg.c **** 	uint32 regValue = CY_GET_XTND_REG32((void *)(CYREG_SAR_PUMP_CTRL));
 510              		.loc 1 327 0
 511 000c 0B4B     		ldr	r3, .L18
 512 000e 1B68     		ldr	r3, [r3]
 513 0010 FB60     		str	r3, [r7, #12]
 328:Generated_Source\PSoC4/cyfitter_cfg.c **** 	if (enabled != 0u)
 514              		.loc 1 328 0
 515 0012 FB1D     		adds	r3, r7, #7
 516 0014 1B78     		ldrb	r3, [r3]
 517 0016 002B     		cmp	r3, #0
 518 0018 05D0     		beq	.L16
 329:Generated_Source\PSoC4/cyfitter_cfg.c **** 	{
 330:Generated_Source\PSoC4/cyfitter_cfg.c **** 		regValue |= 0x80000000u;
 519              		.loc 1 330 0
 520 001a FB68     		ldr	r3, [r7, #12]
 521 001c 8022     		movs	r2, #128
 522 001e 1206     		lsls	r2, r2, #24
ARM GAS  C:\Users\JANUSD~1\AppData\Local\Temp\cc8UZu5N.s 			page 16


 523 0020 1343     		orrs	r3, r2
 524 0022 FB60     		str	r3, [r7, #12]
 525 0024 03E0     		b	.L17
 526              	.L16:
 331:Generated_Source\PSoC4/cyfitter_cfg.c **** 	}
 332:Generated_Source\PSoC4/cyfitter_cfg.c **** 	else
 333:Generated_Source\PSoC4/cyfitter_cfg.c **** 	{
 334:Generated_Source\PSoC4/cyfitter_cfg.c **** 		regValue &= ~0x80000000u;
 527              		.loc 1 334 0
 528 0026 FB68     		ldr	r3, [r7, #12]
 529 0028 5B00     		lsls	r3, r3, #1
 530 002a 5B08     		lsrs	r3, r3, #1
 531 002c FB60     		str	r3, [r7, #12]
 532              	.L17:
 335:Generated_Source\PSoC4/cyfitter_cfg.c **** 	}
 336:Generated_Source\PSoC4/cyfitter_cfg.c **** 	CY_SET_XTND_REG32((void *)(CYREG_SAR_PUMP_CTRL), regValue);
 533              		.loc 1 336 0
 534 002e 034B     		ldr	r3, .L18
 535 0030 FA68     		ldr	r2, [r7, #12]
 536 0032 1A60     		str	r2, [r3]
 337:Generated_Source\PSoC4/cyfitter_cfg.c **** }
 537              		.loc 1 337 0
 538 0034 C046     		nop
 539 0036 BD46     		mov	sp, r7
 540 0038 04B0     		add	sp, sp, #16
 541              		@ sp needed
 542 003a 80BD     		pop	{r7, pc}
 543              	.L19:
 544              		.align	2
 545              	.L18:
 546 003c 80033A40 		.word	1077543808
 547              		.cfi_endproc
 548              	.LFE8:
 549              		.size	SetAnalogRoutingPumps, .-SetAnalogRoutingPumps
 550              		.section	.psocinit
 551              		.align	2
 552              		.global	cyfitter_cfg
 553              		.code	16
 554              		.thumb_func
 555              		.type	cyfitter_cfg, %function
 556              	cyfitter_cfg:
 557              	.LFB9:
 338:Generated_Source\PSoC4/cyfitter_cfg.c **** 
 339:Generated_Source\PSoC4/cyfitter_cfg.c **** 
 340:Generated_Source\PSoC4/cyfitter_cfg.c **** 
 341:Generated_Source\PSoC4/cyfitter_cfg.c **** 
 342:Generated_Source\PSoC4/cyfitter_cfg.c **** /*******************************************************************************
 343:Generated_Source\PSoC4/cyfitter_cfg.c **** * Function Name: cyfitter_cfg
 344:Generated_Source\PSoC4/cyfitter_cfg.c **** ********************************************************************************
 345:Generated_Source\PSoC4/cyfitter_cfg.c **** * Summary:
 346:Generated_Source\PSoC4/cyfitter_cfg.c **** *  This function is called by the start-up code for the selected device. It
 347:Generated_Source\PSoC4/cyfitter_cfg.c **** *  performs all of the necessary device configuration based on the design
 348:Generated_Source\PSoC4/cyfitter_cfg.c **** *  settings.  This includes settings from the Design Wide Resources (DWR) such
 349:Generated_Source\PSoC4/cyfitter_cfg.c **** *  as Clocks and Pins as well as any component configuration that is necessary.
 350:Generated_Source\PSoC4/cyfitter_cfg.c **** *
 351:Generated_Source\PSoC4/cyfitter_cfg.c **** * Parameters:
 352:Generated_Source\PSoC4/cyfitter_cfg.c **** *   void
ARM GAS  C:\Users\JANUSD~1\AppData\Local\Temp\cc8UZu5N.s 			page 17


 353:Generated_Source\PSoC4/cyfitter_cfg.c **** *
 354:Generated_Source\PSoC4/cyfitter_cfg.c **** * Return:
 355:Generated_Source\PSoC4/cyfitter_cfg.c **** *   void
 356:Generated_Source\PSoC4/cyfitter_cfg.c **** *
 357:Generated_Source\PSoC4/cyfitter_cfg.c **** *******************************************************************************/
 358:Generated_Source\PSoC4/cyfitter_cfg.c **** CY_CFG_SECTION
 359:Generated_Source\PSoC4/cyfitter_cfg.c **** void cyfitter_cfg(void)
 360:Generated_Source\PSoC4/cyfitter_cfg.c **** {
 558              		.loc 1 360 0
 559              		.cfi_startproc
 560              		@ args = 0, pretend = 0, frame = 8
 561              		@ frame_needed = 1, uses_anonymous_args = 0
 562 0164 80B5     		push	{r7, lr}
 563              		.cfi_def_cfa_offset 8
 564              		.cfi_offset 7, -8
 565              		.cfi_offset 14, -4
 566 0166 82B0     		sub	sp, sp, #8
 567              		.cfi_def_cfa_offset 16
 568 0168 00AF     		add	r7, sp, #0
 569              		.cfi_def_cfa_register 7
 361:Generated_Source\PSoC4/cyfitter_cfg.c **** 	/* Disable interrupts by default. Let user enable if/when they want. */
 362:Generated_Source\PSoC4/cyfitter_cfg.c **** 	CyGlobalIntDisable;
 570              		.loc 1 362 0
 571              		.syntax divided
 572              	@ 362 "Generated_Source\PSoC4\cyfitter_cfg.c" 1
 573 016a 72B6     		CPSID   i
 574              	@ 0 "" 2
 363:Generated_Source\PSoC4/cyfitter_cfg.c **** 
 364:Generated_Source\PSoC4/cyfitter_cfg.c **** 	CY_SET_REG32((void *)(CYREG_BLE_BLESS_LL_DSM_CTRL), 0x00000000u);
 575              		.loc 1 364 0
 576              		.thumb
 577              		.syntax unified
 578 016c 504B     		ldr	r3, .L23
 579 016e 0022     		movs	r2, #0
 580 0170 1A60     		str	r2, [r3]
 365:Generated_Source\PSoC4/cyfitter_cfg.c **** 
 366:Generated_Source\PSoC4/cyfitter_cfg.c **** 	/* Enable the clock in the interrupt controller for the routed interrupts */
 367:Generated_Source\PSoC4/cyfitter_cfg.c **** 	CY_SET_REG8((void *)CYREG_UDB_UDBIF_INT_CLK_CTL, 0x01u);
 581              		.loc 1 367 0
 582 0172 504B     		ldr	r3, .L23+4
 583 0174 0122     		movs	r2, #1
 584 0176 1A70     		strb	r2, [r3]
 585              	.LBB3:
 368:Generated_Source\PSoC4/cyfitter_cfg.c **** 	{
 369:Generated_Source\PSoC4/cyfitter_cfg.c **** 		static const uint32 CYCODE cy_cfg_addr_table[] = {
 370:Generated_Source\PSoC4/cyfitter_cfg.c **** 			0x400F3241u, /* Base address: 0x400F3200 Count: 65 */
 371:Generated_Source\PSoC4/cyfitter_cfg.c **** 			0x400F3326u, /* Base address: 0x400F3300 Count: 38 */
 372:Generated_Source\PSoC4/cyfitter_cfg.c **** 			0x400F4002u, /* Base address: 0x400F4000 Count: 2 */
 373:Generated_Source\PSoC4/cyfitter_cfg.c **** 			0x400F4104u, /* Base address: 0x400F4100 Count: 4 */
 374:Generated_Source\PSoC4/cyfitter_cfg.c **** 			0x400F4204u, /* Base address: 0x400F4200 Count: 4 */
 375:Generated_Source\PSoC4/cyfitter_cfg.c **** 			0x400F430Du, /* Base address: 0x400F4300 Count: 13 */
 376:Generated_Source\PSoC4/cyfitter_cfg.c **** 			0x400F6002u, /* Base address: 0x400F6000 Count: 2 */
 377:Generated_Source\PSoC4/cyfitter_cfg.c **** 		};
 378:Generated_Source\PSoC4/cyfitter_cfg.c **** 
 379:Generated_Source\PSoC4/cyfitter_cfg.c **** 		static const cy_cfg_addrvalue_t CYCODE cy_cfg_data_table[] = {
 380:Generated_Source\PSoC4/cyfitter_cfg.c **** 			{0x08u, 0x01u},
 381:Generated_Source\PSoC4/cyfitter_cfg.c **** 			{0x0Au, 0x02u},
ARM GAS  C:\Users\JANUSD~1\AppData\Local\Temp\cc8UZu5N.s 			page 18


 382:Generated_Source\PSoC4/cyfitter_cfg.c **** 			{0x13u, 0x01u},
 383:Generated_Source\PSoC4/cyfitter_cfg.c **** 			{0x14u, 0x01u},
 384:Generated_Source\PSoC4/cyfitter_cfg.c **** 			{0x18u, 0x01u},
 385:Generated_Source\PSoC4/cyfitter_cfg.c **** 			{0x1Au, 0x02u},
 386:Generated_Source\PSoC4/cyfitter_cfg.c **** 			{0x35u, 0x01u},
 387:Generated_Source\PSoC4/cyfitter_cfg.c **** 			{0x36u, 0x03u},
 388:Generated_Source\PSoC4/cyfitter_cfg.c **** 			{0x38u, 0x88u},
 389:Generated_Source\PSoC4/cyfitter_cfg.c **** 			{0x3Eu, 0x04u},
 390:Generated_Source\PSoC4/cyfitter_cfg.c **** 			{0x40u, 0x03u},
 391:Generated_Source\PSoC4/cyfitter_cfg.c **** 			{0x45u, 0x01u},
 392:Generated_Source\PSoC4/cyfitter_cfg.c **** 			{0x48u, 0x09u},
 393:Generated_Source\PSoC4/cyfitter_cfg.c **** 			{0x49u, 0xFFu},
 394:Generated_Source\PSoC4/cyfitter_cfg.c **** 			{0x4Au, 0xFFu},
 395:Generated_Source\PSoC4/cyfitter_cfg.c **** 			{0x4Bu, 0xFFu},
 396:Generated_Source\PSoC4/cyfitter_cfg.c **** 			{0x4Cu, 0x02u},
 397:Generated_Source\PSoC4/cyfitter_cfg.c **** 			{0x4Du, 0x20u},
 398:Generated_Source\PSoC4/cyfitter_cfg.c **** 			{0x4Eu, 0xF0u},
 399:Generated_Source\PSoC4/cyfitter_cfg.c **** 			{0x52u, 0x03u},
 400:Generated_Source\PSoC4/cyfitter_cfg.c **** 			{0x58u, 0x0Eu},
 401:Generated_Source\PSoC4/cyfitter_cfg.c **** 			{0x59u, 0x04u},
 402:Generated_Source\PSoC4/cyfitter_cfg.c **** 			{0x5Au, 0x0Eu},
 403:Generated_Source\PSoC4/cyfitter_cfg.c **** 			{0x5Bu, 0x04u},
 404:Generated_Source\PSoC4/cyfitter_cfg.c **** 			{0x5Fu, 0x01u},
 405:Generated_Source\PSoC4/cyfitter_cfg.c **** 			{0x62u, 0x48u},
 406:Generated_Source\PSoC4/cyfitter_cfg.c **** 			{0x63u, 0xADu},
 407:Generated_Source\PSoC4/cyfitter_cfg.c **** 			{0x64u, 0xC0u},
 408:Generated_Source\PSoC4/cyfitter_cfg.c **** 			{0x66u, 0xC0u},
 409:Generated_Source\PSoC4/cyfitter_cfg.c **** 			{0x81u, 0x01u},
 410:Generated_Source\PSoC4/cyfitter_cfg.c **** 			{0x83u, 0x02u},
 411:Generated_Source\PSoC4/cyfitter_cfg.c **** 			{0x85u, 0x04u},
 412:Generated_Source\PSoC4/cyfitter_cfg.c **** 			{0x87u, 0x08u},
 413:Generated_Source\PSoC4/cyfitter_cfg.c **** 			{0x89u, 0x01u},
 414:Generated_Source\PSoC4/cyfitter_cfg.c **** 			{0x8Bu, 0x02u},
 415:Generated_Source\PSoC4/cyfitter_cfg.c **** 			{0x8Du, 0x01u},
 416:Generated_Source\PSoC4/cyfitter_cfg.c **** 			{0x95u, 0x04u},
 417:Generated_Source\PSoC4/cyfitter_cfg.c **** 			{0x97u, 0x08u},
 418:Generated_Source\PSoC4/cyfitter_cfg.c **** 			{0x99u, 0x04u},
 419:Generated_Source\PSoC4/cyfitter_cfg.c **** 			{0xAEu, 0x01u},
 420:Generated_Source\PSoC4/cyfitter_cfg.c **** 			{0xB0u, 0x01u},
 421:Generated_Source\PSoC4/cyfitter_cfg.c **** 			{0xB1u, 0x0Cu},
 422:Generated_Source\PSoC4/cyfitter_cfg.c **** 			{0xB7u, 0x03u},
 423:Generated_Source\PSoC4/cyfitter_cfg.c **** 			{0xB9u, 0x82u},
 424:Generated_Source\PSoC4/cyfitter_cfg.c **** 			{0xC0u, 0x03u},
 425:Generated_Source\PSoC4/cyfitter_cfg.c **** 			{0xC5u, 0x05u},
 426:Generated_Source\PSoC4/cyfitter_cfg.c **** 			{0xC6u, 0x40u},
 427:Generated_Source\PSoC4/cyfitter_cfg.c **** 			{0xC7u, 0x10u},
 428:Generated_Source\PSoC4/cyfitter_cfg.c **** 			{0xC8u, 0x2Du},
 429:Generated_Source\PSoC4/cyfitter_cfg.c **** 			{0xC9u, 0xFFu},
 430:Generated_Source\PSoC4/cyfitter_cfg.c **** 			{0xCAu, 0xFFu},
 431:Generated_Source\PSoC4/cyfitter_cfg.c **** 			{0xCBu, 0xFFu},
 432:Generated_Source\PSoC4/cyfitter_cfg.c **** 			{0xCCu, 0x02u},
 433:Generated_Source\PSoC4/cyfitter_cfg.c **** 			{0xCDu, 0x20u},
 434:Generated_Source\PSoC4/cyfitter_cfg.c **** 			{0xCEu, 0xF0u},
 435:Generated_Source\PSoC4/cyfitter_cfg.c **** 			{0xD2u, 0x07u},
 436:Generated_Source\PSoC4/cyfitter_cfg.c **** 			{0xD8u, 0x04u},
 437:Generated_Source\PSoC4/cyfitter_cfg.c **** 			{0xD9u, 0x0Cu},
 438:Generated_Source\PSoC4/cyfitter_cfg.c **** 			{0xDAu, 0x0Cu},
ARM GAS  C:\Users\JANUSD~1\AppData\Local\Temp\cc8UZu5N.s 			page 19


 439:Generated_Source\PSoC4/cyfitter_cfg.c **** 			{0xDBu, 0x04u},
 440:Generated_Source\PSoC4/cyfitter_cfg.c **** 			{0xDFu, 0x01u},
 441:Generated_Source\PSoC4/cyfitter_cfg.c **** 			{0xE2u, 0x48u},
 442:Generated_Source\PSoC4/cyfitter_cfg.c **** 			{0xE3u, 0xADu},
 443:Generated_Source\PSoC4/cyfitter_cfg.c **** 			{0xE4u, 0xC0u},
 444:Generated_Source\PSoC4/cyfitter_cfg.c **** 			{0xE6u, 0xC0u},
 445:Generated_Source\PSoC4/cyfitter_cfg.c **** 			{0x07u, 0x04u},
 446:Generated_Source\PSoC4/cyfitter_cfg.c **** 			{0x0Fu, 0x28u},
 447:Generated_Source\PSoC4/cyfitter_cfg.c **** 			{0x10u, 0x02u},
 448:Generated_Source\PSoC4/cyfitter_cfg.c **** 			{0x1Bu, 0x01u},
 449:Generated_Source\PSoC4/cyfitter_cfg.c **** 			{0x1Du, 0x08u},
 450:Generated_Source\PSoC4/cyfitter_cfg.c **** 			{0x1Fu, 0x88u},
 451:Generated_Source\PSoC4/cyfitter_cfg.c **** 			{0x20u, 0x01u},
 452:Generated_Source\PSoC4/cyfitter_cfg.c **** 			{0x21u, 0x01u},
 453:Generated_Source\PSoC4/cyfitter_cfg.c **** 			{0x26u, 0x20u},
 454:Generated_Source\PSoC4/cyfitter_cfg.c **** 			{0x30u, 0x20u},
 455:Generated_Source\PSoC4/cyfitter_cfg.c **** 			{0x31u, 0x04u},
 456:Generated_Source\PSoC4/cyfitter_cfg.c **** 			{0x37u, 0x01u},
 457:Generated_Source\PSoC4/cyfitter_cfg.c **** 			{0x38u, 0x82u},
 458:Generated_Source\PSoC4/cyfitter_cfg.c **** 			{0x39u, 0x24u},
 459:Generated_Source\PSoC4/cyfitter_cfg.c **** 			{0x43u, 0x08u},
 460:Generated_Source\PSoC4/cyfitter_cfg.c **** 			{0x45u, 0x08u},
 461:Generated_Source\PSoC4/cyfitter_cfg.c **** 			{0x49u, 0x04u},
 462:Generated_Source\PSoC4/cyfitter_cfg.c **** 			{0x4Fu, 0x08u},
 463:Generated_Source\PSoC4/cyfitter_cfg.c **** 			{0x50u, 0x61u},
 464:Generated_Source\PSoC4/cyfitter_cfg.c **** 			{0x57u, 0x10u},
 465:Generated_Source\PSoC4/cyfitter_cfg.c **** 			{0x68u, 0x02u},
 466:Generated_Source\PSoC4/cyfitter_cfg.c **** 			{0x69u, 0x24u},
 467:Generated_Source\PSoC4/cyfitter_cfg.c **** 			{0x6Fu, 0x05u},
 468:Generated_Source\PSoC4/cyfitter_cfg.c **** 			{0x7Bu, 0x01u},
 469:Generated_Source\PSoC4/cyfitter_cfg.c **** 			{0x7Eu, 0x20u},
 470:Generated_Source\PSoC4/cyfitter_cfg.c **** 			{0x85u, 0x01u},
 471:Generated_Source\PSoC4/cyfitter_cfg.c **** 			{0x87u, 0x80u},
 472:Generated_Source\PSoC4/cyfitter_cfg.c **** 			{0x8Cu, 0x01u},
 473:Generated_Source\PSoC4/cyfitter_cfg.c **** 			{0xC0u, 0x40u},
 474:Generated_Source\PSoC4/cyfitter_cfg.c **** 			{0xC2u, 0x60u},
 475:Generated_Source\PSoC4/cyfitter_cfg.c **** 			{0xC4u, 0x01u},
 476:Generated_Source\PSoC4/cyfitter_cfg.c **** 			{0xCCu, 0x86u},
 477:Generated_Source\PSoC4/cyfitter_cfg.c **** 			{0xCEu, 0x0Fu},
 478:Generated_Source\PSoC4/cyfitter_cfg.c **** 			{0xD0u, 0x42u},
 479:Generated_Source\PSoC4/cyfitter_cfg.c **** 			{0xDEu, 0x48u},
 480:Generated_Source\PSoC4/cyfitter_cfg.c **** 			{0xE2u, 0x10u},
 481:Generated_Source\PSoC4/cyfitter_cfg.c **** 			{0xE4u, 0x0Au},
 482:Generated_Source\PSoC4/cyfitter_cfg.c **** 			{0xE8u, 0x80u},
 483:Generated_Source\PSoC4/cyfitter_cfg.c **** 			{0x00u, 0x02u},
 484:Generated_Source\PSoC4/cyfitter_cfg.c **** 			{0xC0u, 0x10u},
 485:Generated_Source\PSoC4/cyfitter_cfg.c **** 			{0x6Cu, 0x04u},
 486:Generated_Source\PSoC4/cyfitter_cfg.c **** 			{0x8Cu, 0x04u},
 487:Generated_Source\PSoC4/cyfitter_cfg.c **** 			{0xB0u, 0x01u},
 488:Generated_Source\PSoC4/cyfitter_cfg.c **** 			{0xDAu, 0x80u},
 489:Generated_Source\PSoC4/cyfitter_cfg.c **** 			{0x40u, 0x20u},
 490:Generated_Source\PSoC4/cyfitter_cfg.c **** 			{0x61u, 0x02u},
 491:Generated_Source\PSoC4/cyfitter_cfg.c **** 			{0xD0u, 0x02u},
 492:Generated_Source\PSoC4/cyfitter_cfg.c **** 			{0xD8u, 0x02u},
 493:Generated_Source\PSoC4/cyfitter_cfg.c **** 			{0x05u, 0x20u},
 494:Generated_Source\PSoC4/cyfitter_cfg.c **** 			{0x63u, 0x02u},
 495:Generated_Source\PSoC4/cyfitter_cfg.c **** 			{0x67u, 0x40u},
ARM GAS  C:\Users\JANUSD~1\AppData\Local\Temp\cc8UZu5N.s 			page 20


 496:Generated_Source\PSoC4/cyfitter_cfg.c **** 			{0x87u, 0x41u},
 497:Generated_Source\PSoC4/cyfitter_cfg.c **** 			{0x8Du, 0x22u},
 498:Generated_Source\PSoC4/cyfitter_cfg.c **** 			{0xA5u, 0x02u},
 499:Generated_Source\PSoC4/cyfitter_cfg.c **** 			{0xB0u, 0x20u},
 500:Generated_Source\PSoC4/cyfitter_cfg.c **** 			{0xC0u, 0x01u},
 501:Generated_Source\PSoC4/cyfitter_cfg.c **** 			{0xD6u, 0x02u},
 502:Generated_Source\PSoC4/cyfitter_cfg.c **** 			{0xD8u, 0x01u},
 503:Generated_Source\PSoC4/cyfitter_cfg.c **** 			{0xE2u, 0x08u},
 504:Generated_Source\PSoC4/cyfitter_cfg.c **** 			{0xE4u, 0x08u},
 505:Generated_Source\PSoC4/cyfitter_cfg.c **** 			{0xE8u, 0x01u},
 506:Generated_Source\PSoC4/cyfitter_cfg.c **** 			{0x01u, 0x01u},
 507:Generated_Source\PSoC4/cyfitter_cfg.c **** 			{0x10u, 0x01u},
 508:Generated_Source\PSoC4/cyfitter_cfg.c **** 		};
 509:Generated_Source\PSoC4/cyfitter_cfg.c **** 
 510:Generated_Source\PSoC4/cyfitter_cfg.c **** 
 511:Generated_Source\PSoC4/cyfitter_cfg.c **** 
 512:Generated_Source\PSoC4/cyfitter_cfg.c **** 		CYPACKED typedef struct {
 513:Generated_Source\PSoC4/cyfitter_cfg.c **** 			void CYFAR *address;
 514:Generated_Source\PSoC4/cyfitter_cfg.c **** 			uint16 size;
 515:Generated_Source\PSoC4/cyfitter_cfg.c **** 		} CYPACKED_ATTR cfg_memset_t;
 516:Generated_Source\PSoC4/cyfitter_cfg.c **** 
 517:Generated_Source\PSoC4/cyfitter_cfg.c **** 		static const cfg_memset_t CYCODE cfg_memset_list[] = {
 518:Generated_Source\PSoC4/cyfitter_cfg.c **** 			/* address, size */
 519:Generated_Source\PSoC4/cyfitter_cfg.c **** 			{(void CYFAR *)(CYDEV_UDB_P0_U0_BASE), 1024u},
 520:Generated_Source\PSoC4/cyfitter_cfg.c **** 			{(void CYFAR *)(CYDEV_UDB_DSI0_BASE), 1024u},
 521:Generated_Source\PSoC4/cyfitter_cfg.c **** 		};
 522:Generated_Source\PSoC4/cyfitter_cfg.c **** 
 523:Generated_Source\PSoC4/cyfitter_cfg.c **** 		uint8 CYDATA i;
 524:Generated_Source\PSoC4/cyfitter_cfg.c **** 
 525:Generated_Source\PSoC4/cyfitter_cfg.c **** 		/* Zero out critical memory blocks before beginning configuration */
 526:Generated_Source\PSoC4/cyfitter_cfg.c **** 		for (i = 0u; i < (sizeof(cfg_memset_list)/sizeof(cfg_memset_list[0])); i++)
 586              		.loc 1 526 0
 587 0178 FB1D     		adds	r3, r7, #7
 588 017a 0022     		movs	r2, #0
 589 017c 1A70     		strb	r2, [r3]
 590 017e 22E0     		b	.L21
 591              	.L22:
 592              	.LBB4:
 527:Generated_Source\PSoC4/cyfitter_cfg.c **** 		{
 528:Generated_Source\PSoC4/cyfitter_cfg.c **** 			const cfg_memset_t CYCODE * CYDATA ms = &cfg_memset_list[i];
 593              		.loc 1 528 0 discriminator 3
 594 0180 FB1D     		adds	r3, r7, #7
 595 0182 1A78     		ldrb	r2, [r3]
 596 0184 1300     		movs	r3, r2
 597 0186 5B00     		lsls	r3, r3, #1
 598 0188 9B18     		adds	r3, r3, r2
 599 018a 5B00     		lsls	r3, r3, #1
 600 018c 4A4A     		ldr	r2, .L23+8
 601 018e 9B18     		adds	r3, r3, r2
 602 0190 3B60     		str	r3, [r7]
 529:Generated_Source\PSoC4/cyfitter_cfg.c **** 			CYMEMZERO(ms->address, (size_t)(uint32)(ms->size));
 603              		.loc 1 529 0 discriminator 3
 604 0192 3B68     		ldr	r3, [r7]
 605 0194 1A78     		ldrb	r2, [r3]
 606 0196 5978     		ldrb	r1, [r3, #1]
 607 0198 0902     		lsls	r1, r1, #8
 608 019a 0A43     		orrs	r2, r1
ARM GAS  C:\Users\JANUSD~1\AppData\Local\Temp\cc8UZu5N.s 			page 21


 609 019c 9978     		ldrb	r1, [r3, #2]
 610 019e 0904     		lsls	r1, r1, #16
 611 01a0 0A43     		orrs	r2, r1
 612 01a2 DB78     		ldrb	r3, [r3, #3]
 613 01a4 1B06     		lsls	r3, r3, #24
 614 01a6 1343     		orrs	r3, r2
 615 01a8 1800     		movs	r0, r3
 616 01aa 3B68     		ldr	r3, [r7]
 617 01ac 1A79     		ldrb	r2, [r3, #4]
 618 01ae 5B79     		ldrb	r3, [r3, #5]
 619 01b0 1B02     		lsls	r3, r3, #8
 620 01b2 1343     		orrs	r3, r2
 621 01b4 9BB2     		uxth	r3, r3
 622 01b6 1900     		movs	r1, r3
 623 01b8 FFF7FEFF 		bl	CYMEMZERO
 624              	.LBE4:
 526:Generated_Source\PSoC4/cyfitter_cfg.c **** 		{
 625              		.loc 1 526 0 discriminator 3
 626 01bc FB1D     		adds	r3, r7, #7
 627 01be 1A78     		ldrb	r2, [r3]
 628 01c0 FB1D     		adds	r3, r7, #7
 629 01c2 0132     		adds	r2, r2, #1
 630 01c4 1A70     		strb	r2, [r3]
 631              	.L21:
 526:Generated_Source\PSoC4/cyfitter_cfg.c **** 		{
 632              		.loc 1 526 0 is_stmt 0 discriminator 1
 633 01c6 FB1D     		adds	r3, r7, #7
 634 01c8 1B78     		ldrb	r3, [r3]
 635 01ca 012B     		cmp	r3, #1
 636 01cc D8D9     		bls	.L22
 530:Generated_Source\PSoC4/cyfitter_cfg.c **** 		}
 531:Generated_Source\PSoC4/cyfitter_cfg.c **** 
 532:Generated_Source\PSoC4/cyfitter_cfg.c **** 		cfg_write_bytes32(cy_cfg_addr_table, cy_cfg_data_table);
 637              		.loc 1 532 0 is_stmt 1
 638 01ce 3B4A     		ldr	r2, .L23+12
 639 01d0 3B4B     		ldr	r3, .L23+16
 640 01d2 1100     		movs	r1, r2
 641 01d4 1800     		movs	r0, r3
 642 01d6 FFF7FEFF 		bl	cfg_write_bytes32
 533:Generated_Source\PSoC4/cyfitter_cfg.c **** 
 534:Generated_Source\PSoC4/cyfitter_cfg.c **** 		/* HSIOM Starting address: CYDEV_HSIOM_BASE */
 535:Generated_Source\PSoC4/cyfitter_cfg.c **** 		CY_SET_REG32((void *)(CYDEV_HSIOM_BASE), 0xEE000800u);
 643              		.loc 1 535 0
 644 01da 3A4B     		ldr	r3, .L23+20
 645 01dc 3A4A     		ldr	r2, .L23+24
 646 01de 1A60     		str	r2, [r3]
 536:Generated_Source\PSoC4/cyfitter_cfg.c **** 		CY_SET_REG32((void *)(CYREG_HSIOM_PORT_SEL1), 0x00990000u);
 647              		.loc 1 536 0
 648 01e0 3A4B     		ldr	r3, .L23+28
 649 01e2 9922     		movs	r2, #153
 650 01e4 1204     		lsls	r2, r2, #16
 651 01e6 1A60     		str	r2, [r3]
 537:Generated_Source\PSoC4/cyfitter_cfg.c **** 		CY_SET_REG32((void *)(CYREG_HSIOM_PORT_SEL2), 0x03000000u);
 652              		.loc 1 537 0
 653 01e8 394B     		ldr	r3, .L23+32
 654 01ea C022     		movs	r2, #192
 655 01ec 9204     		lsls	r2, r2, #18
ARM GAS  C:\Users\JANUSD~1\AppData\Local\Temp\cc8UZu5N.s 			page 22


 656 01ee 1A60     		str	r2, [r3]
 538:Generated_Source\PSoC4/cyfitter_cfg.c **** 		CY_SET_REG32((void *)(CYREG_HSIOM_PORT_SEL3), 0x33000000u);
 657              		.loc 1 538 0
 658 01f0 384B     		ldr	r3, .L23+36
 659 01f2 CC22     		movs	r2, #204
 660 01f4 9205     		lsls	r2, r2, #22
 661 01f6 1A60     		str	r2, [r3]
 539:Generated_Source\PSoC4/cyfitter_cfg.c **** 
 540:Generated_Source\PSoC4/cyfitter_cfg.c **** 		/* UDB_PA_0 Starting address: CYDEV_UDB_PA0_BASE */
 541:Generated_Source\PSoC4/cyfitter_cfg.c **** 		CY_SET_REG32((void *)(CYDEV_UDB_PA0_BASE), 0x00990000u);
 662              		.loc 1 541 0
 663 01f8 374B     		ldr	r3, .L23+40
 664 01fa 9922     		movs	r2, #153
 665 01fc 1204     		lsls	r2, r2, #16
 666 01fe 1A60     		str	r2, [r3]
 542:Generated_Source\PSoC4/cyfitter_cfg.c **** 
 543:Generated_Source\PSoC4/cyfitter_cfg.c **** 		/* UDB_PA_1 Starting address: CYDEV_UDB_PA1_BASE */
 544:Generated_Source\PSoC4/cyfitter_cfg.c **** 		CY_SET_REG32((void *)(CYDEV_UDB_PA1_BASE), 0x00990000u);
 667              		.loc 1 544 0
 668 0200 364B     		ldr	r3, .L23+44
 669 0202 9922     		movs	r2, #153
 670 0204 1204     		lsls	r2, r2, #16
 671 0206 1A60     		str	r2, [r3]
 545:Generated_Source\PSoC4/cyfitter_cfg.c **** 
 546:Generated_Source\PSoC4/cyfitter_cfg.c **** 		/* UDB_PA_2 Starting address: CYDEV_UDB_PA2_BASE */
 547:Generated_Source\PSoC4/cyfitter_cfg.c **** 		CY_SET_REG32((void *)(CYDEV_UDB_PA2_BASE), 0x00990000u);
 672              		.loc 1 547 0
 673 0208 354B     		ldr	r3, .L23+48
 674 020a 9922     		movs	r2, #153
 675 020c 1204     		lsls	r2, r2, #16
 676 020e 1A60     		str	r2, [r3]
 548:Generated_Source\PSoC4/cyfitter_cfg.c **** 		CY_SET_REG32((void *)(CYREG_UDB_PA2_CFG8), 0x20000000u);
 677              		.loc 1 548 0
 678 0210 344B     		ldr	r3, .L23+52
 679 0212 8022     		movs	r2, #128
 680 0214 9205     		lsls	r2, r2, #22
 681 0216 1A60     		str	r2, [r3]
 549:Generated_Source\PSoC4/cyfitter_cfg.c **** 
 550:Generated_Source\PSoC4/cyfitter_cfg.c **** 		/* UDB_PA_3 Starting address: CYDEV_UDB_PA3_BASE */
 551:Generated_Source\PSoC4/cyfitter_cfg.c **** 		CY_SET_REG32((void *)(CYDEV_UDB_PA3_BASE), 0x00990000u);
 682              		.loc 1 551 0
 683 0218 334B     		ldr	r3, .L23+56
 684 021a 9922     		movs	r2, #153
 685 021c 1204     		lsls	r2, r2, #16
 686 021e 1A60     		str	r2, [r3]
 552:Generated_Source\PSoC4/cyfitter_cfg.c **** 		CY_SET_REG32((void *)(CYREG_UDB_PA3_CFG8), 0x35000000u);
 687              		.loc 1 552 0
 688 0220 324B     		ldr	r3, .L23+60
 689 0222 D422     		movs	r2, #212
 690 0224 9205     		lsls	r2, r2, #22
 691 0226 1A60     		str	r2, [r3]
 553:Generated_Source\PSoC4/cyfitter_cfg.c **** 
 554:Generated_Source\PSoC4/cyfitter_cfg.c **** 		/* TCPWM_CNT0 Starting address: CYDEV_TCPWM_CNT0_TR_CTRL0 */
 555:Generated_Source\PSoC4/cyfitter_cfg.c **** 		CY_SET_REG32((void *)(CYREG_TCPWM_CNT0_TR_CTRL0), 0x00088818u);
 692              		.loc 1 555 0
 693 0228 314B     		ldr	r3, .L23+64
 694 022a 324A     		ldr	r2, .L23+68
ARM GAS  C:\Users\JANUSD~1\AppData\Local\Temp\cc8UZu5N.s 			page 23


 695 022c 1A60     		str	r2, [r3]
 556:Generated_Source\PSoC4/cyfitter_cfg.c **** 
 557:Generated_Source\PSoC4/cyfitter_cfg.c **** 		/* INT_SELECT Starting address: CYDEV_CPUSS_INT_SEL */
 558:Generated_Source\PSoC4/cyfitter_cfg.c **** 		CY_SET_REG32((void *)(CYREG_CPUSS_INT_SEL), 0x00000002u);
 696              		.loc 1 558 0
 697 022e 324B     		ldr	r3, .L23+72
 698 0230 0222     		movs	r2, #2
 699 0232 1A60     		str	r2, [r3]
 559:Generated_Source\PSoC4/cyfitter_cfg.c **** 
 560:Generated_Source\PSoC4/cyfitter_cfg.c **** 		/* INT_CONFIG Starting address: CYDEV_UDB_INT_CFG */
 561:Generated_Source\PSoC4/cyfitter_cfg.c **** 		CY_SET_REG32((void *)(CYREG_UDB_INT_CFG), 0x00000002u);
 700              		.loc 1 561 0
 701 0234 314B     		ldr	r3, .L23+76
 702 0236 0222     		movs	r2, #2
 703 0238 1A60     		str	r2, [r3]
 562:Generated_Source\PSoC4/cyfitter_cfg.c **** 
 563:Generated_Source\PSoC4/cyfitter_cfg.c **** 		/* Enable UDB array and digital routing */
 564:Generated_Source\PSoC4/cyfitter_cfg.c **** 		CY_SET_XTND_REG8((void *)CYREG_UDB_UDBIF_WAIT_CFG, (uint8)((CY_GET_XTND_REG8((void *)CYREG_UDB_UD
 704              		.loc 1 564 0
 705 023a 314A     		ldr	r2, .L23+80
 706 023c 304B     		ldr	r3, .L23+80
 707 023e 1B78     		ldrb	r3, [r3]
 708 0240 DBB2     		uxtb	r3, r3
 709 0242 3C21     		movs	r1, #60
 710 0244 8B43     		bics	r3, r1
 711 0246 DBB2     		uxtb	r3, r3
 712 0248 1421     		movs	r1, #20
 713 024a 0B43     		orrs	r3, r1
 714 024c DBB2     		uxtb	r3, r3
 715 024e 1370     		strb	r3, [r2]
 565:Generated_Source\PSoC4/cyfitter_cfg.c **** 		CY_SET_XTND_REG8((void *)CYREG_UDB_UDBIF_BANK_CTL, (uint8)(CY_GET_XTND_REG8((void *)CYREG_UDB_UDB
 716              		.loc 1 565 0
 717 0250 2C4A     		ldr	r2, .L23+84
 718 0252 2C4B     		ldr	r3, .L23+84
 719 0254 1B78     		ldrb	r3, [r3]
 720 0256 DBB2     		uxtb	r3, r3
 721 0258 1621     		movs	r1, #22
 722 025a 0B43     		orrs	r3, r1
 723 025c DBB2     		uxtb	r3, r3
 724 025e 1370     		strb	r3, [r2]
 725              	.LBE3:
 566:Generated_Source\PSoC4/cyfitter_cfg.c **** 	}
 567:Generated_Source\PSoC4/cyfitter_cfg.c **** 
 568:Generated_Source\PSoC4/cyfitter_cfg.c **** 	/* Perform second pass device configuration. These items must be configured in specific order afte
 569:Generated_Source\PSoC4/cyfitter_cfg.c **** 	/* IOPINS0_0 Starting address: CYDEV_GPIO_PRT0_BASE */
 570:Generated_Source\PSoC4/cyfitter_cfg.c **** 	CY_SET_REG32((void *)(CYDEV_GPIO_PRT0_BASE), 0x00000005u);
 726              		.loc 1 570 0
 727 0260 294B     		ldr	r3, .L23+88
 728 0262 0522     		movs	r2, #5
 729 0264 1A60     		str	r2, [r3]
 571:Generated_Source\PSoC4/cyfitter_cfg.c **** 	CY_SET_REG32((void *)(CYREG_GPIO_PRT0_PC), 0x00D80D87u);
 730              		.loc 1 571 0
 731 0266 294B     		ldr	r3, .L23+92
 732 0268 294A     		ldr	r2, .L23+96
 733 026a 1A60     		str	r2, [r3]
 572:Generated_Source\PSoC4/cyfitter_cfg.c **** 
 573:Generated_Source\PSoC4/cyfitter_cfg.c **** 	/* IOPINS0_1 Starting address: CYDEV_GPIO_PRT1_BASE */
ARM GAS  C:\Users\JANUSD~1\AppData\Local\Temp\cc8UZu5N.s 			page 24


 574:Generated_Source\PSoC4/cyfitter_cfg.c **** 	CY_SET_REG32((void *)(CYDEV_GPIO_PRT1_BASE), 0x00000020u);
 734              		.loc 1 574 0
 735 026c 294B     		ldr	r3, .L23+100
 736 026e 2022     		movs	r2, #32
 737 0270 1A60     		str	r2, [r3]
 575:Generated_Source\PSoC4/cyfitter_cfg.c **** 	CY_SET_REG32((void *)(CYREG_GPIO_PRT1_PC), 0x00031000u);
 738              		.loc 1 575 0
 739 0272 294B     		ldr	r3, .L23+104
 740 0274 C422     		movs	r2, #196
 741 0276 9202     		lsls	r2, r2, #10
 742 0278 1A60     		str	r2, [r3]
 576:Generated_Source\PSoC4/cyfitter_cfg.c **** 	CY_SET_REG32((void *)(CYREG_GPIO_PRT1_PC2), 0x00000020u);
 743              		.loc 1 576 0
 744 027a 284B     		ldr	r3, .L23+108
 745 027c 2022     		movs	r2, #32
 746 027e 1A60     		str	r2, [r3]
 577:Generated_Source\PSoC4/cyfitter_cfg.c **** 
 578:Generated_Source\PSoC4/cyfitter_cfg.c **** 	/* IOPINS0_2 Starting address: CYDEV_GPIO_PRT2_BASE */
 579:Generated_Source\PSoC4/cyfitter_cfg.c **** 	CY_SET_REG32((void *)(CYDEV_GPIO_PRT2_BASE), 0x00000040u);
 747              		.loc 1 579 0
 748 0280 274B     		ldr	r3, .L23+112
 749 0282 4022     		movs	r2, #64
 750 0284 1A60     		str	r2, [r3]
 580:Generated_Source\PSoC4/cyfitter_cfg.c **** 	CY_SET_REG32((void *)(CYREG_GPIO_PRT2_PC), 0x00040000u);
 751              		.loc 1 580 0
 752 0286 274B     		ldr	r3, .L23+116
 753 0288 8022     		movs	r2, #128
 754 028a D202     		lsls	r2, r2, #11
 755 028c 1A60     		str	r2, [r3]
 581:Generated_Source\PSoC4/cyfitter_cfg.c **** 
 582:Generated_Source\PSoC4/cyfitter_cfg.c **** 	/* IOPINS0_3 Starting address: CYDEV_GPIO_PRT3_BASE */
 583:Generated_Source\PSoC4/cyfitter_cfg.c **** 	CY_SET_REG32((void *)(CYDEV_GPIO_PRT3_BASE), 0x000000C4u);
 756              		.loc 1 583 0
 757 028e 264B     		ldr	r3, .L23+120
 758 0290 C422     		movs	r2, #196
 759 0292 1A60     		str	r2, [r3]
 584:Generated_Source\PSoC4/cyfitter_cfg.c **** 	CY_SET_REG32((void *)(CYREG_GPIO_PRT3_PC), 0x00240200u);
 760              		.loc 1 584 0
 761 0294 254B     		ldr	r3, .L23+124
 762 0296 264A     		ldr	r2, .L23+128
 763 0298 1A60     		str	r2, [r3]
 585:Generated_Source\PSoC4/cyfitter_cfg.c **** 	CY_SET_REG32((void *)(CYREG_GPIO_PRT3_PC2), 0x00000004u);
 764              		.loc 1 585 0
 765 029a 264B     		ldr	r3, .L23+132
 766 029c 0422     		movs	r2, #4
 767 029e 1A60     		str	r2, [r3]
 586:Generated_Source\PSoC4/cyfitter_cfg.c **** 
 587:Generated_Source\PSoC4/cyfitter_cfg.c **** 
 588:Generated_Source\PSoC4/cyfitter_cfg.c **** 	/* Setup clocks based on selections from Clock DWR */
 589:Generated_Source\PSoC4/cyfitter_cfg.c **** 	ClockSetup();
 768              		.loc 1 589 0
 769 02a0 FFF7AEFE 		bl	ClockSetup
 590:Generated_Source\PSoC4/cyfitter_cfg.c **** 
 591:Generated_Source\PSoC4/cyfitter_cfg.c **** 	/* Perform basic analog initialization to defaults */
 592:Generated_Source\PSoC4/cyfitter_cfg.c **** 	AnalogSetDefault();
 770              		.loc 1 592 0
 771 02a4 FFF7FEFF 		bl	AnalogSetDefault
ARM GAS  C:\Users\JANUSD~1\AppData\Local\Temp\cc8UZu5N.s 			page 25


 593:Generated_Source\PSoC4/cyfitter_cfg.c **** 
 594:Generated_Source\PSoC4/cyfitter_cfg.c **** }
 772              		.loc 1 594 0
 773 02a8 C046     		nop
 774 02aa BD46     		mov	sp, r7
 775 02ac 02B0     		add	sp, sp, #8
 776              		@ sp needed
 777 02ae 80BD     		pop	{r7, pc}
 778              	.L24:
 779              		.align	2
 780              	.L23:
 781 02b0 6CF02E40 		.word	1076818028
 782 02b4 1C700F40 		.word	1074753564
 783 02b8 00000000 		.word	cfg_memset_list.4922
 784 02bc 28000000 		.word	cy_cfg_data_table.4917
 785 02c0 0C000000 		.word	cy_cfg_addr_table.4916
 786 02c4 00000240 		.word	1073872896
 787 02c8 000800EE 		.word	-301987840
 788 02cc 00010240 		.word	1073873152
 789 02d0 00020240 		.word	1073873408
 790 02d4 00030240 		.word	1073873664
 791 02d8 00500F40 		.word	1074745344
 792 02dc 10500F40 		.word	1074745360
 793 02e0 20500F40 		.word	1074745376
 794 02e4 28500F40 		.word	1074745384
 795 02e8 30500F40 		.word	1074745392
 796 02ec 38500F40 		.word	1074745400
 797 02f0 20012040 		.word	1075839264
 798 02f4 18880800 		.word	559128
 799 02f8 20001040 		.word	1074790432
 800 02fc 00800F40 		.word	1074757632
 801 0300 01700F40 		.word	1074753537
 802 0304 00700F40 		.word	1074753536
 803 0308 00000440 		.word	1074003968
 804 030c 08000440 		.word	1074003976
 805 0310 870DD800 		.word	14159239
 806 0314 00010440 		.word	1074004224
 807 0318 08010440 		.word	1074004232
 808 031c 18010440 		.word	1074004248
 809 0320 00020440 		.word	1074004480
 810 0324 08020440 		.word	1074004488
 811 0328 00030440 		.word	1074004736
 812 032c 08030440 		.word	1074004744
 813 0330 00022400 		.word	2359808
 814 0334 18030440 		.word	1074004760
 815              		.cfi_endproc
 816              	.LFE9:
 817              		.size	cyfitter_cfg, .-cyfitter_cfg
 818              		.section	.rodata
 819              		.align	2
 820              		.type	cfg_memset_list.4922, %object
 821              		.size	cfg_memset_list.4922, 12
 822              	cfg_memset_list.4922:
 823 0000 00300F40 		.word	1074737152
 824 0004 0004     		.short	1024
 825 0006 00400F40 		.4byte	1074741248
 826 000a 0004     		.short	1024
ARM GAS  C:\Users\JANUSD~1\AppData\Local\Temp\cc8UZu5N.s 			page 26


 827              		.align	2
 828              		.type	cy_cfg_addr_table.4916, %object
 829              		.size	cy_cfg_addr_table.4916, 28
 830              	cy_cfg_addr_table.4916:
 831 000c 41320F40 		.word	1074737729
 832 0010 26330F40 		.word	1074737958
 833 0014 02400F40 		.word	1074741250
 834 0018 04410F40 		.word	1074741508
 835 001c 04420F40 		.word	1074741764
 836 0020 0D430F40 		.word	1074742029
 837 0024 02600F40 		.word	1074749442
 838              		.align	2
 839              		.type	cy_cfg_data_table.4917, %object
 840              		.size	cy_cfg_data_table.4917, 256
 841              	cy_cfg_data_table.4917:
 842 0028 08       		.byte	8
 843 0029 01       		.byte	1
 844 002a 0A       		.byte	10
 845 002b 02       		.byte	2
 846 002c 13       		.byte	19
 847 002d 01       		.byte	1
 848 002e 14       		.byte	20
 849 002f 01       		.byte	1
 850 0030 18       		.byte	24
 851 0031 01       		.byte	1
 852 0032 1A       		.byte	26
 853 0033 02       		.byte	2
 854 0034 35       		.byte	53
 855 0035 01       		.byte	1
 856 0036 36       		.byte	54
 857 0037 03       		.byte	3
 858 0038 38       		.byte	56
 859 0039 88       		.byte	-120
 860 003a 3E       		.byte	62
 861 003b 04       		.byte	4
 862 003c 40       		.byte	64
 863 003d 03       		.byte	3
 864 003e 45       		.byte	69
 865 003f 01       		.byte	1
 866 0040 48       		.byte	72
 867 0041 09       		.byte	9
 868 0042 49       		.byte	73
 869 0043 FF       		.byte	-1
 870 0044 4A       		.byte	74
 871 0045 FF       		.byte	-1
 872 0046 4B       		.byte	75
 873 0047 FF       		.byte	-1
 874 0048 4C       		.byte	76
 875 0049 02       		.byte	2
 876 004a 4D       		.byte	77
 877 004b 20       		.byte	32
 878 004c 4E       		.byte	78
 879 004d F0       		.byte	-16
 880 004e 52       		.byte	82
 881 004f 03       		.byte	3
 882 0050 58       		.byte	88
 883 0051 0E       		.byte	14
ARM GAS  C:\Users\JANUSD~1\AppData\Local\Temp\cc8UZu5N.s 			page 27


 884 0052 59       		.byte	89
 885 0053 04       		.byte	4
 886 0054 5A       		.byte	90
 887 0055 0E       		.byte	14
 888 0056 5B       		.byte	91
 889 0057 04       		.byte	4
 890 0058 5F       		.byte	95
 891 0059 01       		.byte	1
 892 005a 62       		.byte	98
 893 005b 48       		.byte	72
 894 005c 63       		.byte	99
 895 005d AD       		.byte	-83
 896 005e 64       		.byte	100
 897 005f C0       		.byte	-64
 898 0060 66       		.byte	102
 899 0061 C0       		.byte	-64
 900 0062 81       		.byte	-127
 901 0063 01       		.byte	1
 902 0064 83       		.byte	-125
 903 0065 02       		.byte	2
 904 0066 85       		.byte	-123
 905 0067 04       		.byte	4
 906 0068 87       		.byte	-121
 907 0069 08       		.byte	8
 908 006a 89       		.byte	-119
 909 006b 01       		.byte	1
 910 006c 8B       		.byte	-117
 911 006d 02       		.byte	2
 912 006e 8D       		.byte	-115
 913 006f 01       		.byte	1
 914 0070 95       		.byte	-107
 915 0071 04       		.byte	4
 916 0072 97       		.byte	-105
 917 0073 08       		.byte	8
 918 0074 99       		.byte	-103
 919 0075 04       		.byte	4
 920 0076 AE       		.byte	-82
 921 0077 01       		.byte	1
 922 0078 B0       		.byte	-80
 923 0079 01       		.byte	1
 924 007a B1       		.byte	-79
 925 007b 0C       		.byte	12
 926 007c B7       		.byte	-73
 927 007d 03       		.byte	3
 928 007e B9       		.byte	-71
 929 007f 82       		.byte	-126
 930 0080 C0       		.byte	-64
 931 0081 03       		.byte	3
 932 0082 C5       		.byte	-59
 933 0083 05       		.byte	5
 934 0084 C6       		.byte	-58
 935 0085 40       		.byte	64
 936 0086 C7       		.byte	-57
 937 0087 10       		.byte	16
 938 0088 C8       		.byte	-56
 939 0089 2D       		.byte	45
 940 008a C9       		.byte	-55
ARM GAS  C:\Users\JANUSD~1\AppData\Local\Temp\cc8UZu5N.s 			page 28


 941 008b FF       		.byte	-1
 942 008c CA       		.byte	-54
 943 008d FF       		.byte	-1
 944 008e CB       		.byte	-53
 945 008f FF       		.byte	-1
 946 0090 CC       		.byte	-52
 947 0091 02       		.byte	2
 948 0092 CD       		.byte	-51
 949 0093 20       		.byte	32
 950 0094 CE       		.byte	-50
 951 0095 F0       		.byte	-16
 952 0096 D2       		.byte	-46
 953 0097 07       		.byte	7
 954 0098 D8       		.byte	-40
 955 0099 04       		.byte	4
 956 009a D9       		.byte	-39
 957 009b 0C       		.byte	12
 958 009c DA       		.byte	-38
 959 009d 0C       		.byte	12
 960 009e DB       		.byte	-37
 961 009f 04       		.byte	4
 962 00a0 DF       		.byte	-33
 963 00a1 01       		.byte	1
 964 00a2 E2       		.byte	-30
 965 00a3 48       		.byte	72
 966 00a4 E3       		.byte	-29
 967 00a5 AD       		.byte	-83
 968 00a6 E4       		.byte	-28
 969 00a7 C0       		.byte	-64
 970 00a8 E6       		.byte	-26
 971 00a9 C0       		.byte	-64
 972 00aa 07       		.byte	7
 973 00ab 04       		.byte	4
 974 00ac 0F       		.byte	15
 975 00ad 28       		.byte	40
 976 00ae 10       		.byte	16
 977 00af 02       		.byte	2
 978 00b0 1B       		.byte	27
 979 00b1 01       		.byte	1
 980 00b2 1D       		.byte	29
 981 00b3 08       		.byte	8
 982 00b4 1F       		.byte	31
 983 00b5 88       		.byte	-120
 984 00b6 20       		.byte	32
 985 00b7 01       		.byte	1
 986 00b8 21       		.byte	33
 987 00b9 01       		.byte	1
 988 00ba 26       		.byte	38
 989 00bb 20       		.byte	32
 990 00bc 30       		.byte	48
 991 00bd 20       		.byte	32
 992 00be 31       		.byte	49
 993 00bf 04       		.byte	4
 994 00c0 37       		.byte	55
 995 00c1 01       		.byte	1
 996 00c2 38       		.byte	56
 997 00c3 82       		.byte	-126
ARM GAS  C:\Users\JANUSD~1\AppData\Local\Temp\cc8UZu5N.s 			page 29


 998 00c4 39       		.byte	57
 999 00c5 24       		.byte	36
 1000 00c6 43       		.byte	67
 1001 00c7 08       		.byte	8
 1002 00c8 45       		.byte	69
 1003 00c9 08       		.byte	8
 1004 00ca 49       		.byte	73
 1005 00cb 04       		.byte	4
 1006 00cc 4F       		.byte	79
 1007 00cd 08       		.byte	8
 1008 00ce 50       		.byte	80
 1009 00cf 61       		.byte	97
 1010 00d0 57       		.byte	87
 1011 00d1 10       		.byte	16
 1012 00d2 68       		.byte	104
 1013 00d3 02       		.byte	2
 1014 00d4 69       		.byte	105
 1015 00d5 24       		.byte	36
 1016 00d6 6F       		.byte	111
 1017 00d7 05       		.byte	5
 1018 00d8 7B       		.byte	123
 1019 00d9 01       		.byte	1
 1020 00da 7E       		.byte	126
 1021 00db 20       		.byte	32
 1022 00dc 85       		.byte	-123
 1023 00dd 01       		.byte	1
 1024 00de 87       		.byte	-121
 1025 00df 80       		.byte	-128
 1026 00e0 8C       		.byte	-116
 1027 00e1 01       		.byte	1
 1028 00e2 C0       		.byte	-64
 1029 00e3 40       		.byte	64
 1030 00e4 C2       		.byte	-62
 1031 00e5 60       		.byte	96
 1032 00e6 C4       		.byte	-60
 1033 00e7 01       		.byte	1
 1034 00e8 CC       		.byte	-52
 1035 00e9 86       		.byte	-122
 1036 00ea CE       		.byte	-50
 1037 00eb 0F       		.byte	15
 1038 00ec D0       		.byte	-48
 1039 00ed 42       		.byte	66
 1040 00ee DE       		.byte	-34
 1041 00ef 48       		.byte	72
 1042 00f0 E2       		.byte	-30
 1043 00f1 10       		.byte	16
 1044 00f2 E4       		.byte	-28
 1045 00f3 0A       		.byte	10
 1046 00f4 E8       		.byte	-24
 1047 00f5 80       		.byte	-128
 1048 00f6 00       		.byte	0
 1049 00f7 02       		.byte	2
 1050 00f8 C0       		.byte	-64
 1051 00f9 10       		.byte	16
 1052 00fa 6C       		.byte	108
 1053 00fb 04       		.byte	4
 1054 00fc 8C       		.byte	-116
ARM GAS  C:\Users\JANUSD~1\AppData\Local\Temp\cc8UZu5N.s 			page 30


 1055 00fd 04       		.byte	4
 1056 00fe B0       		.byte	-80
 1057 00ff 01       		.byte	1
 1058 0100 DA       		.byte	-38
 1059 0101 80       		.byte	-128
 1060 0102 40       		.byte	64
 1061 0103 20       		.byte	32
 1062 0104 61       		.byte	97
 1063 0105 02       		.byte	2
 1064 0106 D0       		.byte	-48
 1065 0107 02       		.byte	2
 1066 0108 D8       		.byte	-40
 1067 0109 02       		.byte	2
 1068 010a 05       		.byte	5
 1069 010b 20       		.byte	32
 1070 010c 63       		.byte	99
 1071 010d 02       		.byte	2
 1072 010e 67       		.byte	103
 1073 010f 40       		.byte	64
 1074 0110 87       		.byte	-121
 1075 0111 41       		.byte	65
 1076 0112 8D       		.byte	-115
 1077 0113 22       		.byte	34
 1078 0114 A5       		.byte	-91
 1079 0115 02       		.byte	2
 1080 0116 B0       		.byte	-80
 1081 0117 20       		.byte	32
 1082 0118 C0       		.byte	-64
 1083 0119 01       		.byte	1
 1084 011a D6       		.byte	-42
 1085 011b 02       		.byte	2
 1086 011c D8       		.byte	-40
 1087 011d 01       		.byte	1
 1088 011e E2       		.byte	-30
 1089 011f 08       		.byte	8
 1090 0120 E4       		.byte	-28
 1091 0121 08       		.byte	8
 1092 0122 E8       		.byte	-24
 1093 0123 01       		.byte	1
 1094 0124 01       		.byte	1
 1095 0125 01       		.byte	1
 1096 0126 10       		.byte	16
 1097 0127 01       		.byte	1
 1098              		.text
 1099              	.Letext0:
 1100              		.file 2 "c:\\program files (x86)\\cypress\\psoc creator\\4.2\\psoc creator\\import\\gnu\\arm\\5.4.
 1101              		.file 3 "Generated_Source\\PSoC4\\cytypes.h"