ARM GAS  C:\Users\JANUSD~1\AppData\Local\Temp\cc1ExJn3.s 			page 1


   1              		.syntax unified
   2              		.cpu cortex-m0
   3              		.fpu softvfp
   4              		.eabi_attribute 20, 1
   5              		.eabi_attribute 21, 1
   6              		.eabi_attribute 23, 3
   7              		.eabi_attribute 24, 1
   8              		.eabi_attribute 25, 1
   9              		.eabi_attribute 26, 1
  10              		.eabi_attribute 30, 6
  11              		.eabi_attribute 34, 0
  12              		.eabi_attribute 18, 4
  13              		.thumb
  14              		.syntax unified
  15              		.file	"main.c"
  16              		.text
  17              	.Ltext0:
  18              		.cfi_sections	.debug_frame
  19              		.comm	current_watchdog_counter,2,2
  20              		.global	RGB_Collection
  21              		.data
  22              		.align	2
  23              		.type	RGB_Collection, %object
  24              		.size	RGB_Collection, 16
  25              	RGB_Collection:
  26 0000 00       		.byte	0
  27 0001 00       		.byte	0
  28 0002 FF       		.byte	-1
  29 0003 FF       		.byte	-1
  30 0004 FF       		.byte	-1
  31 0005 00       		.byte	0
  32 0006 FF       		.byte	-1
  33 0007 FF       		.byte	-1
  34 0008 00       		.byte	0
  35 0009 FF       		.byte	-1
  36 000a 00       		.byte	0
  37 000b FF       		.byte	-1
  38 000c FF       		.byte	-1
  39 000d FF       		.byte	-1
  40 000e 00       		.byte	0
  41 000f FF       		.byte	-1
  42              		.global	On_Off_collection
  43              		.align	2
  44              		.type	On_Off_collection, %object
  45              		.size	On_Off_collection, 2
  46              	On_Off_collection:
  47 0010 00       		.byte	0
  48 0011 FF       		.byte	-1
  49              		.global	interrupt_counter
  50              		.bss
  51              		.align	2
  52              		.type	interrupt_counter, %object
  53              		.size	interrupt_counter, 4
  54              	interrupt_counter:
  55 0000 00000000 		.space	4
  56              		.global	on_off_counter
  57              		.align	2
ARM GAS  C:\Users\JANUSD~1\AppData\Local\Temp\cc1ExJn3.s 			page 2


  58              		.type	on_off_counter, %object
  59              		.size	on_off_counter, 4
  60              	on_off_counter:
  61 0004 00000000 		.space	4
  62              		.comm	compare,4,4
  63              		.comm	val,2,2
  64              		.comm	prev_val,2,2
  65              		.comm	init_val,2,2
  66              		.global	clap_counter
  67              		.align	2
  68              		.type	clap_counter, %object
  69              		.size	clap_counter, 4
  70              	clap_counter:
  71 0008 00000000 		.space	4
  72              		.section	.text.main,"ax",%progbits
  73              		.align	2
  74              		.global	main
  75              		.code	16
  76              		.thumb_func
  77              		.type	main, %function
  78              	main:
  79              	.LFB36:
  80              		.file 1 "main.c"
   1:main.c        ****     /******************************************************************************
   2:main.c        **** * Project Name		: Mesh_Flood_PSoC4BLE
   3:main.c        **** * File Name			: main.c
   4:main.c        **** * Version 			: 1.0
   5:main.c        **** * Device Used		: CY8C4247LQI-BL483
   6:main.c        **** * Software Used		: PSoC Creator 3.1 SP1
   7:main.c        **** * Compiler    		: ARM GCC 4.8.4, ARM RVDS Generic, ARM MDK Generic
   8:main.c        **** * Related Hardware	: CY8CKIT-042-BLE Bluetooth Low Energy Pioneer Kit 
   9:main.c        **** * Owner             : roit@cypress.com
  10:main.c        **** *
  11:main.c        **** ********************************************************************************
  12:main.c        **** * Copyright (2014-15), Cypress Semiconductor Corporation. All Rights Reserved.
  13:main.c        **** ********************************************************************************
  14:main.c        **** * This software is owned by Cypress Semiconductor Corporation (Cypress)
  15:main.c        **** * and is protected by and subject to worldwide patent protection (United
  16:main.c        **** * States and foreign), United States copyright laws and international treaty
  17:main.c        **** * provisions. Cypress hereby grants to licensee a personal, non-exclusive,
  18:main.c        **** * non-transferable license to copy, use, modify, create derivative works of,
  19:main.c        **** * and compile the Cypress Source Code and derivative works for the sole
  20:main.c        **** * purpose of creating custom software in support of licensee product to be
  21:main.c        **** * used only in conjunction with a Cypress integrated circuit as specified in
  22:main.c        **** * the applicable agreement. Any reproduction, modification, translation,
  23:main.c        **** * compilation, or representation of this software except as specified above 
  24:main.c        **** * is prohibited without the express written permission of Cypress.
  25:main.c        **** *
  26:main.c        **** * Disclaimer: CYPRESS MAKES NO WARRANTY OF ANY KIND, EXPRESS OR IMPLIED, WITH 
  27:main.c        **** * REGARD TO THIS MATERIAL, INCLUDING, BUT NOT LIMITED TO, THE IMPLIED 
  28:main.c        **** * WARRANTIES OF MERCHANTABILITY AND FITNESS FOR A PARTICULAR PURPOSE.
  29:main.c        **** * Cypress reserves the right to make changes without further notice to the 
  30:main.c        **** * materials described herein. Cypress does not assume any liability arising out 
  31:main.c        **** * of the application or use of any product or circuit described herein. Cypress 
  32:main.c        **** * does not authorize its products for use as critical components in life-support 
  33:main.c        **** * systems where a malfunction or failure may reasonably be expected to result in 
  34:main.c        **** * significant injury to the user. The inclusion of Cypress' product in a life-
ARM GAS  C:\Users\JANUSD~1\AppData\Local\Temp\cc1ExJn3.s 			page 3


  35:main.c        **** * support systems application implies that the manufacturer assumes all risk of 
  36:main.c        **** * such use and in doing so indemnifies Cypress against all charges. 
  37:main.c        **** *
  38:main.c        **** * Use of this Software may be limited by and subject to the applicable Cypress
  39:main.c        **** * software license agreement. 
  40:main.c        **** *******************************************************************************/
  41:main.c        **** #include <main.h>
  42:main.c        **** #include <customize.h>
  43:main.c        **** #include <stdio.h>
  44:main.c        **** 
  45:main.c        **** extern uint8 switch_Role;
  46:main.c        **** extern uint8 ble_gap_state;
  47:main.c        **** extern uint8 deviceConnected;
  48:main.c        **** 
  49:main.c        **** extern uint8 restartScanning;
  50:main.c        **** 
  51:main.c        **** extern uint8 dataADVCounter;
  52:main.c        **** 
  53:main.c        **** 
  54:main.c        **** #ifdef ENABLE_ADV_DATA_COUNTER
  55:main.c        **** extern CYBLE_GAPP_DISC_DATA_T  new_advData;
  56:main.c        **** extern uint8 potential_node_found;
  57:main.c        **** extern uint8 potential_node_bdAddr[6];
  58:main.c        **** extern uint8 potential_node_bdAddrType;
  59:main.c        **** #endif
  60:main.c        **** 
  61:main.c        **** extern uint8 clientConnectToDevice;
  62:main.c        **** extern CYBLE_GAP_BD_ADDR_T				peripAddr;
  63:main.c        **** 
  64:main.c        **** CY_ISR_PROTO(CC_TC_InterruptHandler);
  65:main.c        **** void Change_brightness();
  66:main.c        **** 
  67:main.c        **** 
  68:main.c        **** uint8 RGB_Collection[4][4] = {
  69:main.c        ****     {0, 0, 0xFF, 0xFF},
  70:main.c        ****     {0xFF, 0, 0xFF, 0xFF},
  71:main.c        ****     {0, 0xFF, 0, 0xFF},
  72:main.c        ****     {0xFF, 0xFF, 0, 0xFF},
  73:main.c        **** };
  74:main.c        **** 
  75:main.c        **** uint8 On_Off_collection[2] = {0, 0xFF};
  76:main.c        **** 
  77:main.c        **** int interrupt_counter = 0;
  78:main.c        **** int on_off_counter = 0;
  79:main.c        **** 
  80:main.c        **** int compare;
  81:main.c        **** uint16 val;
  82:main.c        **** uint16 prev_val;
  83:main.c        **** uint16 init_val;
  84:main.c        **** 
  85:main.c        **** int clap_counter = 0;
  86:main.c        **** 
  87:main.c        **** /*******************************************************************************
  88:main.c        **** * Function Name: main
  89:main.c        **** ********************************************************************************
  90:main.c        **** * Summary:
  91:main.c        **** *       Entry point for the firmware, Starts the system and continuously processes
ARM GAS  C:\Users\JANUSD~1\AppData\Local\Temp\cc1ExJn3.s 			page 4


  92:main.c        **** * Application and BLE events.
  93:main.c        **** *
  94:main.c        **** * Parameters:
  95:main.c        **** *  void
  96:main.c        **** *
  97:main.c        **** * Return:
  98:main.c        **** *  int
  99:main.c        **** *
 100:main.c        **** *******************************************************************************/
 101:main.c        **** int main()
 102:main.c        **** {
  81              		.loc 1 102 0
  82              		.cfi_startproc
  83              		@ args = 0, pretend = 0, frame = 0
  84              		@ frame_needed = 1, uses_anonymous_args = 0
  85 0000 80B5     		push	{r7, lr}
  86              		.cfi_def_cfa_offset 8
  87              		.cfi_offset 7, -8
  88              		.cfi_offset 14, -4
  89 0002 00AF     		add	r7, sp, #0
  90              		.cfi_def_cfa_register 7
 103:main.c        ****     /* Initialize system */	
 104:main.c        **** 	InitializeSystem();
  91              		.loc 1 104 0
  92 0004 FFF7FEFF 		bl	InitializeSystem
  93              	.L2:
 105:main.c        **** 	
 106:main.c        **** 	#ifdef DEBUG_ENABLED
 107:main.c        **** 		UART_UartPutString("Sytem Started ");
 108:main.c        **** 		UART_UartPutCRLF(' ');
 109:main.c        **** 	#endif
 110:main.c        ****    
 111:main.c        ****     
 112:main.c        ****     
 113:main.c        ****     for(;;)
 114:main.c        ****     {
 115:main.c        **** 		/* Process BLE Events. This function generates the respective 
 116:main.c        **** 		* events to application layer */
 117:main.c        **** 		CyBle_ProcessEvents();
  94              		.loc 1 117 0 discriminator 1
  95 0008 FFF7FEFF 		bl	CyBle_ProcessEvents
 118:main.c        **** 
 119:main.c        **** 		/* If flag is set, then switch the GAP role between Peripheral and 
 120:main.c        **** 		* Central. This function disconnects existing connection, if any, 
 121:main.c        **** 		* before switching role. Depending on switched role, the system will
 122:main.c        **** 		* either start scanning or start advertisement */
 123:main.c        **** 		SwitchRole();
  96              		.loc 1 123 0 discriminator 1
  97 000c FFF7FEFF 		bl	SwitchRole
 124:main.c        **** 		
 125:main.c        **** 		/* If a valid node is found, then this function will initiate a connection 
 126:main.c        **** 		* to that node. */
 127:main.c        **** 		ConnectToPeripheralDevice();
  98              		.loc 1 127 0 discriminator 1
  99 0010 FFF7FEFF 		bl	ConnectToPeripheralDevice
 128:main.c        **** 		
 129:main.c        **** 		/* This function will restart scanning when earlier connection has been
ARM GAS  C:\Users\JANUSD~1\AppData\Local\Temp\cc1ExJn3.s 			page 5


 130:main.c        **** 		* disconnected. This function also checks internal counter and sets flag to
 131:main.c        **** 		* switch role from Central to Peripheral when the count is above set value. */
 132:main.c        **** 		RestartCentralScanning();
 100              		.loc 1 132 0 discriminator 1
 101 0014 FFF7FEFF 		bl	RestartCentralScanning
 133:main.c        ****         
 134:main.c        ****         //Change_brightness();
 135:main.c        ****     }
 102              		.loc 1 135 0 discriminator 1
 103 0018 F6E7     		b	.L2
 104              		.cfi_endproc
 105              	.LFE36:
 106              		.size	main, .-main
 107 001a C046     		.section	.rodata
 108              		.align	2
 109              	.LC1:
 110 0000 636F756E 		.ascii	"counter  = %d \012 \000"
 110      74657220 
 110      203D2025 
 110      64200A20 
 110      00
 111              		.section	.text.Timer_Int_Handler,"ax",%progbits
 112              		.align	2
 113              		.global	Timer_Int_Handler
 114              		.code	16
 115              		.thumb_func
 116              		.type	Timer_Int_Handler, %function
 117              	Timer_Int_Handler:
 118              	.LFB37:
 136:main.c        **** }
 137:main.c        **** 
 138:main.c        **** CY_ISR(Timer_Int_Handler){
 119              		.loc 1 138 0
 120              		.cfi_startproc
 121              		@ args = 0, pretend = 0, frame = 32
 122              		@ frame_needed = 1, uses_anonymous_args = 0
 123 0000 80B5     		push	{r7, lr}
 124              		.cfi_def_cfa_offset 8
 125              		.cfi_offset 7, -8
 126              		.cfi_offset 14, -4
 127 0002 88B0     		sub	sp, sp, #32
 128              		.cfi_def_cfa_offset 40
 129 0004 00AF     		add	r7, sp, #0
 130              		.cfi_def_cfa_register 7
 139:main.c        ****     clap_counter =Timer_Claps_ReadCapture();
 131              		.loc 1 139 0
 132 0006 FFF7FEFF 		bl	Timer_Claps_ReadCapture
 133 000a 0300     		movs	r3, r0
 134 000c 1A00     		movs	r2, r3
 135 000e 0A4B     		ldr	r3, .L4
 136 0010 1A60     		str	r2, [r3]
 140:main.c        ****     //if (counter > 10000){
 141:main.c        ****       //  counter = 10000;
 142:main.c        ****     //}
 143:main.c        ****     char rez[30];
 144:main.c        ****     sprintf(rez, "counter  = %d \n ", clap_counter);
 137              		.loc 1 144 0
ARM GAS  C:\Users\JANUSD~1\AppData\Local\Temp\cc1ExJn3.s 			page 6


 138 0012 094B     		ldr	r3, .L4
 139 0014 1A68     		ldr	r2, [r3]
 140 0016 0949     		ldr	r1, .L4+4
 141 0018 3B00     		movs	r3, r7
 142 001a 1800     		movs	r0, r3
 143 001c FFF7FEFF 		bl	sprintf
 145:main.c        ****     UART_UartPutString(rez);
 144              		.loc 1 145 0
 145 0020 3B00     		movs	r3, r7
 146 0022 1800     		movs	r0, r3
 147 0024 FFF7FEFF 		bl	UART_UartPutString
 146:main.c        ****     if (clap_counter > 450){
 147:main.c        ****     }
 148:main.c        ****     
 149:main.c        ****     Timer_Claps_ClearInterrupt(Timer_Claps_INTR_MASK_CC_MATCH);
 148              		.loc 1 149 0
 149 0028 0220     		movs	r0, #2
 150 002a FFF7FEFF 		bl	Timer_Claps_ClearInterrupt
 150:main.c        ****     
 151:main.c        **** }
 151              		.loc 1 151 0
 152 002e C046     		nop
 153 0030 BD46     		mov	sp, r7
 154 0032 08B0     		add	sp, sp, #32
 155              		@ sp needed
 156 0034 80BD     		pop	{r7, pc}
 157              	.L5:
 158 0036 C046     		.align	2
 159              	.L4:
 160 0038 00000000 		.word	clap_counter
 161 003c 00000000 		.word	.LC1
 162              		.cfi_endproc
 163              	.LFE37:
 164              		.size	Timer_Int_Handler, .-Timer_Int_Handler
 165              		.section	.rodata
 166 0011 000000   		.align	2
 167              	.LC9:
 168 0014 48656C6C 		.ascii	"Helloushki\012\000"
 168      6F757368 
 168      6B690A00 
 169              		.section	.text.InitializeSystem,"ax",%progbits
 170              		.align	2
 171              		.global	InitializeSystem
 172              		.code	16
 173              		.thumb_func
 174              		.type	InitializeSystem, %function
 175              	InitializeSystem:
 176              	.LFB38:
 152:main.c        **** 
 153:main.c        **** /*******************************************************************************
 154:main.c        **** * Function Name: InitializeSystem
 155:main.c        **** ********************************************************************************
 156:main.c        **** * Summary:
 157:main.c        **** *       Starts the components in the project and registers BLE event handler 
 158:main.c        **** * function. It also modifies the advertisement packet and appends data counter
 159:main.c        **** * at its end.
 160:main.c        **** *
ARM GAS  C:\Users\JANUSD~1\AppData\Local\Temp\cc1ExJn3.s 			page 7


 161:main.c        **** * Parameters:
 162:main.c        **** *  void
 163:main.c        **** *
 164:main.c        **** * Return:
 165:main.c        **** *  void
 166:main.c        **** *
 167:main.c        **** *******************************************************************************/
 168:main.c        **** void InitializeSystem(void)
 169:main.c        **** {
 177              		.loc 1 169 0
 178              		.cfi_startproc
 179              		@ args = 0, pretend = 0, frame = 8
 180              		@ frame_needed = 1, uses_anonymous_args = 0
 181 0000 80B5     		push	{r7, lr}
 182              		.cfi_def_cfa_offset 8
 183              		.cfi_offset 7, -8
 184              		.cfi_offset 14, -4
 185 0002 82B0     		sub	sp, sp, #8
 186              		.cfi_def_cfa_offset 16
 187 0004 00AF     		add	r7, sp, #0
 188              		.cfi_def_cfa_register 7
 170:main.c        ****     // ADC
 171:main.c        ****     ADC_MIC_Start();
 189              		.loc 1 171 0
 190 0006 FFF7FEFF 		bl	ADC_MIC_Start
 172:main.c        ****     ADC_MIC_StartConvert();
 191              		.loc 1 172 0
 192 000a FFF7FEFF 		bl	ADC_MIC_StartConvert
 173:main.c        ****     uint16 val = ADC_MIC_GetResult16(0);
 193              		.loc 1 173 0
 194 000e 0020     		movs	r0, #0
 195 0010 FFF7FEFF 		bl	ADC_MIC_GetResult16
 196 0014 0300     		movs	r3, r0
 197 0016 1A00     		movs	r2, r3
 198 0018 BB1D     		adds	r3, r7, #6
 199 001a 1A80     		strh	r2, [r3]
 174:main.c        ****     uint16 prev_val;
 175:main.c        ****     uint16 init_val = ADC_MIC_GetResult16(0);
 200              		.loc 1 175 0
 201 001c 0020     		movs	r0, #0
 202 001e FFF7FEFF 		bl	ADC_MIC_GetResult16
 203 0022 0300     		movs	r3, r0
 204 0024 1A00     		movs	r2, r3
 205 0026 3B1D     		adds	r3, r7, #4
 206 0028 1A80     		strh	r2, [r3]
 176:main.c        ****     
 177:main.c        ****     isr_Counter_StartEx(CC_TC_InterruptHandler);
 207              		.loc 1 177 0
 208 002a 2D4B     		ldr	r3, .L8
 209 002c 1800     		movs	r0, r3
 210 002e FFF7FEFF 		bl	isr_Counter_StartEx
 178:main.c        ****     
 179:main.c        ****     // PWM
 180:main.c        ****     //PWM_Brightness_Start();
 181:main.c        ****     //int compare;
 182:main.c        ****     
 183:main.c        ****     
ARM GAS  C:\Users\JANUSD~1\AppData\Local\Temp\cc1ExJn3.s 			page 8


 184:main.c        ****     
 185:main.c        ****     
 186:main.c        **** 	/* Enable global interrupts. */
 187:main.c        **** 	CyGlobalIntEnable;
 211              		.loc 1 187 0
 212              		.syntax divided
 213              	@ 187 "main.c" 1
 214 0032 62B6     		CPSIE   i
 215              	@ 0 "" 2
 188:main.c        **** 	
 189:main.c        ****     Timer_Claps_Start();
 216              		.loc 1 189 0
 217              		.thumb
 218              		.syntax unified
 219 0034 FFF7FEFF 		bl	Timer_Claps_Start
 190:main.c        ****     isr_timer_StartEx(Timer_Int_Handler);
 220              		.loc 1 190 0
 221 0038 2A4B     		ldr	r3, .L8+4
 222 003a 1800     		movs	r0, r3
 223 003c FFF7FEFF 		bl	isr_timer_StartEx
 191:main.c        ****     
 192:main.c        **** 	/* Start BLE component and Register the generic Event callback function */
 193:main.c        **** 	CyBle_Start(GenericEventHandler);
 224              		.loc 1 193 0
 225 0040 294B     		ldr	r3, .L8+8
 226 0042 1800     		movs	r0, r3
 227 0044 FFF7FEFF 		bl	CyBle_Start
 194:main.c        ****     
 195:main.c        ****     // Define interrupt handle for color changes
 196:main.c        ****     //PWM_1sWindow_Start();
 197:main.c        ****     //isr_Counter_StartEx(CC_TC_InterruptHandler);
 198:main.c        **** 	
 199:main.c        **** 	/* Start the PrISM component and configure drive mode of LED pins to be
 200:main.c        **** 	* initially OFF*/
 201:main.c        **** 	PrISM_1_Start();
 228              		.loc 1 201 0
 229 0048 FFF7FEFF 		bl	PrISM_1_Start
 202:main.c        **** 	PrISM_2_Start();
 230              		.loc 1 202 0
 231 004c FFF7FEFF 		bl	PrISM_2_Start
 203:main.c        **** 	
 204:main.c        **** 	PrISM_1_WritePulse0(255);
 232              		.loc 1 204 0
 233 0050 FF20     		movs	r0, #255
 234 0052 FFF7FEFF 		bl	PrISM_1_WritePulse0
 205:main.c        **** 	PrISM_1_WritePulse1(255);
 235              		.loc 1 205 0
 236 0056 FF20     		movs	r0, #255
 237 0058 FFF7FEFF 		bl	PrISM_1_WritePulse1
 206:main.c        **** 	PrISM_2_WritePulse0(255);
 238              		.loc 1 206 0
 239 005c FF20     		movs	r0, #255
 240 005e FFF7FEFF 		bl	PrISM_2_WritePulse0
 207:main.c        **** 	
 208:main.c        **** 	RED_SetDriveMode(RED_DM_STRONG);
 241              		.loc 1 208 0
 242 0062 0620     		movs	r0, #6
ARM GAS  C:\Users\JANUSD~1\AppData\Local\Temp\cc1ExJn3.s 			page 9


 243 0064 FFF7FEFF 		bl	RED_SetDriveMode
 209:main.c        **** 	GREEN_SetDriveMode(GREEN_DM_STRONG);
 244              		.loc 1 209 0
 245 0068 0620     		movs	r0, #6
 246 006a FFF7FEFF 		bl	GREEN_SetDriveMode
 210:main.c        **** 	BLUE_SetDriveMode(BLUE_DM_STRONG);
 247              		.loc 1 210 0
 248 006e 0620     		movs	r0, #6
 249 0070 FFF7FEFF 		bl	BLUE_SetDriveMode
 211:main.c        **** 	
 212:main.c        **** 	/* Configure the Watchdog (WDT) timer for 100 millisecond timing */
 213:main.c        **** 	InitializeWatchdog(WATCHDOG_COUNT_VAL);
 250              		.loc 1 213 0
 251 0074 1D4B     		ldr	r3, .L8+12
 252 0076 1800     		movs	r0, r3
 253 0078 FFF7FEFF 		bl	InitializeWatchdog
 214:main.c        **** 
 215:main.c        **** 	#ifdef ENABLE_ADV_DATA_COUNTER
 216:main.c        **** 	new_advData = *cyBle_discoveryModeInfo.advData;
 254              		.loc 1 216 0
 255 007c 1C4B     		ldr	r3, .L8+16
 256 007e 9B68     		ldr	r3, [r3, #8]
 257 0080 1C4A     		ldr	r2, .L8+20
 258 0082 1000     		movs	r0, r2
 259 0084 1900     		movs	r1, r3
 260 0086 2023     		movs	r3, #32
 261 0088 1A00     		movs	r2, r3
 262 008a FFF7FEFF 		bl	memcpy
 217:main.c        **** 	
 218:main.c        **** 	if( cyBle_discoveryModeInfo.advData->advDataLen < 29)
 263              		.loc 1 218 0
 264 008e 184B     		ldr	r3, .L8+16
 265 0090 9B68     		ldr	r3, [r3, #8]
 266 0092 DB7F     		ldrb	r3, [r3, #31]
 267 0094 1C2B     		cmp	r3, #28
 268 0096 15D8     		bhi	.L7
 219:main.c        **** 	{
 220:main.c        **** 		/* Initialize the DataCounter data in advertisement packet. This is custom data in 
 221:main.c        **** 		* ADV packet and used to track whether the RGB LED data is latest or not */
 222:main.c        **** 		new_advData.advData[cyBle_discoveryModeInfo.advData->advDataLen] = CUSTOM_ADV_DATA_MARKER;	
 269              		.loc 1 222 0
 270 0098 154B     		ldr	r3, .L8+16
 271 009a 9B68     		ldr	r3, [r3, #8]
 272 009c DB7F     		ldrb	r3, [r3, #31]
 273 009e 1A00     		movs	r2, r3
 274 00a0 144B     		ldr	r3, .L8+20
 275 00a2 0121     		movs	r1, #1
 276 00a4 9954     		strb	r1, [r3, r2]
 223:main.c        **** 		new_advData.advData[cyBle_discoveryModeInfo.advData->advDataLen+1] = dataADVCounter;
 277              		.loc 1 223 0
 278 00a6 124B     		ldr	r3, .L8+16
 279 00a8 9B68     		ldr	r3, [r3, #8]
 280 00aa DB7F     		ldrb	r3, [r3, #31]
 281 00ac 0133     		adds	r3, r3, #1
 282 00ae 124A     		ldr	r2, .L8+24
 283 00b0 1178     		ldrb	r1, [r2]
 284 00b2 104A     		ldr	r2, .L8+20
ARM GAS  C:\Users\JANUSD~1\AppData\Local\Temp\cc1ExJn3.s 			page 10


 285 00b4 D154     		strb	r1, [r2, r3]
 224:main.c        **** 		new_advData.advDataLen = cyBle_discoveryModeInfo.advData->advDataLen+2;
 286              		.loc 1 224 0
 287 00b6 0E4B     		ldr	r3, .L8+16
 288 00b8 9B68     		ldr	r3, [r3, #8]
 289 00ba DB7F     		ldrb	r3, [r3, #31]
 290 00bc 0233     		adds	r3, r3, #2
 291 00be DAB2     		uxtb	r2, r3
 292 00c0 0C4B     		ldr	r3, .L8+20
 293 00c2 DA77     		strb	r2, [r3, #31]
 294              	.L7:
 225:main.c        **** 	}
 226:main.c        **** 	
 227:main.c        **** 	/* Assign the new ADV data to stack */
 228:main.c        **** 	cyBle_discoveryModeInfo.advData = &new_advData;
 295              		.loc 1 228 0
 296 00c4 0A4B     		ldr	r3, .L8+16
 297 00c6 0B4A     		ldr	r2, .L8+20
 298 00c8 9A60     		str	r2, [r3, #8]
 229:main.c        **** 	#endif
 230:main.c        **** 	
 231:main.c        ****     //Timet_new
 232:main.c        **** 	/* Provide a color pusle on RGB LED to indicate startup */
 233:main.c        **** 	//PrISM_1_WritePulse1(128);
 234:main.c        **** 	//CyDelay(20);
 235:main.c        **** 	//PrISM_1_WritePulse1(255);
 236:main.c        **** 	
 237:main.c        ****     UART_Start();
 299              		.loc 1 237 0
 300 00ca FFF7FEFF 		bl	UART_Start
 238:main.c        ****     UART_UartPutString("Helloushki\n");
 301              		.loc 1 238 0
 302 00ce 0B4B     		ldr	r3, .L8+28
 303 00d0 1800     		movs	r0, r3
 304 00d2 FFF7FEFF 		bl	UART_UartPutString
 239:main.c        ****     
 240:main.c        **** 	#ifdef DEBUG_ENABLED
 241:main.c        **** 		
 242:main.c        **** 		UART_UartPutString("--------------------------Mesh Flood-----------------------------------------
 243:main.c        **** 		UART_UartPutCRLF(' ');
 244:main.c        **** 	#endif
 245:main.c        **** }
 305              		.loc 1 245 0
 306 00d6 C046     		nop
 307 00d8 BD46     		mov	sp, r7
 308 00da 02B0     		add	sp, sp, #8
 309              		@ sp needed
 310 00dc 80BD     		pop	{r7, pc}
 311              	.L9:
 312 00de C046     		.align	2
 313              	.L8:
 314 00e0 00000000 		.word	CC_TC_InterruptHandler
 315 00e4 00000000 		.word	Timer_Int_Handler
 316 00e8 00000000 		.word	GenericEventHandler
 317 00ec CC0C0000 		.word	3276
 318 00f0 00000000 		.word	cyBle_discoveryModeInfo
 319 00f4 00000000 		.word	new_advData
ARM GAS  C:\Users\JANUSD~1\AppData\Local\Temp\cc1ExJn3.s 			page 11


 320 00f8 00000000 		.word	dataADVCounter
 321 00fc 14000000 		.word	.LC9
 322              		.cfi_endproc
 323              	.LFE38:
 324              		.size	InitializeSystem, .-InitializeSystem
 325              		.section	.rodata
 326              		.align	2
 327              	.LC17:
 328 0020 616E616C 		.ascii	"analog = %d led = %d \012 \000"
 328      6F67203D 
 328      20256420 
 328      6C656420 
 328      3D202564 
 329              		.section	.text.Change_brightness,"ax",%progbits
 330              		.align	2
 331              		.global	Change_brightness
 332              		.code	16
 333              		.thumb_func
 334              		.type	Change_brightness, %function
 335              	Change_brightness:
 336              	.LFB39:
 246:main.c        **** 
 247:main.c        **** void Change_brightness(){
 337              		.loc 1 247 0
 338              		.cfi_startproc
 339              		@ args = 0, pretend = 0, frame = 32
 340              		@ frame_needed = 1, uses_anonymous_args = 0
 341 0000 80B5     		push	{r7, lr}
 342              		.cfi_def_cfa_offset 8
 343              		.cfi_offset 7, -8
 344              		.cfi_offset 14, -4
 345 0002 88B0     		sub	sp, sp, #32
 346              		.cfi_def_cfa_offset 40
 347 0004 00AF     		add	r7, sp, #0
 348              		.cfi_def_cfa_register 7
 248:main.c        ****     prev_val = val;
 349              		.loc 1 248 0
 350 0006 234B     		ldr	r3, .L12
 351 0008 1A88     		ldrh	r2, [r3]
 352 000a 234B     		ldr	r3, .L12+4
 353 000c 1A80     		strh	r2, [r3]
 249:main.c        ****     val = ADC_MIC_GetResult16(0); // analog value from microphone
 354              		.loc 1 249 0
 355 000e 0020     		movs	r0, #0
 356 0010 FFF7FEFF 		bl	ADC_MIC_GetResult16
 357 0014 0300     		movs	r3, r0
 358 0016 9AB2     		uxth	r2, r3
 359 0018 1E4B     		ldr	r3, .L12
 360 001a 1A80     		strh	r2, [r3]
 250:main.c        ****     if (init_val == 0){
 361              		.loc 1 250 0
 362 001c 1F4B     		ldr	r3, .L12+8
 363 001e 1B88     		ldrh	r3, [r3]
 364 0020 002B     		cmp	r3, #0
 365 0022 06D1     		bne	.L11
 251:main.c        ****     init_val = ADC_MIC_GetResult16(0);}
 366              		.loc 1 251 0
ARM GAS  C:\Users\JANUSD~1\AppData\Local\Temp\cc1ExJn3.s 			page 12


 367 0024 0020     		movs	r0, #0
 368 0026 FFF7FEFF 		bl	ADC_MIC_GetResult16
 369 002a 0300     		movs	r3, r0
 370 002c 9AB2     		uxth	r2, r3
 371 002e 1B4B     		ldr	r3, .L12+8
 372 0030 1A80     		strh	r2, [r3]
 373              	.L11:
 252:main.c        ****     compare = get_compare_from_analog(val, init_val, prev_val);
 374              		.loc 1 252 0
 375 0032 184B     		ldr	r3, .L12
 376 0034 1888     		ldrh	r0, [r3]
 377 0036 194B     		ldr	r3, .L12+8
 378 0038 1988     		ldrh	r1, [r3]
 379 003a 174B     		ldr	r3, .L12+4
 380 003c 1B88     		ldrh	r3, [r3]
 381 003e 1A00     		movs	r2, r3
 382 0040 FFF7FEFF 		bl	get_compare_from_analog
 383 0044 0200     		movs	r2, r0
 384 0046 164B     		ldr	r3, .L12+12
 385 0048 1A60     		str	r2, [r3]
 253:main.c        ****     RGB_Collection[interrupt_counter][3] = compare;
 386              		.loc 1 253 0
 387 004a 164B     		ldr	r3, .L12+16
 388 004c 1968     		ldr	r1, [r3]
 389 004e 144B     		ldr	r3, .L12+12
 390 0050 1B68     		ldr	r3, [r3]
 391 0052 D8B2     		uxtb	r0, r3
 392 0054 144A     		ldr	r2, .L12+20
 393 0056 8B00     		lsls	r3, r1, #2
 394 0058 D318     		adds	r3, r2, r3
 395 005a 0333     		adds	r3, r3, #3
 396 005c 021C     		adds	r2, r0, #0
 397 005e 1A70     		strb	r2, [r3]
 254:main.c        ****     char rez[30];
 255:main.c        ****     sprintf(rez, "analog = %d led = %d \n ", val, compare);
 398              		.loc 1 255 0
 399 0060 0C4B     		ldr	r3, .L12
 400 0062 1B88     		ldrh	r3, [r3]
 401 0064 1A00     		movs	r2, r3
 402 0066 0E4B     		ldr	r3, .L12+12
 403 0068 1B68     		ldr	r3, [r3]
 404 006a 1049     		ldr	r1, .L12+24
 405 006c 3800     		movs	r0, r7
 406 006e FFF7FEFF 		bl	sprintf
 256:main.c        ****     UART_UartPutString(rez);
 407              		.loc 1 256 0
 408 0072 3B00     		movs	r3, r7
 409 0074 1800     		movs	r0, r3
 410 0076 FFF7FEFF 		bl	UART_UartPutString
 257:main.c        ****     //PWM_Brightness_WriteCompare(compare); // change the brightness of LED
 258:main.c        ****     
 259:main.c        ****     sendColorDataToNetwork(RGB_Collection[interrupt_counter]);
 411              		.loc 1 259 0
 412 007a 0A4B     		ldr	r3, .L12+16
 413 007c 1B68     		ldr	r3, [r3]
 414 007e 9A00     		lsls	r2, r3, #2
 415 0080 094B     		ldr	r3, .L12+20
ARM GAS  C:\Users\JANUSD~1\AppData\Local\Temp\cc1ExJn3.s 			page 13


 416 0082 D318     		adds	r3, r2, r3
 417 0084 1800     		movs	r0, r3
 418 0086 FFF7FEFF 		bl	sendColorDataToNetwork
 260:main.c        **** }
 419              		.loc 1 260 0
 420 008a C046     		nop
 421 008c BD46     		mov	sp, r7
 422 008e 08B0     		add	sp, sp, #32
 423              		@ sp needed
 424 0090 80BD     		pop	{r7, pc}
 425              	.L13:
 426 0092 C046     		.align	2
 427              	.L12:
 428 0094 00000000 		.word	val
 429 0098 00000000 		.word	prev_val
 430 009c 00000000 		.word	init_val
 431 00a0 00000000 		.word	compare
 432 00a4 00000000 		.word	interrupt_counter
 433 00a8 00000000 		.word	RGB_Collection
 434 00ac 20000000 		.word	.LC17
 435              		.cfi_endproc
 436              	.LFE39:
 437              		.size	Change_brightness, .-Change_brightness
 438              		.section	.rodata
 439              		.align	2
 440              	.LC25:
 441 0038 62726967 		.ascii	"bright  = %d \012 \000"
 441      68742020 
 441      3D202564 
 441      200A2000 
 442              		.section	.text.CC_TC_InterruptHandler,"ax",%progbits
 443              		.align	2
 444              		.global	CC_TC_InterruptHandler
 445              		.code	16
 446              		.thumb_func
 447              		.type	CC_TC_InterruptHandler, %function
 448              	CC_TC_InterruptHandler:
 449              	.LFB40:
 261:main.c        **** 
 262:main.c        **** CY_ISR(CC_TC_InterruptHandler)
 263:main.c        **** {   
 450              		.loc 1 263 0
 451              		.cfi_startproc
 452              		@ args = 0, pretend = 0, frame = 40
 453              		@ frame_needed = 1, uses_anonymous_args = 0
 454 0000 80B5     		push	{r7, lr}
 455              		.cfi_def_cfa_offset 8
 456              		.cfi_offset 7, -8
 457              		.cfi_offset 14, -4
 458 0002 8AB0     		sub	sp, sp, #40
 459              		.cfi_def_cfa_offset 48
 460 0004 00AF     		add	r7, sp, #0
 461              		.cfi_def_cfa_register 7
 264:main.c        ****     Pin_Timer_Clear_Write(1);
 462              		.loc 1 264 0
 463 0006 0120     		movs	r0, #1
 464 0008 FFF7FEFF 		bl	Pin_Timer_Clear_Write
ARM GAS  C:\Users\JANUSD~1\AppData\Local\Temp\cc1ExJn3.s 			page 14


 265:main.c        ****     //int counter = Timer_Claps_ReadCapture();
 266:main.c        ****     //Timer_Claps_Stop();
 267:main.c        ****     char rez[30];
 268:main.c        ****     sprintf(rez, "counter  = %d \n ", clap_counter);
 465              		.loc 1 268 0
 466 000c 604B     		ldr	r3, .L20
 467 000e 1A68     		ldr	r2, [r3]
 468 0010 6049     		ldr	r1, .L20+4
 469 0012 0823     		movs	r3, #8
 470 0014 FB18     		adds	r3, r7, r3
 471 0016 1800     		movs	r0, r3
 472 0018 FFF7FEFF 		bl	sprintf
 269:main.c        ****     //UART_UartPutString(rez);
 270:main.c        ****     
 271:main.c        ****     if (clap_counter < 450){
 473              		.loc 1 271 0
 474 001c 5C4B     		ldr	r3, .L20
 475 001e 1A68     		ldr	r2, [r3]
 476 0020 C223     		movs	r3, #194
 477 0022 FF33     		adds	r3, r3, #255
 478 0024 9A42     		cmp	r2, r3
 479 0026 5ADC     		bgt	.L15
 480              	.LBB2:
 272:main.c        ****         CyDelay(50);
 481              		.loc 1 272 0
 482 0028 3220     		movs	r0, #50
 483 002a FFF7FEFF 		bl	CyDelay
 273:main.c        ****         CyGlobalIntDisable;
 484              		.loc 1 273 0
 485              		.syntax divided
 486              	@ 273 "main.c" 1
 487 002e 72B6     		CPSID   i
 488              	@ 0 "" 2
 274:main.c        ****         
 275:main.c        ****         on_off_counter++;
 489              		.loc 1 275 0
 490              		.thumb
 491              		.syntax unified
 492 0030 594B     		ldr	r3, .L20+8
 493 0032 1B68     		ldr	r3, [r3]
 494 0034 5A1C     		adds	r2, r3, #1
 495 0036 584B     		ldr	r3, .L20+8
 496 0038 1A60     		str	r2, [r3]
 276:main.c        ****         if (on_off_counter == 2) {
 497              		.loc 1 276 0
 498 003a 574B     		ldr	r3, .L20+8
 499 003c 1B68     		ldr	r3, [r3]
 500 003e 022B     		cmp	r3, #2
 501 0040 02D1     		bne	.L16
 277:main.c        ****             on_off_counter = 0;
 502              		.loc 1 277 0
 503 0042 554B     		ldr	r3, .L20+8
 504 0044 0022     		movs	r2, #0
 505 0046 1A60     		str	r2, [r3]
 506              	.L16:
 278:main.c        ****         }
 279:main.c        ****         
ARM GAS  C:\Users\JANUSD~1\AppData\Local\Temp\cc1ExJn3.s 			page 15


 280:main.c        ****         interrupt_counter++;
 507              		.loc 1 280 0
 508 0048 544B     		ldr	r3, .L20+12
 509 004a 1B68     		ldr	r3, [r3]
 510 004c 5A1C     		adds	r2, r3, #1
 511 004e 534B     		ldr	r3, .L20+12
 512 0050 1A60     		str	r2, [r3]
 281:main.c        ****         if (interrupt_counter == 4) {
 513              		.loc 1 281 0
 514 0052 524B     		ldr	r3, .L20+12
 515 0054 1B68     		ldr	r3, [r3]
 516 0056 042B     		cmp	r3, #4
 517 0058 02D1     		bne	.L17
 282:main.c        ****                 interrupt_counter = 0;
 518              		.loc 1 282 0
 519 005a 504B     		ldr	r3, .L20+12
 520 005c 0022     		movs	r2, #0
 521 005e 1A60     		str	r2, [r3]
 522              	.L17:
 283:main.c        ****             }
 284:main.c        ****         
 285:main.c        ****         CyDelay(50);
 523              		.loc 1 285 0
 524 0060 3220     		movs	r0, #50
 525 0062 FFF7FEFF 		bl	CyDelay
 286:main.c        ****         
 287:main.c        ****         uint8 bright = On_Off_collection[on_off_counter];
 526              		.loc 1 287 0
 527 0066 4C4B     		ldr	r3, .L20+8
 528 0068 1A68     		ldr	r2, [r3]
 529 006a 2723     		movs	r3, #39
 530 006c FB18     		adds	r3, r7, r3
 531 006e 4C49     		ldr	r1, .L20+16
 532 0070 8A5C     		ldrb	r2, [r1, r2]
 533 0072 1A70     		strb	r2, [r3]
 288:main.c        ****         uint8 r[4];
 289:main.c        ****         r[0] = RGB_Collection[interrupt_counter][0];
 534              		.loc 1 289 0
 535 0074 494B     		ldr	r3, .L20+12
 536 0076 1A68     		ldr	r2, [r3]
 537 0078 4A4B     		ldr	r3, .L20+20
 538 007a 9200     		lsls	r2, r2, #2
 539 007c D25C     		ldrb	r2, [r2, r3]
 540 007e 3B1D     		adds	r3, r7, #4
 541 0080 1A70     		strb	r2, [r3]
 290:main.c        ****         r[1] = RGB_Collection[interrupt_counter][1];
 542              		.loc 1 290 0
 543 0082 464B     		ldr	r3, .L20+12
 544 0084 1B68     		ldr	r3, [r3]
 545 0086 474A     		ldr	r2, .L20+20
 546 0088 9B00     		lsls	r3, r3, #2
 547 008a D318     		adds	r3, r2, r3
 548 008c 0133     		adds	r3, r3, #1
 549 008e 1A78     		ldrb	r2, [r3]
 550 0090 3B1D     		adds	r3, r7, #4
 551 0092 5A70     		strb	r2, [r3, #1]
 291:main.c        ****         r[2] = RGB_Collection[interrupt_counter][2];
ARM GAS  C:\Users\JANUSD~1\AppData\Local\Temp\cc1ExJn3.s 			page 16


 552              		.loc 1 291 0
 553 0094 414B     		ldr	r3, .L20+12
 554 0096 1B68     		ldr	r3, [r3]
 555 0098 424A     		ldr	r2, .L20+20
 556 009a 9B00     		lsls	r3, r3, #2
 557 009c D318     		adds	r3, r2, r3
 558 009e 0233     		adds	r3, r3, #2
 559 00a0 1A78     		ldrb	r2, [r3]
 560 00a2 3B1D     		adds	r3, r7, #4
 561 00a4 9A70     		strb	r2, [r3, #2]
 292:main.c        ****         r[3] = bright;
 562              		.loc 1 292 0
 563 00a6 3B1D     		adds	r3, r7, #4
 564 00a8 2722     		movs	r2, #39
 565 00aa BA18     		adds	r2, r7, r2
 566 00ac 1278     		ldrb	r2, [r2]
 567 00ae DA70     		strb	r2, [r3, #3]
 293:main.c        ****         sendColorDataToNetwork(r);
 568              		.loc 1 293 0
 569 00b0 3B1D     		adds	r3, r7, #4
 570 00b2 1800     		movs	r0, r3
 571 00b4 FFF7FEFF 		bl	sendColorDataToNetwork
 294:main.c        ****         SwitchRole();
 572              		.loc 1 294 0
 573 00b8 FFF7FEFF 		bl	SwitchRole
 295:main.c        ****     	ConnectToPeripheralDevice();
 574              		.loc 1 295 0
 575 00bc FFF7FEFF 		bl	ConnectToPeripheralDevice
 296:main.c        ****     	RestartCentralScanning();
 576              		.loc 1 296 0
 577 00c0 FFF7FEFF 		bl	RestartCentralScanning
 297:main.c        ****         
 298:main.c        ****         sprintf(rez, "bright  = %d \n ", bright);
 578              		.loc 1 298 0
 579 00c4 2723     		movs	r3, #39
 580 00c6 FB18     		adds	r3, r7, r3
 581 00c8 1A78     		ldrb	r2, [r3]
 582 00ca 3749     		ldr	r1, .L20+24
 583 00cc 0823     		movs	r3, #8
 584 00ce FB18     		adds	r3, r7, r3
 585 00d0 1800     		movs	r0, r3
 586 00d2 FFF7FEFF 		bl	sprintf
 299:main.c        ****         
 300:main.c        ****         
 301:main.c        ****         
 302:main.c        ****         isr_Counter_ClearPending();
 587              		.loc 1 302 0
 588 00d6 FFF7FEFF 		bl	isr_Counter_ClearPending
 303:main.c        ****         CyGlobalIntEnable;
 589              		.loc 1 303 0
 590              		.syntax divided
 591              	@ 303 "main.c" 1
 592 00da 62B6     		CPSIE   i
 593              	@ 0 "" 2
 594              		.thumb
 595              		.syntax unified
 596              	.LBE2:
ARM GAS  C:\Users\JANUSD~1\AppData\Local\Temp\cc1ExJn3.s 			page 17


 597 00dc 4AE0     		b	.L18
 598              	.L15:
 599              	.LBB3:
 304:main.c        ****     }else{
 305:main.c        ****     
 306:main.c        ****         on_off_counter++;
 600              		.loc 1 306 0
 601 00de 2E4B     		ldr	r3, .L20+8
 602 00e0 1B68     		ldr	r3, [r3]
 603 00e2 5A1C     		adds	r2, r3, #1
 604 00e4 2C4B     		ldr	r3, .L20+8
 605 00e6 1A60     		str	r2, [r3]
 307:main.c        ****         if (on_off_counter == 2) {
 606              		.loc 1 307 0
 607 00e8 2B4B     		ldr	r3, .L20+8
 608 00ea 1B68     		ldr	r3, [r3]
 609 00ec 022B     		cmp	r3, #2
 610 00ee 02D1     		bne	.L19
 308:main.c        ****             on_off_counter = 0;
 611              		.loc 1 308 0
 612 00f0 294B     		ldr	r3, .L20+8
 613 00f2 0022     		movs	r2, #0
 614 00f4 1A60     		str	r2, [r3]
 615              	.L19:
 309:main.c        ****         }
 310:main.c        ****         
 311:main.c        ****         CyDelay(100);
 616              		.loc 1 311 0
 617 00f6 6420     		movs	r0, #100
 618 00f8 FFF7FEFF 		bl	CyDelay
 312:main.c        ****         CyGlobalIntDisable;
 619              		.loc 1 312 0
 620              		.syntax divided
 621              	@ 312 "main.c" 1
 622 00fc 72B6     		CPSID   i
 623              	@ 0 "" 2
 313:main.c        ****         uint8 bright = On_Off_collection[on_off_counter];
 624              		.loc 1 313 0
 625              		.thumb
 626              		.syntax unified
 627 00fe 264B     		ldr	r3, .L20+8
 628 0100 1A68     		ldr	r2, [r3]
 629 0102 2623     		movs	r3, #38
 630 0104 FB18     		adds	r3, r7, r3
 631 0106 2649     		ldr	r1, .L20+16
 632 0108 8A5C     		ldrb	r2, [r1, r2]
 633 010a 1A70     		strb	r2, [r3]
 314:main.c        ****         uint8 r[4];
 315:main.c        ****         r[0] = RGB_Collection[interrupt_counter][0];
 634              		.loc 1 315 0
 635 010c 234B     		ldr	r3, .L20+12
 636 010e 1A68     		ldr	r2, [r3]
 637 0110 244B     		ldr	r3, .L20+20
 638 0112 9200     		lsls	r2, r2, #2
 639 0114 D25C     		ldrb	r2, [r2, r3]
 640 0116 3B00     		movs	r3, r7
 641 0118 1A70     		strb	r2, [r3]
ARM GAS  C:\Users\JANUSD~1\AppData\Local\Temp\cc1ExJn3.s 			page 18


 316:main.c        ****         r[1] = RGB_Collection[interrupt_counter][1];
 642              		.loc 1 316 0
 643 011a 204B     		ldr	r3, .L20+12
 644 011c 1B68     		ldr	r3, [r3]
 645 011e 214A     		ldr	r2, .L20+20
 646 0120 9B00     		lsls	r3, r3, #2
 647 0122 D318     		adds	r3, r2, r3
 648 0124 0133     		adds	r3, r3, #1
 649 0126 1A78     		ldrb	r2, [r3]
 650 0128 3B00     		movs	r3, r7
 651 012a 5A70     		strb	r2, [r3, #1]
 317:main.c        ****         r[2] = RGB_Collection[interrupt_counter][2];
 652              		.loc 1 317 0
 653 012c 1B4B     		ldr	r3, .L20+12
 654 012e 1B68     		ldr	r3, [r3]
 655 0130 1C4A     		ldr	r2, .L20+20
 656 0132 9B00     		lsls	r3, r3, #2
 657 0134 D318     		adds	r3, r2, r3
 658 0136 0233     		adds	r3, r3, #2
 659 0138 1A78     		ldrb	r2, [r3]
 660 013a 3B00     		movs	r3, r7
 661 013c 9A70     		strb	r2, [r3, #2]
 318:main.c        ****         r[3] = bright;
 662              		.loc 1 318 0
 663 013e 3B00     		movs	r3, r7
 664 0140 2622     		movs	r2, #38
 665 0142 BA18     		adds	r2, r7, r2
 666 0144 1278     		ldrb	r2, [r2]
 667 0146 DA70     		strb	r2, [r3, #3]
 319:main.c        ****         sendColorDataToNetwork(r);
 668              		.loc 1 319 0
 669 0148 3B00     		movs	r3, r7
 670 014a 1800     		movs	r0, r3
 671 014c FFF7FEFF 		bl	sendColorDataToNetwork
 320:main.c        ****         SwitchRole();
 672              		.loc 1 320 0
 673 0150 FFF7FEFF 		bl	SwitchRole
 321:main.c        ****     	ConnectToPeripheralDevice();
 674              		.loc 1 321 0
 675 0154 FFF7FEFF 		bl	ConnectToPeripheralDevice
 322:main.c        ****     	RestartCentralScanning();
 676              		.loc 1 322 0
 677 0158 FFF7FEFF 		bl	RestartCentralScanning
 323:main.c        ****         
 324:main.c        ****         sprintf(rez, "bright  = %d \n ", bright);
 678              		.loc 1 324 0
 679 015c 2623     		movs	r3, #38
 680 015e FB18     		adds	r3, r7, r3
 681 0160 1A78     		ldrb	r2, [r3]
 682 0162 1149     		ldr	r1, .L20+24
 683 0164 0823     		movs	r3, #8
 684 0166 FB18     		adds	r3, r7, r3
 685 0168 1800     		movs	r0, r3
 686 016a FFF7FEFF 		bl	sprintf
 325:main.c        ****         
 326:main.c        ****         
 327:main.c        ****         isr_Counter_ClearPending();
ARM GAS  C:\Users\JANUSD~1\AppData\Local\Temp\cc1ExJn3.s 			page 19


 687              		.loc 1 327 0
 688 016e FFF7FEFF 		bl	isr_Counter_ClearPending
 328:main.c        ****         CyGlobalIntEnable;
 689              		.loc 1 328 0
 690              		.syntax divided
 691              	@ 328 "main.c" 1
 692 0172 62B6     		CPSIE   i
 693              	@ 0 "" 2
 694              		.thumb
 695              		.syntax unified
 696              	.L18:
 697              	.LBE3:
 329:main.c        ****     }
 330:main.c        ****     
 331:main.c        ****     CyDelay(50);
 698              		.loc 1 331 0
 699 0174 3220     		movs	r0, #50
 700 0176 FFF7FEFF 		bl	CyDelay
 332:main.c        ****     Pin_Timer_Clear_Write(0);
 701              		.loc 1 332 0
 702 017a 0020     		movs	r0, #0
 703 017c FFF7FEFF 		bl	Pin_Timer_Clear_Write
 333:main.c        ****     
 334:main.c        ****     CyDelay(50);
 704              		.loc 1 334 0
 705 0180 3220     		movs	r0, #50
 706 0182 FFF7FEFF 		bl	CyDelay
 335:main.c        ****     
 336:main.c        **** }
 707              		.loc 1 336 0
 708 0186 C046     		nop
 709 0188 BD46     		mov	sp, r7
 710 018a 0AB0     		add	sp, sp, #40
 711              		@ sp needed
 712 018c 80BD     		pop	{r7, pc}
 713              	.L21:
 714 018e C046     		.align	2
 715              	.L20:
 716 0190 00000000 		.word	clap_counter
 717 0194 00000000 		.word	.LC1
 718 0198 00000000 		.word	on_off_counter
 719 019c 00000000 		.word	interrupt_counter
 720 01a0 00000000 		.word	On_Off_collection
 721 01a4 00000000 		.word	RGB_Collection
 722 01a8 38000000 		.word	.LC25
 723              		.cfi_endproc
 724              	.LFE40:
 725              		.size	CC_TC_InterruptHandler, .-CC_TC_InterruptHandler
 726              		.global	__aeabi_idiv
 727              		.section	.text.UpdateRGBled,"ax",%progbits
 728              		.align	2
 729              		.global	UpdateRGBled
 730              		.code	16
 731              		.thumb_func
 732              		.type	UpdateRGBled, %function
 733              	UpdateRGBled:
 734              	.LFB41:
ARM GAS  C:\Users\JANUSD~1\AppData\Local\Temp\cc1ExJn3.s 			page 20


 337:main.c        **** 
 338:main.c        **** 
 339:main.c        **** /*******************************************************************************
 340:main.c        **** * Function Name: UpdateRGBled
 341:main.c        **** ********************************************************************************
 342:main.c        **** * Summary:
 343:main.c        **** *        Update the RGB LED color by reconfiguring PrISM component. This function 
 344:main.c        **** * is valid for PSoC 4 BLE parts and not PROC BLE, as PRoC BLE does not have UDBs
 345:main.c        **** * that makes up the PrISM component. To replace this with software PrISM, refer to
 346:main.c        **** * CY8CKIT-042-BLE Pioneer Kit example project, PRoC_BLE_CapSense_Slider_LED, from
 347:main.c        **** * http://www.cypress.com/CY8CKIT-042-BLE
 348:main.c        **** *
 349:main.c        **** * Parameters:
 350:main.c        **** *  rgb_led_data: array storing the RGB and Intensity vlaue
 351:main.c        **** *  len: length of the array.
 352:main.c        **** *
 353:main.c        **** * Return:
 354:main.c        **** *  void
 355:main.c        **** *
 356:main.c        **** *******************************************************************************/
 357:main.c        **** void UpdateRGBled(uint8 * rgb_led_data, uint8 len)
 358:main.c        **** {
 735              		.loc 1 358 0
 736              		.cfi_startproc
 737              		@ args = 0, pretend = 0, frame = 16
 738              		@ frame_needed = 1, uses_anonymous_args = 0
 739 0000 80B5     		push	{r7, lr}
 740              		.cfi_def_cfa_offset 8
 741              		.cfi_offset 7, -8
 742              		.cfi_offset 14, -4
 743 0002 84B0     		sub	sp, sp, #16
 744              		.cfi_def_cfa_offset 24
 745 0004 00AF     		add	r7, sp, #0
 746              		.cfi_def_cfa_register 7
 747 0006 7860     		str	r0, [r7, #4]
 748 0008 0A00     		movs	r2, r1
 749 000a FB1C     		adds	r3, r7, #3
 750 000c 1A70     		strb	r2, [r3]
 359:main.c        **** 	uint8 calc_red, calc_green, calc_blue;
 360:main.c        **** 	
 361:main.c        **** 	if(len == RGB_LED_DATA_LEN)
 751              		.loc 1 361 0
 752 000e FB1C     		adds	r3, r7, #3
 753 0010 1B78     		ldrb	r3, [r3]
 754 0012 042B     		cmp	r3, #4
 755 0014 49D1     		bne	.L24
 362:main.c        **** 	{
 363:main.c        **** 		/* If a valid length packet has been sent, calculate the intensity of each of
 364:main.c        **** 		* R, G and B color and update the PrISM module */
 365:main.c        **** 		calc_red = (uint8)(((uint16)rgb_led_data[RGB_RED_INDEX]*rgb_led_data[RGB_INTENSITY_INDEX])/RGB_LE
 756              		.loc 1 365 0
 757 0016 7B68     		ldr	r3, [r7, #4]
 758 0018 1B78     		ldrb	r3, [r3]
 759 001a 1A00     		movs	r2, r3
 760 001c 7B68     		ldr	r3, [r7, #4]
 761 001e 0333     		adds	r3, r3, #3
 762 0020 1B78     		ldrb	r3, [r3]
ARM GAS  C:\Users\JANUSD~1\AppData\Local\Temp\cc1ExJn3.s 			page 21


 763 0022 5343     		muls	r3, r2
 764 0024 FF21     		movs	r1, #255
 765 0026 1800     		movs	r0, r3
 766 0028 FFF7FEFF 		bl	__aeabi_idiv
 767 002c 0300     		movs	r3, r0
 768 002e 1A00     		movs	r2, r3
 769 0030 0F23     		movs	r3, #15
 770 0032 FB18     		adds	r3, r7, r3
 771 0034 1A70     		strb	r2, [r3]
 366:main.c        **** 		calc_green = (uint8)(((uint16)rgb_led_data[RGB_GREEN_INDEX]*rgb_led_data[RGB_INTENSITY_INDEX])/RG
 772              		.loc 1 366 0
 773 0036 7B68     		ldr	r3, [r7, #4]
 774 0038 0133     		adds	r3, r3, #1
 775 003a 1B78     		ldrb	r3, [r3]
 776 003c 1A00     		movs	r2, r3
 777 003e 7B68     		ldr	r3, [r7, #4]
 778 0040 0333     		adds	r3, r3, #3
 779 0042 1B78     		ldrb	r3, [r3]
 780 0044 5343     		muls	r3, r2
 781 0046 FF21     		movs	r1, #255
 782 0048 1800     		movs	r0, r3
 783 004a FFF7FEFF 		bl	__aeabi_idiv
 784 004e 0300     		movs	r3, r0
 785 0050 1A00     		movs	r2, r3
 786 0052 0E23     		movs	r3, #14
 787 0054 FB18     		adds	r3, r7, r3
 788 0056 1A70     		strb	r2, [r3]
 367:main.c        **** 		calc_blue = (uint8)(((uint16)rgb_led_data[RGB_BLUE_INDEX]*rgb_led_data[RGB_INTENSITY_INDEX])/RGB_
 789              		.loc 1 367 0
 790 0058 7B68     		ldr	r3, [r7, #4]
 791 005a 0233     		adds	r3, r3, #2
 792 005c 1B78     		ldrb	r3, [r3]
 793 005e 1A00     		movs	r2, r3
 794 0060 7B68     		ldr	r3, [r7, #4]
 795 0062 0333     		adds	r3, r3, #3
 796 0064 1B78     		ldrb	r3, [r3]
 797 0066 5343     		muls	r3, r2
 798 0068 FF21     		movs	r1, #255
 799 006a 1800     		movs	r0, r3
 800 006c FFF7FEFF 		bl	__aeabi_idiv
 801 0070 0300     		movs	r3, r0
 802 0072 1A00     		movs	r2, r3
 803 0074 0D23     		movs	r3, #13
 804 0076 FB18     		adds	r3, r7, r3
 805 0078 1A70     		strb	r2, [r3]
 368:main.c        **** 		
 369:main.c        **** 		PrISM_1_WritePulse0(RGB_LED_MAX_VAL - calc_red);
 806              		.loc 1 369 0
 807 007a 0F23     		movs	r3, #15
 808 007c FB18     		adds	r3, r7, r3
 809 007e 1B78     		ldrb	r3, [r3]
 810 0080 DB43     		mvns	r3, r3
 811 0082 DBB2     		uxtb	r3, r3
 812 0084 1800     		movs	r0, r3
 813 0086 FFF7FEFF 		bl	PrISM_1_WritePulse0
 370:main.c        **** 		PrISM_1_WritePulse1(RGB_LED_MAX_VAL - calc_green);
 814              		.loc 1 370 0
ARM GAS  C:\Users\JANUSD~1\AppData\Local\Temp\cc1ExJn3.s 			page 22


 815 008a 0E23     		movs	r3, #14
 816 008c FB18     		adds	r3, r7, r3
 817 008e 1B78     		ldrb	r3, [r3]
 818 0090 DB43     		mvns	r3, r3
 819 0092 DBB2     		uxtb	r3, r3
 820 0094 1800     		movs	r0, r3
 821 0096 FFF7FEFF 		bl	PrISM_1_WritePulse1
 371:main.c        **** 		PrISM_2_WritePulse0(RGB_LED_MAX_VAL - calc_blue);
 822              		.loc 1 371 0
 823 009a 0D23     		movs	r3, #13
 824 009c FB18     		adds	r3, r7, r3
 825 009e 1B78     		ldrb	r3, [r3]
 826 00a0 DB43     		mvns	r3, r3
 827 00a2 DBB2     		uxtb	r3, r3
 828 00a4 1800     		movs	r0, r3
 829 00a6 FFF7FEFF 		bl	PrISM_2_WritePulse0
 830              	.L24:
 372:main.c        **** 		
 373:main.c        **** 		#ifdef DEBUG_ENABLED
 374:main.c        **** 			UART_UartPutString("PrISM Updated ");
 375:main.c        **** 			UART_UartPutCRLF(' ');
 376:main.c        **** 		#endif
 377:main.c        **** 	}
 378:main.c        **** }
 831              		.loc 1 378 0
 832 00aa C046     		nop
 833 00ac BD46     		mov	sp, r7
 834 00ae 04B0     		add	sp, sp, #16
 835              		@ sp needed
 836 00b0 80BD     		pop	{r7, pc}
 837              		.cfi_endproc
 838              	.LFE41:
 839              		.size	UpdateRGBled, .-UpdateRGBled
 840 00b2 C046     		.text
 841              	.Letext0:
 842              		.file 2 "Generated_Source\\PSoC4/cytypes.h"
 843              		.file 3 "Generated_Source\\PSoC4/BLE_Stack.h"
 844              		.file 4 "Generated_Source\\PSoC4/BLE_StackGap.h"
 845              		.file 5 "Generated_Source\\PSoC4/BLE_eventHandler.h"
 846              		.file 6 "Generated_Source\\PSoC4/BLE.h"
 847              		.file 7 "./main.h"