ARM GAS  C:\Users\JANUSD~1\AppData\Local\Temp\cc1wlo41.s 			page 1


   1              		.syntax unified
   2              		.cpu cortex-m0
   3              		.fpu softvfp
   4              		.eabi_attribute 20, 1
   5              		.eabi_attribute 21, 1
   6              		.eabi_attribute 23, 3
   7              		.eabi_attribute 24, 1
   8              		.eabi_attribute 25, 1
   9              		.eabi_attribute 26, 1
  10              		.eabi_attribute 30, 6
  11              		.eabi_attribute 34, 0
  12              		.eabi_attribute 18, 4
  13              		.thumb
  14              		.syntax unified
  15              		.file	"main.c"
  16              		.text
  17              	.Ltext0:
  18              		.cfi_sections	.debug_frame
  19              		.comm	current_watchdog_counter,2,2
  20              		.global	RGB_Collection
  21              		.data
  22              		.align	2
  23              		.type	RGB_Collection, %object
  24              		.size	RGB_Collection, 16
  25              	RGB_Collection:
  26 0000 00       		.byte	0
  27 0001 00       		.byte	0
  28 0002 FF       		.byte	-1
  29 0003 FF       		.byte	-1
  30 0004 FF       		.byte	-1
  31 0005 00       		.byte	0
  32 0006 FF       		.byte	-1
  33 0007 FF       		.byte	-1
  34 0008 00       		.byte	0
  35 0009 FF       		.byte	-1
  36 000a 00       		.byte	0
  37 000b FF       		.byte	-1
  38 000c FF       		.byte	-1
  39 000d FF       		.byte	-1
  40 000e 00       		.byte	0
  41 000f FF       		.byte	-1
  42              		.global	interrupt_counter
  43              		.bss
  44              		.align	2
  45              		.type	interrupt_counter, %object
  46              		.size	interrupt_counter, 4
  47              	interrupt_counter:
  48 0000 00000000 		.space	4
  49              		.comm	compare,4,4
  50              		.comm	val,2,2
  51              		.comm	prev_val,2,2
  52              		.comm	init_val,2,2
  53              		.section	.text.main,"ax",%progbits
  54              		.align	2
  55              		.global	main
  56              		.code	16
  57              		.thumb_func
ARM GAS  C:\Users\JANUSD~1\AppData\Local\Temp\cc1wlo41.s 			page 2


  58              		.type	main, %function
  59              	main:
  60              	.LFB36:
  61              		.file 1 "main.c"
   1:main.c        **** /******************************************************************************
   2:main.c        **** * Project Name		: Mesh_Flood_PSoC4BLE
   3:main.c        **** * File Name			: main.c
   4:main.c        **** * Version 			: 1.0
   5:main.c        **** * Device Used		: CY8C4247LQI-BL483
   6:main.c        **** * Software Used		: PSoC Creator 3.1 SP1
   7:main.c        **** * Compiler    		: ARM GCC 4.8.4, ARM RVDS Generic, ARM MDK Generic
   8:main.c        **** * Related Hardware	: CY8CKIT-042-BLE Bluetooth Low Energy Pioneer Kit 
   9:main.c        **** * Owner             : roit@cypress.com
  10:main.c        **** *
  11:main.c        **** ********************************************************************************
  12:main.c        **** * Copyright (2014-15), Cypress Semiconductor Corporation. All Rights Reserved.
  13:main.c        **** ********************************************************************************
  14:main.c        **** * This software is owned by Cypress Semiconductor Corporation (Cypress)
  15:main.c        **** * and is protected by and subject to worldwide patent protection (United
  16:main.c        **** * States and foreign), United States copyright laws and international treaty
  17:main.c        **** * provisions. Cypress hereby grants to licensee a personal, non-exclusive,
  18:main.c        **** * non-transferable license to copy, use, modify, create derivative works of,
  19:main.c        **** * and compile the Cypress Source Code and derivative works for the sole
  20:main.c        **** * purpose of creating custom software in support of licensee product to be
  21:main.c        **** * used only in conjunction with a Cypress integrated circuit as specified in
  22:main.c        **** * the applicable agreement. Any reproduction, modification, translation,
  23:main.c        **** * compilation, or representation of this software except as specified above 
  24:main.c        **** * is prohibited without the express written permission of Cypress.
  25:main.c        **** *
  26:main.c        **** * Disclaimer: CYPRESS MAKES NO WARRANTY OF ANY KIND, EXPRESS OR IMPLIED, WITH 
  27:main.c        **** * REGARD TO THIS MATERIAL, INCLUDING, BUT NOT LIMITED TO, THE IMPLIED 
  28:main.c        **** * WARRANTIES OF MERCHANTABILITY AND FITNESS FOR A PARTICULAR PURPOSE.
  29:main.c        **** * Cypress reserves the right to make changes without further notice to the 
  30:main.c        **** * materials described herein. Cypress does not assume any liability arising out 
  31:main.c        **** * of the application or use of any product or circuit described herein. Cypress 
  32:main.c        **** * does not authorize its products for use as critical components in life-support 
  33:main.c        **** * systems where a malfunction or failure may reasonably be expected to result in 
  34:main.c        **** * significant injury to the user. The inclusion of Cypress' product in a life-
  35:main.c        **** * support systems application implies that the manufacturer assumes all risk of 
  36:main.c        **** * such use and in doing so indemnifies Cypress against all charges. 
  37:main.c        **** *
  38:main.c        **** * Use of this Software may be limited by and subject to the applicable Cypress
  39:main.c        **** * software license agreement. 
  40:main.c        **** *******************************************************************************/
  41:main.c        **** #include <main.h>
  42:main.c        **** #include <customize.h>
  43:main.c        **** #include <stdio.h>
  44:main.c        **** 
  45:main.c        **** extern uint8 switch_Role;
  46:main.c        **** extern uint8 ble_gap_state;
  47:main.c        **** extern uint8 deviceConnected;
  48:main.c        **** 
  49:main.c        **** extern uint8 restartScanning;
  50:main.c        **** 
  51:main.c        **** extern uint8 dataADVCounter;
  52:main.c        **** 
  53:main.c        **** 
ARM GAS  C:\Users\JANUSD~1\AppData\Local\Temp\cc1wlo41.s 			page 3


  54:main.c        **** #ifdef ENABLE_ADV_DATA_COUNTER
  55:main.c        **** extern CYBLE_GAPP_DISC_DATA_T  new_advData;
  56:main.c        **** extern uint8 potential_node_found;
  57:main.c        **** extern uint8 potential_node_bdAddr[6];
  58:main.c        **** extern uint8 potential_node_bdAddrType;
  59:main.c        **** #endif
  60:main.c        **** 
  61:main.c        **** extern uint8 clientConnectToDevice;
  62:main.c        **** extern CYBLE_GAP_BD_ADDR_T				peripAddr;
  63:main.c        **** 
  64:main.c        **** CY_ISR_PROTO(CC_TC_InterruptHandler);
  65:main.c        **** void Change_brightness();
  66:main.c        **** 
  67:main.c        **** 
  68:main.c        **** uint8 RGB_Collection[4][4] = {
  69:main.c        ****     {0, 0, 0xFF, 0xFF},
  70:main.c        ****     {0xFF, 0, 0xFF, 0xFF},
  71:main.c        ****     {0, 0xFF, 0, 0xFF},
  72:main.c        ****     {0xFF, 0xFF, 0, 0xFF},
  73:main.c        **** };
  74:main.c        **** 
  75:main.c        **** int interrupt_counter = 0;
  76:main.c        **** int compare;
  77:main.c        **** uint16 val;
  78:main.c        **** uint16 prev_val;
  79:main.c        **** uint16 init_val;
  80:main.c        **** /*******************************************************************************
  81:main.c        **** * Function Name: main
  82:main.c        **** ********************************************************************************
  83:main.c        **** * Summary:
  84:main.c        **** *       Entry point for the firmware, Starts the system and continuously processes
  85:main.c        **** * Application and BLE events.
  86:main.c        **** *
  87:main.c        **** * Parameters:
  88:main.c        **** *  void
  89:main.c        **** *
  90:main.c        **** * Return:
  91:main.c        **** *  int
  92:main.c        **** *
  93:main.c        **** *******************************************************************************/
  94:main.c        **** int main()
  95:main.c        **** {
  62              		.loc 1 95 0
  63              		.cfi_startproc
  64              		@ args = 0, pretend = 0, frame = 0
  65              		@ frame_needed = 1, uses_anonymous_args = 0
  66 0000 80B5     		push	{r7, lr}
  67              		.cfi_def_cfa_offset 8
  68              		.cfi_offset 7, -8
  69              		.cfi_offset 14, -4
  70 0002 00AF     		add	r7, sp, #0
  71              		.cfi_def_cfa_register 7
  96:main.c        ****     /* Initialize system */	
  97:main.c        **** 	InitializeSystem();
  72              		.loc 1 97 0
  73 0004 FFF7FEFF 		bl	InitializeSystem
  74              	.L2:
ARM GAS  C:\Users\JANUSD~1\AppData\Local\Temp\cc1wlo41.s 			page 4


  98:main.c        **** 	
  99:main.c        **** 	#ifdef DEBUG_ENABLED
 100:main.c        **** 		UART_UartPutString("Sytem Started ");
 101:main.c        **** 		UART_UartPutCRLF(' ');
 102:main.c        **** 	#endif
 103:main.c        ****    
 104:main.c        ****     
 105:main.c        ****     
 106:main.c        ****     for(;;)
 107:main.c        ****     {
 108:main.c        **** 		/* Process BLE Events. This function generates the respective 
 109:main.c        **** 		* events to application layer */
 110:main.c        **** 		CyBle_ProcessEvents();
  75              		.loc 1 110 0 discriminator 1
  76 0008 FFF7FEFF 		bl	CyBle_ProcessEvents
 111:main.c        **** 
 112:main.c        **** 		/* If flag is set, then switch the GAP role between Peripheral and 
 113:main.c        **** 		* Central. This function disconnects existing connection, if any, 
 114:main.c        **** 		* before switching role. Depending on switched role, the system will
 115:main.c        **** 		* either start scanning or start advertisement */
 116:main.c        **** 		SwitchRole();
  77              		.loc 1 116 0 discriminator 1
  78 000c FFF7FEFF 		bl	SwitchRole
 117:main.c        **** 		
 118:main.c        **** 		/* If a valid node is found, then this function will initiate a connection 
 119:main.c        **** 		* to that node. */
 120:main.c        **** 		ConnectToPeripheralDevice();
  79              		.loc 1 120 0 discriminator 1
  80 0010 FFF7FEFF 		bl	ConnectToPeripheralDevice
 121:main.c        **** 		
 122:main.c        **** 		/* This function will restart scanning when earlier connection has been
 123:main.c        **** 		* disconnected. This function also checks internal counter and sets flag to
 124:main.c        **** 		* switch role from Central to Peripheral when the count is above set value. */
 125:main.c        **** 		RestartCentralScanning();
  81              		.loc 1 125 0 discriminator 1
  82 0014 FFF7FEFF 		bl	RestartCentralScanning
 126:main.c        ****         
 127:main.c        ****         Change_brightness();
  83              		.loc 1 127 0 discriminator 1
  84 0018 FFF7FEFF 		bl	Change_brightness
 128:main.c        ****     }
  85              		.loc 1 128 0 discriminator 1
  86 001c F4E7     		b	.L2
  87              		.cfi_endproc
  88              	.LFE36:
  89              		.size	main, .-main
  90 001e C046     		.section	.rodata
  91              		.align	2
  92              	.LC5:
  93 0000 48656C6C 		.ascii	"Helloushki\012\000"
  93      6F757368 
  93      6B690A00 
  94              		.section	.text.InitializeSystem,"ax",%progbits
  95              		.align	2
  96              		.global	InitializeSystem
  97              		.code	16
  98              		.thumb_func
ARM GAS  C:\Users\JANUSD~1\AppData\Local\Temp\cc1wlo41.s 			page 5


  99              		.type	InitializeSystem, %function
 100              	InitializeSystem:
 101              	.LFB37:
 129:main.c        **** }
 130:main.c        **** 
 131:main.c        **** /*******************************************************************************
 132:main.c        **** * Function Name: InitializeSystem
 133:main.c        **** ********************************************************************************
 134:main.c        **** * Summary:
 135:main.c        **** *       Starts the components in the project and registers BLE event handler 
 136:main.c        **** * function. It also modifies the advertisement packet and appends data counter
 137:main.c        **** * at its end.
 138:main.c        **** *
 139:main.c        **** * Parameters:
 140:main.c        **** *  void
 141:main.c        **** *
 142:main.c        **** * Return:
 143:main.c        **** *  void
 144:main.c        **** *
 145:main.c        **** *******************************************************************************/
 146:main.c        **** void InitializeSystem(void)
 147:main.c        **** {
 102              		.loc 1 147 0
 103              		.cfi_startproc
 104              		@ args = 0, pretend = 0, frame = 8
 105              		@ frame_needed = 1, uses_anonymous_args = 0
 106 0000 80B5     		push	{r7, lr}
 107              		.cfi_def_cfa_offset 8
 108              		.cfi_offset 7, -8
 109              		.cfi_offset 14, -4
 110 0002 82B0     		sub	sp, sp, #8
 111              		.cfi_def_cfa_offset 16
 112 0004 00AF     		add	r7, sp, #0
 113              		.cfi_def_cfa_register 7
 148:main.c        ****     // ADC
 149:main.c        ****     ADC_MIC_Start();
 114              		.loc 1 149 0
 115 0006 FFF7FEFF 		bl	ADC_MIC_Start
 150:main.c        ****     ADC_MIC_StartConvert();
 116              		.loc 1 150 0
 117 000a FFF7FEFF 		bl	ADC_MIC_StartConvert
 151:main.c        ****     uint16 val = ADC_MIC_GetResult16(0);
 118              		.loc 1 151 0
 119 000e 0020     		movs	r0, #0
 120 0010 FFF7FEFF 		bl	ADC_MIC_GetResult16
 121 0014 0300     		movs	r3, r0
 122 0016 1A00     		movs	r2, r3
 123 0018 BB1D     		adds	r3, r7, #6
 124 001a 1A80     		strh	r2, [r3]
 152:main.c        ****     uint16 prev_val;
 153:main.c        ****     uint16 init_val = ADC_MIC_GetResult16(0);
 125              		.loc 1 153 0
 126 001c 0020     		movs	r0, #0
 127 001e FFF7FEFF 		bl	ADC_MIC_GetResult16
 128 0022 0300     		movs	r3, r0
 129 0024 1A00     		movs	r2, r3
 130 0026 3B1D     		adds	r3, r7, #4
ARM GAS  C:\Users\JANUSD~1\AppData\Local\Temp\cc1wlo41.s 			page 6


 131 0028 1A80     		strh	r2, [r3]
 154:main.c        ****     
 155:main.c        ****     isr_Counter_StartEx(CC_TC_InterruptHandler);
 132              		.loc 1 155 0
 133 002a 2A4B     		ldr	r3, .L5
 134 002c 1800     		movs	r0, r3
 135 002e FFF7FEFF 		bl	isr_Counter_StartEx
 156:main.c        ****     
 157:main.c        ****     // PWM
 158:main.c        ****     //PWM_Brightness_Start();
 159:main.c        ****     //int compare;
 160:main.c        ****     
 161:main.c        **** 	/* Enable global interrupts. */
 162:main.c        **** 	CyGlobalIntEnable;
 136              		.loc 1 162 0
 137              		.syntax divided
 138              	@ 162 "main.c" 1
 139 0032 62B6     		CPSIE   i
 140              	@ 0 "" 2
 163:main.c        **** 	
 164:main.c        **** 	/* Start BLE component and Register the generic Event callback function */
 165:main.c        **** 	CyBle_Start(GenericEventHandler);
 141              		.loc 1 165 0
 142              		.thumb
 143              		.syntax unified
 144 0034 284B     		ldr	r3, .L5+4
 145 0036 1800     		movs	r0, r3
 146 0038 FFF7FEFF 		bl	CyBle_Start
 166:main.c        ****     
 167:main.c        ****     // Define interrupt handle for color changes
 168:main.c        ****     //PWM_1sWindow_Start();
 169:main.c        ****     //isr_Counter_StartEx(CC_TC_InterruptHandler);
 170:main.c        **** 	
 171:main.c        **** 	/* Start the PrISM component and configure drive mode of LED pins to be
 172:main.c        **** 	* initially OFF*/
 173:main.c        **** 	PrISM_1_Start();
 147              		.loc 1 173 0
 148 003c FFF7FEFF 		bl	PrISM_1_Start
 174:main.c        **** 	PrISM_2_Start();
 149              		.loc 1 174 0
 150 0040 FFF7FEFF 		bl	PrISM_2_Start
 175:main.c        **** 	
 176:main.c        **** 	PrISM_1_WritePulse0(255);
 151              		.loc 1 176 0
 152 0044 FF20     		movs	r0, #255
 153 0046 FFF7FEFF 		bl	PrISM_1_WritePulse0
 177:main.c        **** 	PrISM_1_WritePulse1(255);
 154              		.loc 1 177 0
 155 004a FF20     		movs	r0, #255
 156 004c FFF7FEFF 		bl	PrISM_1_WritePulse1
 178:main.c        **** 	PrISM_2_WritePulse0(255);
 157              		.loc 1 178 0
 158 0050 FF20     		movs	r0, #255
 159 0052 FFF7FEFF 		bl	PrISM_2_WritePulse0
 179:main.c        **** 	
 180:main.c        **** 	RED_SetDriveMode(RED_DM_STRONG);
 160              		.loc 1 180 0
ARM GAS  C:\Users\JANUSD~1\AppData\Local\Temp\cc1wlo41.s 			page 7


 161 0056 0620     		movs	r0, #6
 162 0058 FFF7FEFF 		bl	RED_SetDriveMode
 181:main.c        **** 	GREEN_SetDriveMode(GREEN_DM_STRONG);
 163              		.loc 1 181 0
 164 005c 0620     		movs	r0, #6
 165 005e FFF7FEFF 		bl	GREEN_SetDriveMode
 182:main.c        **** 	BLUE_SetDriveMode(BLUE_DM_STRONG);
 166              		.loc 1 182 0
 167 0062 0620     		movs	r0, #6
 168 0064 FFF7FEFF 		bl	BLUE_SetDriveMode
 183:main.c        **** 	
 184:main.c        **** 	/* Configure the Watchdog (WDT) timer for 100 millisecond timing */
 185:main.c        **** 	InitializeWatchdog(WATCHDOG_COUNT_VAL);
 169              		.loc 1 185 0
 170 0068 1C4B     		ldr	r3, .L5+8
 171 006a 1800     		movs	r0, r3
 172 006c FFF7FEFF 		bl	InitializeWatchdog
 186:main.c        **** 
 187:main.c        **** 	#ifdef ENABLE_ADV_DATA_COUNTER
 188:main.c        **** 	new_advData = *cyBle_discoveryModeInfo.advData;
 173              		.loc 1 188 0
 174 0070 1B4B     		ldr	r3, .L5+12
 175 0072 9B68     		ldr	r3, [r3, #8]
 176 0074 1B4A     		ldr	r2, .L5+16
 177 0076 1000     		movs	r0, r2
 178 0078 1900     		movs	r1, r3
 179 007a 2023     		movs	r3, #32
 180 007c 1A00     		movs	r2, r3
 181 007e FFF7FEFF 		bl	memcpy
 189:main.c        **** 	
 190:main.c        **** 	if( cyBle_discoveryModeInfo.advData->advDataLen < 29)
 182              		.loc 1 190 0
 183 0082 174B     		ldr	r3, .L5+12
 184 0084 9B68     		ldr	r3, [r3, #8]
 185 0086 DB7F     		ldrb	r3, [r3, #31]
 186 0088 1C2B     		cmp	r3, #28
 187 008a 15D8     		bhi	.L4
 191:main.c        **** 	{
 192:main.c        **** 		/* Initialize the DataCounter data in advertisement packet. This is custom data in 
 193:main.c        **** 		* ADV packet and used to track whether the RGB LED data is latest or not */
 194:main.c        **** 		new_advData.advData[cyBle_discoveryModeInfo.advData->advDataLen] = CUSTOM_ADV_DATA_MARKER;	
 188              		.loc 1 194 0
 189 008c 144B     		ldr	r3, .L5+12
 190 008e 9B68     		ldr	r3, [r3, #8]
 191 0090 DB7F     		ldrb	r3, [r3, #31]
 192 0092 1A00     		movs	r2, r3
 193 0094 134B     		ldr	r3, .L5+16
 194 0096 0121     		movs	r1, #1
 195 0098 9954     		strb	r1, [r3, r2]
 195:main.c        **** 		new_advData.advData[cyBle_discoveryModeInfo.advData->advDataLen+1] = dataADVCounter;
 196              		.loc 1 195 0
 197 009a 114B     		ldr	r3, .L5+12
 198 009c 9B68     		ldr	r3, [r3, #8]
 199 009e DB7F     		ldrb	r3, [r3, #31]
 200 00a0 0133     		adds	r3, r3, #1
 201 00a2 114A     		ldr	r2, .L5+20
 202 00a4 1178     		ldrb	r1, [r2]
ARM GAS  C:\Users\JANUSD~1\AppData\Local\Temp\cc1wlo41.s 			page 8


 203 00a6 0F4A     		ldr	r2, .L5+16
 204 00a8 D154     		strb	r1, [r2, r3]
 196:main.c        **** 		new_advData.advDataLen = cyBle_discoveryModeInfo.advData->advDataLen+2;
 205              		.loc 1 196 0
 206 00aa 0D4B     		ldr	r3, .L5+12
 207 00ac 9B68     		ldr	r3, [r3, #8]
 208 00ae DB7F     		ldrb	r3, [r3, #31]
 209 00b0 0233     		adds	r3, r3, #2
 210 00b2 DAB2     		uxtb	r2, r3
 211 00b4 0B4B     		ldr	r3, .L5+16
 212 00b6 DA77     		strb	r2, [r3, #31]
 213              	.L4:
 197:main.c        **** 	}
 198:main.c        **** 	
 199:main.c        **** 	/* Assign the new ADV data to stack */
 200:main.c        **** 	cyBle_discoveryModeInfo.advData = &new_advData;
 214              		.loc 1 200 0
 215 00b8 094B     		ldr	r3, .L5+12
 216 00ba 0A4A     		ldr	r2, .L5+16
 217 00bc 9A60     		str	r2, [r3, #8]
 201:main.c        **** 	#endif
 202:main.c        **** 	
 203:main.c        ****     //Timet_new
 204:main.c        **** 	/* Provide a color pusle on RGB LED to indicate startup */
 205:main.c        **** 	//PrISM_1_WritePulse1(128);
 206:main.c        **** 	//CyDelay(20);
 207:main.c        **** 	//PrISM_1_WritePulse1(255);
 208:main.c        **** 	
 209:main.c        ****     UART_Start();
 218              		.loc 1 209 0
 219 00be FFF7FEFF 		bl	UART_Start
 210:main.c        ****     UART_UartPutString("Helloushki\n");
 220              		.loc 1 210 0
 221 00c2 0A4B     		ldr	r3, .L5+24
 222 00c4 1800     		movs	r0, r3
 223 00c6 FFF7FEFF 		bl	UART_UartPutString
 211:main.c        ****     
 212:main.c        **** 	#ifdef DEBUG_ENABLED
 213:main.c        **** 		
 214:main.c        **** 		UART_UartPutString("--------------------------Mesh Flood-----------------------------------------
 215:main.c        **** 		UART_UartPutCRLF(' ');
 216:main.c        **** 	#endif
 217:main.c        **** }
 224              		.loc 1 217 0
 225 00ca C046     		nop
 226 00cc BD46     		mov	sp, r7
 227 00ce 02B0     		add	sp, sp, #8
 228              		@ sp needed
 229 00d0 80BD     		pop	{r7, pc}
 230              	.L6:
 231 00d2 C046     		.align	2
 232              	.L5:
 233 00d4 00000000 		.word	CC_TC_InterruptHandler
 234 00d8 00000000 		.word	GenericEventHandler
 235 00dc CC0C0000 		.word	3276
 236 00e0 00000000 		.word	cyBle_discoveryModeInfo
 237 00e4 00000000 		.word	new_advData
ARM GAS  C:\Users\JANUSD~1\AppData\Local\Temp\cc1wlo41.s 			page 9


 238 00e8 00000000 		.word	dataADVCounter
 239 00ec 00000000 		.word	.LC5
 240              		.cfi_endproc
 241              	.LFE37:
 242              		.size	InitializeSystem, .-InitializeSystem
 243              		.section	.rodata
 244              		.align	2
 245              	.LC13:
 246 000c 616E616C 		.ascii	"analog = %d led = %d \012 \000"
 246      6F67203D 
 246      20256420 
 246      6C656420 
 246      3D202564 
 247              		.section	.text.Change_brightness,"ax",%progbits
 248              		.align	2
 249              		.global	Change_brightness
 250              		.code	16
 251              		.thumb_func
 252              		.type	Change_brightness, %function
 253              	Change_brightness:
 254              	.LFB38:
 218:main.c        **** 
 219:main.c        **** void Change_brightness(){
 255              		.loc 1 219 0
 256              		.cfi_startproc
 257              		@ args = 0, pretend = 0, frame = 32
 258              		@ frame_needed = 1, uses_anonymous_args = 0
 259 0000 80B5     		push	{r7, lr}
 260              		.cfi_def_cfa_offset 8
 261              		.cfi_offset 7, -8
 262              		.cfi_offset 14, -4
 263 0002 88B0     		sub	sp, sp, #32
 264              		.cfi_def_cfa_offset 40
 265 0004 00AF     		add	r7, sp, #0
 266              		.cfi_def_cfa_register 7
 220:main.c        ****     prev_val = val;
 267              		.loc 1 220 0
 268 0006 234B     		ldr	r3, .L9
 269 0008 1A88     		ldrh	r2, [r3]
 270 000a 234B     		ldr	r3, .L9+4
 271 000c 1A80     		strh	r2, [r3]
 221:main.c        ****     val = ADC_MIC_GetResult16(0); // analog value from microphone
 272              		.loc 1 221 0
 273 000e 0020     		movs	r0, #0
 274 0010 FFF7FEFF 		bl	ADC_MIC_GetResult16
 275 0014 0300     		movs	r3, r0
 276 0016 9AB2     		uxth	r2, r3
 277 0018 1E4B     		ldr	r3, .L9
 278 001a 1A80     		strh	r2, [r3]
 222:main.c        ****     if (init_val == 0){
 279              		.loc 1 222 0
 280 001c 1F4B     		ldr	r3, .L9+8
 281 001e 1B88     		ldrh	r3, [r3]
 282 0020 002B     		cmp	r3, #0
 283 0022 06D1     		bne	.L8
 223:main.c        ****     init_val = ADC_MIC_GetResult16(0);}
 284              		.loc 1 223 0
ARM GAS  C:\Users\JANUSD~1\AppData\Local\Temp\cc1wlo41.s 			page 10


 285 0024 0020     		movs	r0, #0
 286 0026 FFF7FEFF 		bl	ADC_MIC_GetResult16
 287 002a 0300     		movs	r3, r0
 288 002c 9AB2     		uxth	r2, r3
 289 002e 1B4B     		ldr	r3, .L9+8
 290 0030 1A80     		strh	r2, [r3]
 291              	.L8:
 224:main.c        ****     compare = get_compare_from_analog(val, init_val, prev_val);
 292              		.loc 1 224 0
 293 0032 184B     		ldr	r3, .L9
 294 0034 1888     		ldrh	r0, [r3]
 295 0036 194B     		ldr	r3, .L9+8
 296 0038 1988     		ldrh	r1, [r3]
 297 003a 174B     		ldr	r3, .L9+4
 298 003c 1B88     		ldrh	r3, [r3]
 299 003e 1A00     		movs	r2, r3
 300 0040 FFF7FEFF 		bl	get_compare_from_analog
 301 0044 0200     		movs	r2, r0
 302 0046 164B     		ldr	r3, .L9+12
 303 0048 1A60     		str	r2, [r3]
 225:main.c        ****     RGB_Collection[interrupt_counter][3] = compare;
 304              		.loc 1 225 0
 305 004a 164B     		ldr	r3, .L9+16
 306 004c 1968     		ldr	r1, [r3]
 307 004e 144B     		ldr	r3, .L9+12
 308 0050 1B68     		ldr	r3, [r3]
 309 0052 D8B2     		uxtb	r0, r3
 310 0054 144A     		ldr	r2, .L9+20
 311 0056 8B00     		lsls	r3, r1, #2
 312 0058 D318     		adds	r3, r2, r3
 313 005a 0333     		adds	r3, r3, #3
 314 005c 021C     		adds	r2, r0, #0
 315 005e 1A70     		strb	r2, [r3]
 226:main.c        ****     char rez[30];
 227:main.c        ****     sprintf(rez, "analog = %d led = %d \n ", val, compare);
 316              		.loc 1 227 0
 317 0060 0C4B     		ldr	r3, .L9
 318 0062 1B88     		ldrh	r3, [r3]
 319 0064 1A00     		movs	r2, r3
 320 0066 0E4B     		ldr	r3, .L9+12
 321 0068 1B68     		ldr	r3, [r3]
 322 006a 1049     		ldr	r1, .L9+24
 323 006c 3800     		movs	r0, r7
 324 006e FFF7FEFF 		bl	sprintf
 228:main.c        ****     UART_UartPutString(rez);
 325              		.loc 1 228 0
 326 0072 3B00     		movs	r3, r7
 327 0074 1800     		movs	r0, r3
 328 0076 FFF7FEFF 		bl	UART_UartPutString
 229:main.c        ****     //PWM_Brightness_WriteCompare(compare); // change the brightness of LED
 230:main.c        ****     
 231:main.c        ****     sendColorDataToNetwork(RGB_Collection[interrupt_counter]);
 329              		.loc 1 231 0
 330 007a 0A4B     		ldr	r3, .L9+16
 331 007c 1B68     		ldr	r3, [r3]
 332 007e 9A00     		lsls	r2, r3, #2
 333 0080 094B     		ldr	r3, .L9+20
ARM GAS  C:\Users\JANUSD~1\AppData\Local\Temp\cc1wlo41.s 			page 11


 334 0082 D318     		adds	r3, r2, r3
 335 0084 1800     		movs	r0, r3
 336 0086 FFF7FEFF 		bl	sendColorDataToNetwork
 232:main.c        **** }
 337              		.loc 1 232 0
 338 008a C046     		nop
 339 008c BD46     		mov	sp, r7
 340 008e 08B0     		add	sp, sp, #32
 341              		@ sp needed
 342 0090 80BD     		pop	{r7, pc}
 343              	.L10:
 344 0092 C046     		.align	2
 345              	.L9:
 346 0094 00000000 		.word	val
 347 0098 00000000 		.word	prev_val
 348 009c 00000000 		.word	init_val
 349 00a0 00000000 		.word	compare
 350 00a4 00000000 		.word	interrupt_counter
 351 00a8 00000000 		.word	RGB_Collection
 352 00ac 0C000000 		.word	.LC13
 353              		.cfi_endproc
 354              	.LFE38:
 355              		.size	Change_brightness, .-Change_brightness
 356              		.section	.text.CC_TC_InterruptHandler,"ax",%progbits
 357              		.align	2
 358              		.global	CC_TC_InterruptHandler
 359              		.code	16
 360              		.thumb_func
 361              		.type	CC_TC_InterruptHandler, %function
 362              	CC_TC_InterruptHandler:
 363              	.LFB39:
 233:main.c        **** 
 234:main.c        **** CY_ISR(CC_TC_InterruptHandler)
 235:main.c        **** {
 364              		.loc 1 235 0
 365              		.cfi_startproc
 366              		@ args = 0, pretend = 0, frame = 0
 367              		@ frame_needed = 1, uses_anonymous_args = 0
 368 0000 80B5     		push	{r7, lr}
 369              		.cfi_def_cfa_offset 8
 370              		.cfi_offset 7, -8
 371              		.cfi_offset 14, -4
 372 0002 00AF     		add	r7, sp, #0
 373              		.cfi_def_cfa_register 7
 236:main.c        ****     /*
 237:main.c        ****     sendColorDataToNetwork(RGB_Collection[interrupt_counter]);
 238:main.c        ****     SwitchRole();
 239:main.c        **** 	ConnectToPeripheralDevice();
 240:main.c        **** 	RestartCentralScanning();
 241:main.c        ****     interrupt_counter++;
 242:main.c        ****     if (interrupt_counter == 4) {
 243:main.c        ****         interrupt_counter = 0;
 244:main.c        ****     }
 245:main.c        ****     isr_Counter_ClearPending();
 246:main.c        ****     CyDelay(50);
 247:main.c        ****     */
 248:main.c        ****     //PWM_1sWindow_ClearInterrupt(PWM_1sWindow_INTR_MASK_CC_MATCH);
ARM GAS  C:\Users\JANUSD~1\AppData\Local\Temp\cc1wlo41.s 			page 12


 249:main.c        ****     //PWM_1sWindow_ClearInterrupt(PWM_1sWindow_INTR_MASK_TC);
 250:main.c        **** }
 374              		.loc 1 250 0
 375 0004 C046     		nop
 376 0006 BD46     		mov	sp, r7
 377              		@ sp needed
 378 0008 80BD     		pop	{r7, pc}
 379              		.cfi_endproc
 380              	.LFE39:
 381              		.size	CC_TC_InterruptHandler, .-CC_TC_InterruptHandler
 382              		.global	__aeabi_idiv
 383 000a C046     		.section	.text.UpdateRGBled,"ax",%progbits
 384              		.align	2
 385              		.global	UpdateRGBled
 386              		.code	16
 387              		.thumb_func
 388              		.type	UpdateRGBled, %function
 389              	UpdateRGBled:
 390              	.LFB40:
 251:main.c        **** 
 252:main.c        **** 
 253:main.c        **** /*******************************************************************************
 254:main.c        **** * Function Name: UpdateRGBled
 255:main.c        **** ********************************************************************************
 256:main.c        **** * Summary:
 257:main.c        **** *        Update the RGB LED color by reconfiguring PrISM component. This function 
 258:main.c        **** * is valid for PSoC 4 BLE parts and not PROC BLE, as PRoC BLE does not have UDBs
 259:main.c        **** * that makes up the PrISM component. To replace this with software PrISM, refer to
 260:main.c        **** * CY8CKIT-042-BLE Pioneer Kit example project, PRoC_BLE_CapSense_Slider_LED, from
 261:main.c        **** * http://www.cypress.com/CY8CKIT-042-BLE
 262:main.c        **** *
 263:main.c        **** * Parameters:
 264:main.c        **** *  rgb_led_data: array storing the RGB and Intensity vlaue
 265:main.c        **** *  len: length of the array.
 266:main.c        **** *
 267:main.c        **** * Return:
 268:main.c        **** *  void
 269:main.c        **** *
 270:main.c        **** *******************************************************************************/
 271:main.c        **** void UpdateRGBled(uint8 * rgb_led_data, uint8 len)
 272:main.c        **** {
 391              		.loc 1 272 0
 392              		.cfi_startproc
 393              		@ args = 0, pretend = 0, frame = 16
 394              		@ frame_needed = 1, uses_anonymous_args = 0
 395 0000 80B5     		push	{r7, lr}
 396              		.cfi_def_cfa_offset 8
 397              		.cfi_offset 7, -8
 398              		.cfi_offset 14, -4
 399 0002 84B0     		sub	sp, sp, #16
 400              		.cfi_def_cfa_offset 24
 401 0004 00AF     		add	r7, sp, #0
 402              		.cfi_def_cfa_register 7
 403 0006 7860     		str	r0, [r7, #4]
 404 0008 0A00     		movs	r2, r1
 405 000a FB1C     		adds	r3, r7, #3
 406 000c 1A70     		strb	r2, [r3]
ARM GAS  C:\Users\JANUSD~1\AppData\Local\Temp\cc1wlo41.s 			page 13


 273:main.c        **** 	uint8 calc_red, calc_green, calc_blue;
 274:main.c        **** 	
 275:main.c        **** 	if(len == RGB_LED_DATA_LEN)
 407              		.loc 1 275 0
 408 000e FB1C     		adds	r3, r7, #3
 409 0010 1B78     		ldrb	r3, [r3]
 410 0012 042B     		cmp	r3, #4
 411 0014 49D1     		bne	.L14
 276:main.c        **** 	{
 277:main.c        **** 		/* If a valid length packet has been sent, calculate the intensity of each of
 278:main.c        **** 		* R, G and B color and update the PrISM module */
 279:main.c        **** 		calc_red = (uint8)(((uint16)rgb_led_data[RGB_RED_INDEX]*rgb_led_data[RGB_INTENSITY_INDEX])/RGB_LE
 412              		.loc 1 279 0
 413 0016 7B68     		ldr	r3, [r7, #4]
 414 0018 1B78     		ldrb	r3, [r3]
 415 001a 1A00     		movs	r2, r3
 416 001c 7B68     		ldr	r3, [r7, #4]
 417 001e 0333     		adds	r3, r3, #3
 418 0020 1B78     		ldrb	r3, [r3]
 419 0022 5343     		muls	r3, r2
 420 0024 FF21     		movs	r1, #255
 421 0026 1800     		movs	r0, r3
 422 0028 FFF7FEFF 		bl	__aeabi_idiv
 423 002c 0300     		movs	r3, r0
 424 002e 1A00     		movs	r2, r3
 425 0030 0F23     		movs	r3, #15
 426 0032 FB18     		adds	r3, r7, r3
 427 0034 1A70     		strb	r2, [r3]
 280:main.c        **** 		calc_green = (uint8)(((uint16)rgb_led_data[RGB_GREEN_INDEX]*rgb_led_data[RGB_INTENSITY_INDEX])/RG
 428              		.loc 1 280 0
 429 0036 7B68     		ldr	r3, [r7, #4]
 430 0038 0133     		adds	r3, r3, #1
 431 003a 1B78     		ldrb	r3, [r3]
 432 003c 1A00     		movs	r2, r3
 433 003e 7B68     		ldr	r3, [r7, #4]
 434 0040 0333     		adds	r3, r3, #3
 435 0042 1B78     		ldrb	r3, [r3]
 436 0044 5343     		muls	r3, r2
 437 0046 FF21     		movs	r1, #255
 438 0048 1800     		movs	r0, r3
 439 004a FFF7FEFF 		bl	__aeabi_idiv
 440 004e 0300     		movs	r3, r0
 441 0050 1A00     		movs	r2, r3
 442 0052 0E23     		movs	r3, #14
 443 0054 FB18     		adds	r3, r7, r3
 444 0056 1A70     		strb	r2, [r3]
 281:main.c        **** 		calc_blue = (uint8)(((uint16)rgb_led_data[RGB_BLUE_INDEX]*rgb_led_data[RGB_INTENSITY_INDEX])/RGB_
 445              		.loc 1 281 0
 446 0058 7B68     		ldr	r3, [r7, #4]
 447 005a 0233     		adds	r3, r3, #2
 448 005c 1B78     		ldrb	r3, [r3]
 449 005e 1A00     		movs	r2, r3
 450 0060 7B68     		ldr	r3, [r7, #4]
 451 0062 0333     		adds	r3, r3, #3
 452 0064 1B78     		ldrb	r3, [r3]
 453 0066 5343     		muls	r3, r2
 454 0068 FF21     		movs	r1, #255
ARM GAS  C:\Users\JANUSD~1\AppData\Local\Temp\cc1wlo41.s 			page 14


 455 006a 1800     		movs	r0, r3
 456 006c FFF7FEFF 		bl	__aeabi_idiv
 457 0070 0300     		movs	r3, r0
 458 0072 1A00     		movs	r2, r3
 459 0074 0D23     		movs	r3, #13
 460 0076 FB18     		adds	r3, r7, r3
 461 0078 1A70     		strb	r2, [r3]
 282:main.c        **** 		
 283:main.c        **** 		PrISM_1_WritePulse0(RGB_LED_MAX_VAL - calc_red);
 462              		.loc 1 283 0
 463 007a 0F23     		movs	r3, #15
 464 007c FB18     		adds	r3, r7, r3
 465 007e 1B78     		ldrb	r3, [r3]
 466 0080 DB43     		mvns	r3, r3
 467 0082 DBB2     		uxtb	r3, r3
 468 0084 1800     		movs	r0, r3
 469 0086 FFF7FEFF 		bl	PrISM_1_WritePulse0
 284:main.c        **** 		PrISM_1_WritePulse1(RGB_LED_MAX_VAL - calc_green);
 470              		.loc 1 284 0
 471 008a 0E23     		movs	r3, #14
 472 008c FB18     		adds	r3, r7, r3
 473 008e 1B78     		ldrb	r3, [r3]
 474 0090 DB43     		mvns	r3, r3
 475 0092 DBB2     		uxtb	r3, r3
 476 0094 1800     		movs	r0, r3
 477 0096 FFF7FEFF 		bl	PrISM_1_WritePulse1
 285:main.c        **** 		PrISM_2_WritePulse0(RGB_LED_MAX_VAL - calc_blue);
 478              		.loc 1 285 0
 479 009a 0D23     		movs	r3, #13
 480 009c FB18     		adds	r3, r7, r3
 481 009e 1B78     		ldrb	r3, [r3]
 482 00a0 DB43     		mvns	r3, r3
 483 00a2 DBB2     		uxtb	r3, r3
 484 00a4 1800     		movs	r0, r3
 485 00a6 FFF7FEFF 		bl	PrISM_2_WritePulse0
 486              	.L14:
 286:main.c        **** 		
 287:main.c        **** 		#ifdef DEBUG_ENABLED
 288:main.c        **** 			UART_UartPutString("PrISM Updated ");
 289:main.c        **** 			UART_UartPutCRLF(' ');
 290:main.c        **** 		#endif
 291:main.c        **** 	}
 292:main.c        **** }
 487              		.loc 1 292 0
 488 00aa C046     		nop
 489 00ac BD46     		mov	sp, r7
 490 00ae 04B0     		add	sp, sp, #16
 491              		@ sp needed
 492 00b0 80BD     		pop	{r7, pc}
 493              		.cfi_endproc
 494              	.LFE40:
 495              		.size	UpdateRGBled, .-UpdateRGBled
 496 00b2 C046     		.text
 497              	.Letext0:
 498              		.file 2 "Generated_Source\\PSoC4/cytypes.h"
 499              		.file 3 "Generated_Source\\PSoC4/BLE_Stack.h"
 500              		.file 4 "Generated_Source\\PSoC4/BLE_StackGap.h"
ARM GAS  C:\Users\JANUSD~1\AppData\Local\Temp\cc1wlo41.s 			page 15


 501              		.file 5 "Generated_Source\\PSoC4/BLE_eventHandler.h"
 502              		.file 6 "Generated_Source\\PSoC4/BLE.h"
 503              		.file 7 "./main.h"