ARM GAS  C:\Users\ASUS\AppData\Local\Temp\cczxEqG3.s 			page 1


   1              		.syntax unified
   2              		.cpu cortex-m0
   3              		.fpu softvfp
   4              		.eabi_attribute 20, 1
   5              		.eabi_attribute 21, 1
   6              		.eabi_attribute 23, 3
   7              		.eabi_attribute 24, 1
   8              		.eabi_attribute 25, 1
   9              		.eabi_attribute 26, 1
  10              		.eabi_attribute 30, 1
  11              		.eabi_attribute 34, 0
  12              		.eabi_attribute 18, 4
  13              		.thumb
  14              		.syntax unified
  15              		.file	"main.c"
  16              		.text
  17              	.Ltext0:
  18              		.cfi_sections	.debug_frame
  19              		.section	.text.get_letter_pos,"ax",%progbits
  20              		.align	2
  21              		.global	get_letter_pos
  22              		.code	16
  23              		.thumb_func
  24              		.type	get_letter_pos, %function
  25              	get_letter_pos:
  26              	.LFB36:
  27              		.file 1 "main.c"
   1:main.c        **** /* ========================================
   2:main.c        ****  *
   3:main.c        ****  * Copyright YOUR COMPANY, THE YEAR
   4:main.c        ****  * All Rights Reserved
   5:main.c        ****  * UNPUBLISHED, LICENSED SOFTWARE.
   6:main.c        ****  *
   7:main.c        ****  * CONFIDENTIAL AND PROPRIETARY INFORMATION
   8:main.c        ****  * WHICH IS THE PROPERTY OF your company.
   9:main.c        ****  *
  10:main.c        ****  * ========================================
  11:main.c        **** */
  12:main.c        **** #include "project.h"
  13:main.c        **** #include "letters_to_Morze_table.h"
  14:main.c        **** 
  15:main.c        **** #include <stdio.h>
  16:main.c        **** #include <string.h>
  17:main.c        **** 
  18:main.c        **** char TEXT_BUF[20];
  19:main.c        **** 
  20:main.c        **** int get_letter_pos(char letter){
  28              		.loc 1 20 0
  29              		.cfi_startproc
  30              		@ args = 0, pretend = 0, frame = 0
  31              		@ frame_needed = 0, uses_anonymous_args = 0
  32              		@ link register save eliminated.
  33              	.LVL0:
  34              	.LBB2:
  21:main.c        ****     int n_letter_in_table = -1;
  22:main.c        ****     
  23:main.c        ****     for (int n_letter_detail = 0; n_letter_detail < 4; n_letter_detail++){
ARM GAS  C:\Users\ASUS\AppData\Local\Temp\cczxEqG3.s 			page 2


  35              		.loc 1 23 0
  36 0000 0023     		movs	r3, #0
  37 0002 06E0     		b	.L2
  38              	.LVL1:
  39              	.L4:
  24:main.c        ****         if (letter == letter_to_morse[n_letter_detail][0]){
  40              		.loc 1 24 0
  41 0004 5A00     		lsls	r2, r3, #1
  42 0006 D218     		adds	r2, r2, r3
  43 0008 0549     		ldr	r1, .L5
  44 000a 525C     		ldrb	r2, [r2, r1]
  45 000c 8242     		cmp	r2, r0
  46 000e 04D0     		beq	.L3
  23:main.c        ****         if (letter == letter_to_morse[n_letter_detail][0]){
  47              		.loc 1 23 0 discriminator 2
  48 0010 0133     		adds	r3, r3, #1
  49              	.LVL2:
  50              	.L2:
  23:main.c        ****         if (letter == letter_to_morse[n_letter_detail][0]){
  51              		.loc 1 23 0 is_stmt 0 discriminator 1
  52 0012 032B     		cmp	r3, #3
  53 0014 F6DD     		ble	.L4
  54              	.LBE2:
  21:main.c        ****     int n_letter_in_table = -1;
  55              		.loc 1 21 0 is_stmt 1
  56 0016 0123     		movs	r3, #1
  57              	.LVL3:
  58 0018 5B42     		rsbs	r3, r3, #0
  59              	.L3:
  60              	.LVL4:
  25:main.c        ****             n_letter_in_table = n_letter_detail;
  26:main.c        ****             break;
  27:main.c        ****         }
  28:main.c        ****     }
  29:main.c        ****     
  30:main.c        ****     return n_letter_in_table;
  31:main.c        **** }
  61              		.loc 1 31 0
  62 001a 1800     		movs	r0, r3
  63              	.LVL5:
  64              		@ sp needed
  65 001c 7047     		bx	lr
  66              	.L6:
  67 001e C046     		.align	2
  68              	.L5:
  69 0020 00000000 		.word	.LANCHOR0
  70              		.cfi_endproc
  71              	.LFE36:
  72              		.size	get_letter_pos, .-get_letter_pos
  73              		.section	.text.word_to_morse,"ax",%progbits
  74              		.align	2
  75              		.global	word_to_morse
  76              		.code	16
  77              		.thumb_func
  78              		.type	word_to_morse, %function
  79              	word_to_morse:
  80              	.LFB37:
ARM GAS  C:\Users\ASUS\AppData\Local\Temp\cczxEqG3.s 			page 3


  32:main.c        **** 
  33:main.c        **** void word_to_morse(char word[]){
  81              		.loc 1 33 0
  82              		.cfi_startproc
  83              		@ args = 0, pretend = 0, frame = 0
  84              		@ frame_needed = 0, uses_anonymous_args = 0
  85              	.LVL6:
  86 0000 F0B5     		push	{r4, r5, r6, r7, lr}
  87              		.cfi_def_cfa_offset 20
  88              		.cfi_offset 4, -20
  89              		.cfi_offset 5, -16
  90              		.cfi_offset 6, -12
  91              		.cfi_offset 7, -8
  92              		.cfi_offset 14, -4
  93 0002 5746     		mov	r7, r10
  94 0004 4E46     		mov	r6, r9
  95 0006 4546     		mov	r5, r8
  96 0008 E0B4     		push	{r5, r6, r7}
  97              		.cfi_def_cfa_offset 32
  98              		.cfi_offset 8, -32
  99              		.cfi_offset 9, -28
 100              		.cfi_offset 10, -24
 101 000a 8146     		mov	r9, r0
 102              	.LVL7:
 103              	.LBB3:
  34:main.c        ****     int dot_len_delay = 500;
  35:main.c        ****     int dash_period = 500;
  36:main.c        ****     int dot_period = 9500;
  37:main.c        ****     
  38:main.c        ****     int i = 0;
  39:main.c        ****     //int interrupt_flag  = 0;
  40:main.c        ****     int n_letter_in_table = 0;
  41:main.c        ****     
  42:main.c        ****     for (uint16 n_letter = 0; n_letter < strlen(word); n_letter++){
 104              		.loc 1 42 0
 105 000c 0023     		movs	r3, #0
 106 000e 9846     		mov	r8, r3
 107 0010 51E0     		b	.L8
 108              	.LVL8:
 109              	.L13:
 110              	.LBB4:
  43:main.c        ****         n_letter_in_table = get_letter_pos(word[n_letter]);
 111              		.loc 1 43 0
 112 0012 4B46     		mov	r3, r9
 113 0014 4246     		mov	r2, r8
 114 0016 985C     		ldrb	r0, [r3, r2]
 115 0018 FFF7FEFF 		bl	get_letter_pos
 116              	.LVL9:
  44:main.c        ****         
  45:main.c        ****         uint16 letter_morze_code = letter_to_morse[n_letter_in_table][1];
 117              		.loc 1 45 0
 118 001c 4300     		lsls	r3, r0, #1
 119 001e 1818     		adds	r0, r3, r0
 120              	.LVL10:
 121 0020 2A4B     		ldr	r3, .L14
 122 0022 1818     		adds	r0, r3, r0
 123 0024 4378     		ldrb	r3, [r0, #1]
ARM GAS  C:\Users\ASUS\AppData\Local\Temp\cczxEqG3.s 			page 4


 124 0026 9A46     		mov	r10, r3
 125              	.LVL11:
  46:main.c        ****         uint16 dash_or_dot_bit = 0x01;
  47:main.c        ****         int len_morse_letter = letter_to_morse[n_letter_in_table][2];
 126              		.loc 1 47 0
 127 0028 8678     		ldrb	r6, [r0, #2]
 128              	.LVL12:
  48:main.c        ****         
  49:main.c        ****         sprintf(TEXT_BUF,"\n");
 129              		.loc 1 49 0
 130 002a 294C     		ldr	r4, .L14+4
 131 002c 0222     		movs	r2, #2
 132 002e 2949     		ldr	r1, .L14+8
 133 0030 2000     		movs	r0, r4
 134 0032 FFF7FEFF 		bl	memcpy
 135              	.LVL13:
  50:main.c        ****         UART_UartPutString(TEXT_BUF);
 136              		.loc 1 50 0
 137 0036 2000     		movs	r0, r4
 138 0038 FFF7FEFF 		bl	UART_UartPutString
 139              	.LVL14:
  46:main.c        ****         uint16 dash_or_dot_bit = 0x01;
 140              		.loc 1 46 0
 141 003c 0124     		movs	r4, #1
  51:main.c        ****         
  52:main.c        ****         for (i = 0; i < len_morse_letter; i++){
 142              		.loc 1 52 0
 143 003e 0027     		movs	r7, #0
 144 0040 30E0     		b	.L9
 145              	.LVL15:
 146              	.L12:
  53:main.c        ****             //interrupt_flag = 0;
  54:main.c        ****             Pin_Red_Write(1);
 147              		.loc 1 54 0
 148 0042 0120     		movs	r0, #1
 149 0044 FFF7FEFF 		bl	Pin_Red_Write
 150              	.LVL16:
  55:main.c        ****             
  56:main.c        ****             sprintf(TEXT_BUF,"%d\r\n", dash_or_dot_bit);
 151              		.loc 1 56 0
 152 0048 214D     		ldr	r5, .L14+4
 153 004a 2200     		movs	r2, r4
 154 004c 2249     		ldr	r1, .L14+12
 155 004e 2800     		movs	r0, r5
 156 0050 FFF7FEFF 		bl	sprintf
 157              	.LVL17:
  57:main.c        ****             UART_UartPutString(TEXT_BUF);
 158              		.loc 1 57 0
 159 0054 2800     		movs	r0, r5
 160 0056 FFF7FEFF 		bl	UART_UartPutString
 161              	.LVL18:
  58:main.c        ****             
  59:main.c        ****             if (letter_morze_code & dash_or_dot_bit){ // even if result == 4 will make this part of
 162              		.loc 1 59 0
 163 005a 5346     		mov	r3, r10
 164 005c 2342     		tst	r3, r4
 165 005e 0CD0     		beq	.L10
ARM GAS  C:\Users\ASUS\AppData\Local\Temp\cczxEqG3.s 			page 5


  60:main.c        ****                 // Dash
  61:main.c        ****                 PWM_1_WriteCompare(dash_period); // switches from low to high, if more - so less br
 166              		.loc 1 61 0
 167 0060 FA20     		movs	r0, #250
 168 0062 4000     		lsls	r0, r0, #1
 169 0064 FFF7FEFF 		bl	PWM_1_WriteCompare
 170              	.LVL19:
  62:main.c        ****                 PWM_1_Start();
 171              		.loc 1 62 0
 172 0068 FFF7FEFF 		bl	PWM_1_Start
 173              	.LVL20:
  63:main.c        ****                 
  64:main.c        ****                 CyDelay(3 * dot_len_delay);
 174              		.loc 1 64 0
 175 006c 1B48     		ldr	r0, .L14+16
 176 006e FFF7FEFF 		bl	CyDelay
 177              	.LVL21:
  65:main.c        ****                 Pin_Red_Write(0);
 178              		.loc 1 65 0
 179 0072 0020     		movs	r0, #0
 180 0074 FFF7FEFF 		bl	Pin_Red_Write
 181              	.LVL22:
 182 0078 0BE0     		b	.L11
 183              	.L10:
  66:main.c        ****             } else {
  67:main.c        ****                 // Dot
  68:main.c        ****                 PWM_1_WriteCompare(dot_period);
 184              		.loc 1 68 0
 185 007a 1948     		ldr	r0, .L14+20
 186 007c FFF7FEFF 		bl	PWM_1_WriteCompare
 187              	.LVL23:
  69:main.c        ****                 PWM_1_Start();
 188              		.loc 1 69 0
 189 0080 FFF7FEFF 		bl	PWM_1_Start
 190              	.LVL24:
  70:main.c        ****                 
  71:main.c        ****                 CyDelay(dot_len_delay);
 191              		.loc 1 71 0
 192 0084 FA20     		movs	r0, #250
 193 0086 4000     		lsls	r0, r0, #1
 194 0088 FFF7FEFF 		bl	CyDelay
 195              	.LVL25:
  72:main.c        ****                 Pin_Red_Write(0);
 196              		.loc 1 72 0
 197 008c 0020     		movs	r0, #0
 198 008e FFF7FEFF 		bl	Pin_Red_Write
 199              	.LVL26:
 200              	.L11:
  73:main.c        ****                 }
  74:main.c        **** 
  75:main.c        ****             dash_or_dot_bit = dash_or_dot_bit << 1;
 201              		.loc 1 75 0 discriminator 2
 202 0092 6400     		lsls	r4, r4, #1
 203              	.LVL27:
 204 0094 A4B2     		uxth	r4, r4
 205              	.LVL28:
  76:main.c        ****             CyDelay(dot_len_delay);
ARM GAS  C:\Users\ASUS\AppData\Local\Temp\cczxEqG3.s 			page 6


 206              		.loc 1 76 0 discriminator 2
 207 0096 FA20     		movs	r0, #250
 208 0098 4000     		lsls	r0, r0, #1
 209 009a FFF7FEFF 		bl	CyDelay
 210              	.LVL29:
  77:main.c        ****             PWM_1_Stop();
 211              		.loc 1 77 0 discriminator 2
 212 009e FFF7FEFF 		bl	PWM_1_Stop
 213              	.LVL30:
  52:main.c        ****             //interrupt_flag = 0;
 214              		.loc 1 52 0 discriminator 2
 215 00a2 0137     		adds	r7, r7, #1
 216              	.LVL31:
 217              	.L9:
  52:main.c        ****             //interrupt_flag = 0;
 218              		.loc 1 52 0 is_stmt 0 discriminator 1
 219 00a4 B742     		cmp	r7, r6
 220 00a6 CCDB     		blt	.L12
  78:main.c        ****         }
  79:main.c        ****         CyDelay(3 * dot_len_delay);
 221              		.loc 1 79 0 is_stmt 1 discriminator 2
 222 00a8 0C48     		ldr	r0, .L14+16
 223 00aa FFF7FEFF 		bl	CyDelay
 224              	.LVL32:
 225              	.LBE4:
  42:main.c        ****         n_letter_in_table = get_letter_pos(word[n_letter]);
 226              		.loc 1 42 0 discriminator 2
 227 00ae 4346     		mov	r3, r8
 228 00b0 0133     		adds	r3, r3, #1
 229 00b2 9BB2     		uxth	r3, r3
 230 00b4 9846     		mov	r8, r3
 231              	.LVL33:
 232              	.L8:
  42:main.c        ****         n_letter_in_table = get_letter_pos(word[n_letter]);
 233              		.loc 1 42 0 is_stmt 0 discriminator 1
 234 00b6 4846     		mov	r0, r9
 235 00b8 FFF7FEFF 		bl	strlen
 236              	.LVL34:
 237 00bc 8045     		cmp	r8, r0
 238 00be A8D3     		bcc	.L13
 239              	.LBE3:
  80:main.c        ****         }
  81:main.c        **** }
 240              		.loc 1 81 0 is_stmt 1
 241              		@ sp needed
 242              	.LVL35:
 243              	.LVL36:
 244 00c0 1CBC     		pop	{r2, r3, r4}
 245 00c2 9046     		mov	r8, r2
 246 00c4 9946     		mov	r9, r3
 247 00c6 A246     		mov	r10, r4
 248 00c8 F0BD     		pop	{r4, r5, r6, r7, pc}
 249              	.L15:
 250 00ca C046     		.align	2
 251              	.L14:
 252 00cc 00000000 		.word	.LANCHOR0
 253 00d0 00000000 		.word	TEXT_BUF
ARM GAS  C:\Users\ASUS\AppData\Local\Temp\cczxEqG3.s 			page 7


 254 00d4 00000000 		.word	.LC4
 255 00d8 04000000 		.word	.LC6
 256 00dc DC050000 		.word	1500
 257 00e0 1C250000 		.word	9500
 258              		.cfi_endproc
 259              	.LFE37:
 260              		.size	word_to_morse, .-word_to_morse
 261              		.section	.text.main,"ax",%progbits
 262              		.align	2
 263              		.global	main
 264              		.code	16
 265              		.thumb_func
 266              		.type	main, %function
 267              	main:
 268              	.LFB38:
  82:main.c        **** 
  83:main.c        **** int main(void)
  84:main.c        **** {
 269              		.loc 1 84 0
 270              		.cfi_startproc
 271              		@ args = 0, pretend = 0, frame = 8
 272              		@ frame_needed = 0, uses_anonymous_args = 0
 273 0000 00B5     		push	{lr}
 274              		.cfi_def_cfa_offset 4
 275              		.cfi_offset 14, -4
 276 0002 83B0     		sub	sp, sp, #12
 277              		.cfi_def_cfa_offset 16
  85:main.c        ****     CyGlobalIntEnable; /* Enable global interrupts. */
 278              		.loc 1 85 0
 279              		.syntax divided
 280              	@ 85 "main.c" 1
 281 0004 62B6     		CPSIE   i
 282              	@ 0 "" 2
  86:main.c        ****     
  87:main.c        ****     /* Start SCB UART TX+RX operation */    
  88:main.c        ****     UART_Start(); 
 283              		.loc 1 88 0
 284              		.thumb
 285              		.syntax unified
 286 0006 FFF7FEFF 		bl	UART_Start
 287              	.LVL37:
  89:main.c        ****     UART_UartPutString("Start UART\n");
 288              		.loc 1 89 0
 289 000a 0848     		ldr	r0, .L17
 290 000c FFF7FEFF 		bl	UART_UartPutString
 291              	.LVL38:
  90:main.c        ****     
  91:main.c        ****     CyDelay(100);
 292              		.loc 1 91 0
 293 0010 6420     		movs	r0, #100
 294 0012 FFF7FEFF 		bl	CyDelay
 295              	.LVL39:
  92:main.c        ****     
  93:main.c        ****     char word[] = {'a', 'b', 'd'};
 296              		.loc 1 93 0
 297 0016 0322     		movs	r2, #3
 298 0018 0549     		ldr	r1, .L17+4
ARM GAS  C:\Users\ASUS\AppData\Local\Temp\cczxEqG3.s 			page 8


 299 001a 01A8     		add	r0, sp, #4
 300 001c FFF7FEFF 		bl	memcpy
 301              	.LVL40:
  94:main.c        ****     
  95:main.c        ****     /* Place your initialization/startup code here (e.g. MyInst_Start()) */
  96:main.c        ****     word_to_morse(word);
 302              		.loc 1 96 0
 303 0020 01A8     		add	r0, sp, #4
 304 0022 FFF7FEFF 		bl	word_to_morse
 305              	.LVL41:
  97:main.c        **** }
 306              		.loc 1 97 0
 307 0026 0020     		movs	r0, #0
 308 0028 03B0     		add	sp, sp, #12
 309              		@ sp needed
 310 002a 00BD     		pop	{pc}
 311              	.L18:
 312              		.align	2
 313              	.L17:
 314 002c 0C000000 		.word	.LC8
 315 0030 00000000 		.word	.LANCHOR1
 316              		.cfi_endproc
 317              	.LFE38:
 318              		.size	main, .-main
 319              		.comm	TEXT_BUF,20,4
 320              		.global	letter_to_morse
 321              		.section	.rodata
 322              		.align	2
 323              		.set	.LANCHOR1,. + 0
 324              	.LC0:
 325 0000 61       		.byte	97
 326 0001 62       		.byte	98
 327 0002 64       		.byte	100
 328              		.data
 329              		.align	2
 330              		.set	.LANCHOR0,. + 0
 331              		.type	letter_to_morse, %object
 332              		.size	letter_to_morse, 18
 333              	letter_to_morse:
 334 0000 61       		.byte	97
 335 0001 02       		.byte	2
 336 0002 02       		.byte	2
 337 0003 62       		.byte	98
 338 0004 01       		.byte	1
 339 0005 04       		.byte	4
 340 0006 63       		.byte	99
 341 0007 05       		.byte	5
 342 0008 04       		.byte	4
 343 0009 64       		.byte	100
 344 000a 01       		.byte	1
 345 000b 03       		.byte	3
 346 000c 65       		.byte	101
 347 000d 00       		.byte	0
 348 000e 01       		.byte	1
 349 000f 66       		.byte	102
 350 0010 04       		.byte	4
 351 0011 04       		.byte	4
ARM GAS  C:\Users\ASUS\AppData\Local\Temp\cczxEqG3.s 			page 9


 352              		.section	.rodata.str1.4,"aMS",%progbits,1
 353              		.align	2
 354              	.LC4:
 355 0000 0A00     		.ascii	"\012\000"
 356 0002 0000     		.space	2
 357              	.LC6:
 358 0004 25640D0A 		.ascii	"%d\015\012\000"
 358      00
 359 0009 000000   		.space	3
 360              	.LC8:
 361 000c 53746172 		.ascii	"Start UART\012\000"
 361      74205541 
 361      52540A00 
 362              		.text
 363              	.Letext0:
 364              		.file 2 "letters_to_Morze_table.h"
 365              		.file 3 "Generated_Source\\PSoC4/UART_SPI_UART.h"
 366              		.file 4 "Generated_Source\\PSoC4/Pin_Red.h"
 367              		.file 5 "d:\\programs\\cypress\\psoc creator\\4.3\\psoc creator\\import\\gnu\\arm\\5.4.1\\arm-none
 368              		.file 6 "Generated_Source\\PSoC4/PWM_1.h"
 369              		.file 7 "Generated_Source\\PSoC4/CyLib.h"
 370              		.file 8 "d:\\programs\\cypress\\psoc creator\\4.3\\psoc creator\\import\\gnu\\arm\\5.4.1\\arm-none
 371              		.file 9 "Generated_Source\\PSoC4/UART.h"
 372              		.file 10 "Generated_Source\\PSoC4/cytypes.h"