ARM GAS  C:\Users\JANUSD~1\AppData\Local\Temp\ccalTqDa.s 			page 1


   1              		.syntax unified
   2              		.cpu cortex-m0
   3              		.fpu softvfp
   4              		.eabi_attribute 20, 1
   5              		.eabi_attribute 21, 1
   6              		.eabi_attribute 23, 3
   7              		.eabi_attribute 24, 1
   8              		.eabi_attribute 25, 1
   9              		.eabi_attribute 26, 1
  10              		.eabi_attribute 30, 6
  11              		.eabi_attribute 34, 0
  12              		.eabi_attribute 18, 4
  13              		.thumb
  14              		.syntax unified
  15              		.file	"customize.c"
  16              		.text
  17              	.Ltext0:
  18              		.cfi_sections	.debug_frame
  19              		.comm	current_watchdog_counter,2,2
  20              		.section	.rodata
  21              		.align	2
  22              	.LC0:
  23 0000 64696666 		.ascii	"diff  = %d \012 \000"
  23      20203D20 
  23      2564200A 
  23      2000
  24              		.section	.text.get_compare_from_analog,"ax",%progbits
  25              		.align	2
  26              		.global	get_compare_from_analog
  27              		.code	16
  28              		.thumb_func
  29              		.type	get_compare_from_analog, %function
  30              	get_compare_from_analog:
  31              	.LFB36:
  32              		.file 1 "customize.c"
   1:customize.c   **** #include <main.h>
   2:customize.c   **** #include <customize.h>
   3:customize.c   **** #include <stdio.h>
   4:customize.c   **** 
   5:customize.c   **** extern uint8 RGBData;
   6:customize.c   **** 
   7:customize.c   **** int get_compare_from_analog(uint16 val, uint16 init_val, uint16 prev_val){
  33              		.loc 1 7 0
  34              		.cfi_startproc
  35              		@ args = 0, pretend = 0, frame = 48
  36              		@ frame_needed = 1, uses_anonymous_args = 0
  37 0000 90B5     		push	{r4, r7, lr}
  38              		.cfi_def_cfa_offset 12
  39              		.cfi_offset 4, -12
  40              		.cfi_offset 7, -8
  41              		.cfi_offset 14, -4
  42 0002 8DB0     		sub	sp, sp, #52
  43              		.cfi_def_cfa_offset 64
  44 0004 00AF     		add	r7, sp, #0
  45              		.cfi_def_cfa_register 7
  46 0006 0400     		movs	r4, r0
  47 0008 0800     		movs	r0, r1
ARM GAS  C:\Users\JANUSD~1\AppData\Local\Temp\ccalTqDa.s 			page 2


  48 000a 1100     		movs	r1, r2
  49 000c BB1D     		adds	r3, r7, #6
  50 000e 221C     		adds	r2, r4, #0
  51 0010 1A80     		strh	r2, [r3]
  52 0012 3B1D     		adds	r3, r7, #4
  53 0014 021C     		adds	r2, r0, #0
  54 0016 1A80     		strh	r2, [r3]
  55 0018 BB1C     		adds	r3, r7, #2
  56 001a 0A1C     		adds	r2, r1, #0
  57 001c 1A80     		strh	r2, [r3]
   8:customize.c   ****     /*if (val < init_val){
   9:customize.c   ****         val = init_val;
  10:customize.c   ****     }*/
  11:customize.c   ****     int diff = val > init_val ? val-init_val : init_val - val;
  58              		.loc 1 11 0
  59 001e BA1D     		adds	r2, r7, #6
  60 0020 3B1D     		adds	r3, r7, #4
  61 0022 1288     		ldrh	r2, [r2]
  62 0024 1B88     		ldrh	r3, [r3]
  63 0026 9A42     		cmp	r2, r3
  64 0028 05D9     		bls	.L2
  65              		.loc 1 11 0 is_stmt 0 discriminator 1
  66 002a BB1D     		adds	r3, r7, #6
  67 002c 1A88     		ldrh	r2, [r3]
  68 002e 3B1D     		adds	r3, r7, #4
  69 0030 1B88     		ldrh	r3, [r3]
  70 0032 D31A     		subs	r3, r2, r3
  71 0034 04E0     		b	.L3
  72              	.L2:
  73              		.loc 1 11 0 discriminator 2
  74 0036 3B1D     		adds	r3, r7, #4
  75 0038 1A88     		ldrh	r2, [r3]
  76 003a BB1D     		adds	r3, r7, #6
  77 003c 1B88     		ldrh	r3, [r3]
  78 003e D31A     		subs	r3, r2, r3
  79              	.L3:
  80              		.loc 1 11 0 discriminator 4
  81 0040 FB62     		str	r3, [r7, #44]
  12:customize.c   ****     
  13:customize.c   ****     char rez[30];
  14:customize.c   ****     sprintf(rez, "diff  = %d \n ", diff);
  82              		.loc 1 14 0 is_stmt 1 discriminator 4
  83 0042 FA6A     		ldr	r2, [r7, #44]
  84 0044 0949     		ldr	r1, .L5
  85 0046 0C23     		movs	r3, #12
  86 0048 FB18     		adds	r3, r7, r3
  87 004a 1800     		movs	r0, r3
  88 004c FFF7FEFF 		bl	sprintf
  15:customize.c   ****     UART_UartPutString(rez);
  89              		.loc 1 15 0 discriminator 4
  90 0050 0C23     		movs	r3, #12
  91 0052 FB18     		adds	r3, r7, r3
  92 0054 1800     		movs	r0, r3
  93 0056 FFF7FEFF 		bl	UART_UartPutString
  16:customize.c   ****     CyDelay(50);
  94              		.loc 1 16 0 discriminator 4
  95 005a 3220     		movs	r0, #50
ARM GAS  C:\Users\JANUSD~1\AppData\Local\Temp\ccalTqDa.s 			page 3


  96 005c FFF7FEFF 		bl	CyDelay
  17:customize.c   ****     return diff ;
  97              		.loc 1 17 0 discriminator 4
  98 0060 FB6A     		ldr	r3, [r7, #44]
  18:customize.c   **** }
  99              		.loc 1 18 0 discriminator 4
 100 0062 1800     		movs	r0, r3
 101 0064 BD46     		mov	sp, r7
 102 0066 0DB0     		add	sp, sp, #52
 103              		@ sp needed
 104 0068 90BD     		pop	{r4, r7, pc}
 105              	.L6:
 106 006a C046     		.align	2
 107              	.L5:
 108 006c 00000000 		.word	.LC0
 109              		.cfi_endproc
 110              	.LFE36:
 111              		.size	get_compare_from_analog, .-get_compare_from_analog
 112              		.section	.text.get_brightness_from_analog,"ax",%progbits
 113              		.align	2
 114              		.global	get_brightness_from_analog
 115              		.code	16
 116              		.thumb_func
 117              		.type	get_brightness_from_analog, %function
 118              	get_brightness_from_analog:
 119              	.LFB37:
  19:customize.c   **** 
  20:customize.c   **** int get_brightness_from_analog(uint16 val, uint16 init_val, uint16 prev_val){
 120              		.loc 1 20 0
 121              		.cfi_startproc
 122              		@ args = 0, pretend = 0, frame = 48
 123              		@ frame_needed = 1, uses_anonymous_args = 0
 124 0000 90B5     		push	{r4, r7, lr}
 125              		.cfi_def_cfa_offset 12
 126              		.cfi_offset 4, -12
 127              		.cfi_offset 7, -8
 128              		.cfi_offset 14, -4
 129 0002 8DB0     		sub	sp, sp, #52
 130              		.cfi_def_cfa_offset 64
 131 0004 00AF     		add	r7, sp, #0
 132              		.cfi_def_cfa_register 7
 133 0006 0400     		movs	r4, r0
 134 0008 0800     		movs	r0, r1
 135 000a 1100     		movs	r1, r2
 136 000c BB1D     		adds	r3, r7, #6
 137 000e 221C     		adds	r2, r4, #0
 138 0010 1A80     		strh	r2, [r3]
 139 0012 3B1D     		adds	r3, r7, #4
 140 0014 021C     		adds	r2, r0, #0
 141 0016 1A80     		strh	r2, [r3]
 142 0018 BB1C     		adds	r3, r7, #2
 143 001a 0A1C     		adds	r2, r1, #0
 144 001c 1A80     		strh	r2, [r3]
  21:customize.c   ****     /*if (val < init_val){
  22:customize.c   ****         val = init_val;
  23:customize.c   ****     }*/
  24:customize.c   ****     int diff = val > init_val ? val-init_val : init_val - val;
ARM GAS  C:\Users\JANUSD~1\AppData\Local\Temp\ccalTqDa.s 			page 4


 145              		.loc 1 24 0
 146 001e BA1D     		adds	r2, r7, #6
 147 0020 3B1D     		adds	r3, r7, #4
 148 0022 1288     		ldrh	r2, [r2]
 149 0024 1B88     		ldrh	r3, [r3]
 150 0026 9A42     		cmp	r2, r3
 151 0028 05D9     		bls	.L8
 152              		.loc 1 24 0 is_stmt 0 discriminator 1
 153 002a BB1D     		adds	r3, r7, #6
 154 002c 1A88     		ldrh	r2, [r3]
 155 002e 3B1D     		adds	r3, r7, #4
 156 0030 1B88     		ldrh	r3, [r3]
 157 0032 D31A     		subs	r3, r2, r3
 158 0034 04E0     		b	.L9
 159              	.L8:
 160              		.loc 1 24 0 discriminator 2
 161 0036 3B1D     		adds	r3, r7, #4
 162 0038 1A88     		ldrh	r2, [r3]
 163 003a BB1D     		adds	r3, r7, #6
 164 003c 1B88     		ldrh	r3, [r3]
 165 003e D31A     		subs	r3, r2, r3
 166              	.L9:
 167              		.loc 1 24 0 discriminator 4
 168 0040 FB62     		str	r3, [r7, #44]
  25:customize.c   ****     
  26:customize.c   ****     char rez[30];
  27:customize.c   ****     sprintf(rez, "diff  = %d \n ", diff);
 169              		.loc 1 27 0 is_stmt 1 discriminator 4
 170 0042 FA6A     		ldr	r2, [r7, #44]
 171 0044 0C49     		ldr	r1, .L11
 172 0046 0C23     		movs	r3, #12
 173 0048 FB18     		adds	r3, r7, r3
 174 004a 1800     		movs	r0, r3
 175 004c FFF7FEFF 		bl	sprintf
  28:customize.c   ****     UART_UartPutString(rez);
 176              		.loc 1 28 0 discriminator 4
 177 0050 0C23     		movs	r3, #12
 178 0052 FB18     		adds	r3, r7, r3
 179 0054 1800     		movs	r0, r3
 180 0056 FFF7FEFF 		bl	UART_UartPutString
  29:customize.c   ****     //CyDelay(150);
  30:customize.c   ****     CyDelay(50);
 181              		.loc 1 30 0 discriminator 4
 182 005a 3220     		movs	r0, #50
 183 005c FFF7FEFF 		bl	CyDelay
  31:customize.c   ****     
  32:customize.c   ****     return (val- 1110)*10;
 184              		.loc 1 32 0 discriminator 4
 185 0060 BB1D     		adds	r3, r7, #6
 186 0062 1B88     		ldrh	r3, [r3]
 187 0064 054A     		ldr	r2, .L11+4
 188 0066 9A18     		adds	r2, r3, r2
 189 0068 1300     		movs	r3, r2
 190 006a 9B00     		lsls	r3, r3, #2
 191 006c 9B18     		adds	r3, r3, r2
 192 006e 5B00     		lsls	r3, r3, #1
  33:customize.c   **** }...
ARM GAS  C:\Users\JANUSD~1\AppData\Local\Temp\ccalTqDa.s 			page 5


 193              		.loc 1 33 0 discriminator 4
 194 0070 1800     		movs	r0, r3
 195 0072 BD46     		mov	sp, r7
 196 0074 0DB0     		add	sp, sp, #52
 197              		@ sp needed
 198 0076 90BD     		pop	{r4, r7, pc}
 199              	.L12:
 200              		.align	2
 201              	.L11:
 202 0078 00000000 		.word	.LC0
 203 007c AAFBFFFF 		.word	-1110
 204              		.cfi_endproc
 205              	.LFE37:
 206              		.size	get_brightness_from_analog, .-get_brightness_from_analog
 207              		.text
 208              	.Letext0:
 209              		.file 2 "Generated_Source\\PSoC4/BLE_Stack.h"
 210              		.file 3 "Generated_Source\\PSoC4/BLE_eventHandler.h"
 211              		.file 4 "Generated_Source\\PSoC4/cytypes.h"
 212              		.file 5 "./main.h"