ARM GAS  C:\Users\JANUSD~1\AppData\Local\Temp\ccxlqXKq.s 			page 1


   1              		.syntax unified
   2              		.cpu cortex-m0
   3              		.fpu softvfp
   4              		.eabi_attribute 20, 1
   5              		.eabi_attribute 21, 1
   6              		.eabi_attribute 23, 3
   7              		.eabi_attribute 24, 1
   8              		.eabi_attribute 25, 1
   9              		.eabi_attribute 26, 1
  10              		.eabi_attribute 30, 6
  11              		.eabi_attribute 34, 0
  12              		.eabi_attribute 18, 4
  13              		.thumb
  14              		.syntax unified
  15              		.file	"main.c"
  16              		.text
  17              	.Ltext0:
  18              		.cfi_sections	.debug_frame
  19              		.comm	current_watchdog_counter,2,2
  20              		.global	RGB_Collection
  21              		.data
  22              		.align	2
  23              		.type	RGB_Collection, %object
  24              		.size	RGB_Collection, 16
  25              	RGB_Collection:
  26 0000 00       		.byte	0
  27 0001 00       		.byte	0
  28 0002 FF       		.byte	-1
  29 0003 FF       		.byte	-1
  30 0004 FF       		.byte	-1
  31 0005 00       		.byte	0
  32 0006 FF       		.byte	-1
  33 0007 FF       		.byte	-1
  34 0008 00       		.byte	0
  35 0009 FF       		.byte	-1
  36 000a 00       		.byte	0
  37 000b FF       		.byte	-1
  38 000c FF       		.byte	-1
  39 000d FF       		.byte	-1
  40 000e 00       		.byte	0
  41 000f FF       		.byte	-1
  42              		.global	On_Off_collection
  43              		.align	2
  44              		.type	On_Off_collection, %object
  45              		.size	On_Off_collection, 2
  46              	On_Off_collection:
  47 0010 00       		.byte	0
  48 0011 FF       		.byte	-1
  49              		.global	interrupt_counter
  50              		.bss
  51              		.align	2
  52              		.type	interrupt_counter, %object
  53              		.size	interrupt_counter, 4
  54              	interrupt_counter:
  55 0000 00000000 		.space	4
  56              		.global	on_off_counter
  57              		.align	2
ARM GAS  C:\Users\JANUSD~1\AppData\Local\Temp\ccxlqXKq.s 			page 2


  58              		.type	on_off_counter, %object
  59              		.size	on_off_counter, 4
  60              	on_off_counter:
  61 0004 00000000 		.space	4
  62              		.comm	compare,4,4
  63              		.comm	val,2,2
  64              		.comm	prev_val,2,2
  65              		.comm	init_val,2,2
  66              		.global	clap_counter
  67              		.align	2
  68              		.type	clap_counter, %object
  69              		.size	clap_counter, 4
  70              	clap_counter:
  71 0008 00000000 		.space	4
  72              		.section	.text.main,"ax",%progbits
  73              		.align	2
  74              		.global	main
  75              		.code	16
  76              		.thumb_func
  77              		.type	main, %function
  78              	main:
  79              	.LFB36:
  80              		.file 1 "main.c"
   1:main.c        ****     /******************************************************************************
   2:main.c        **** * Project Name		: Mesh_Flood_PSoC4BLE
   3:main.c        **** * File Name			: main.c
   4:main.c        **** * Version 			: 1.0
   5:main.c        **** * Device Used		: CY8C4247LQI-BL483
   6:main.c        **** * Software Used		: PSoC Creator 3.1 SP1
   7:main.c        **** * Compiler    		: ARM GCC 4.8.4, ARM RVDS Generic, ARM MDK Generic
   8:main.c        **** * Related Hardware	: CY8CKIT-042-BLE Bluetooth Low Energy Pioneer Kit 
   9:main.c        **** * Owner             : roit@cypress.com
  10:main.c        **** *
  11:main.c        **** ********************************************************************************
  12:main.c        **** * Copyright (2014-15), Cypress Semiconductor Corporation. All Rights Reserved.
  13:main.c        **** ********************************************************************************
  14:main.c        **** * This software is owned by Cypress Semiconductor Corporation (Cypress)
  15:main.c        **** * and is protected by and subject to worldwide patent protection (United
  16:main.c        **** * States and foreign), United States copyright laws and international treaty
  17:main.c        **** * provisions. Cypress hereby grants to licensee a personal, non-exclusive,
  18:main.c        **** * non-transferable license to copy, use, modify, create derivative works of,
  19:main.c        **** * and compile the Cypress Source Code and derivative works for the sole
  20:main.c        **** * purpose of creating custom software in support of licensee product to be
  21:main.c        **** * used only in conjunction with a Cypress integrated circuit as specified in
  22:main.c        **** * the applicable agreement. Any reproduction, modification, translation,
  23:main.c        **** * compilation, or representation of this software except as specified above 
  24:main.c        **** * is prohibited without the express written permission of Cypress.
  25:main.c        **** *
  26:main.c        **** * Disclaimer: CYPRESS MAKES NO WARRANTY OF ANY KIND, EXPRESS OR IMPLIED, WITH 
  27:main.c        **** * REGARD TO THIS MATERIAL, INCLUDING, BUT NOT LIMITED TO, THE IMPLIED 
  28:main.c        **** * WARRANTIES OF MERCHANTABILITY AND FITNESS FOR A PARTICULAR PURPOSE.
  29:main.c        **** * Cypress reserves the right to make changes without further notice to the 
  30:main.c        **** * materials described herein. Cypress does not assume any liability arising out 
  31:main.c        **** * of the application or use of any product or circuit described herein. Cypress 
  32:main.c        **** * does not authorize its products for use as critical components in life-support 
  33:main.c        **** * systems where a malfunction or failure may reasonably be expected to result in 
  34:main.c        **** * significant injury to the user. The inclusion of Cypress' product in a life-
ARM GAS  C:\Users\JANUSD~1\AppData\Local\Temp\ccxlqXKq.s 			page 3


  35:main.c        **** * support systems application implies that the manufacturer assumes all risk of 
  36:main.c        **** * such use and in doing so indemnifies Cypress against all charges. 
  37:main.c        **** *
  38:main.c        **** * Use of this Software may be limited by and subject to the applicable Cypress
  39:main.c        **** * software license agreement. 
  40:main.c        **** *******************************************************************************/
  41:main.c        **** #include <main.h>
  42:main.c        **** #include <customize.h>
  43:main.c        **** #include <stdio.h>
  44:main.c        **** 
  45:main.c        **** extern uint8 switch_Role;
  46:main.c        **** extern uint8 ble_gap_state;
  47:main.c        **** extern uint8 deviceConnected;
  48:main.c        **** 
  49:main.c        **** extern uint8 restartScanning;
  50:main.c        **** 
  51:main.c        **** extern uint8 dataADVCounter;
  52:main.c        **** 
  53:main.c        **** 
  54:main.c        **** #ifdef ENABLE_ADV_DATA_COUNTER
  55:main.c        **** extern CYBLE_GAPP_DISC_DATA_T  new_advData;
  56:main.c        **** extern uint8 potential_node_found;
  57:main.c        **** extern uint8 potential_node_bdAddr[6];
  58:main.c        **** extern uint8 potential_node_bdAddrType;
  59:main.c        **** #endif
  60:main.c        **** 
  61:main.c        **** extern uint8 clientConnectToDevice;
  62:main.c        **** extern CYBLE_GAP_BD_ADDR_T				peripAddr;
  63:main.c        **** 
  64:main.c        **** CY_ISR_PROTO(CC_TC_InterruptHandler);
  65:main.c        **** void Change_brightness();
  66:main.c        **** 
  67:main.c        **** 
  68:main.c        **** uint8 RGB_Collection[4][4] = {
  69:main.c        ****     {0, 0, 0xFF, 0xFF},
  70:main.c        ****     {0xFF, 0, 0xFF, 0xFF},
  71:main.c        ****     {0, 0xFF, 0, 0xFF},
  72:main.c        ****     {0xFF, 0xFF, 0, 0xFF},
  73:main.c        **** };
  74:main.c        **** 
  75:main.c        **** uint8 On_Off_collection[2] = {0, 0xFF};
  76:main.c        **** 
  77:main.c        **** int interrupt_counter = 0;
  78:main.c        **** int on_off_counter = 0;
  79:main.c        **** 
  80:main.c        **** int compare;
  81:main.c        **** uint16 val;
  82:main.c        **** uint16 prev_val;
  83:main.c        **** uint16 init_val;
  84:main.c        **** 
  85:main.c        **** int clap_counter = 0;
  86:main.c        **** 
  87:main.c        **** /*******************************************************************************
  88:main.c        **** * Function Name: main
  89:main.c        **** ********************************************************************************
  90:main.c        **** * Summary:
  91:main.c        **** *       Entry point for the firmware, Starts the system and continuously processes
ARM GAS  C:\Users\JANUSD~1\AppData\Local\Temp\ccxlqXKq.s 			page 4


  92:main.c        **** * Application and BLE events.
  93:main.c        **** *
  94:main.c        **** * Parameters:
  95:main.c        **** *  void
  96:main.c        **** *
  97:main.c        **** * Return:
  98:main.c        **** *  int
  99:main.c        **** *
 100:main.c        **** *******************************************************************************/
 101:main.c        **** int main()
 102:main.c        **** {
  81              		.loc 1 102 0
  82              		.cfi_startproc
  83              		@ args = 0, pretend = 0, frame = 0
  84              		@ frame_needed = 1, uses_anonymous_args = 0
  85 0000 80B5     		push	{r7, lr}
  86              		.cfi_def_cfa_offset 8
  87              		.cfi_offset 7, -8
  88              		.cfi_offset 14, -4
  89 0002 00AF     		add	r7, sp, #0
  90              		.cfi_def_cfa_register 7
 103:main.c        ****     /* Initialize system */	
 104:main.c        **** 	InitializeSystem();
  91              		.loc 1 104 0
  92 0004 FFF7FEFF 		bl	InitializeSystem
  93              	.L2:
 105:main.c        **** 	
 106:main.c        **** 	#ifdef DEBUG_ENABLED
 107:main.c        **** 		UART_UartPutString("Sytem Started ");
 108:main.c        **** 		UART_UartPutCRLF(' ');
 109:main.c        **** 	#endif
 110:main.c        ****    
 111:main.c        ****     
 112:main.c        ****     
 113:main.c        ****     for(;;)
 114:main.c        ****     {
 115:main.c        **** 		/* Process BLE Events. This function generates the respective 
 116:main.c        **** 		* events to application layer */
 117:main.c        **** 		//CyBle_ProcessEvents();
 118:main.c        **** 
 119:main.c        **** 		/* If flag is set, then switch the GAP role between Peripheral and 
 120:main.c        **** 		* Central. This function disconnects existing connection, if any, 
 121:main.c        **** 		* before switching role. Depending on switched role, the system will
 122:main.c        **** 		* either start scanning or start advertisement */
 123:main.c        **** 		//SwitchRole();
 124:main.c        **** 		
 125:main.c        **** 		/* If a valid node is found, then this function will initiate a connection 
 126:main.c        **** 		* to that node. */
 127:main.c        **** 		//ConnectToPeripheralDevice();
 128:main.c        **** 		
 129:main.c        **** 		/* This function will restart scanning when earlier connection has been
 130:main.c        **** 		* disconnected. This function also checks internal counter and sets flag to
 131:main.c        **** 		* switch role from Central to Peripheral when the count is above set value. */
 132:main.c        **** 		//RestartCentralScanning();
 133:main.c        ****         
 134:main.c        ****         Change_brightness();
  94              		.loc 1 134 0 discriminator 1
ARM GAS  C:\Users\JANUSD~1\AppData\Local\Temp\ccxlqXKq.s 			page 5


  95 0008 FFF7FEFF 		bl	Change_brightness
 135:main.c        ****     }
  96              		.loc 1 135 0 discriminator 1
  97 000c FCE7     		b	.L2
  98              		.cfi_endproc
  99              	.LFE36:
 100              		.size	main, .-main
 101 000e C046     		.section	.rodata
 102              		.align	2
 103              	.LC1:
 104 0000 72657772 		.ascii	"rewrite  = %d \012 \000"
 104      69746520 
 104      203D2025 
 104      64200A20 
 104      00
 105              		.section	.text.Timer_Int_Handler,"ax",%progbits
 106              		.align	2
 107              		.global	Timer_Int_Handler
 108              		.code	16
 109              		.thumb_func
 110              		.type	Timer_Int_Handler, %function
 111              	Timer_Int_Handler:
 112              	.LFB37:
 136:main.c        **** }
 137:main.c        **** 
 138:main.c        **** CY_ISR(Timer_Int_Handler){
 113              		.loc 1 138 0
 114              		.cfi_startproc
 115              		@ args = 0, pretend = 0, frame = 32
 116              		@ frame_needed = 1, uses_anonymous_args = 0
 117 0000 80B5     		push	{r7, lr}
 118              		.cfi_def_cfa_offset 8
 119              		.cfi_offset 7, -8
 120              		.cfi_offset 14, -4
 121 0002 88B0     		sub	sp, sp, #32
 122              		.cfi_def_cfa_offset 40
 123 0004 00AF     		add	r7, sp, #0
 124              		.cfi_def_cfa_register 7
 139:main.c        ****     clap_counter =Timer_Claps_ReadCapture();
 125              		.loc 1 139 0
 126 0006 FFF7FEFF 		bl	Timer_Claps_ReadCapture
 127 000a 0300     		movs	r3, r0
 128 000c 1A00     		movs	r2, r3
 129 000e 0A4B     		ldr	r3, .L4
 130 0010 1A60     		str	r2, [r3]
 140:main.c        ****     //if (counter > 10000){
 141:main.c        ****       //  counter = 10000;
 142:main.c        ****     //}
 143:main.c        ****     char rez[30];
 144:main.c        ****     sprintf(rez, "rewrite  = %d \n ", clap_counter);
 131              		.loc 1 144 0
 132 0012 094B     		ldr	r3, .L4
 133 0014 1A68     		ldr	r2, [r3]
 134 0016 0949     		ldr	r1, .L4+4
 135 0018 3B00     		movs	r3, r7
 136 001a 1800     		movs	r0, r3
 137 001c FFF7FEFF 		bl	sprintf
ARM GAS  C:\Users\JANUSD~1\AppData\Local\Temp\ccxlqXKq.s 			page 6


 145:main.c        ****     UART_UartPutString(rez);
 138              		.loc 1 145 0
 139 0020 3B00     		movs	r3, r7
 140 0022 1800     		movs	r0, r3
 141 0024 FFF7FEFF 		bl	UART_UartPutString
 146:main.c        ****     if (clap_counter > 450){
 147:main.c        ****     }
 148:main.c        ****     
 149:main.c        ****     Timer_Claps_ClearInterrupt(Timer_Claps_INTR_MASK_CC_MATCH);
 142              		.loc 1 149 0
 143 0028 0220     		movs	r0, #2
 144 002a FFF7FEFF 		bl	Timer_Claps_ClearInterrupt
 150:main.c        ****     
 151:main.c        **** }
 145              		.loc 1 151 0
 146 002e C046     		nop
 147 0030 BD46     		mov	sp, r7
 148 0032 08B0     		add	sp, sp, #32
 149              		@ sp needed
 150 0034 80BD     		pop	{r7, pc}
 151              	.L5:
 152 0036 C046     		.align	2
 153              	.L4:
 154 0038 00000000 		.word	clap_counter
 155 003c 00000000 		.word	.LC1
 156              		.cfi_endproc
 157              	.LFE37:
 158              		.size	Timer_Int_Handler, .-Timer_Int_Handler
 159              		.section	.rodata
 160 0011 000000   		.align	2
 161              	.LC4:
 162 0014 636F756E 		.ascii	"counter  = %d \012 \000"
 162      74657220 
 162      203D2025 
 162      64200A20 
 162      00
 163 0025 000000   		.align	2
 164              	.LC10:
 165 0028 736D616C 		.ascii	"small  = %d \012 \000"
 165      6C20203D 
 165      20256420 
 165      0A2000
 166 0037 00       		.align	2
 167              	.LC12:
 168 0038 62696720 		.ascii	"big  = %d \012 \000"
 168      203D2025 
 168      64200A20 
 168      00
 169              		.section	.text.Complete_Int_Handler,"ax",%progbits
 170              		.align	2
 171              		.global	Complete_Int_Handler
 172              		.code	16
 173              		.thumb_func
 174              		.type	Complete_Int_Handler, %function
 175              	Complete_Int_Handler:
 176              	.LFB38:
 152:main.c        **** 
ARM GAS  C:\Users\JANUSD~1\AppData\Local\Temp\ccxlqXKq.s 			page 7


 153:main.c        **** CY_ISR(Complete_Int_Handler){
 177              		.loc 1 153 0
 178              		.cfi_startproc
 179              		@ args = 0, pretend = 0, frame = 40
 180              		@ frame_needed = 1, uses_anonymous_args = 0
 181 0000 80B5     		push	{r7, lr}
 182              		.cfi_def_cfa_offset 8
 183              		.cfi_offset 7, -8
 184              		.cfi_offset 14, -4
 185 0002 8AB0     		sub	sp, sp, #40
 186              		.cfi_def_cfa_offset 48
 187 0004 00AF     		add	r7, sp, #0
 188              		.cfi_def_cfa_register 7
 154:main.c        ****     Pin_Timer_Clear_Write(1);
 189              		.loc 1 154 0
 190 0006 0120     		movs	r0, #1
 191 0008 FFF7FEFF 		bl	Pin_Timer_Clear_Write
 155:main.c        ****     //Pin_Timer_Clear_Write(0);
 156:main.c        ****     //Pin_Timer_Clear_Write(1);
 157:main.c        ****     char rez[30];
 158:main.c        ****     sprintf(rez, "counter  = %d \n ", clap_counter);
 192              		.loc 1 158 0
 193 000c 6B4B     		ldr	r3, .L12
 194 000e 1A68     		ldr	r2, [r3]
 195 0010 6B49     		ldr	r1, .L12+4
 196 0012 0823     		movs	r3, #8
 197 0014 FB18     		adds	r3, r7, r3
 198 0016 1800     		movs	r0, r3
 199 0018 FFF7FEFF 		bl	sprintf
 159:main.c        ****     UART_UartPutString(rez);
 200              		.loc 1 159 0
 201 001c 0823     		movs	r3, #8
 202 001e FB18     		adds	r3, r7, r3
 203 0020 1800     		movs	r0, r3
 204 0022 FFF7FEFF 		bl	UART_UartPutString
 160:main.c        ****     clap_counter = Timer_Claps_ReadCapture();
 205              		.loc 1 160 0
 206 0026 FFF7FEFF 		bl	Timer_Claps_ReadCapture
 207 002a 0300     		movs	r3, r0
 208 002c 1A00     		movs	r2, r3
 209 002e 634B     		ldr	r3, .L12
 210 0030 1A60     		str	r2, [r3]
 161:main.c        ****     sprintf(rez, "counter  = %d \n ", clap_counter);
 211              		.loc 1 161 0
 212 0032 624B     		ldr	r3, .L12
 213 0034 1A68     		ldr	r2, [r3]
 214 0036 6249     		ldr	r1, .L12+4
 215 0038 0823     		movs	r3, #8
 216 003a FB18     		adds	r3, r7, r3
 217 003c 1800     		movs	r0, r3
 218 003e FFF7FEFF 		bl	sprintf
 162:main.c        ****     UART_UartPutString(rez);
 219              		.loc 1 162 0
 220 0042 0823     		movs	r3, #8
 221 0044 FB18     		adds	r3, r7, r3
 222 0046 1800     		movs	r0, r3
 223 0048 FFF7FEFF 		bl	UART_UartPutString
ARM GAS  C:\Users\JANUSD~1\AppData\Local\Temp\ccxlqXKq.s 			page 8


 163:main.c        ****     if (clap_counter < 350){
 224              		.loc 1 163 0
 225 004c 5B4B     		ldr	r3, .L12
 226 004e 1A68     		ldr	r2, [r3]
 227 0050 5E23     		movs	r3, #94
 228 0052 FF33     		adds	r3, r3, #255
 229 0054 9A42     		cmp	r2, r3
 230 0056 5BDC     		bgt	.L7
 231              	.LBB2:
 164:main.c        ****         CyDelay(100);
 232              		.loc 1 164 0
 233 0058 6420     		movs	r0, #100
 234 005a FFF7FEFF 		bl	CyDelay
 165:main.c        ****         CyGlobalIntDisable;
 235              		.loc 1 165 0
 236              		.syntax divided
 237              	@ 165 "main.c" 1
 238 005e 72B6     		CPSID   i
 239              	@ 0 "" 2
 166:main.c        ****         
 167:main.c        ****         on_off_counter++;
 240              		.loc 1 167 0
 241              		.thumb
 242              		.syntax unified
 243 0060 584B     		ldr	r3, .L12+8
 244 0062 1B68     		ldr	r3, [r3]
 245 0064 5A1C     		adds	r2, r3, #1
 246 0066 574B     		ldr	r3, .L12+8
 247 0068 1A60     		str	r2, [r3]
 168:main.c        ****         if (on_off_counter == 2) {
 248              		.loc 1 168 0
 249 006a 564B     		ldr	r3, .L12+8
 250 006c 1B68     		ldr	r3, [r3]
 251 006e 022B     		cmp	r3, #2
 252 0070 02D1     		bne	.L8
 169:main.c        ****             on_off_counter = 0;
 253              		.loc 1 169 0
 254 0072 544B     		ldr	r3, .L12+8
 255 0074 0022     		movs	r2, #0
 256 0076 1A60     		str	r2, [r3]
 257              	.L8:
 170:main.c        ****         }
 171:main.c        ****         
 172:main.c        ****         interrupt_counter++;
 258              		.loc 1 172 0
 259 0078 534B     		ldr	r3, .L12+12
 260 007a 1B68     		ldr	r3, [r3]
 261 007c 5A1C     		adds	r2, r3, #1
 262 007e 524B     		ldr	r3, .L12+12
 263 0080 1A60     		str	r2, [r3]
 173:main.c        ****         if (interrupt_counter == 4) {
 264              		.loc 1 173 0
 265 0082 514B     		ldr	r3, .L12+12
 266 0084 1B68     		ldr	r3, [r3]
 267 0086 042B     		cmp	r3, #4
 268 0088 02D1     		bne	.L9
 174:main.c        ****                 interrupt_counter = 0;
ARM GAS  C:\Users\JANUSD~1\AppData\Local\Temp\ccxlqXKq.s 			page 9


 269              		.loc 1 174 0
 270 008a 4F4B     		ldr	r3, .L12+12
 271 008c 0022     		movs	r2, #0
 272 008e 1A60     		str	r2, [r3]
 273              	.L9:
 175:main.c        ****             }
 176:main.c        ****         //CyDelay(50);
 177:main.c        ****         
 178:main.c        ****         uint8 bright = On_Off_collection[on_off_counter];
 274              		.loc 1 178 0
 275 0090 4C4B     		ldr	r3, .L12+8
 276 0092 1A68     		ldr	r2, [r3]
 277 0094 2723     		movs	r3, #39
 278 0096 FB18     		adds	r3, r7, r3
 279 0098 4C49     		ldr	r1, .L12+16
 280 009a 8A5C     		ldrb	r2, [r1, r2]
 281 009c 1A70     		strb	r2, [r3]
 179:main.c        ****         uint8 r[4];
 180:main.c        ****         r[0] = RGB_Collection[interrupt_counter][0];
 282              		.loc 1 180 0
 283 009e 4A4B     		ldr	r3, .L12+12
 284 00a0 1A68     		ldr	r2, [r3]
 285 00a2 4B4B     		ldr	r3, .L12+20
 286 00a4 9200     		lsls	r2, r2, #2
 287 00a6 D25C     		ldrb	r2, [r2, r3]
 288 00a8 3B1D     		adds	r3, r7, #4
 289 00aa 1A70     		strb	r2, [r3]
 181:main.c        ****         r[1] = RGB_Collection[interrupt_counter][1];
 290              		.loc 1 181 0
 291 00ac 464B     		ldr	r3, .L12+12
 292 00ae 1B68     		ldr	r3, [r3]
 293 00b0 474A     		ldr	r2, .L12+20
 294 00b2 9B00     		lsls	r3, r3, #2
 295 00b4 D318     		adds	r3, r2, r3
 296 00b6 0133     		adds	r3, r3, #1
 297 00b8 1A78     		ldrb	r2, [r3]
 298 00ba 3B1D     		adds	r3, r7, #4
 299 00bc 5A70     		strb	r2, [r3, #1]
 182:main.c        ****         r[2] = RGB_Collection[interrupt_counter][2];
 300              		.loc 1 182 0
 301 00be 424B     		ldr	r3, .L12+12
 302 00c0 1B68     		ldr	r3, [r3]
 303 00c2 434A     		ldr	r2, .L12+20
 304 00c4 9B00     		lsls	r3, r3, #2
 305 00c6 D318     		adds	r3, r2, r3
 306 00c8 0233     		adds	r3, r3, #2
 307 00ca 1A78     		ldrb	r2, [r3]
 308 00cc 3B1D     		adds	r3, r7, #4
 309 00ce 9A70     		strb	r2, [r3, #2]
 183:main.c        ****         r[3] = bright;
 310              		.loc 1 183 0
 311 00d0 3B1D     		adds	r3, r7, #4
 312 00d2 2722     		movs	r2, #39
 313 00d4 BA18     		adds	r2, r7, r2
 314 00d6 1278     		ldrb	r2, [r2]
 315 00d8 DA70     		strb	r2, [r3, #3]
 184:main.c        ****         sendColorDataToNetwork(r);
ARM GAS  C:\Users\JANUSD~1\AppData\Local\Temp\ccxlqXKq.s 			page 10


 316              		.loc 1 184 0
 317 00da 3B1D     		adds	r3, r7, #4
 318 00dc 1800     		movs	r0, r3
 319 00de FFF7FEFF 		bl	sendColorDataToNetwork
 185:main.c        ****         SwitchRole();
 320              		.loc 1 185 0
 321 00e2 FFF7FEFF 		bl	SwitchRole
 186:main.c        ****     	ConnectToPeripheralDevice();
 322              		.loc 1 186 0
 323 00e6 FFF7FEFF 		bl	ConnectToPeripheralDevice
 187:main.c        ****     	RestartCentralScanning();
 324              		.loc 1 187 0
 325 00ea FFF7FEFF 		bl	RestartCentralScanning
 188:main.c        ****         
 189:main.c        ****         sprintf(rez, "small  = %d \n ", clap_counter);
 326              		.loc 1 189 0
 327 00ee 334B     		ldr	r3, .L12
 328 00f0 1A68     		ldr	r2, [r3]
 329 00f2 3849     		ldr	r1, .L12+24
 330 00f4 0823     		movs	r3, #8
 331 00f6 FB18     		adds	r3, r7, r3
 332 00f8 1800     		movs	r0, r3
 333 00fa FFF7FEFF 		bl	sprintf
 190:main.c        ****         UART_UartPutString(rez);
 334              		.loc 1 190 0
 335 00fe 0823     		movs	r3, #8
 336 0100 FB18     		adds	r3, r7, r3
 337 0102 1800     		movs	r0, r3
 338 0104 FFF7FEFF 		bl	UART_UartPutString
 191:main.c        ****         
 192:main.c        ****         
 193:main.c        ****         isr_Counter_ClearPending();
 339              		.loc 1 193 0
 340 0108 FFF7FEFF 		bl	isr_Counter_ClearPending
 194:main.c        ****         CyGlobalIntEnable;
 341              		.loc 1 194 0
 342              		.syntax divided
 343              	@ 194 "main.c" 1
 344 010c 62B6     		CPSIE   i
 345              	@ 0 "" 2
 346              		.thumb
 347              		.syntax unified
 348              	.LBE2:
 349 010e 4EE0     		b	.L10
 350              	.L7:
 351              	.LBB3:
 195:main.c        ****     }else{
 196:main.c        ****     
 197:main.c        ****         on_off_counter++;
 352              		.loc 1 197 0
 353 0110 2C4B     		ldr	r3, .L12+8
 354 0112 1B68     		ldr	r3, [r3]
 355 0114 5A1C     		adds	r2, r3, #1
 356 0116 2B4B     		ldr	r3, .L12+8
 357 0118 1A60     		str	r2, [r3]
 198:main.c        ****         if (on_off_counter == 2) {
 358              		.loc 1 198 0
ARM GAS  C:\Users\JANUSD~1\AppData\Local\Temp\ccxlqXKq.s 			page 11


 359 011a 2A4B     		ldr	r3, .L12+8
 360 011c 1B68     		ldr	r3, [r3]
 361 011e 022B     		cmp	r3, #2
 362 0120 02D1     		bne	.L11
 199:main.c        ****             on_off_counter = 0;
 363              		.loc 1 199 0
 364 0122 284B     		ldr	r3, .L12+8
 365 0124 0022     		movs	r2, #0
 366 0126 1A60     		str	r2, [r3]
 367              	.L11:
 200:main.c        ****         }
 201:main.c        ****         
 202:main.c        ****         CyDelay(100);
 368              		.loc 1 202 0
 369 0128 6420     		movs	r0, #100
 370 012a FFF7FEFF 		bl	CyDelay
 203:main.c        ****         CyGlobalIntDisable;
 371              		.loc 1 203 0
 372              		.syntax divided
 373              	@ 203 "main.c" 1
 374 012e 72B6     		CPSID   i
 375              	@ 0 "" 2
 204:main.c        ****         uint8 bright = On_Off_collection[on_off_counter];
 376              		.loc 1 204 0
 377              		.thumb
 378              		.syntax unified
 379 0130 244B     		ldr	r3, .L12+8
 380 0132 1A68     		ldr	r2, [r3]
 381 0134 2623     		movs	r3, #38
 382 0136 FB18     		adds	r3, r7, r3
 383 0138 2449     		ldr	r1, .L12+16
 384 013a 8A5C     		ldrb	r2, [r1, r2]
 385 013c 1A70     		strb	r2, [r3]
 205:main.c        ****         uint8 r[4];
 206:main.c        ****         r[0] = RGB_Collection[interrupt_counter][0];
 386              		.loc 1 206 0
 387 013e 224B     		ldr	r3, .L12+12
 388 0140 1A68     		ldr	r2, [r3]
 389 0142 234B     		ldr	r3, .L12+20
 390 0144 9200     		lsls	r2, r2, #2
 391 0146 D25C     		ldrb	r2, [r2, r3]
 392 0148 3B00     		movs	r3, r7
 393 014a 1A70     		strb	r2, [r3]
 207:main.c        ****         r[1] = RGB_Collection[interrupt_counter][1];
 394              		.loc 1 207 0
 395 014c 1E4B     		ldr	r3, .L12+12
 396 014e 1B68     		ldr	r3, [r3]
 397 0150 1F4A     		ldr	r2, .L12+20
 398 0152 9B00     		lsls	r3, r3, #2
 399 0154 D318     		adds	r3, r2, r3
 400 0156 0133     		adds	r3, r3, #1
 401 0158 1A78     		ldrb	r2, [r3]
 402 015a 3B00     		movs	r3, r7
 403 015c 5A70     		strb	r2, [r3, #1]
 208:main.c        ****         r[2] = RGB_Collection[interrupt_counter][2];
 404              		.loc 1 208 0
 405 015e 1A4B     		ldr	r3, .L12+12
ARM GAS  C:\Users\JANUSD~1\AppData\Local\Temp\ccxlqXKq.s 			page 12


 406 0160 1B68     		ldr	r3, [r3]
 407 0162 1B4A     		ldr	r2, .L12+20
 408 0164 9B00     		lsls	r3, r3, #2
 409 0166 D318     		adds	r3, r2, r3
 410 0168 0233     		adds	r3, r3, #2
 411 016a 1A78     		ldrb	r2, [r3]
 412 016c 3B00     		movs	r3, r7
 413 016e 9A70     		strb	r2, [r3, #2]
 209:main.c        ****         r[3] = bright;
 414              		.loc 1 209 0
 415 0170 3B00     		movs	r3, r7
 416 0172 2622     		movs	r2, #38
 417 0174 BA18     		adds	r2, r7, r2
 418 0176 1278     		ldrb	r2, [r2]
 419 0178 DA70     		strb	r2, [r3, #3]
 210:main.c        ****         sendColorDataToNetwork(r);
 420              		.loc 1 210 0
 421 017a 3B00     		movs	r3, r7
 422 017c 1800     		movs	r0, r3
 423 017e FFF7FEFF 		bl	sendColorDataToNetwork
 211:main.c        ****         SwitchRole();
 424              		.loc 1 211 0
 425 0182 FFF7FEFF 		bl	SwitchRole
 212:main.c        ****     	ConnectToPeripheralDevice();
 426              		.loc 1 212 0
 427 0186 FFF7FEFF 		bl	ConnectToPeripheralDevice
 213:main.c        ****     	RestartCentralScanning();
 428              		.loc 1 213 0
 429 018a FFF7FEFF 		bl	RestartCentralScanning
 214:main.c        ****         
 215:main.c        ****         sprintf(rez, "big  = %d \n ", clap_counter);
 430              		.loc 1 215 0
 431 018e 0B4B     		ldr	r3, .L12
 432 0190 1A68     		ldr	r2, [r3]
 433 0192 1149     		ldr	r1, .L12+28
 434 0194 0823     		movs	r3, #8
 435 0196 FB18     		adds	r3, r7, r3
 436 0198 1800     		movs	r0, r3
 437 019a FFF7FEFF 		bl	sprintf
 216:main.c        ****         UART_UartPutString(rez);
 438              		.loc 1 216 0
 439 019e 0823     		movs	r3, #8
 440 01a0 FB18     		adds	r3, r7, r3
 441 01a2 1800     		movs	r0, r3
 442 01a4 FFF7FEFF 		bl	UART_UartPutString
 217:main.c        ****         
 218:main.c        ****         
 219:main.c        ****         isr_Counter_ClearPending();
 443              		.loc 1 219 0
 444 01a8 FFF7FEFF 		bl	isr_Counter_ClearPending
 220:main.c        ****         CyGlobalIntEnable;
 445              		.loc 1 220 0
 446              		.syntax divided
 447              	@ 220 "main.c" 1
 448 01ac 62B6     		CPSIE   i
 449              	@ 0 "" 2
 450              		.thumb
ARM GAS  C:\Users\JANUSD~1\AppData\Local\Temp\ccxlqXKq.s 			page 13


 451              		.syntax unified
 452              	.L10:
 453              	.LBE3:
 221:main.c        ****     }
 222:main.c        ****     Pin_Timer_Clear_Write(0);
 454              		.loc 1 222 0
 455 01ae 0020     		movs	r0, #0
 456 01b0 FFF7FEFF 		bl	Pin_Timer_Clear_Write
 223:main.c        **** }
 457              		.loc 1 223 0
 458 01b4 C046     		nop
 459 01b6 BD46     		mov	sp, r7
 460 01b8 0AB0     		add	sp, sp, #40
 461              		@ sp needed
 462 01ba 80BD     		pop	{r7, pc}
 463              	.L13:
 464              		.align	2
 465              	.L12:
 466 01bc 00000000 		.word	clap_counter
 467 01c0 14000000 		.word	.LC4
 468 01c4 00000000 		.word	on_off_counter
 469 01c8 00000000 		.word	interrupt_counter
 470 01cc 00000000 		.word	On_Off_collection
 471 01d0 00000000 		.word	RGB_Collection
 472 01d4 28000000 		.word	.LC10
 473 01d8 38000000 		.word	.LC12
 474              		.cfi_endproc
 475              	.LFE38:
 476              		.size	Complete_Int_Handler, .-Complete_Int_Handler
 477              		.section	.rodata
 478 0045 000000   		.align	2
 479              	.LC21:
 480 0048 48656C6C 		.ascii	"Helloushki\012\000"
 480      6F757368 
 480      6B690A00 
 481              		.section	.text.InitializeSystem,"ax",%progbits
 482              		.align	2
 483              		.global	InitializeSystem
 484              		.code	16
 485              		.thumb_func
 486              		.type	InitializeSystem, %function
 487              	InitializeSystem:
 488              	.LFB39:
 224:main.c        **** 
 225:main.c        **** /*******************************************************************************
 226:main.c        **** * Function Name: InitializeSystem
 227:main.c        **** ********************************************************************************
 228:main.c        **** * Summary:
 229:main.c        **** *       Starts the components in the project and registers BLE event handler 
 230:main.c        **** * function. It also modifies the advertisement packet and appends data counter
 231:main.c        **** * at its end.
 232:main.c        **** *
 233:main.c        **** * Parameters:
 234:main.c        **** *  void
 235:main.c        **** *
 236:main.c        **** * Return:
 237:main.c        **** *  void
ARM GAS  C:\Users\JANUSD~1\AppData\Local\Temp\ccxlqXKq.s 			page 14


 238:main.c        **** *
 239:main.c        **** *******************************************************************************/
 240:main.c        **** void InitializeSystem(void)
 241:main.c        **** {
 489              		.loc 1 241 0
 490              		.cfi_startproc
 491              		@ args = 0, pretend = 0, frame = 8
 492              		@ frame_needed = 1, uses_anonymous_args = 0
 493 0000 80B5     		push	{r7, lr}
 494              		.cfi_def_cfa_offset 8
 495              		.cfi_offset 7, -8
 496              		.cfi_offset 14, -4
 497 0002 82B0     		sub	sp, sp, #8
 498              		.cfi_def_cfa_offset 16
 499 0004 00AF     		add	r7, sp, #0
 500              		.cfi_def_cfa_register 7
 242:main.c        ****     // ADC
 243:main.c        ****     ADC_MIC_Start();
 501              		.loc 1 243 0
 502 0006 FFF7FEFF 		bl	ADC_MIC_Start
 244:main.c        ****     ADC_MIC_StartConvert();
 503              		.loc 1 244 0
 504 000a FFF7FEFF 		bl	ADC_MIC_StartConvert
 245:main.c        ****     uint16 val = ADC_MIC_GetResult16(0);
 505              		.loc 1 245 0
 506 000e 0020     		movs	r0, #0
 507 0010 FFF7FEFF 		bl	ADC_MIC_GetResult16
 508 0014 0300     		movs	r3, r0
 509 0016 1A00     		movs	r2, r3
 510 0018 BB1D     		adds	r3, r7, #6
 511 001a 1A80     		strh	r2, [r3]
 246:main.c        ****     uint16 prev_val;
 247:main.c        ****     uint16 init_val = ADC_MIC_GetResult16(0);
 512              		.loc 1 247 0
 513 001c 0020     		movs	r0, #0
 514 001e FFF7FEFF 		bl	ADC_MIC_GetResult16
 515 0022 0300     		movs	r3, r0
 516 0024 1A00     		movs	r2, r3
 517 0026 3B1D     		adds	r3, r7, #4
 518 0028 1A80     		strh	r2, [r3]
 248:main.c        ****     
 249:main.c        ****     isr_Counter_StartEx(CC_TC_InterruptHandler);
 519              		.loc 1 249 0
 520 002a 2F4B     		ldr	r3, .L16
 521 002c 1800     		movs	r0, r3
 522 002e FFF7FEFF 		bl	isr_Counter_StartEx
 250:main.c        ****     
 251:main.c        ****     // PWM
 252:main.c        ****     //PWM_Brightness_Start();
 253:main.c        ****     //int compare;
 254:main.c        ****     
 255:main.c        ****     
 256:main.c        ****     //isr_Counter_SetPriority(0);
 257:main.c        ****     
 258:main.c        **** 	/* Enable global interrupts. */
 259:main.c        **** 	CyGlobalIntEnable;
 523              		.loc 1 259 0
ARM GAS  C:\Users\JANUSD~1\AppData\Local\Temp\ccxlqXKq.s 			page 15


 524              		.syntax divided
 525              	@ 259 "main.c" 1
 526 0032 62B6     		CPSIE   i
 527              	@ 0 "" 2
 260:main.c        **** 	
 261:main.c        ****     Timer_Claps_Start();
 528              		.loc 1 261 0
 529              		.thumb
 530              		.syntax unified
 531 0034 FFF7FEFF 		bl	Timer_Claps_Start
 262:main.c        ****     isr_timer_StartEx(Timer_Int_Handler);
 532              		.loc 1 262 0
 533 0038 2C4B     		ldr	r3, .L16+4
 534 003a 1800     		movs	r0, r3
 535 003c FFF7FEFF 		bl	isr_timer_StartEx
 263:main.c        ****     isr_complete_StartEx(Complete_Int_Handler);
 536              		.loc 1 263 0
 537 0040 2B4B     		ldr	r3, .L16+8
 538 0042 1800     		movs	r0, r3
 539 0044 FFF7FEFF 		bl	isr_complete_StartEx
 264:main.c        ****     
 265:main.c        **** 	/* Start BLE component and Register the generic Event callback function */
 266:main.c        **** 	CyBle_Start(GenericEventHandler);
 540              		.loc 1 266 0
 541 0048 2A4B     		ldr	r3, .L16+12
 542 004a 1800     		movs	r0, r3
 543 004c FFF7FEFF 		bl	CyBle_Start
 267:main.c        ****     
 268:main.c        ****     // Define interrupt handle for color changes
 269:main.c        ****     //PWM_1sWindow_Start();
 270:main.c        ****     //isr_Counter_StartEx(CC_TC_InterruptHandler);
 271:main.c        **** 	
 272:main.c        **** 	/* Start the PrISM component and configure drive mode of LED pins to be
 273:main.c        **** 	* initially OFF*/
 274:main.c        **** 	PrISM_1_Start();
 544              		.loc 1 274 0
 545 0050 FFF7FEFF 		bl	PrISM_1_Start
 275:main.c        **** 	PrISM_2_Start();
 546              		.loc 1 275 0
 547 0054 FFF7FEFF 		bl	PrISM_2_Start
 276:main.c        **** 	
 277:main.c        **** 	PrISM_1_WritePulse0(255);
 548              		.loc 1 277 0
 549 0058 FF20     		movs	r0, #255
 550 005a FFF7FEFF 		bl	PrISM_1_WritePulse0
 278:main.c        **** 	PrISM_1_WritePulse1(255);
 551              		.loc 1 278 0
 552 005e FF20     		movs	r0, #255
 553 0060 FFF7FEFF 		bl	PrISM_1_WritePulse1
 279:main.c        **** 	PrISM_2_WritePulse0(255);
 554              		.loc 1 279 0
 555 0064 FF20     		movs	r0, #255
 556 0066 FFF7FEFF 		bl	PrISM_2_WritePulse0
 280:main.c        **** 	
 281:main.c        **** 	RED_SetDriveMode(RED_DM_STRONG);
 557              		.loc 1 281 0
 558 006a 0620     		movs	r0, #6
ARM GAS  C:\Users\JANUSD~1\AppData\Local\Temp\ccxlqXKq.s 			page 16


 559 006c FFF7FEFF 		bl	RED_SetDriveMode
 282:main.c        **** 	GREEN_SetDriveMode(GREEN_DM_STRONG);
 560              		.loc 1 282 0
 561 0070 0620     		movs	r0, #6
 562 0072 FFF7FEFF 		bl	GREEN_SetDriveMode
 283:main.c        **** 	BLUE_SetDriveMode(BLUE_DM_STRONG);
 563              		.loc 1 283 0
 564 0076 0620     		movs	r0, #6
 565 0078 FFF7FEFF 		bl	BLUE_SetDriveMode
 284:main.c        **** 	
 285:main.c        **** 	/* Configure the Watchdog (WDT) timer for 100 millisecond timing */
 286:main.c        **** 	InitializeWatchdog(WATCHDOG_COUNT_VAL);
 566              		.loc 1 286 0
 567 007c 1E4B     		ldr	r3, .L16+16
 568 007e 1800     		movs	r0, r3
 569 0080 FFF7FEFF 		bl	InitializeWatchdog
 287:main.c        **** 
 288:main.c        **** 	#ifdef ENABLE_ADV_DATA_COUNTER
 289:main.c        **** 	new_advData = *cyBle_discoveryModeInfo.advData;
 570              		.loc 1 289 0
 571 0084 1D4B     		ldr	r3, .L16+20
 572 0086 9B68     		ldr	r3, [r3, #8]
 573 0088 1D4A     		ldr	r2, .L16+24
 574 008a 1000     		movs	r0, r2
 575 008c 1900     		movs	r1, r3
 576 008e 2023     		movs	r3, #32
 577 0090 1A00     		movs	r2, r3
 578 0092 FFF7FEFF 		bl	memcpy
 290:main.c        **** 	
 291:main.c        **** 	if( cyBle_discoveryModeInfo.advData->advDataLen < 29)
 579              		.loc 1 291 0
 580 0096 194B     		ldr	r3, .L16+20
 581 0098 9B68     		ldr	r3, [r3, #8]
 582 009a DB7F     		ldrb	r3, [r3, #31]
 583 009c 1C2B     		cmp	r3, #28
 584 009e 15D8     		bhi	.L15
 292:main.c        **** 	{
 293:main.c        **** 		/* Initialize the DataCounter data in advertisement packet. This is custom data in 
 294:main.c        **** 		* ADV packet and used to track whether the RGB LED data is latest or not */
 295:main.c        **** 		new_advData.advData[cyBle_discoveryModeInfo.advData->advDataLen] = CUSTOM_ADV_DATA_MARKER;	
 585              		.loc 1 295 0
 586 00a0 164B     		ldr	r3, .L16+20
 587 00a2 9B68     		ldr	r3, [r3, #8]
 588 00a4 DB7F     		ldrb	r3, [r3, #31]
 589 00a6 1A00     		movs	r2, r3
 590 00a8 154B     		ldr	r3, .L16+24
 591 00aa 0121     		movs	r1, #1
 592 00ac 9954     		strb	r1, [r3, r2]
 296:main.c        **** 		new_advData.advData[cyBle_discoveryModeInfo.advData->advDataLen+1] = dataADVCounter;
 593              		.loc 1 296 0
 594 00ae 134B     		ldr	r3, .L16+20
 595 00b0 9B68     		ldr	r3, [r3, #8]
 596 00b2 DB7F     		ldrb	r3, [r3, #31]
 597 00b4 0133     		adds	r3, r3, #1
 598 00b6 134A     		ldr	r2, .L16+28
 599 00b8 1178     		ldrb	r1, [r2]
 600 00ba 114A     		ldr	r2, .L16+24
ARM GAS  C:\Users\JANUSD~1\AppData\Local\Temp\ccxlqXKq.s 			page 17


 601 00bc D154     		strb	r1, [r2, r3]
 297:main.c        **** 		new_advData.advDataLen = cyBle_discoveryModeInfo.advData->advDataLen+2;
 602              		.loc 1 297 0
 603 00be 0F4B     		ldr	r3, .L16+20
 604 00c0 9B68     		ldr	r3, [r3, #8]
 605 00c2 DB7F     		ldrb	r3, [r3, #31]
 606 00c4 0233     		adds	r3, r3, #2
 607 00c6 DAB2     		uxtb	r2, r3
 608 00c8 0D4B     		ldr	r3, .L16+24
 609 00ca DA77     		strb	r2, [r3, #31]
 610              	.L15:
 298:main.c        **** 	}
 299:main.c        **** 	
 300:main.c        **** 	/* Assign the new ADV data to stack */
 301:main.c        **** 	cyBle_discoveryModeInfo.advData = &new_advData;
 611              		.loc 1 301 0
 612 00cc 0B4B     		ldr	r3, .L16+20
 613 00ce 0C4A     		ldr	r2, .L16+24
 614 00d0 9A60     		str	r2, [r3, #8]
 302:main.c        **** 	#endif
 303:main.c        **** 	
 304:main.c        ****     //Timet_new
 305:main.c        **** 	/* Provide a color pusle on RGB LED to indicate startup */
 306:main.c        **** 	//PrISM_1_WritePulse1(128);
 307:main.c        **** 	//CyDelay(20);
 308:main.c        **** 	//PrISM_1_WritePulse1(255);
 309:main.c        **** 	
 310:main.c        ****     UART_Start();
 615              		.loc 1 310 0
 616 00d2 FFF7FEFF 		bl	UART_Start
 311:main.c        ****     UART_UartPutString("Helloushki\n");
 617              		.loc 1 311 0
 618 00d6 0C4B     		ldr	r3, .L16+32
 619 00d8 1800     		movs	r0, r3
 620 00da FFF7FEFF 		bl	UART_UartPutString
 312:main.c        ****     
 313:main.c        **** 	#ifdef DEBUG_ENABLED
 314:main.c        **** 		
 315:main.c        **** 		UART_UartPutString("--------------------------Mesh Flood-----------------------------------------
 316:main.c        **** 		UART_UartPutCRLF(' ');
 317:main.c        **** 	#endif
 318:main.c        **** }
 621              		.loc 1 318 0
 622 00de C046     		nop
 623 00e0 BD46     		mov	sp, r7
 624 00e2 02B0     		add	sp, sp, #8
 625              		@ sp needed
 626 00e4 80BD     		pop	{r7, pc}
 627              	.L17:
 628 00e6 C046     		.align	2
 629              	.L16:
 630 00e8 00000000 		.word	CC_TC_InterruptHandler
 631 00ec 00000000 		.word	Timer_Int_Handler
 632 00f0 00000000 		.word	Complete_Int_Handler
 633 00f4 00000000 		.word	GenericEventHandler
 634 00f8 CC0C0000 		.word	3276
 635 00fc 00000000 		.word	cyBle_discoveryModeInfo
ARM GAS  C:\Users\JANUSD~1\AppData\Local\Temp\ccxlqXKq.s 			page 18


 636 0100 00000000 		.word	new_advData
 637 0104 00000000 		.word	dataADVCounter
 638 0108 48000000 		.word	.LC21
 639              		.cfi_endproc
 640              	.LFE39:
 641              		.size	InitializeSystem, .-InitializeSystem
 642              		.section	.rodata
 643              		.align	2
 644              	.LC29:
 645 0054 616E616C 		.ascii	"analog = %d led = %d \012 \000"
 645      6F67203D 
 645      20256420 
 645      6C656420 
 645      3D202564 
 646              		.section	.text.Change_brightness,"ax",%progbits
 647              		.align	2
 648              		.global	Change_brightness
 649              		.code	16
 650              		.thumb_func
 651              		.type	Change_brightness, %function
 652              	Change_brightness:
 653              	.LFB40:
 319:main.c        **** 
 320:main.c        **** void Change_brightness(){
 654              		.loc 1 320 0
 655              		.cfi_startproc
 656              		@ args = 0, pretend = 0, frame = 40
 657              		@ frame_needed = 1, uses_anonymous_args = 0
 658 0000 80B5     		push	{r7, lr}
 659              		.cfi_def_cfa_offset 8
 660              		.cfi_offset 7, -8
 661              		.cfi_offset 14, -4
 662 0002 8AB0     		sub	sp, sp, #40
 663              		.cfi_def_cfa_offset 48
 664 0004 00AF     		add	r7, sp, #0
 665              		.cfi_def_cfa_register 7
 321:main.c        ****     prev_val = val;
 666              		.loc 1 321 0
 667 0006 2F4B     		ldr	r3, .L21
 668 0008 1A88     		ldrh	r2, [r3]
 669 000a 2F4B     		ldr	r3, .L21+4
 670 000c 1A80     		strh	r2, [r3]
 322:main.c        ****     val = ADC_MIC_GetResult16(0); // analog value from microphone
 671              		.loc 1 322 0
 672 000e 0020     		movs	r0, #0
 673 0010 FFF7FEFF 		bl	ADC_MIC_GetResult16
 674 0014 0300     		movs	r3, r0
 675 0016 9AB2     		uxth	r2, r3
 676 0018 2A4B     		ldr	r3, .L21
 677 001a 1A80     		strh	r2, [r3]
 323:main.c        ****     if (init_val == 0){
 678              		.loc 1 323 0
 679 001c 2B4B     		ldr	r3, .L21+8
 680 001e 1B88     		ldrh	r3, [r3]
 681 0020 002B     		cmp	r3, #0
 682 0022 06D1     		bne	.L19
 324:main.c        ****     init_val = ADC_MIC_GetResult16(0);}
ARM GAS  C:\Users\JANUSD~1\AppData\Local\Temp\ccxlqXKq.s 			page 19


 683              		.loc 1 324 0
 684 0024 0020     		movs	r0, #0
 685 0026 FFF7FEFF 		bl	ADC_MIC_GetResult16
 686 002a 0300     		movs	r3, r0
 687 002c 9AB2     		uxth	r2, r3
 688 002e 274B     		ldr	r3, .L21+8
 689 0030 1A80     		strh	r2, [r3]
 690              	.L19:
 325:main.c        ****     compare = get_compare_from_analog(val, init_val, prev_val);
 691              		.loc 1 325 0
 692 0032 244B     		ldr	r3, .L21
 693 0034 1888     		ldrh	r0, [r3]
 694 0036 254B     		ldr	r3, .L21+8
 695 0038 1988     		ldrh	r1, [r3]
 696 003a 234B     		ldr	r3, .L21+4
 697 003c 1B88     		ldrh	r3, [r3]
 698 003e 1A00     		movs	r2, r3
 699 0040 FFF7FEFF 		bl	get_compare_from_analog
 700 0044 0200     		movs	r2, r0
 701 0046 224B     		ldr	r3, .L21+12
 702 0048 1A60     		str	r2, [r3]
 326:main.c        ****     int brightness = get_brightness_from_analog(val, init_val, prev_val);
 703              		.loc 1 326 0
 704 004a 1E4B     		ldr	r3, .L21
 705 004c 1888     		ldrh	r0, [r3]
 706 004e 1F4B     		ldr	r3, .L21+8
 707 0050 1988     		ldrh	r1, [r3]
 708 0052 1D4B     		ldr	r3, .L21+4
 709 0054 1B88     		ldrh	r3, [r3]
 710 0056 1A00     		movs	r2, r3
 711 0058 FFF7FEFF 		bl	get_brightness_from_analog
 712 005c 0300     		movs	r3, r0
 713 005e 7B62     		str	r3, [r7, #36]
 327:main.c        ****     if (compare > 3){
 714              		.loc 1 327 0
 715 0060 1B4B     		ldr	r3, .L21+12
 716 0062 1B68     		ldr	r3, [r3]
 717 0064 032B     		cmp	r3, #3
 718 0066 0BDD     		ble	.L20
 328:main.c        ****     interrupt_counter++;
 719              		.loc 1 328 0
 720 0068 1A4B     		ldr	r3, .L21+16
 721 006a 1B68     		ldr	r3, [r3]
 722 006c 5A1C     		adds	r2, r3, #1
 723 006e 194B     		ldr	r3, .L21+16
 724 0070 1A60     		str	r2, [r3]
 329:main.c        ****     if (interrupt_counter == 4) {
 725              		.loc 1 329 0
 726 0072 184B     		ldr	r3, .L21+16
 727 0074 1B68     		ldr	r3, [r3]
 728 0076 042B     		cmp	r3, #4
 729 0078 02D1     		bne	.L20
 330:main.c        ****             interrupt_counter = 0;
 730              		.loc 1 330 0
 731 007a 164B     		ldr	r3, .L21+16
 732 007c 0022     		movs	r2, #0
 733 007e 1A60     		str	r2, [r3]
ARM GAS  C:\Users\JANUSD~1\AppData\Local\Temp\ccxlqXKq.s 			page 20


 734              	.L20:
 331:main.c        ****         }}
 332:main.c        ****     RGB_Collection[interrupt_counter][3] = brightness;
 735              		.loc 1 332 0
 736 0080 144B     		ldr	r3, .L21+16
 737 0082 1B68     		ldr	r3, [r3]
 738 0084 7A6A     		ldr	r2, [r7, #36]
 739 0086 D1B2     		uxtb	r1, r2
 740 0088 134A     		ldr	r2, .L21+20
 741 008a 9B00     		lsls	r3, r3, #2
 742 008c D318     		adds	r3, r2, r3
 743 008e 0333     		adds	r3, r3, #3
 744 0090 0A1C     		adds	r2, r1, #0
 745 0092 1A70     		strb	r2, [r3]
 333:main.c        ****     char rez[30];
 334:main.c        ****     sprintf(rez, "analog = %d led = %d \n ", val, brightness);
 746              		.loc 1 334 0
 747 0094 0B4B     		ldr	r3, .L21
 748 0096 1B88     		ldrh	r3, [r3]
 749 0098 1A00     		movs	r2, r3
 750 009a 7B6A     		ldr	r3, [r7, #36]
 751 009c 0F49     		ldr	r1, .L21+24
 752 009e 381D     		adds	r0, r7, #4
 753 00a0 FFF7FEFF 		bl	sprintf
 335:main.c        ****     UART_UartPutString(rez);
 754              		.loc 1 335 0
 755 00a4 3B1D     		adds	r3, r7, #4
 756 00a6 1800     		movs	r0, r3
 757 00a8 FFF7FEFF 		bl	UART_UartPutString
 336:main.c        ****     //PWM_Brightness_WriteCompare(compare); // change the brightness of LED
 337:main.c        ****     
 338:main.c        ****     sendColorDataToNetwork(RGB_Collection[interrupt_counter]);
 758              		.loc 1 338 0
 759 00ac 094B     		ldr	r3, .L21+16
 760 00ae 1B68     		ldr	r3, [r3]
 761 00b0 9A00     		lsls	r2, r3, #2
 762 00b2 094B     		ldr	r3, .L21+20
 763 00b4 D318     		adds	r3, r2, r3
 764 00b6 1800     		movs	r0, r3
 765 00b8 FFF7FEFF 		bl	sendColorDataToNetwork
 339:main.c        **** }
 766              		.loc 1 339 0
 767 00bc C046     		nop
 768 00be BD46     		mov	sp, r7
 769 00c0 0AB0     		add	sp, sp, #40
 770              		@ sp needed
 771 00c2 80BD     		pop	{r7, pc}
 772              	.L22:
 773              		.align	2
 774              	.L21:
 775 00c4 00000000 		.word	val
 776 00c8 00000000 		.word	prev_val
 777 00cc 00000000 		.word	init_val
 778 00d0 00000000 		.word	compare
 779 00d4 00000000 		.word	interrupt_counter
 780 00d8 00000000 		.word	RGB_Collection
 781 00dc 54000000 		.word	.LC29
ARM GAS  C:\Users\JANUSD~1\AppData\Local\Temp\ccxlqXKq.s 			page 21


 782              		.cfi_endproc
 783              	.LFE40:
 784              		.size	Change_brightness, .-Change_brightness
 785              		.section	.text.CC_TC_InterruptHandler,"ax",%progbits
 786              		.align	2
 787              		.global	CC_TC_InterruptHandler
 788              		.code	16
 789              		.thumb_func
 790              		.type	CC_TC_InterruptHandler, %function
 791              	CC_TC_InterruptHandler:
 792              	.LFB41:
 340:main.c        **** 
 341:main.c        **** CY_ISR(CC_TC_InterruptHandler)
 342:main.c        **** {   
 793              		.loc 1 342 0
 794              		.cfi_startproc
 795              		@ args = 0, pretend = 0, frame = 0
 796              		@ frame_needed = 1, uses_anonymous_args = 0
 797 0000 80B5     		push	{r7, lr}
 798              		.cfi_def_cfa_offset 8
 799              		.cfi_offset 7, -8
 800              		.cfi_offset 14, -4
 801 0002 00AF     		add	r7, sp, #0
 802              		.cfi_def_cfa_register 7
 343:main.c        ****     
 344:main.c        ****     //CyDelay(50);
 345:main.c        ****     
 346:main.c        ****     //sendColorDataToNetwork(RGB_Collection[interrupt_counter]);
 347:main.c        ****     //SwitchRole();
 348:main.c        **** 	//ConnectToPeripheralDevice();
 349:main.c        **** 	//RestartCentralScanning();
 350:main.c        ****     
 351:main.c        ****     //Pin_Led_Int_Write(1);
 352:main.c        ****     //Pin_Led_Int_Write(0);
 353:main.c        ****     
 354:main.c        ****     
 355:main.c        ****     
 356:main.c        ****     //CyDelay(50);
 357:main.c        ****     
 358:main.c        ****     //CyDelay(50);
 359:main.c        ****     
 360:main.c        **** }
 803              		.loc 1 360 0
 804 0004 C046     		nop
 805 0006 BD46     		mov	sp, r7
 806              		@ sp needed
 807 0008 80BD     		pop	{r7, pc}
 808              		.cfi_endproc
 809              	.LFE41:
 810              		.size	CC_TC_InterruptHandler, .-CC_TC_InterruptHandler
 811              		.global	__aeabi_idiv
 812 000a C046     		.section	.text.UpdateRGBled,"ax",%progbits
 813              		.align	2
 814              		.global	UpdateRGBled
 815              		.code	16
 816              		.thumb_func
 817              		.type	UpdateRGBled, %function
ARM GAS  C:\Users\JANUSD~1\AppData\Local\Temp\ccxlqXKq.s 			page 22


 818              	UpdateRGBled:
 819              	.LFB42:
 361:main.c        **** 
 362:main.c        **** 
 363:main.c        **** /*******************************************************************************
 364:main.c        **** * Function Name: UpdateRGBled
 365:main.c        **** ********************************************************************************
 366:main.c        **** * Summary:
 367:main.c        **** *        Update the RGB LED color by reconfiguring PrISM component. This function 
 368:main.c        **** * is valid for PSoC 4 BLE parts and not PROC BLE, as PRoC BLE does not have UDBs
 369:main.c        **** * that makes up the PrISM component. To replace this with software PrISM, refer to
 370:main.c        **** * CY8CKIT-042-BLE Pioneer Kit example project, PRoC_BLE_CapSense_Slider_LED, from
 371:main.c        **** * http://www.cypress.com/CY8CKIT-042-BLE
 372:main.c        **** *
 373:main.c        **** * Parameters:
 374:main.c        **** *  rgb_led_data: array storing the RGB and Intensity vlaue
 375:main.c        **** *  len: length of the array.
 376:main.c        **** *
 377:main.c        **** * Return:
 378:main.c        **** *  void
 379:main.c        **** *
 380:main.c        **** *******************************************************************************/
 381:main.c        **** void UpdateRGBled(uint8 * rgb_led_data, uint8 len)
 382:main.c        **** {
 820              		.loc 1 382 0
 821              		.cfi_startproc
 822              		@ args = 0, pretend = 0, frame = 16
 823              		@ frame_needed = 1, uses_anonymous_args = 0
 824 0000 80B5     		push	{r7, lr}
 825              		.cfi_def_cfa_offset 8
 826              		.cfi_offset 7, -8
 827              		.cfi_offset 14, -4
 828 0002 84B0     		sub	sp, sp, #16
 829              		.cfi_def_cfa_offset 24
 830 0004 00AF     		add	r7, sp, #0
 831              		.cfi_def_cfa_register 7
 832 0006 7860     		str	r0, [r7, #4]
 833 0008 0A00     		movs	r2, r1
 834 000a FB1C     		adds	r3, r7, #3
 835 000c 1A70     		strb	r2, [r3]
 383:main.c        **** 	uint8 calc_red, calc_green, calc_blue;
 384:main.c        **** 	
 385:main.c        **** 	if(len == RGB_LED_DATA_LEN)
 836              		.loc 1 385 0
 837 000e FB1C     		adds	r3, r7, #3
 838 0010 1B78     		ldrb	r3, [r3]
 839 0012 042B     		cmp	r3, #4
 840 0014 49D1     		bne	.L26
 386:main.c        **** 	{
 387:main.c        **** 		/* If a valid length packet has been sent, calculate the intensity of each of
 388:main.c        **** 		* R, G and B color and update the PrISM module */
 389:main.c        **** 		calc_red = (uint8)(((uint16)rgb_led_data[RGB_RED_INDEX]*rgb_led_data[RGB_INTENSITY_INDEX])/RGB_LE
 841              		.loc 1 389 0
 842 0016 7B68     		ldr	r3, [r7, #4]
 843 0018 1B78     		ldrb	r3, [r3]
 844 001a 1A00     		movs	r2, r3
 845 001c 7B68     		ldr	r3, [r7, #4]
ARM GAS  C:\Users\JANUSD~1\AppData\Local\Temp\ccxlqXKq.s 			page 23


 846 001e 0333     		adds	r3, r3, #3
 847 0020 1B78     		ldrb	r3, [r3]
 848 0022 5343     		muls	r3, r2
 849 0024 FF21     		movs	r1, #255
 850 0026 1800     		movs	r0, r3
 851 0028 FFF7FEFF 		bl	__aeabi_idiv
 852 002c 0300     		movs	r3, r0
 853 002e 1A00     		movs	r2, r3
 854 0030 0F23     		movs	r3, #15
 855 0032 FB18     		adds	r3, r7, r3
 856 0034 1A70     		strb	r2, [r3]
 390:main.c        **** 		calc_green = (uint8)(((uint16)rgb_led_data[RGB_GREEN_INDEX]*rgb_led_data[RGB_INTENSITY_INDEX])/RG
 857              		.loc 1 390 0
 858 0036 7B68     		ldr	r3, [r7, #4]
 859 0038 0133     		adds	r3, r3, #1
 860 003a 1B78     		ldrb	r3, [r3]
 861 003c 1A00     		movs	r2, r3
 862 003e 7B68     		ldr	r3, [r7, #4]
 863 0040 0333     		adds	r3, r3, #3
 864 0042 1B78     		ldrb	r3, [r3]
 865 0044 5343     		muls	r3, r2
 866 0046 FF21     		movs	r1, #255
 867 0048 1800     		movs	r0, r3
 868 004a FFF7FEFF 		bl	__aeabi_idiv
 869 004e 0300     		movs	r3, r0
 870 0050 1A00     		movs	r2, r3
 871 0052 0E23     		movs	r3, #14
 872 0054 FB18     		adds	r3, r7, r3
 873 0056 1A70     		strb	r2, [r3]
 391:main.c        **** 		calc_blue = (uint8)(((uint16)rgb_led_data[RGB_BLUE_INDEX]*rgb_led_data[RGB_INTENSITY_INDEX])/RGB_
 874              		.loc 1 391 0
 875 0058 7B68     		ldr	r3, [r7, #4]
 876 005a 0233     		adds	r3, r3, #2
 877 005c 1B78     		ldrb	r3, [r3]
 878 005e 1A00     		movs	r2, r3
 879 0060 7B68     		ldr	r3, [r7, #4]
 880 0062 0333     		adds	r3, r3, #3
 881 0064 1B78     		ldrb	r3, [r3]
 882 0066 5343     		muls	r3, r2
 883 0068 FF21     		movs	r1, #255
 884 006a 1800     		movs	r0, r3
 885 006c FFF7FEFF 		bl	__aeabi_idiv
 886 0070 0300     		movs	r3, r0
 887 0072 1A00     		movs	r2, r3
 888 0074 0D23     		movs	r3, #13
 889 0076 FB18     		adds	r3, r7, r3
 890 0078 1A70     		strb	r2, [r3]
 392:main.c        **** 		
 393:main.c        **** 		PrISM_1_WritePulse0(RGB_LED_MAX_VAL - calc_red);
 891              		.loc 1 393 0
 892 007a 0F23     		movs	r3, #15
 893 007c FB18     		adds	r3, r7, r3
 894 007e 1B78     		ldrb	r3, [r3]
 895 0080 DB43     		mvns	r3, r3
 896 0082 DBB2     		uxtb	r3, r3
 897 0084 1800     		movs	r0, r3
 898 0086 FFF7FEFF 		bl	PrISM_1_WritePulse0
ARM GAS  C:\Users\JANUSD~1\AppData\Local\Temp\ccxlqXKq.s 			page 24


 394:main.c        **** 		PrISM_1_WritePulse1(RGB_LED_MAX_VAL - calc_green);
 899              		.loc 1 394 0
 900 008a 0E23     		movs	r3, #14
 901 008c FB18     		adds	r3, r7, r3
 902 008e 1B78     		ldrb	r3, [r3]
 903 0090 DB43     		mvns	r3, r3
 904 0092 DBB2     		uxtb	r3, r3
 905 0094 1800     		movs	r0, r3
 906 0096 FFF7FEFF 		bl	PrISM_1_WritePulse1
 395:main.c        **** 		PrISM_2_WritePulse0(RGB_LED_MAX_VAL - calc_blue);
 907              		.loc 1 395 0
 908 009a 0D23     		movs	r3, #13
 909 009c FB18     		adds	r3, r7, r3
 910 009e 1B78     		ldrb	r3, [r3]
 911 00a0 DB43     		mvns	r3, r3
 912 00a2 DBB2     		uxtb	r3, r3
 913 00a4 1800     		movs	r0, r3
 914 00a6 FFF7FEFF 		bl	PrISM_2_WritePulse0
 915              	.L26:
 396:main.c        **** 		
 397:main.c        **** 		#ifdef DEBUG_ENABLED
 398:main.c        **** 			UART_UartPutString("PrISM Updated ");
 399:main.c        **** 			UART_UartPutCRLF(' ');
 400:main.c        **** 		#endif
 401:main.c        **** 	}
 402:main.c        **** }
 916              		.loc 1 402 0
 917 00aa C046     		nop
 918 00ac BD46     		mov	sp, r7
 919 00ae 04B0     		add	sp, sp, #16
 920              		@ sp needed
 921 00b0 80BD     		pop	{r7, pc}
 922              		.cfi_endproc
 923              	.LFE42:
 924              		.size	UpdateRGBled, .-UpdateRGBled
 925 00b2 C046     		.text
 926              	.Letext0:
 927              		.file 2 "Generated_Source\\PSoC4/cytypes.h"
 928              		.file 3 "Generated_Source\\PSoC4/BLE_Stack.h"
 929              		.file 4 "Generated_Source\\PSoC4/BLE_StackGap.h"
 930              		.file 5 "Generated_Source\\PSoC4/BLE_eventHandler.h"
 931              		.file 6 "Generated_Source\\PSoC4/BLE.h"
 932              		.file 7 "./main.h"