ARM GAS  C:\Users\dmytro\AppData\Local\Temp\ccjppNo8.s 			page 1


   1              		.syntax unified
   2              		.cpu cortex-m0
   3              		.fpu softvfp
   4              		.eabi_attribute 20, 1
   5              		.eabi_attribute 21, 1
   6              		.eabi_attribute 23, 3
   7              		.eabi_attribute 24, 1
   8              		.eabi_attribute 25, 1
   9              		.eabi_attribute 26, 1
  10              		.eabi_attribute 30, 6
  11              		.eabi_attribute 34, 0
  12              		.eabi_attribute 18, 4
  13              		.thumb
  14              		.syntax unified
  15              		.file	"ble_process.c"
  16              		.text
  17              	.Ltext0:
  18              		.cfi_sections	.debug_frame
  19              		.comm	current_watchdog_counter,2,2
  20              		.comm	RGBData,4,4
  21              		.global	dataADVCounter
  22              		.data
  23              		.type	dataADVCounter, %object
  24              		.size	dataADVCounter, 1
  25              	dataADVCounter:
  26 0000 01       		.byte	1
  27              		.global	switch_Role
  28              		.bss
  29              		.type	switch_Role, %object
  30              		.size	switch_Role, 1
  31              	switch_Role:
  32 0000 00       		.space	1
  33              		.comm	new_advData,32,4
  34              		.global	potential_node_found
  35              		.type	potential_node_found, %object
  36              		.size	potential_node_found, 1
  37              	potential_node_found:
  38 0001 00       		.space	1
  39              		.comm	potential_node_bdAddr,6,4
  40              		.global	potential_node_bdAddrType
  41              		.type	potential_node_bdAddrType, %object
  42              		.size	potential_node_bdAddrType, 1
  43              	potential_node_bdAddrType:
  44 0002 00       		.space	1
  45              		.global	scan_tag
  46              		.data
  47 0001 000000   		.align	2
  48              		.type	scan_tag, %object
  49              		.size	scan_tag, 20
  50              	scan_tag:
  51 0004 13       		.byte	19
  52 0005 21       		.byte	33
  53 0006 31       		.byte	49
  54 0007 01       		.byte	1
  55 0008 9B       		.byte	-101
  56 0009 5F       		.byte	95
  57 000a 80       		.byte	-128
ARM GAS  C:\Users\dmytro\AppData\Local\Temp\ccjppNo8.s 			page 2


  58 000b 00       		.byte	0
  59 000c 00       		.byte	0
  60 000d 80       		.byte	-128
  61 000e 00       		.byte	0
  62 000f 10       		.byte	16
  63 0010 00       		.byte	0
  64 0011 00       		.byte	0
  65 0012 BB       		.byte	-69
  66 0013 CB       		.byte	-53
  67 0014 03       		.byte	3
  68 0015 00       		.byte	0
  69 0016 BB       		.byte	-69
  70 0017 CB       		.byte	-53
  71              		.comm	peripAddr,7,4
  72              		.global	clientConnectToDevice
  73              		.bss
  74              		.type	clientConnectToDevice, %object
  75              		.size	clientConnectToDevice, 1
  76              	clientConnectToDevice:
  77 0003 00       		.space	1
  78              		.global	ble_gap_state
  79              		.data
  80              		.type	ble_gap_state, %object
  81              		.size	ble_gap_state, 1
  82              	ble_gap_state:
  83 0018 01       		.byte	1
  84              		.global	deviceConnected
  85              		.bss
  86              		.type	deviceConnected, %object
  87              		.size	deviceConnected, 1
  88              	deviceConnected:
  89 0004 00       		.space	1
  90              		.global	restartScanning
  91              		.type	restartScanning, %object
  92              		.size	restartScanning, 1
  93              	restartScanning:
  94 0005 00       		.space	1
  95              		.global	centralStartedTime
  96              		.align	1
  97              		.type	centralStartedTime, %object
  98              		.size	centralStartedTime, 2
  99              	centralStartedTime:
 100 0006 0000     		.space	2
 101              		.section	.rodata
 102              		.align	2
 103              	.LC1:
 104 0000 4359424C 		.ascii	"CYBLE_EVT_STACK_ON \000"
 104      455F4556 
 104      545F5354 
 104      41434B5F 
 104      4F4E2000 
 105              		.align	2
 106              	.LC3:
 107 0014 4359424C 		.ascii	"CYBLE_EVT_GAPP_ADVERTISEMENT_START_STOP \000"
 107      455F4556 
 107      545F4741 
 107      50505F41 
ARM GAS  C:\Users\dmytro\AppData\Local\Temp\ccjppNo8.s 			page 3


 107      44564552 
 108 003d 000000   		.align	2
 109              	.LC7:
 110 0040 52657374 		.ascii	"Restart Advertisement \000"
 110      61727420 
 110      41647665 
 110      72746973 
 110      656D656E 
 111 0057 00       		.align	2
 112              	.LC9:
 113 0058 4359424C 		.ascii	"CYBLE_EVT_GAPC_SCAN_START_STOP \000"
 113      455F4556 
 113      545F4741 
 113      50435F53 
 113      43414E5F 
 114              		.align	2
 115              	.LC11:
 116 0078 4359424C 		.ascii	"CYBLE_EVT_GATT_CONNECT_IND \000"
 116      455F4556 
 116      545F4741 
 116      54545F43 
 116      4F4E4E45 
 117              		.align	2
 118              	.LC13:
 119 0094 4359424C 		.ascii	"CYBLE_EVT_GATT_DISCONNECT_IND \000"
 119      455F4556 
 119      545F4741 
 119      54545F44 
 119      4953434F 
 120 00b3 00       		.align	2
 121              	.LC15:
 122 00b4 52474220 		.ascii	"RGB CYBLE_EVT_GATTS_WRITE_REQ \000"
 122      4359424C 
 122      455F4556 
 122      545F4741 
 122      5454535F 
 123 00d3 00       		.align	2
 124              	.LC21:
 125 00d4 696E6372 		.ascii	"incremented dataADVCounter value in CYBLE_EVT_GATTS"
 125      656D656E 
 125      74656420 
 125      64617461 
 125      41445643 
 126 0107 5F575249 		.ascii	"_WRITE_REQ= \000"
 126      54455F52 
 126      45513D20 
 126      00
 127              		.align	2
 128              	.LC23:
 129 0114 73776974 		.ascii	"switchRole to Central\000"
 129      6368526F 
 129      6C652074 
 129      6F204365 
 129      6E747261 
 130 012a 0000     		.align	2
 131              	.LC25:
 132 012c 64617461 		.ascii	"dataADVCounter from CYBLE_EVT_GATTS_WRITE_CMD_REQ ="
ARM GAS  C:\Users\dmytro\AppData\Local\Temp\ccjppNo8.s 			page 4


 132      41445643 
 132      6F756E74 
 132      65722066 
 132      726F6D20 
 133 015f 2000     		.ascii	" \000"
 134 0161 000000   		.align	2
 135              	.LC27:
 136 0164 4359424C 		.ascii	"CYBLE_EVT_GAPC_SCAN_PROGRESS_RESULT \000"
 136      455F4556 
 136      545F4741 
 136      50435F53 
 136      43414E5F 
 137 0189 000000   		.align	2
 138              	.LC33:
 139 018c 706F7465 		.ascii	"potential_node_found \000"
 139      6E746961 
 139      6C5F6E6F 
 139      64655F66 
 139      6F756E64 
 140 01a2 0000     		.align	2
 141              	.LC36:
 142 01a4 54697461 		.ascii	"Titan Found \000"
 142      6E20466F 
 142      756E6420 
 142      00
 143 01b1 000000   		.align	2
 144              	.LC38:
 145 01b4 53746F70 		.ascii	"Stop Scan called \000"
 145      20536361 
 145      6E206361 
 145      6C6C6564 
 145      2000
 146 01c6 0000     		.align	2
 147              	.LC44:
 148 01c8 44697265 		.ascii	"Directly write RGB using Attr handle \000"
 148      63746C79 
 148      20777269 
 148      74652052 
 148      47422075 
 149 01ee 0000     		.align	2
 150              	.LC46:
 151 01f0 4359424C 		.ascii	"CYBLE_EVT_GATTC_WRITE_RSP \000"
 151      455F4556 
 151      545F4741 
 151      5454435F 
 151      57524954 
 152 020b 00       		.align	2
 153              	.LC49:
 154 020c 44697363 		.ascii	"Disconnect from CYBLE_EVT_GATTC_WRITE_RSP \000"
 154      6F6E6E65 
 154      63742066 
 154      726F6D20 
 154      4359424C 
 155 0237 00       		.align	2
 156              	.LC51:
 157 0238 4359424C 		.ascii	"CYBLE_EVT_GAP_DEVICE_DISCONNECTED \000"
 157      455F4556 
ARM GAS  C:\Users\dmytro\AppData\Local\Temp\ccjppNo8.s 			page 5


 157      545F4741 
 157      505F4445 
 157      56494345 
 158 025b 00       		.align	2
 159              	.LC53:
 160 025c 52657374 		.ascii	"Restart Scanning \000"
 160      61727420 
 160      5363616E 
 160      6E696E67 
 160      2000
 161 026e 0000     		.align	2
 162              	.LC0:
 163 0270 FF       		.byte	-1
 164 0271 FF       		.byte	-1
 165 0272 FF       		.byte	-1
 166 0273 FF       		.byte	-1
 167              		.section	.text.GenericEventHandler,"ax",%progbits
 168              		.align	2
 169              		.global	GenericEventHandler
 170              		.code	16
 171              		.thumb_func
 172              		.type	GenericEventHandler, %function
 173              	GenericEventHandler:
 174              	.LFB35:
 175              		.file 1 "ble_process.c"
   1:ble_process.c **** /*******************************************************************************
   2:ble_process.c **** * File Name: ble_process.c
   3:ble_process.c **** *
   4:ble_process.c **** * Version: 1.0
   5:ble_process.c **** *
   6:ble_process.c **** * Description:
   7:ble_process.c **** * This file contains the definiton for BLE related functions, such as event handler,
   8:ble_process.c **** * GAP role switching, central scanning and connection to peripherals.
   9:ble_process.c **** *
  10:ble_process.c **** ********************************************************************************
  11:ble_process.c **** * Copyright 2015, Cypress Semiconductor Corporation.  All rights reserved.
  12:ble_process.c **** * You may use this file only in accordance with the license, terms, conditions,
  13:ble_process.c **** * disclaimers, and limitations in the end user license agreement accompanying
  14:ble_process.c **** * the software package with which this file was provided.
  15:ble_process.c **** *******************************************************************************/
  16:ble_process.c **** #include <main.h>
  17:ble_process.c **** 
  18:ble_process.c **** uint8 RGBData[4];
  19:ble_process.c **** uint8 dataADVCounter = 1;
  20:ble_process.c **** uint8 switch_Role = FALSE;
  21:ble_process.c **** 
  22:ble_process.c **** #ifdef ENABLE_ADV_DATA_COUNTER
  23:ble_process.c **** CYBLE_GAPP_DISC_DATA_T  new_advData;
  24:ble_process.c **** uint8 potential_node_found = 0;
  25:ble_process.c **** uint8 potential_node_bdAddr[6];
  26:ble_process.c **** uint8 potential_node_bdAddrType = 0;
  27:ble_process.c **** #endif
  28:ble_process.c **** 
  29:ble_process.c **** uint8 scan_tag[SCAN_TAG_DATA_LEN] = {0x13, 0x21, 0x31, 0x01, 0x9B, 0x5F, 0x80, 0x00,
  30:ble_process.c **** 									0x00, 0x80, 0x00, 0x10, 0x00, 0x00, 0xBB, 0xCB, 
  31:ble_process.c **** 									0x03, 0x00, 0xBB, 0xCB};
  32:ble_process.c **** 
ARM GAS  C:\Users\dmytro\AppData\Local\Temp\ccjppNo8.s 			page 6


  33:ble_process.c **** CYBLE_GAP_BD_ADDR_T				peripAddr;
  34:ble_process.c **** uint8 clientConnectToDevice = FALSE;
  35:ble_process.c **** uint8 ble_gap_state = BLE_PERIPHERAL;
  36:ble_process.c **** 
  37:ble_process.c **** uint8 deviceConnected = FALSE;
  38:ble_process.c **** uint8 restartScanning = FALSE;
  39:ble_process.c **** volatile uint16 centralStartedTime = 0;
  40:ble_process.c **** 
  41:ble_process.c **** /*******************************************************************************
  42:ble_process.c **** * Function Name: GenericEventHandler
  43:ble_process.c **** ********************************************************************************
  44:ble_process.c **** * Summary:
  45:ble_process.c **** *        Event handler function for the BLE stack. All the events by BLE stack
  46:ble_process.c **** * are received by application through this function. For this, CyBle_ProcessEvents()
  47:ble_process.c **** * should be called continuously in main loop.
  48:ble_process.c **** *
  49:ble_process.c **** * Parameters:
  50:ble_process.c **** *  event: 		event value
  51:ble_process.c **** *  eventParame: pointer to the location where relevant event data is stored
  52:ble_process.c **** *
  53:ble_process.c **** * Return:
  54:ble_process.c **** *  void
  55:ble_process.c **** *
  56:ble_process.c **** *******************************************************************************/
  57:ble_process.c **** void GenericEventHandler(uint32 event, void * eventParam)
  58:ble_process.c **** {
 176              		.loc 1 58 0
 177              		.cfi_startproc
 178              		@ args = 0, pretend = 0, frame = 96
 179              		@ frame_needed = 1, uses_anonymous_args = 0
 180 0000 90B5     		push	{r4, r7, lr}
 181              		.cfi_def_cfa_offset 12
 182              		.cfi_offset 4, -12
 183              		.cfi_offset 7, -8
 184              		.cfi_offset 14, -4
 185 0002 99B0     		sub	sp, sp, #100
 186              		.cfi_def_cfa_offset 112
 187 0004 00AF     		add	r7, sp, #0
 188              		.cfi_def_cfa_register 7
 189 0006 7860     		str	r0, [r7, #4]
 190 0008 3960     		str	r1, [r7]
  59:ble_process.c **** 	/* Local variables and data structures*/
  60:ble_process.c **** 	CYBLE_GATTS_WRITE_REQ_PARAM_T 		writeReqData;
  61:ble_process.c **** 	CYBLE_GATTC_WRITE_REQ_T				writeADVcounterdata;
  62:ble_process.c **** 	CYBLE_GAPC_ADV_REPORT_T				scan_report;
  63:ble_process.c **** 	CYBLE_GATTS_WRITE_CMD_REQ_PARAM_T	writeCmdData;
  64:ble_process.c **** 	CYBLE_API_RESULT_T					apiResult;
  65:ble_process.c **** 	CYBLE_GATTC_WRITE_REQ_T 			writeRGBdata;
  66:ble_process.c **** 	
  67:ble_process.c **** 	switch(event)
 191              		.loc 1 67 0
 192 000a 7B68     		ldr	r3, [r7, #4]
 193 000c 2B2B     		cmp	r3, #43
 194 000e 5AD0     		beq	.L3
 195 0010 0FD8     		bhi	.L4
 196 0012 262B     		cmp	r3, #38
 197 0014 2BD0     		beq	.L5
ARM GAS  C:\Users\dmytro\AppData\Local\Temp\ccjppNo8.s 			page 7


 198 0016 05D8     		bhi	.L6
 199 0018 012B     		cmp	r3, #1
 200 001a 1DD0     		beq	.L7
 201 001c 202B     		cmp	r3, #32
 202 001e 00D1     		bne	.LCB27
 203 0020 31E1     		b	.L8	@long jump
 204              	.LCB27:
  68:ble_process.c **** 	{
  69:ble_process.c **** 		case CYBLE_EVT_STACK_ON:
  70:ble_process.c **** 			#ifdef DEBUG_ENABLED
  71:ble_process.c **** 			UART_UartPutString("CYBLE_EVT_STACK_ON ");
  72:ble_process.c **** 			UART_UartPutCRLF(' ');
  73:ble_process.c **** 			#endif
  74:ble_process.c **** 			/* At the start of the BLE stack, start advertisement */
  75:ble_process.c **** 			CyBle_GappStartAdvertisement(CYBLE_ADVERTISING_FAST);
  76:ble_process.c **** 		break;
  77:ble_process.c **** 			
  78:ble_process.c **** 		case CYBLE_EVT_GAPP_ADVERTISEMENT_START_STOP:
  79:ble_process.c **** 			/* This event is received at every start or stop of peripheral advertisement*/
  80:ble_process.c **** 			#ifdef DEBUG_ENABLED
  81:ble_process.c **** 			UART_UartPutString("CYBLE_EVT_GAPP_ADVERTISEMENT_START_STOP ");
  82:ble_process.c **** 			SendBLEStatetoUART(CyBle_GetState());
  83:ble_process.c **** 			UART_UartPutCRLF(' ');
  84:ble_process.c **** 			#endif
  85:ble_process.c **** 			
  86:ble_process.c **** 			if((CYBLE_STATE_DISCONNECTED == CyBle_GetState()) && (switch_Role == FALSE))
  87:ble_process.c **** 			{
  88:ble_process.c **** 				/* If the current state of the BLE is Disconnected, then restart advertisement.
  89:ble_process.c **** 				* Note that the advertisement should only be restarted if the switch flag is not
  90:ble_process.c **** 				* TRUE. If switch role flag is TRUE, then there is no need to start advertisement
  91:ble_process.c **** 				* as the GAP role has to be switched*/
  92:ble_process.c **** 				CyBle_GappStartAdvertisement(CYBLE_ADVERTISING_FAST);	
  93:ble_process.c **** 				
  94:ble_process.c **** 				if(apiResult == CYBLE_ERROR_OK)
  95:ble_process.c **** 				{
  96:ble_process.c **** 					#ifdef DEBUG_ENABLED
  97:ble_process.c **** 					UART_UartPutString("Restart Advertisement ");
  98:ble_process.c **** 					SendBLEStatetoUART(CyBle_GetState());
  99:ble_process.c **** 					UART_UartPutCRLF(' ');
 100:ble_process.c **** 					#endif
 101:ble_process.c **** 				}
 102:ble_process.c **** 			}
 103:ble_process.c **** 		break;
 104:ble_process.c **** 			
 105:ble_process.c **** 		case CYBLE_EVT_GAPC_SCAN_START_STOP:
 106:ble_process.c **** 			/* This event is received at every start or stop of central scanning*/
 107:ble_process.c **** 			#ifdef DEBUG_ENABLED
 108:ble_process.c **** 			UART_UartPutString("CYBLE_EVT_GAPC_SCAN_START_STOP ");
 109:ble_process.c **** 			SendBLEStatetoUART(CyBle_GetState());
 110:ble_process.c **** 			UART_UartPutCRLF(' ');
 111:ble_process.c **** 			#endif
 112:ble_process.c **** 		break;
 113:ble_process.c **** 			
 114:ble_process.c **** 		case CYBLE_EVT_GATT_CONNECT_IND:
 115:ble_process.c **** 			/* This event is received at GATT connection with a device. This event
 116:ble_process.c **** 			* is received for both Client or Server role */
 117:ble_process.c **** 			#ifdef DEBUG_ENABLED
ARM GAS  C:\Users\dmytro\AppData\Local\Temp\ccjppNo8.s 			page 8


 118:ble_process.c **** 			UART_UartPutString("CYBLE_EVT_GATT_CONNECT_IND ");
 119:ble_process.c **** 			UART_UartPutCRLF(' ');
 120:ble_process.c **** 			#endif
 121:ble_process.c **** 		break;
 122:ble_process.c **** 		
 123:ble_process.c **** 		case CYBLE_EVT_GATT_DISCONNECT_IND:
 124:ble_process.c **** 			/* This event is received at GATT disconnection with a device. This event
 125:ble_process.c **** 			* is received for both Client or Server role */
 126:ble_process.c **** 			#ifdef DEBUG_ENABLED
 127:ble_process.c **** 			UART_UartPutString("CYBLE_EVT_GATT_DISCONNECT_IND ");
 128:ble_process.c **** 			UART_UartPutCRLF(' ');
 129:ble_process.c **** 			#endif
 130:ble_process.c **** 		break;
 131:ble_process.c **** 			
 132:ble_process.c **** 		case CYBLE_EVT_GATTS_WRITE_REQ:
 133:ble_process.c **** 			/* This event is received at when Server receives a Write request from
 134:ble_process.c **** 			* connected Client device */
 135:ble_process.c **** 			/* Save the associated event parameter in local variable */
 136:ble_process.c **** 			writeReqData = *(CYBLE_GATTS_WRITE_REQ_PARAM_T*)eventParam;
 137:ble_process.c **** 
 138:ble_process.c **** 			if(writeReqData.handleValPair.attrHandle == CYBLE_RGB_LED_CONTROL_CHAR_HANDLE)
 139:ble_process.c **** 			{
 140:ble_process.c **** 				/* If the Write request is on RGB LED Control Characteristic, then Client is 
 141:ble_process.c **** 				* trying to set a new color to the device. */
 142:ble_process.c **** 				if(writeReqData.handleValPair.value.len == RGB_LED_DATA_LEN)
 143:ble_process.c **** 				{
 144:ble_process.c **** 					#ifdef DEBUG_ENABLED
 145:ble_process.c **** 						UART_UartPutString("RGB CYBLE_EVT_GATTS_WRITE_REQ ");
 146:ble_process.c **** 						UART_UartPutCRLF(' ');
 147:ble_process.c **** 					#endif
 148:ble_process.c **** 					
 149:ble_process.c **** 					/* Extract the four bytes containing the color value and store it */
 150:ble_process.c **** 					RGBData[RGB_RED_INDEX] = writeReqData.handleValPair.value.val[0];
 151:ble_process.c **** 					RGBData[RGB_GREEN_INDEX] = writeReqData.handleValPair.value.val[1];
 152:ble_process.c **** 					RGBData[RGB_BLUE_INDEX] = writeReqData.handleValPair.value.val[2];
 153:ble_process.c **** 					RGBData[RGB_INTENSITY_INDEX] = writeReqData.handleValPair.value.val[3];
 154:ble_process.c **** 					
 155:ble_process.c ****                     uint8 RGB_Collection[4] = {0xFF, 0xFF, 0xFF, 0xFF};
 156:ble_process.c ****                     RGBData[RGB_RED_INDEX] = RGB_Collection[0];
 157:ble_process.c ****                     RGBData[RGB_BLUE_INDEX] = RGB_Collection[1];
 158:ble_process.c ****                     RGBData[RGB_GREEN_INDEX] = RGB_Collection[2];
 159:ble_process.c ****                     RGBData[RGB_INTENSITY_INDEX] = RGB_Collection[3];
 160:ble_process.c ****                     
 161:ble_process.c **** 					/* Modify RGB Color my configuring the PrISM components with new density 
 162:ble_process.c **** 					* value*/
 163:ble_process.c **** 					UpdateRGBled(RGBData, RGB_LED_DATA_LEN);
 164:ble_process.c **** 					
 165:ble_process.c **** 					/* Update the RGB LED Control characteristic in GATT DB  to allow
 166:ble_process.c **** 					* Client to read the latest RGB LED color value set */
 167:ble_process.c **** 					CyBle_GattsWriteAttributeValue(&writeReqData.handleValPair,0,&cyBle_connHandle,CYBLE_GATT_DB_L
 168:ble_process.c **** 							
 169:ble_process.c **** 					#ifdef ENABLE_ADV_DATA_COUNTER
 170:ble_process.c **** 					/* Increment the ADV data counter so that scanning Central device knows
 171:ble_process.c **** 					* if this device has updated RGB LED data or not */
 172:ble_process.c **** 					dataADVCounter++;
 173:ble_process.c **** 					#endif
 174:ble_process.c **** 					
ARM GAS  C:\Users\dmytro\AppData\Local\Temp\ccjppNo8.s 			page 9


 175:ble_process.c **** 					#ifdef DEBUG_ENABLED
 176:ble_process.c **** 					UART_UartPutString("incremented dataADVCounter value in CYBLE_EVT_GATTS_WRITE_REQ= ");
 177:ble_process.c **** 					PrintNum(dataADVCounter);
 178:ble_process.c **** 					UART_UartPutCRLF(' ');
 179:ble_process.c **** 					#endif
 180:ble_process.c **** 					
 181:ble_process.c **** 					/* After receiveing the color value, set the switch role flag to allow the system
 182:ble_process.c **** 					* to switch role to Central role */
 183:ble_process.c **** 					switch_Role = TRUE;
 184:ble_process.c **** 					
 185:ble_process.c **** 					#ifdef DEBUG_ENABLED
 186:ble_process.c **** 					UART_UartPutString("switchRole to Central");
 187:ble_process.c **** 					UART_UartPutCRLF(' ');
 188:ble_process.c **** 					#endif
 189:ble_process.c **** 				}
 190:ble_process.c **** 				else
 191:ble_process.c **** 				{
 192:ble_process.c **** 					/* Send the error code for invalid attribute length packet */
 193:ble_process.c **** 					SendErrorCode(CYBLE_GATT_WRITE_REQ, 
 194:ble_process.c **** 									writeReqData.handleValPair.attrHandle, 
 195:ble_process.c **** 									ERR_INVALID_ATT_LEN);
 196:ble_process.c **** 					
 197:ble_process.c **** 					return;
 198:ble_process.c **** 				}
 199:ble_process.c **** 			}
 200:ble_process.c **** 
 201:ble_process.c **** 			/* As part of every write request, the server needs to send a write response. Note
 202:ble_process.c **** 			* that this will be sent only if all the application layer conditions are met on a 
 203:ble_process.c **** 			* write request. Else, an appropriate error code is sent. */
 204:ble_process.c **** 	        CyBle_GattsWriteRsp(cyBle_connHandle);
 205:ble_process.c **** 		break;
 206:ble_process.c **** 			
 207:ble_process.c **** 		case CYBLE_EVT_GATTS_WRITE_CMD_REQ:
 208:ble_process.c **** 			/* This event is generated whenever a Client device sends a Write Command (Write 
 209:ble_process.c **** 			* without response) to a connected Server. Save the associated event parameter in
 210:ble_process.c **** 			* local variable. */
 211:ble_process.c **** 			writeCmdData = *(CYBLE_GATTS_WRITE_CMD_REQ_PARAM_T*)eventParam;
 212:ble_process.c **** 			
 213:ble_process.c **** 			/* Check if the Write command is for ADV Data counter characteristic */
 214:ble_process.c **** 			if(writeCmdData.handleValPair.attrHandle == CYBLE_RGB_DATA_COUNT_CHAR_HANDLE)
 215:ble_process.c **** 			{
 216:ble_process.c **** 				/* If the data sent is of one byte, then proceed. */
 217:ble_process.c **** 				if(writeCmdData.handleValPair.value.len == 1)
 218:ble_process.c **** 				{
 219:ble_process.c **** 					/* Extract and save the set ADV data counter value */
 220:ble_process.c **** 					dataADVCounter = *(writeCmdData.handleValPair.value.val);	
 221:ble_process.c **** 					
 222:ble_process.c **** 					/* This increment is done to balance the ++ done as part of CYBLE_EVT_GATTS_WRITE_REQ */
 223:ble_process.c **** 					dataADVCounter--;
 224:ble_process.c **** 					
 225:ble_process.c **** 					/* Update the ADV data counter characteristic in GATT DB  to allow
 226:ble_process.c **** 					* Client to read the latest ADV data counter value */
 227:ble_process.c **** 					CyBle_GattsWriteAttributeValue(&writeCmdData.handleValPair,
 228:ble_process.c **** 													0,
 229:ble_process.c **** 													&cyBle_connHandle,
 230:ble_process.c **** 													CYBLE_GATT_DB_LOCALLY_INITIATED);
 231:ble_process.c **** 
ARM GAS  C:\Users\dmytro\AppData\Local\Temp\ccjppNo8.s 			page 10


 232:ble_process.c **** 					#ifdef DEBUG_ENABLED
 233:ble_process.c **** 					UART_UartPutString("dataADVCounter from CYBLE_EVT_GATTS_WRITE_CMD_REQ = ");
 234:ble_process.c **** 					PrintNum(dataADVCounter);
 235:ble_process.c **** 					UART_UartPutCRLF(' ');
 236:ble_process.c **** 					#endif
 237:ble_process.c **** 				}	/* if(writeCmdData.handleValPair.value.len == 1) */
 238:ble_process.c **** 			}
 239:ble_process.c **** 			break;
 240:ble_process.c **** 		
 241:ble_process.c **** 		case CYBLE_EVT_GAPC_SCAN_PROGRESS_RESULT:
 242:ble_process.c **** 			/* This event is generated whenever there is a peripheral device found by 
 243:ble_process.c **** 			* while scanning */
 244:ble_process.c **** 			if(CYBLE_STATE_CONNECTED != CyBle_GetState())	
 245:ble_process.c **** 			{
 246:ble_process.c **** 				/* If we are not connected to any peripheral device, then save the new device  
 247:ble_process.c **** 				* information so to add it to our list */
 248:ble_process.c **** 				scan_report = *(CYBLE_GAPC_ADV_REPORT_T*)eventParam;
 249:ble_process.c **** 				
 250:ble_process.c **** 				#ifdef DEBUG_ENABLED
 251:ble_process.c **** 					UART_UartPutString("CYBLE_EVT_GAPC_SCAN_PROGRESS_RESULT ");
 252:ble_process.c **** 					UART_UartPutCRLF(' ');
 253:ble_process.c **** 				#endif
 254:ble_process.c **** 				
 255:ble_process.c **** 				#ifdef ENABLE_ADV_DATA_COUNTER
 256:ble_process.c **** 				/* If ADV DATA COUNTER is enabled, then the central device would check
 257:ble_process.c **** 				* if the counter in ADV packet of peripheral is less than its own counter
 258:ble_process.c **** 				* or not. If yes, then it will consider the peripheral as a potential 
 259:ble_process.c **** 				* device to connect to.*/
 260:ble_process.c **** 				if(scan_report.eventType == CYBLE_GAPC_CONN_UNDIRECTED_ADV)
 261:ble_process.c **** 				{
 262:ble_process.c **** 					/* If the scan report received is of advertising nature and the data 
 263:ble_process.c **** 					* length is as expected... */
 264:ble_process.c **** 					if(scan_report.dataLen == new_advData.advDataLen)
 265:ble_process.c **** 					{
 266:ble_process.c **** 						/* If the second last value of the advertising data matches the custom 
 267:ble_process.c **** 						* marker, then the peripheral is a node of the network */
 268:ble_process.c **** 						if(scan_report.data[scan_report.dataLen-2] == CUSTOM_ADV_DATA_MARKER)
 269:ble_process.c **** 						{
 270:ble_process.c **** 							/* If the ADV counter data in Advertising data is less than that of
 271:ble_process.c **** 							* the value in this scanning device, then the node is a potential node 
 272:ble_process.c **** 							* whose color has to be updated. */
 273:ble_process.c **** 							if((scan_report.data[scan_report.dataLen-1] < dataADVCounter) ||
 274:ble_process.c **** 							((scan_report.data[scan_report.dataLen-1] == 255) && (dataADVCounter == 0)))
 275:ble_process.c **** 							{
 276:ble_process.c **** 								/* Potential node found*/
 277:ble_process.c **** 								potential_node_found = TRUE;
 278:ble_process.c **** 								/* Save the advertising peripheral address and type*/
 279:ble_process.c **** 								memcpy(potential_node_bdAddr, scan_report.peerBdAddr, 6);
 280:ble_process.c **** 								potential_node_bdAddrType = scan_report.peerAddrType;
 281:ble_process.c **** 								
 282:ble_process.c **** 								#ifdef DEBUG_ENABLED
 283:ble_process.c **** 								UART_UartPutString("potential_node_found ");
 284:ble_process.c **** 								UART_UartPutCRLF(' ');
 285:ble_process.c **** 								#endif
 286:ble_process.c **** 							}
 287:ble_process.c **** 							else
 288:ble_process.c **** 							{
ARM GAS  C:\Users\dmytro\AppData\Local\Temp\ccjppNo8.s 			page 11


 289:ble_process.c **** 								/* If the ADV data counter is equal or more than the data counter
 290:ble_process.c **** 								* in this scanning device, then the node has latest RGB LED data
 291:ble_process.c **** 								* and does not need to be connected to. Reset the potential node 
 292:ble_process.c **** 								* address */
 293:ble_process.c **** 								potential_node_found = FALSE;
 294:ble_process.c **** 								
 295:ble_process.c **** 								potential_node_bdAddrType = 0;
 296:ble_process.c **** 								
 297:ble_process.c **** 								potential_node_bdAddr[0] = 0x00;
 298:ble_process.c **** 								potential_node_bdAddr[1] = 0x00;
 299:ble_process.c **** 								potential_node_bdAddr[2] = 0x00;
 300:ble_process.c **** 								potential_node_bdAddr[3] = 0x00;
 301:ble_process.c **** 								potential_node_bdAddr[4] = 0x00;
 302:ble_process.c **** 								potential_node_bdAddr[5] = 0x00;
 303:ble_process.c **** 							}
 304:ble_process.c **** 						}
 305:ble_process.c **** 					}
 306:ble_process.c **** 				}
 307:ble_process.c **** 				#endif
 308:ble_process.c **** 				
 309:ble_process.c **** 				/* If the received scan data is part of scan response from a peripheral... */
 310:ble_process.c **** 				if(scan_report.eventType == CYBLE_GAPC_SCAN_RSP)
 311:ble_process.c **** 				{
 312:ble_process.c **** 					/* If the data lenght of the scan reponse packet is equal to expected
 313:ble_process.c **** 					* scan response data lenght...*/
 314:ble_process.c **** 					if(scan_report.dataLen == SCAN_TAG_DATA_LEN)
 315:ble_process.c **** 					{
 316:ble_process.c **** 						#ifdef ENABLE_ADV_DATA_COUNTER
 317:ble_process.c **** 						/* If a potential node had been found earlier as part of received 
 318:ble_process.c **** 						* advertising data, then compare the address of stored potential 
 319:ble_process.c **** 						* node and received address of the scan response */
 320:ble_process.c **** 						if(potential_node_found)
 321:ble_process.c **** 						{
 322:ble_process.c **** 							/* Compare the two addresses and type */
 323:ble_process.c **** 							if((!memcmp(scan_report.peerBdAddr, potential_node_bdAddr, 6))  
 324:ble_process.c **** 								&& (potential_node_bdAddrType == scan_report.peerAddrType))
 325:ble_process.c **** 							{
 326:ble_process.c **** 						#endif
 327:ble_process.c **** 								/* If the scan report data matches the expected data (scan_tag),
 328:ble_process.c **** 								* then it is our desired node */
 329:ble_process.c **** 								if(!memcmp(scan_report.data, scan_tag, scan_report.dataLen))
 330:ble_process.c **** 								{
 331:ble_process.c **** 									#ifdef DEBUG_ENABLED
 332:ble_process.c **** 									UART_UartPutString("Titan Found ");
 333:ble_process.c **** 									UART_UartPutCRLF(' ');
 334:ble_process.c **** 									#endif
 335:ble_process.c **** 									/* Stop existing scan */
 336:ble_process.c **** 									CyBle_GapcStopScan();
 337:ble_process.c **** 									#ifdef DEBUG_ENABLED
 338:ble_process.c **** 									UART_UartPutString("Stop Scan called ");
 339:ble_process.c **** 									UART_UartPutCRLF(' ');
 340:ble_process.c **** 									#endif
 341:ble_process.c **** 									
 342:ble_process.c **** 									/* Save the peripheral BD address and type*/
 343:ble_process.c **** 									peripAddr.type = scan_report.peerAddrType;
 344:ble_process.c **** 									peripAddr.bdAddr[0] = scan_report.peerBdAddr[0];
 345:ble_process.c **** 									peripAddr.bdAddr[1] = scan_report.peerBdAddr[1];
ARM GAS  C:\Users\dmytro\AppData\Local\Temp\ccjppNo8.s 			page 12


 346:ble_process.c **** 									peripAddr.bdAddr[2] = scan_report.peerBdAddr[2];
 347:ble_process.c **** 									peripAddr.bdAddr[3] = scan_report.peerBdAddr[3];
 348:ble_process.c **** 									peripAddr.bdAddr[4] = scan_report.peerBdAddr[4];
 349:ble_process.c **** 									peripAddr.bdAddr[5] = scan_report.peerBdAddr[5];
 350:ble_process.c **** 
 351:ble_process.c **** 									/* Set the flag to allow application to connect to the
 352:ble_process.c **** 									* peripheral found */
 353:ble_process.c **** 									clientConnectToDevice = TRUE;
 354:ble_process.c **** 									
 355:ble_process.c **** 									#ifdef ENABLE_ADV_DATA_COUNTER
 356:ble_process.c **** 									/* Reset the potential node flag*/
 357:ble_process.c **** 									potential_node_found = FALSE;
 358:ble_process.c **** 									#endif
 359:ble_process.c **** 								}
 360:ble_process.c **** 						#ifdef ENABLE_ADV_DATA_COUNTER
 361:ble_process.c **** 							}
 362:ble_process.c **** 						}
 363:ble_process.c **** 						#endif
 364:ble_process.c **** 					}
 365:ble_process.c **** 				}
 366:ble_process.c **** 			}
 367:ble_process.c **** 
 368:ble_process.c **** 		break;
 369:ble_process.c **** 			
 370:ble_process.c **** 		case CYBLE_EVT_GAP_DEVICE_CONNECTED:
 371:ble_process.c **** 			/* This event is received whenever the device connect on GAP layer */
 372:ble_process.c **** 			if(ble_gap_state == BLE_CENTRAL)
 373:ble_process.c **** 			{
 374:ble_process.c **** 				#ifdef ENABLE_CENTRAL_DISCOVERY
 375:ble_process.c **** 					/* The Device is connected now. Start Attributes discovery process.*/
 376:ble_process.c **** 					CyBle_GattcStartDiscovery(cyBle_connHandle);
 377:ble_process.c **** 					#ifdef DEBUG_ENABLED
 378:ble_process.c **** 						UART_UartPutString("CYBLE_EVT_GAP_DEVICE_CONNECTED ");
 379:ble_process.c **** 						SendBLEStatetoUART(CyBle_GetState());
 380:ble_process.c **** 						UART_UartPutCRLF(' ');
 381:ble_process.c **** 					#endif
 382:ble_process.c **** 				#else
 383:ble_process.c **** 					/* If this system is currently acting in Central role and has connected
 384:ble_process.c **** 					* to a peripheral device, then write directly the ADV counter data and
 385:ble_process.c **** 					* RGB LED control data using attribute handles */
 386:ble_process.c **** 					
 387:ble_process.c **** 					/* Set the device connected flag */
 388:ble_process.c **** 					deviceConnected = TRUE;
 389:ble_process.c **** 					
 390:ble_process.c **** 					#ifdef DEBUG_ENABLED
 391:ble_process.c **** 						UART_UartPutString("Directly write RGB using Attr handle ");
 392:ble_process.c **** 						SendBLEStatetoUART(CyBle_GetState());
 393:ble_process.c **** 						UART_UartPutCRLF(' ');
 394:ble_process.c **** 					#endif
 395:ble_process.c **** 					
 396:ble_process.c **** 					/* Write the Data Counter value */
 397:ble_process.c **** 					writeADVcounterdata.attrHandle = CYBLE_RGB_DATA_COUNT_CHAR_HANDLE;
 398:ble_process.c **** 					writeADVcounterdata.value.val = &dataADVCounter;
 399:ble_process.c **** 					writeADVcounterdata.value.len = 1;
 400:ble_process.c **** 					CyBle_GattcWriteWithoutResponse(cyBle_connHandle, &writeADVcounterdata);
 401:ble_process.c **** 				    
 402:ble_process.c **** 					/* Write the RGB LED Value */
ARM GAS  C:\Users\dmytro\AppData\Local\Temp\ccjppNo8.s 			page 13


 403:ble_process.c **** 					writeRGBdata.attrHandle = CYBLE_RGB_LED_CONTROL_CHAR_HANDLE;
 404:ble_process.c **** 					writeRGBdata.value.val = RGBData;
 405:ble_process.c **** 					writeRGBdata.value.len = RGB_LED_DATA_LEN;
 406:ble_process.c **** 					CyBle_GattcWriteCharacteristicValue(cyBle_connHandle, &writeRGBdata);
 407:ble_process.c **** 				#endif
 408:ble_process.c **** 			}	
 409:ble_process.c ****         break;
 410:ble_process.c **** 			
 411:ble_process.c **** 		case CYBLE_EVT_GATTC_DISCOVERY_COMPLETE:
 412:ble_process.c **** 			/* This event is generated whenever the discovery procedure is complete*/
 413:ble_process.c **** 			
 414:ble_process.c **** 			#ifdef ENABLE_CENTRAL_DISCOVERY
 415:ble_process.c **** 			deviceConnected = TRUE;
 416:ble_process.c **** 			#ifdef DEBUG_ENABLED
 417:ble_process.c **** 				UART_UartPutString("CYBLE_EVT_GATTC_DISCOVERY_COMPLETE ");
 418:ble_process.c **** 				SendBLEStatetoUART(CyBle_GetState());
 419:ble_process.c **** 				UART_UartPutCRLF(' ');
 420:ble_process.c **** 			#endif
 421:ble_process.c **** 			
 422:ble_process.c **** 			/* Write the Data Counter value */
 423:ble_process.c **** 			writeADVcounterdata.attrHandle = CYBLE_RGB_DATA_COUNT_CHAR_HANDLE;
 424:ble_process.c **** 			writeADVcounterdata.value.val = &dataADVCounter;
 425:ble_process.c **** 			writeADVcounterdata.value.len = 1;
 426:ble_process.c **** 			CyBle_GattcWriteWithoutResponse(cyBle_connHandle, &writeADVcounterdata);
 427:ble_process.c **** 		
 428:ble_process.c **** 			/* Write the RGB LED Value */
 429:ble_process.c **** 			writeRGBdata.attrHandle = CYBLE_RGB_LED_CONTROL_CHAR_HANDLE;
 430:ble_process.c **** 			writeRGBdata.value.val = RGBData;
 431:ble_process.c **** 			writeRGBdata.value.len = RGB_LED_DATA_LEN;
 432:ble_process.c **** 			CyBle_GattcWriteCharacteristicValue(cyBle_connHandle, &writeRGBdata);
 433:ble_process.c **** 			#endif
 434:ble_process.c **** 		break;
 435:ble_process.c **** 			
 436:ble_process.c **** 		case CYBLE_EVT_GATTC_WRITE_RSP:
 437:ble_process.c **** 			/* This event is generated when the Client device receives a response
 438:ble_process.c **** 			* as part of the Write request sent earlier. This indicates that
 439:ble_process.c **** 			* the RGB LED data was written successfully */
 440:ble_process.c **** 			#ifdef DEBUG_ENABLED
 441:ble_process.c **** 				UART_UartPutString("CYBLE_EVT_GATTC_WRITE_RSP ");
 442:ble_process.c **** 				SendBLEStatetoUART(CyBle_GetState());
 443:ble_process.c **** 				UART_UartPutCRLF(' ');
 444:ble_process.c **** 			#endif
 445:ble_process.c **** 			
 446:ble_process.c **** 			/* Disconnect the existing connection and restart scanning */
 447:ble_process.c **** 			if((cyBle_connHandle.bdHandle != 0))
 448:ble_process.c **** 			{
 449:ble_process.c **** 				CyBle_GapDisconnect(cyBle_connHandle.bdHandle);
 450:ble_process.c **** 				
 451:ble_process.c **** 				restartScanning = TRUE;
 452:ble_process.c **** 				#ifdef DEBUG_ENABLED
 453:ble_process.c **** 				UART_UartPutString("Disconnect from CYBLE_EVT_GATTC_WRITE_RSP ");
 454:ble_process.c **** 				SendBLEStatetoUART(CyBle_GetState());
 455:ble_process.c **** 				UART_UartPutCRLF(' ');
 456:ble_process.c **** 				#endif
 457:ble_process.c **** 			}
 458:ble_process.c **** 		break;
 459:ble_process.c **** 
ARM GAS  C:\Users\dmytro\AppData\Local\Temp\ccjppNo8.s 			page 14


 460:ble_process.c **** 		case CYBLE_EVT_GAP_DEVICE_DISCONNECTED:
 461:ble_process.c **** 			/* This event is generated when the device disconnects from an 
 462:ble_process.c **** 			* existing connection */
 463:ble_process.c **** 			deviceConnected = FALSE;
 464:ble_process.c **** 			
 465:ble_process.c **** 			#ifdef DEBUG_ENABLED
 466:ble_process.c **** 				UART_UartPutString("CYBLE_EVT_GAP_DEVICE_DISCONNECTED ");
 467:ble_process.c **** 				SendBLEStatetoUART(CyBle_GetState());
 468:ble_process.c **** 				UART_UartPutCRLF(' ');
 469:ble_process.c **** 			#endif
 470:ble_process.c **** 			
 471:ble_process.c **** 			if((ble_gap_state == BLE_PERIPHERAL) && (switch_Role != TRUE))
 472:ble_process.c **** 			{
 473:ble_process.c **** 				/* If the current role of this system was Peripheral and the role
 474:ble_process.c **** 				* is not to be switched, then restart advertisement */
 475:ble_process.c **** 				if(CYBLE_STATE_DISCONNECTED == CyBle_GetState())
 476:ble_process.c **** 				{
 477:ble_process.c **** 					CyBle_GappStartAdvertisement(CYBLE_ADVERTISING_FAST);	
 478:ble_process.c **** 					#ifdef DEBUG_ENABLED
 479:ble_process.c **** 					UART_UartPutString("Restart Advertisement ");
 480:ble_process.c **** 					SendBLEStatetoUART(CyBle_GetState());
 481:ble_process.c **** 					UART_UartPutCRLF(' ');
 482:ble_process.c **** 					#endif
 483:ble_process.c **** 				}
 484:ble_process.c **** 			}
 485:ble_process.c **** 			else if((ble_gap_state == BLE_CENTRAL) && (switch_Role != TRUE))
 486:ble_process.c **** 			{
 487:ble_process.c **** 				/* If the current role of this system was Central and the role
 488:ble_process.c **** 				* is not to be switched, then restart scanning */
 489:ble_process.c **** 				if(CYBLE_STATE_DISCONNECTED == CyBle_GetState())
 490:ble_process.c **** 				{
 491:ble_process.c **** 					CyBle_GapcStartScan(CYBLE_SCANNING_FAST);	
 492:ble_process.c **** 					#ifdef DEBUG_ENABLED
 493:ble_process.c **** 					UART_UartPutString("Restart Scanning ");
 494:ble_process.c **** 					SendBLEStatetoUART(CyBle_GetState());
 495:ble_process.c **** 					UART_UartPutCRLF(' ');
 496:ble_process.c **** 					#endif
 497:ble_process.c **** 				}	
 498:ble_process.c **** 			}
 499:ble_process.c **** 		break;
 500:ble_process.c **** 			
 501:ble_process.c **** 		default:
 502:ble_process.c **** 			eventParam = eventParam;
 503:ble_process.c **** 		break;
 205              		.loc 1 503 0
 206 0022 10E3     		b	.L1
 207              	.L6:
  67:ble_process.c **** 	{
 208              		.loc 1 67 0
 209 0024 272B     		cmp	r3, #39
 210 0026 00D1     		bne	.LCB33
 211 0028 46E2     		b	.L9	@long jump
 212              	.LCB33:
 213 002a 282B     		cmp	r3, #40
 214 002c 00D1     		bne	.LCB35
 215 002e B5E2     		b	.L10	@long jump
 216              	.LCB35:
ARM GAS  C:\Users\dmytro\AppData\Local\Temp\ccjppNo8.s 			page 15


 217              		.loc 1 503 0
 218 0030 09E3     		b	.L1
 219              	.L4:
  67:ble_process.c **** 	{
 220              		.loc 1 67 0
 221 0032 4C2B     		cmp	r3, #76
 222 0034 64D0     		beq	.L11
 223 0036 04D8     		bhi	.L12
 224 0038 412B     		cmp	r3, #65
 225 003a 51D0     		beq	.L13
 226 003c 422B     		cmp	r3, #66
 227 003e 57D0     		beq	.L14
 228              		.loc 1 503 0
 229 0040 01E3     		b	.L1
 230              	.L12:
  67:ble_process.c **** 	{
 231              		.loc 1 67 0
 232 0042 4E2B     		cmp	r3, #78
 233 0044 00D1     		bne	.LCB53
 234 0046 EAE0     		b	.L15	@long jump
 235              	.LCB53:
 236 0048 00D2     		bcs	.LCB55
 237 004a 82E2     		b	.L16	@long jump
 238              	.LCB55:
 239 004c 8922     		movs	r2, #137
 240 004e 5200     		lsls	r2, r2, #1
 241 0050 9342     		cmp	r3, r2
 242 0052 00D1     		bne	.LCB59
 243 0054 EAE2     		b	.L33	@long jump
 244              	.LCB59:
 245              		.loc 1 503 0
 246 0056 F6E2     		b	.L1
 247              	.L7:
  71:ble_process.c **** 			UART_UartPutCRLF(' ');
 248              		.loc 1 71 0
 249 0058 BC4B     		ldr	r3, .L40
 250 005a 1800     		movs	r0, r3
 251 005c FFF7FEFF 		bl	UART_UartPutString
  72:ble_process.c **** 			#endif
 252              		.loc 1 72 0
 253 0060 2020     		movs	r0, #32
 254 0062 FFF7FEFF 		bl	UART_UartPutCRLF
  75:ble_process.c **** 		break;
 255              		.loc 1 75 0
 256 0066 0020     		movs	r0, #0
 257 0068 FFF7FEFF 		bl	CyBle_GappStartAdvertisement
  76:ble_process.c **** 			
 258              		.loc 1 76 0
 259 006c EBE2     		b	.L1
 260              	.L5:
  81:ble_process.c **** 			SendBLEStatetoUART(CyBle_GetState());
 261              		.loc 1 81 0
 262 006e B84B     		ldr	r3, .L40+4
 263 0070 1800     		movs	r0, r3
 264 0072 FFF7FEFF 		bl	UART_UartPutString
  82:ble_process.c **** 			UART_UartPutCRLF(' ');
 265              		.loc 1 82 0
ARM GAS  C:\Users\dmytro\AppData\Local\Temp\ccjppNo8.s 			page 16


 266 0076 B74B     		ldr	r3, .L40+8
 267 0078 1B78     		ldrb	r3, [r3]
 268 007a 1800     		movs	r0, r3
 269 007c FFF7FEFF 		bl	SendBLEStatetoUART
  83:ble_process.c **** 			#endif
 270              		.loc 1 83 0
 271 0080 2020     		movs	r0, #32
 272 0082 FFF7FEFF 		bl	UART_UartPutCRLF
  86:ble_process.c **** 			{
 273              		.loc 1 86 0
 274 0086 B34B     		ldr	r3, .L40+8
 275 0088 1B78     		ldrb	r3, [r3]
 276 008a 062B     		cmp	r3, #6
 277 008c 00D0     		beq	.LCB87
 278 008e CFE2     		b	.L34	@long jump
 279              	.LCB87:
  86:ble_process.c **** 			{
 280              		.loc 1 86 0 is_stmt 0 discriminator 1
 281 0090 B14B     		ldr	r3, .L40+12
 282 0092 1B78     		ldrb	r3, [r3]
 283 0094 002B     		cmp	r3, #0
 284 0096 00D0     		beq	.LCB91
 285 0098 CAE2     		b	.L34	@long jump
 286              	.LCB91:
  92:ble_process.c **** 				
 287              		.loc 1 92 0 is_stmt 1
 288 009a 0020     		movs	r0, #0
 289 009c FFF7FEFF 		bl	CyBle_GappStartAdvertisement
  94:ble_process.c **** 				{
 290              		.loc 1 94 0
 291 00a0 5E23     		movs	r3, #94
 292 00a2 FB18     		adds	r3, r7, r3
 293 00a4 1B88     		ldrh	r3, [r3]
 294 00a6 002B     		cmp	r3, #0
 295 00a8 00D0     		beq	.LCB98
 296 00aa C1E2     		b	.L34	@long jump
 297              	.LCB98:
  97:ble_process.c **** 					SendBLEStatetoUART(CyBle_GetState());
 298              		.loc 1 97 0
 299 00ac AB4B     		ldr	r3, .L40+16
 300 00ae 1800     		movs	r0, r3
 301 00b0 FFF7FEFF 		bl	UART_UartPutString
  98:ble_process.c **** 					UART_UartPutCRLF(' ');
 302              		.loc 1 98 0
 303 00b4 A74B     		ldr	r3, .L40+8
 304 00b6 1B78     		ldrb	r3, [r3]
 305 00b8 1800     		movs	r0, r3
 306 00ba FFF7FEFF 		bl	SendBLEStatetoUART
  99:ble_process.c **** 					#endif
 307              		.loc 1 99 0
 308 00be 2020     		movs	r0, #32
 309 00c0 FFF7FEFF 		bl	UART_UartPutCRLF
 103:ble_process.c **** 			
 310              		.loc 1 103 0
 311 00c4 B4E2     		b	.L34
 312              	.L3:
 108:ble_process.c **** 			SendBLEStatetoUART(CyBle_GetState());
ARM GAS  C:\Users\dmytro\AppData\Local\Temp\ccjppNo8.s 			page 17


 313              		.loc 1 108 0
 314 00c6 A64B     		ldr	r3, .L40+20
 315 00c8 1800     		movs	r0, r3
 316 00ca FFF7FEFF 		bl	UART_UartPutString
 109:ble_process.c **** 			UART_UartPutCRLF(' ');
 317              		.loc 1 109 0
 318 00ce A14B     		ldr	r3, .L40+8
 319 00d0 1B78     		ldrb	r3, [r3]
 320 00d2 1800     		movs	r0, r3
 321 00d4 FFF7FEFF 		bl	SendBLEStatetoUART
 110:ble_process.c **** 			#endif
 322              		.loc 1 110 0
 323 00d8 2020     		movs	r0, #32
 324 00da FFF7FEFF 		bl	UART_UartPutCRLF
 112:ble_process.c **** 			
 325              		.loc 1 112 0
 326 00de B2E2     		b	.L1
 327              	.L13:
 118:ble_process.c **** 			UART_UartPutCRLF(' ');
 328              		.loc 1 118 0
 329 00e0 A04B     		ldr	r3, .L40+24
 330 00e2 1800     		movs	r0, r3
 331 00e4 FFF7FEFF 		bl	UART_UartPutString
 119:ble_process.c **** 			#endif
 332              		.loc 1 119 0
 333 00e8 2020     		movs	r0, #32
 334 00ea FFF7FEFF 		bl	UART_UartPutCRLF
 121:ble_process.c **** 		
 335              		.loc 1 121 0
 336 00ee AAE2     		b	.L1
 337              	.L14:
 127:ble_process.c **** 			UART_UartPutCRLF(' ');
 338              		.loc 1 127 0
 339 00f0 9D4B     		ldr	r3, .L40+28
 340 00f2 1800     		movs	r0, r3
 341 00f4 FFF7FEFF 		bl	UART_UartPutString
 128:ble_process.c **** 			#endif
 342              		.loc 1 128 0
 343 00f8 2020     		movs	r0, #32
 344 00fa FFF7FEFF 		bl	UART_UartPutCRLF
 130:ble_process.c **** 			
 345              		.loc 1 130 0
 346 00fe A2E2     		b	.L1
 347              	.L11:
 136:ble_process.c **** 
 348              		.loc 1 136 0
 349 0100 4C23     		movs	r3, #76
 350 0102 FB18     		adds	r3, r7, r3
 351 0104 3A68     		ldr	r2, [r7]
 352 0106 13CA     		ldmia	r2!, {r0, r1, r4}
 353 0108 13C3     		stmia	r3!, {r0, r1, r4}
 354 010a 1268     		ldr	r2, [r2]
 355 010c 1A60     		str	r2, [r3]
 138:ble_process.c **** 			{
 356              		.loc 1 138 0
 357 010e 4C23     		movs	r3, #76
 358 0110 FB18     		adds	r3, r7, r3
ARM GAS  C:\Users\dmytro\AppData\Local\Temp\ccjppNo8.s 			page 18


 359 0112 9B89     		ldrh	r3, [r3, #12]
 360 0114 0E2B     		cmp	r3, #14
 361 0116 73D1     		bne	.L20
 142:ble_process.c **** 				{
 362              		.loc 1 142 0
 363 0118 4C23     		movs	r3, #76
 364 011a FB18     		adds	r3, r7, r3
 365 011c 1B89     		ldrh	r3, [r3, #8]
 366 011e 042B     		cmp	r3, #4
 367 0120 65D1     		bne	.L21
 368              	.LBB2:
 145:ble_process.c **** 						UART_UartPutCRLF(' ');
 369              		.loc 1 145 0
 370 0122 924B     		ldr	r3, .L40+32
 371 0124 1800     		movs	r0, r3
 372 0126 FFF7FEFF 		bl	UART_UartPutString
 146:ble_process.c **** 					#endif
 373              		.loc 1 146 0
 374 012a 2020     		movs	r0, #32
 375 012c FFF7FEFF 		bl	UART_UartPutCRLF
 150:ble_process.c **** 					RGBData[RGB_GREEN_INDEX] = writeReqData.handleValPair.value.val[1];
 376              		.loc 1 150 0
 377 0130 4C23     		movs	r3, #76
 378 0132 FB18     		adds	r3, r7, r3
 379 0134 5B68     		ldr	r3, [r3, #4]
 380 0136 1A78     		ldrb	r2, [r3]
 381 0138 8D4B     		ldr	r3, .L40+36
 382 013a 1A70     		strb	r2, [r3]
 151:ble_process.c **** 					RGBData[RGB_BLUE_INDEX] = writeReqData.handleValPair.value.val[2];
 383              		.loc 1 151 0
 384 013c 4C23     		movs	r3, #76
 385 013e FB18     		adds	r3, r7, r3
 386 0140 5B68     		ldr	r3, [r3, #4]
 387 0142 5A78     		ldrb	r2, [r3, #1]
 388 0144 8A4B     		ldr	r3, .L40+36
 389 0146 5A70     		strb	r2, [r3, #1]
 152:ble_process.c **** 					RGBData[RGB_INTENSITY_INDEX] = writeReqData.handleValPair.value.val[3];
 390              		.loc 1 152 0
 391 0148 4C23     		movs	r3, #76
 392 014a FB18     		adds	r3, r7, r3
 393 014c 5B68     		ldr	r3, [r3, #4]
 394 014e 9A78     		ldrb	r2, [r3, #2]
 395 0150 874B     		ldr	r3, .L40+36
 396 0152 9A70     		strb	r2, [r3, #2]
 153:ble_process.c **** 					
 397              		.loc 1 153 0
 398 0154 4C23     		movs	r3, #76
 399 0156 FB18     		adds	r3, r7, r3
 400 0158 5B68     		ldr	r3, [r3, #4]
 401 015a DA78     		ldrb	r2, [r3, #3]
 402 015c 844B     		ldr	r3, .L40+36
 403 015e DA70     		strb	r2, [r3, #3]
 155:ble_process.c ****                     RGBData[RGB_RED_INDEX] = RGB_Collection[0];
 404              		.loc 1 155 0
 405 0160 0C23     		movs	r3, #12
 406 0162 FA18     		adds	r2, r7, r3
 407 0164 834B     		ldr	r3, .L40+40
ARM GAS  C:\Users\dmytro\AppData\Local\Temp\ccjppNo8.s 			page 19


 408 0166 1000     		movs	r0, r2
 409 0168 1900     		movs	r1, r3
 410 016a 0423     		movs	r3, #4
 411 016c 1A00     		movs	r2, r3
 412 016e FFF7FEFF 		bl	memcpy
 156:ble_process.c ****                     RGBData[RGB_BLUE_INDEX] = RGB_Collection[1];
 413              		.loc 1 156 0
 414 0172 0C23     		movs	r3, #12
 415 0174 FB18     		adds	r3, r7, r3
 416 0176 1A78     		ldrb	r2, [r3]
 417 0178 7D4B     		ldr	r3, .L40+36
 418 017a 1A70     		strb	r2, [r3]
 157:ble_process.c ****                     RGBData[RGB_GREEN_INDEX] = RGB_Collection[2];
 419              		.loc 1 157 0
 420 017c 0C23     		movs	r3, #12
 421 017e FB18     		adds	r3, r7, r3
 422 0180 5A78     		ldrb	r2, [r3, #1]
 423 0182 7B4B     		ldr	r3, .L40+36
 424 0184 9A70     		strb	r2, [r3, #2]
 158:ble_process.c ****                     RGBData[RGB_INTENSITY_INDEX] = RGB_Collection[3];
 425              		.loc 1 158 0
 426 0186 0C23     		movs	r3, #12
 427 0188 FB18     		adds	r3, r7, r3
 428 018a 9A78     		ldrb	r2, [r3, #2]
 429 018c 784B     		ldr	r3, .L40+36
 430 018e 5A70     		strb	r2, [r3, #1]
 159:ble_process.c ****                     
 431              		.loc 1 159 0
 432 0190 0C23     		movs	r3, #12
 433 0192 FB18     		adds	r3, r7, r3
 434 0194 DA78     		ldrb	r2, [r3, #3]
 435 0196 764B     		ldr	r3, .L40+36
 436 0198 DA70     		strb	r2, [r3, #3]
 163:ble_process.c **** 					
 437              		.loc 1 163 0
 438 019a 754B     		ldr	r3, .L40+36
 439 019c 0421     		movs	r1, #4
 440 019e 1800     		movs	r0, r3
 441 01a0 FFF7FEFF 		bl	UpdateRGBled
 167:ble_process.c **** 							
 442              		.loc 1 167 0
 443 01a4 744A     		ldr	r2, .L40+44
 444 01a6 4C23     		movs	r3, #76
 445 01a8 FB18     		adds	r3, r7, r3
 446 01aa 181D     		adds	r0, r3, #4
 447 01ac 0023     		movs	r3, #0
 448 01ae 0021     		movs	r1, #0
 449 01b0 FFF7FEFF 		bl	CyBle_GattsWriteAttributeValue
 172:ble_process.c **** 					#endif
 450              		.loc 1 172 0
 451 01b4 714B     		ldr	r3, .L40+48
 452 01b6 1B78     		ldrb	r3, [r3]
 453 01b8 0133     		adds	r3, r3, #1
 454 01ba DAB2     		uxtb	r2, r3
 455 01bc 6F4B     		ldr	r3, .L40+48
 456 01be 1A70     		strb	r2, [r3]
 176:ble_process.c **** 					PrintNum(dataADVCounter);
ARM GAS  C:\Users\dmytro\AppData\Local\Temp\ccjppNo8.s 			page 20


 457              		.loc 1 176 0
 458 01c0 6F4B     		ldr	r3, .L40+52
 459 01c2 1800     		movs	r0, r3
 460 01c4 FFF7FEFF 		bl	UART_UartPutString
 177:ble_process.c **** 					UART_UartPutCRLF(' ');
 461              		.loc 1 177 0
 462 01c8 6C4B     		ldr	r3, .L40+48
 463 01ca 1B78     		ldrb	r3, [r3]
 464 01cc 1800     		movs	r0, r3
 465 01ce FFF7FEFF 		bl	PrintNum
 178:ble_process.c **** 					#endif
 466              		.loc 1 178 0
 467 01d2 2020     		movs	r0, #32
 468 01d4 FFF7FEFF 		bl	UART_UartPutCRLF
 183:ble_process.c **** 					
 469              		.loc 1 183 0
 470 01d8 5F4B     		ldr	r3, .L40+12
 471 01da 0122     		movs	r2, #1
 472 01dc 1A70     		strb	r2, [r3]
 186:ble_process.c **** 					UART_UartPutCRLF(' ');
 473              		.loc 1 186 0
 474 01de 694B     		ldr	r3, .L40+56
 475 01e0 1800     		movs	r0, r3
 476 01e2 FFF7FEFF 		bl	UART_UartPutString
 187:ble_process.c **** 					#endif
 477              		.loc 1 187 0
 478 01e6 2020     		movs	r0, #32
 479 01e8 FFF7FEFF 		bl	UART_UartPutCRLF
 480              	.LBE2:
 481 01ec 08E0     		b	.L20
 482              	.L21:
 193:ble_process.c **** 									writeReqData.handleValPair.attrHandle, 
 483              		.loc 1 193 0
 484 01ee 4C23     		movs	r3, #76
 485 01f0 FB18     		adds	r3, r7, r3
 486 01f2 9B89     		ldrh	r3, [r3, #12]
 487 01f4 0D22     		movs	r2, #13
 488 01f6 1900     		movs	r1, r3
 489 01f8 1220     		movs	r0, #18
 490 01fa FFF7FEFF 		bl	SendErrorCode
 491 01fe 22E2     		b	.L1
 492              	.L20:
 204:ble_process.c **** 		break;
 493              		.loc 1 204 0
 494 0200 5D4B     		ldr	r3, .L40+44
 495 0202 1A78     		ldrb	r2, [r3]
 496 0204 5B78     		ldrb	r3, [r3, #1]
 497 0206 1B02     		lsls	r3, r3, #8
 498 0208 1A43     		orrs	r2, r3
 499 020a 0023     		movs	r3, #0
 500 020c 1204     		lsls	r2, r2, #16
 501 020e 120C     		lsrs	r2, r2, #16
 502 0210 1B0C     		lsrs	r3, r3, #16
 503 0212 1B04     		lsls	r3, r3, #16
 504 0214 1343     		orrs	r3, r2
 505 0216 1800     		movs	r0, r3
 506 0218 FFF7FEFF 		bl	CyBle_GattsWriteRsp
ARM GAS  C:\Users\dmytro\AppData\Local\Temp\ccjppNo8.s 			page 21


 205:ble_process.c **** 			
 507              		.loc 1 205 0
 508 021c 13E2     		b	.L1
 509              	.L15:
 211:ble_process.c **** 			
 510              		.loc 1 211 0
 511 021e 1C23     		movs	r3, #28
 512 0220 FB18     		adds	r3, r7, r3
 513 0222 3A68     		ldr	r2, [r7]
 514 0224 13CA     		ldmia	r2!, {r0, r1, r4}
 515 0226 13C3     		stmia	r3!, {r0, r1, r4}
 516 0228 1268     		ldr	r2, [r2]
 517 022a 1A60     		str	r2, [r3]
 214:ble_process.c **** 			{
 518              		.loc 1 214 0
 519 022c 1C23     		movs	r3, #28
 520 022e FB18     		adds	r3, r7, r3
 521 0230 9B89     		ldrh	r3, [r3, #12]
 522 0232 112B     		cmp	r3, #17
 523 0234 00D0     		beq	.LCB294
 524 0236 FDE1     		b	.L35	@long jump
 525              	.LCB294:
 217:ble_process.c **** 				{
 526              		.loc 1 217 0
 527 0238 1C23     		movs	r3, #28
 528 023a FB18     		adds	r3, r7, r3
 529 023c 1B89     		ldrh	r3, [r3, #8]
 530 023e 012B     		cmp	r3, #1
 531 0240 00D0     		beq	.LCB299
 532 0242 F7E1     		b	.L35	@long jump
 533              	.LCB299:
 220:ble_process.c **** 					
 534              		.loc 1 220 0
 535 0244 1C23     		movs	r3, #28
 536 0246 FB18     		adds	r3, r7, r3
 537 0248 5B68     		ldr	r3, [r3, #4]
 538 024a 1A78     		ldrb	r2, [r3]
 539 024c 4B4B     		ldr	r3, .L40+48
 540 024e 1A70     		strb	r2, [r3]
 223:ble_process.c **** 					
 541              		.loc 1 223 0
 542 0250 4A4B     		ldr	r3, .L40+48
 543 0252 1B78     		ldrb	r3, [r3]
 544 0254 013B     		subs	r3, r3, #1
 545 0256 DAB2     		uxtb	r2, r3
 546 0258 484B     		ldr	r3, .L40+48
 547 025a 1A70     		strb	r2, [r3]
 227:ble_process.c **** 													0,
 548              		.loc 1 227 0
 549 025c 464A     		ldr	r2, .L40+44
 550 025e 1C23     		movs	r3, #28
 551 0260 FB18     		adds	r3, r7, r3
 552 0262 181D     		adds	r0, r3, #4
 553 0264 0023     		movs	r3, #0
 554 0266 0021     		movs	r1, #0
 555 0268 FFF7FEFF 		bl	CyBle_GattsWriteAttributeValue
 233:ble_process.c **** 					PrintNum(dataADVCounter);
ARM GAS  C:\Users\dmytro\AppData\Local\Temp\ccjppNo8.s 			page 22


 556              		.loc 1 233 0
 557 026c 464B     		ldr	r3, .L40+60
 558 026e 1800     		movs	r0, r3
 559 0270 FFF7FEFF 		bl	UART_UartPutString
 234:ble_process.c **** 					UART_UartPutCRLF(' ');
 560              		.loc 1 234 0
 561 0274 414B     		ldr	r3, .L40+48
 562 0276 1B78     		ldrb	r3, [r3]
 563 0278 1800     		movs	r0, r3
 564 027a FFF7FEFF 		bl	PrintNum
 235:ble_process.c **** 					#endif
 565              		.loc 1 235 0
 566 027e 2020     		movs	r0, #32
 567 0280 FFF7FEFF 		bl	UART_UartPutCRLF
 239:ble_process.c **** 		
 568              		.loc 1 239 0
 569 0284 D6E1     		b	.L35
 570              	.L8:
 244:ble_process.c **** 			{
 571              		.loc 1 244 0
 572 0286 334B     		ldr	r3, .L40+8
 573 0288 1B78     		ldrb	r3, [r3]
 574 028a 022B     		cmp	r3, #2
 575 028c 00D1     		bne	.LCB335
 576 028e D3E1     		b	.L36	@long jump
 577              	.LCB335:
 248:ble_process.c **** 				
 578              		.loc 1 248 0
 579 0290 2C23     		movs	r3, #44
 580 0292 FB18     		adds	r3, r7, r3
 581 0294 3A68     		ldr	r2, [r7]
 582 0296 13CA     		ldmia	r2!, {r0, r1, r4}
 583 0298 13C3     		stmia	r3!, {r0, r1, r4}
 584 029a 03CA     		ldmia	r2!, {r0, r1}
 585 029c 03C3     		stmia	r3!, {r0, r1}
 251:ble_process.c **** 					UART_UartPutCRLF(' ');
 586              		.loc 1 251 0
 587 029e 3B4B     		ldr	r3, .L40+64
 588 02a0 1800     		movs	r0, r3
 589 02a2 FFF7FEFF 		bl	UART_UartPutString
 252:ble_process.c **** 				#endif
 590              		.loc 1 252 0
 591 02a6 2020     		movs	r0, #32
 592 02a8 FFF7FEFF 		bl	UART_UartPutCRLF
 260:ble_process.c **** 				{
 593              		.loc 1 260 0
 594 02ac 2C23     		movs	r3, #44
 595 02ae FB18     		adds	r3, r7, r3
 596 02b0 1B78     		ldrb	r3, [r3]
 597 02b2 002B     		cmp	r3, #0
 598 02b4 00D0     		beq	.LCB350
 599 02b6 8DE0     		b	.L25	@long jump
 600              	.LCB350:
 264:ble_process.c **** 					{
 601              		.loc 1 264 0
 602 02b8 2C23     		movs	r3, #44
 603 02ba FB18     		adds	r3, r7, r3
ARM GAS  C:\Users\dmytro\AppData\Local\Temp\ccjppNo8.s 			page 23


 604 02bc 1A7A     		ldrb	r2, [r3, #8]
 605 02be 344B     		ldr	r3, .L40+68
 606 02c0 DB7F     		ldrb	r3, [r3, #31]
 607 02c2 9A42     		cmp	r2, r3
 608 02c4 00D0     		beq	.LCB357
 609 02c6 85E0     		b	.L25	@long jump
 610              	.LCB357:
 268:ble_process.c **** 						{
 611              		.loc 1 268 0
 612 02c8 2C23     		movs	r3, #44
 613 02ca FB18     		adds	r3, r7, r3
 614 02cc DA68     		ldr	r2, [r3, #12]
 615 02ce 2C23     		movs	r3, #44
 616 02d0 FB18     		adds	r3, r7, r3
 617 02d2 1B7A     		ldrb	r3, [r3, #8]
 618 02d4 023B     		subs	r3, r3, #2
 619 02d6 D318     		adds	r3, r2, r3
 620 02d8 1B78     		ldrb	r3, [r3]
 621 02da 012B     		cmp	r3, #1
 622 02dc 00D0     		beq	.LCB368
 623 02de 79E0     		b	.L25	@long jump
 624              	.LCB368:
 273:ble_process.c **** 							((scan_report.data[scan_report.dataLen-1] == 255) && (dataADVCounter == 0)))
 625              		.loc 1 273 0
 626 02e0 2C23     		movs	r3, #44
 627 02e2 FB18     		adds	r3, r7, r3
 628 02e4 DA68     		ldr	r2, [r3, #12]
 629 02e6 2C23     		movs	r3, #44
 630 02e8 FB18     		adds	r3, r7, r3
 631 02ea 1B7A     		ldrb	r3, [r3, #8]
 632 02ec 013B     		subs	r3, r3, #1
 633 02ee D318     		adds	r3, r2, r3
 634 02f0 1A78     		ldrb	r2, [r3]
 635 02f2 224B     		ldr	r3, .L40+48
 636 02f4 1B78     		ldrb	r3, [r3]
 637 02f6 9A42     		cmp	r2, r3
 638 02f8 0ED3     		bcc	.L26
 274:ble_process.c **** 							{
 639              		.loc 1 274 0 discriminator 1
 640 02fa 2C23     		movs	r3, #44
 641 02fc FB18     		adds	r3, r7, r3
 642 02fe DA68     		ldr	r2, [r3, #12]
 643 0300 2C23     		movs	r3, #44
 644 0302 FB18     		adds	r3, r7, r3
 645 0304 1B7A     		ldrb	r3, [r3, #8]
 646 0306 013B     		subs	r3, r3, #1
 647 0308 D318     		adds	r3, r2, r3
 648 030a 1B78     		ldrb	r3, [r3]
 273:ble_process.c **** 							((scan_report.data[scan_report.dataLen-1] == 255) && (dataADVCounter == 0)))
 649              		.loc 1 273 0 discriminator 1
 650 030c FF2B     		cmp	r3, #255
 651 030e 49D1     		bne	.L27
 274:ble_process.c **** 							{
 652              		.loc 1 274 0
 653 0310 1A4B     		ldr	r3, .L40+48
 654 0312 1B78     		ldrb	r3, [r3]
 655 0314 002B     		cmp	r3, #0
ARM GAS  C:\Users\dmytro\AppData\Local\Temp\ccjppNo8.s 			page 24


 656 0316 45D1     		bne	.L27
 657              	.L26:
 277:ble_process.c **** 								/* Save the advertising peripheral address and type*/
 658              		.loc 1 277 0
 659 0318 1E4B     		ldr	r3, .L40+72
 660 031a 0122     		movs	r2, #1
 661 031c 1A70     		strb	r2, [r3]
 279:ble_process.c **** 								potential_node_bdAddrType = scan_report.peerAddrType;
 662              		.loc 1 279 0
 663 031e 2C23     		movs	r3, #44
 664 0320 FB18     		adds	r3, r7, r3
 665 0322 5B68     		ldr	r3, [r3, #4]
 666 0324 1C4A     		ldr	r2, .L40+76
 667 0326 1000     		movs	r0, r2
 668 0328 1900     		movs	r1, r3
 669 032a 0623     		movs	r3, #6
 670 032c 1A00     		movs	r2, r3
 671 032e FFF7FEFF 		bl	memcpy
 280:ble_process.c **** 								
 672              		.loc 1 280 0
 673 0332 2C23     		movs	r3, #44
 674 0334 FB18     		adds	r3, r7, r3
 675 0336 5A78     		ldrb	r2, [r3, #1]
 676 0338 184B     		ldr	r3, .L40+80
 677 033a 1A70     		strb	r2, [r3]
 283:ble_process.c **** 								UART_UartPutCRLF(' ');
 678              		.loc 1 283 0
 679 033c 184B     		ldr	r3, .L40+84
 680 033e 1800     		movs	r0, r3
 681 0340 FFF7FEFF 		bl	UART_UartPutString
 284:ble_process.c **** 								#endif
 682              		.loc 1 284 0
 683 0344 2020     		movs	r0, #32
 684 0346 FFF7FEFF 		bl	UART_UartPutCRLF
 685 034a 43E0     		b	.L25
 686              	.L41:
 687              		.align	2
 688              	.L40:
 689 034c 00000000 		.word	.LC1
 690 0350 14000000 		.word	.LC3
 691 0354 00000000 		.word	cyBle_state
 692 0358 00000000 		.word	switch_Role
 693 035c 40000000 		.word	.LC7
 694 0360 58000000 		.word	.LC9
 695 0364 78000000 		.word	.LC11
 696 0368 94000000 		.word	.LC13
 697 036c B4000000 		.word	.LC15
 698 0370 00000000 		.word	RGBData
 699 0374 70020000 		.word	.LC0
 700 0378 00000000 		.word	cyBle_connHandle
 701 037c 00000000 		.word	dataADVCounter
 702 0380 D4000000 		.word	.LC21
 703 0384 14010000 		.word	.LC23
 704 0388 2C010000 		.word	.LC25
 705 038c 64010000 		.word	.LC27
 706 0390 00000000 		.word	new_advData
 707 0394 00000000 		.word	potential_node_found
ARM GAS  C:\Users\dmytro\AppData\Local\Temp\ccjppNo8.s 			page 25


 708 0398 00000000 		.word	potential_node_bdAddr
 709 039c 00000000 		.word	potential_node_bdAddrType
 710 03a0 8C010000 		.word	.LC33
 711              	.L27:
 293:ble_process.c **** 								
 712              		.loc 1 293 0
 713 03a4 A94B     		ldr	r3, .L42
 714 03a6 0022     		movs	r2, #0
 715 03a8 1A70     		strb	r2, [r3]
 295:ble_process.c **** 								
 716              		.loc 1 295 0
 717 03aa A94B     		ldr	r3, .L42+4
 718 03ac 0022     		movs	r2, #0
 719 03ae 1A70     		strb	r2, [r3]
 297:ble_process.c **** 								potential_node_bdAddr[1] = 0x00;
 720              		.loc 1 297 0
 721 03b0 A84B     		ldr	r3, .L42+8
 722 03b2 0022     		movs	r2, #0
 723 03b4 1A70     		strb	r2, [r3]
 298:ble_process.c **** 								potential_node_bdAddr[2] = 0x00;
 724              		.loc 1 298 0
 725 03b6 A74B     		ldr	r3, .L42+8
 726 03b8 0022     		movs	r2, #0
 727 03ba 5A70     		strb	r2, [r3, #1]
 299:ble_process.c **** 								potential_node_bdAddr[3] = 0x00;
 728              		.loc 1 299 0
 729 03bc A54B     		ldr	r3, .L42+8
 730 03be 0022     		movs	r2, #0
 731 03c0 9A70     		strb	r2, [r3, #2]
 300:ble_process.c **** 								potential_node_bdAddr[4] = 0x00;
 732              		.loc 1 300 0
 733 03c2 A44B     		ldr	r3, .L42+8
 734 03c4 0022     		movs	r2, #0
 735 03c6 DA70     		strb	r2, [r3, #3]
 301:ble_process.c **** 								potential_node_bdAddr[5] = 0x00;
 736              		.loc 1 301 0
 737 03c8 A24B     		ldr	r3, .L42+8
 738 03ca 0022     		movs	r2, #0
 739 03cc 1A71     		strb	r2, [r3, #4]
 302:ble_process.c **** 							}
 740              		.loc 1 302 0
 741 03ce A14B     		ldr	r3, .L42+8
 742 03d0 0022     		movs	r2, #0
 743 03d2 5A71     		strb	r2, [r3, #5]
 744              	.L25:
 310:ble_process.c **** 				{
 745              		.loc 1 310 0
 746 03d4 2C23     		movs	r3, #44
 747 03d6 FB18     		adds	r3, r7, r3
 748 03d8 1B78     		ldrb	r3, [r3]
 749 03da 042B     		cmp	r3, #4
 750 03dc 00D0     		beq	.LCB481
 751 03de 2BE1     		b	.L36	@long jump
 752              	.LCB481:
 314:ble_process.c **** 					{
 753              		.loc 1 314 0
 754 03e0 2C23     		movs	r3, #44
ARM GAS  C:\Users\dmytro\AppData\Local\Temp\ccjppNo8.s 			page 26


 755 03e2 FB18     		adds	r3, r7, r3
 756 03e4 1B7A     		ldrb	r3, [r3, #8]
 757 03e6 142B     		cmp	r3, #20
 758 03e8 00D0     		beq	.LCB486
 759 03ea 25E1     		b	.L36	@long jump
 760              	.LCB486:
 320:ble_process.c **** 						{
 761              		.loc 1 320 0
 762 03ec 974B     		ldr	r3, .L42
 763 03ee 1B78     		ldrb	r3, [r3]
 764 03f0 002B     		cmp	r3, #0
 765 03f2 00D1     		bne	.LCB490
 766 03f4 20E1     		b	.L36	@long jump
 767              	.LCB490:
 323:ble_process.c **** 								&& (potential_node_bdAddrType == scan_report.peerAddrType))
 768              		.loc 1 323 0
 769 03f6 2C23     		movs	r3, #44
 770 03f8 FB18     		adds	r3, r7, r3
 771 03fa 5B68     		ldr	r3, [r3, #4]
 772 03fc 9549     		ldr	r1, .L42+8
 773 03fe 0622     		movs	r2, #6
 774 0400 1800     		movs	r0, r3
 775 0402 FFF7FEFF 		bl	memcmp
 776 0406 031E     		subs	r3, r0, #0
 777 0408 00D0     		beq	.LCB500
 778 040a 15E1     		b	.L36	@long jump
 779              	.LCB500:
 324:ble_process.c **** 							{
 780              		.loc 1 324 0
 781 040c 2C23     		movs	r3, #44
 782 040e FB18     		adds	r3, r7, r3
 783 0410 5A78     		ldrb	r2, [r3, #1]
 784 0412 8F4B     		ldr	r3, .L42+4
 785 0414 1B78     		ldrb	r3, [r3]
 786 0416 9A42     		cmp	r2, r3
 787 0418 00D0     		beq	.LCB507
 788 041a 0DE1     		b	.L36	@long jump
 789              	.LCB507:
 329:ble_process.c **** 								{
 790              		.loc 1 329 0
 791 041c 2C23     		movs	r3, #44
 792 041e FB18     		adds	r3, r7, r3
 793 0420 D868     		ldr	r0, [r3, #12]
 794 0422 2C23     		movs	r3, #44
 795 0424 FB18     		adds	r3, r7, r3
 796 0426 1B7A     		ldrb	r3, [r3, #8]
 797 0428 1A00     		movs	r2, r3
 798 042a 8B4B     		ldr	r3, .L42+12
 799 042c 1900     		movs	r1, r3
 800 042e FFF7FEFF 		bl	memcmp
 801 0432 031E     		subs	r3, r0, #0
 802 0434 00D0     		beq	.LCB520
 803 0436 FFE0     		b	.L36	@long jump
 804              	.LCB520:
 332:ble_process.c **** 									UART_UartPutCRLF(' ');
 805              		.loc 1 332 0
 806 0438 884B     		ldr	r3, .L42+16
ARM GAS  C:\Users\dmytro\AppData\Local\Temp\ccjppNo8.s 			page 27


 807 043a 1800     		movs	r0, r3
 808 043c FFF7FEFF 		bl	UART_UartPutString
 333:ble_process.c **** 									#endif
 809              		.loc 1 333 0
 810 0440 2020     		movs	r0, #32
 811 0442 FFF7FEFF 		bl	UART_UartPutCRLF
 336:ble_process.c **** 									#ifdef DEBUG_ENABLED
 812              		.loc 1 336 0
 813 0446 FFF7FEFF 		bl	CyBle_GapcStopScan
 338:ble_process.c **** 									UART_UartPutCRLF(' ');
 814              		.loc 1 338 0
 815 044a 854B     		ldr	r3, .L42+20
 816 044c 1800     		movs	r0, r3
 817 044e FFF7FEFF 		bl	UART_UartPutString
 339:ble_process.c **** 									#endif
 818              		.loc 1 339 0
 819 0452 2020     		movs	r0, #32
 820 0454 FFF7FEFF 		bl	UART_UartPutCRLF
 343:ble_process.c **** 									peripAddr.bdAddr[0] = scan_report.peerBdAddr[0];
 821              		.loc 1 343 0
 822 0458 2C23     		movs	r3, #44
 823 045a FB18     		adds	r3, r7, r3
 824 045c 5A78     		ldrb	r2, [r3, #1]
 825 045e 814B     		ldr	r3, .L42+24
 826 0460 9A71     		strb	r2, [r3, #6]
 344:ble_process.c **** 									peripAddr.bdAddr[1] = scan_report.peerBdAddr[1];
 827              		.loc 1 344 0
 828 0462 2C23     		movs	r3, #44
 829 0464 FB18     		adds	r3, r7, r3
 830 0466 5B68     		ldr	r3, [r3, #4]
 831 0468 1A78     		ldrb	r2, [r3]
 832 046a 7E4B     		ldr	r3, .L42+24
 833 046c 1A70     		strb	r2, [r3]
 345:ble_process.c **** 									peripAddr.bdAddr[2] = scan_report.peerBdAddr[2];
 834              		.loc 1 345 0
 835 046e 2C23     		movs	r3, #44
 836 0470 FB18     		adds	r3, r7, r3
 837 0472 5B68     		ldr	r3, [r3, #4]
 838 0474 5A78     		ldrb	r2, [r3, #1]
 839 0476 7B4B     		ldr	r3, .L42+24
 840 0478 5A70     		strb	r2, [r3, #1]
 346:ble_process.c **** 									peripAddr.bdAddr[3] = scan_report.peerBdAddr[3];
 841              		.loc 1 346 0
 842 047a 2C23     		movs	r3, #44
 843 047c FB18     		adds	r3, r7, r3
 844 047e 5B68     		ldr	r3, [r3, #4]
 845 0480 9A78     		ldrb	r2, [r3, #2]
 846 0482 784B     		ldr	r3, .L42+24
 847 0484 9A70     		strb	r2, [r3, #2]
 347:ble_process.c **** 									peripAddr.bdAddr[4] = scan_report.peerBdAddr[4];
 848              		.loc 1 347 0
 849 0486 2C23     		movs	r3, #44
 850 0488 FB18     		adds	r3, r7, r3
 851 048a 5B68     		ldr	r3, [r3, #4]
 852 048c DA78     		ldrb	r2, [r3, #3]
 853 048e 754B     		ldr	r3, .L42+24
 854 0490 DA70     		strb	r2, [r3, #3]
ARM GAS  C:\Users\dmytro\AppData\Local\Temp\ccjppNo8.s 			page 28


 348:ble_process.c **** 									peripAddr.bdAddr[5] = scan_report.peerBdAddr[5];
 855              		.loc 1 348 0
 856 0492 2C23     		movs	r3, #44
 857 0494 FB18     		adds	r3, r7, r3
 858 0496 5B68     		ldr	r3, [r3, #4]
 859 0498 1A79     		ldrb	r2, [r3, #4]
 860 049a 724B     		ldr	r3, .L42+24
 861 049c 1A71     		strb	r2, [r3, #4]
 349:ble_process.c **** 
 862              		.loc 1 349 0
 863 049e 2C23     		movs	r3, #44
 864 04a0 FB18     		adds	r3, r7, r3
 865 04a2 5B68     		ldr	r3, [r3, #4]
 866 04a4 5A79     		ldrb	r2, [r3, #5]
 867 04a6 6F4B     		ldr	r3, .L42+24
 868 04a8 5A71     		strb	r2, [r3, #5]
 353:ble_process.c **** 									
 869              		.loc 1 353 0
 870 04aa 6F4B     		ldr	r3, .L42+28
 871 04ac 0122     		movs	r2, #1
 872 04ae 1A70     		strb	r2, [r3]
 357:ble_process.c **** 									#endif
 873              		.loc 1 357 0
 874 04b0 664B     		ldr	r3, .L42
 875 04b2 0022     		movs	r2, #0
 876 04b4 1A70     		strb	r2, [r3]
 368:ble_process.c **** 			
 877              		.loc 1 368 0
 878 04b6 BFE0     		b	.L36
 879              	.L9:
 372:ble_process.c **** 			{
 880              		.loc 1 372 0
 881 04b8 6C4B     		ldr	r3, .L42+32
 882 04ba 1B78     		ldrb	r3, [r3]
 883 04bc 022B     		cmp	r3, #2
 884 04be 00D0     		beq	.LCB586
 885 04c0 BCE0     		b	.L37	@long jump
 886              	.LCB586:
 388:ble_process.c **** 					
 887              		.loc 1 388 0
 888 04c2 6B4B     		ldr	r3, .L42+36
 889 04c4 0122     		movs	r2, #1
 890 04c6 1A70     		strb	r2, [r3]
 391:ble_process.c **** 						SendBLEStatetoUART(CyBle_GetState());
 891              		.loc 1 391 0
 892 04c8 6A4B     		ldr	r3, .L42+40
 893 04ca 1800     		movs	r0, r3
 894 04cc FFF7FEFF 		bl	UART_UartPutString
 392:ble_process.c **** 						UART_UartPutCRLF(' ');
 895              		.loc 1 392 0
 896 04d0 694B     		ldr	r3, .L42+44
 897 04d2 1B78     		ldrb	r3, [r3]
 898 04d4 1800     		movs	r0, r3
 899 04d6 FFF7FEFF 		bl	SendBLEStatetoUART
 393:ble_process.c **** 					#endif
 900              		.loc 1 393 0
 901 04da 2020     		movs	r0, #32
ARM GAS  C:\Users\dmytro\AppData\Local\Temp\ccjppNo8.s 			page 29


 902 04dc FFF7FEFF 		bl	UART_UartPutCRLF
 397:ble_process.c **** 					writeADVcounterdata.value.val = &dataADVCounter;
 903              		.loc 1 397 0
 904 04e0 4023     		movs	r3, #64
 905 04e2 FB18     		adds	r3, r7, r3
 906 04e4 1122     		movs	r2, #17
 907 04e6 1A81     		strh	r2, [r3, #8]
 398:ble_process.c **** 					writeADVcounterdata.value.len = 1;
 908              		.loc 1 398 0
 909 04e8 4023     		movs	r3, #64
 910 04ea FB18     		adds	r3, r7, r3
 911 04ec 634A     		ldr	r2, .L42+48
 912 04ee 1A60     		str	r2, [r3]
 399:ble_process.c **** 					CyBle_GattcWriteWithoutResponse(cyBle_connHandle, &writeADVcounterdata);
 913              		.loc 1 399 0
 914 04f0 4023     		movs	r3, #64
 915 04f2 FB18     		adds	r3, r7, r3
 916 04f4 0122     		movs	r2, #1
 917 04f6 9A80     		strh	r2, [r3, #4]
 400:ble_process.c **** 				    
 918              		.loc 1 400 0
 919 04f8 4023     		movs	r3, #64
 920 04fa F918     		adds	r1, r7, r3
 921 04fc 604B     		ldr	r3, .L42+52
 922 04fe 1A78     		ldrb	r2, [r3]
 923 0500 5B78     		ldrb	r3, [r3, #1]
 924 0502 1B02     		lsls	r3, r3, #8
 925 0504 1A43     		orrs	r2, r3
 926 0506 0023     		movs	r3, #0
 927 0508 1204     		lsls	r2, r2, #16
 928 050a 120C     		lsrs	r2, r2, #16
 929 050c 1B0C     		lsrs	r3, r3, #16
 930 050e 1B04     		lsls	r3, r3, #16
 931 0510 1343     		orrs	r3, r2
 932 0512 1800     		movs	r0, r3
 933 0514 FFF7FEFF 		bl	CyBle_GattcWriteWithoutResponse
 403:ble_process.c **** 					writeRGBdata.value.val = RGBData;
 934              		.loc 1 403 0
 935 0518 1023     		movs	r3, #16
 936 051a FB18     		adds	r3, r7, r3
 937 051c 0E22     		movs	r2, #14
 938 051e 1A81     		strh	r2, [r3, #8]
 404:ble_process.c **** 					writeRGBdata.value.len = RGB_LED_DATA_LEN;
 939              		.loc 1 404 0
 940 0520 1023     		movs	r3, #16
 941 0522 FB18     		adds	r3, r7, r3
 942 0524 574A     		ldr	r2, .L42+56
 943 0526 1A60     		str	r2, [r3]
 405:ble_process.c **** 					CyBle_GattcWriteCharacteristicValue(cyBle_connHandle, &writeRGBdata);
 944              		.loc 1 405 0
 945 0528 1023     		movs	r3, #16
 946 052a FB18     		adds	r3, r7, r3
 947 052c 0422     		movs	r2, #4
 948 052e 9A80     		strh	r2, [r3, #4]
 406:ble_process.c **** 				#endif
 949              		.loc 1 406 0
 950 0530 1023     		movs	r3, #16
ARM GAS  C:\Users\dmytro\AppData\Local\Temp\ccjppNo8.s 			page 30


 951 0532 F918     		adds	r1, r7, r3
 952 0534 524B     		ldr	r3, .L42+52
 953 0536 1A78     		ldrb	r2, [r3]
 954 0538 5B78     		ldrb	r3, [r3, #1]
 955 053a 1B02     		lsls	r3, r3, #8
 956 053c 1A43     		orrs	r2, r3
 957 053e 0023     		movs	r3, #0
 958 0540 1204     		lsls	r2, r2, #16
 959 0542 120C     		lsrs	r2, r2, #16
 960 0544 1B0C     		lsrs	r3, r3, #16
 961 0546 1B04     		lsls	r3, r3, #16
 962 0548 1343     		orrs	r3, r2
 963 054a 1800     		movs	r0, r3
 964 054c FFF7FEFF 		bl	CyBle_GattcWriteCharacteristicValue
 409:ble_process.c **** 			
 965              		.loc 1 409 0
 966 0550 74E0     		b	.L37
 967              	.L16:
 441:ble_process.c **** 				SendBLEStatetoUART(CyBle_GetState());
 968              		.loc 1 441 0
 969 0552 4D4B     		ldr	r3, .L42+60
 970 0554 1800     		movs	r0, r3
 971 0556 FFF7FEFF 		bl	UART_UartPutString
 442:ble_process.c **** 				UART_UartPutCRLF(' ');
 972              		.loc 1 442 0
 973 055a 474B     		ldr	r3, .L42+44
 974 055c 1B78     		ldrb	r3, [r3]
 975 055e 1800     		movs	r0, r3
 976 0560 FFF7FEFF 		bl	SendBLEStatetoUART
 443:ble_process.c **** 			#endif
 977              		.loc 1 443 0
 978 0564 2020     		movs	r0, #32
 979 0566 FFF7FEFF 		bl	UART_UartPutCRLF
 447:ble_process.c **** 			{
 980              		.loc 1 447 0
 981 056a 454B     		ldr	r3, .L42+52
 982 056c 1B78     		ldrb	r3, [r3]
 983 056e 002B     		cmp	r3, #0
 984 0570 66D0     		beq	.L38
 449:ble_process.c **** 				
 985              		.loc 1 449 0
 986 0572 434B     		ldr	r3, .L42+52
 987 0574 1B78     		ldrb	r3, [r3]
 988 0576 1800     		movs	r0, r3
 989 0578 FFF7FEFF 		bl	CyBle_GapDisconnect
 451:ble_process.c **** 				#ifdef DEBUG_ENABLED
 990              		.loc 1 451 0
 991 057c 434B     		ldr	r3, .L42+64
 992 057e 0122     		movs	r2, #1
 993 0580 1A70     		strb	r2, [r3]
 453:ble_process.c **** 				SendBLEStatetoUART(CyBle_GetState());
 994              		.loc 1 453 0
 995 0582 434B     		ldr	r3, .L42+68
 996 0584 1800     		movs	r0, r3
 997 0586 FFF7FEFF 		bl	UART_UartPutString
 454:ble_process.c **** 				UART_UartPutCRLF(' ');
 998              		.loc 1 454 0
ARM GAS  C:\Users\dmytro\AppData\Local\Temp\ccjppNo8.s 			page 31


 999 058a 3B4B     		ldr	r3, .L42+44
 1000 058c 1B78     		ldrb	r3, [r3]
 1001 058e 1800     		movs	r0, r3
 1002 0590 FFF7FEFF 		bl	SendBLEStatetoUART
 455:ble_process.c **** 				#endif
 1003              		.loc 1 455 0
 1004 0594 2020     		movs	r0, #32
 1005 0596 FFF7FEFF 		bl	UART_UartPutCRLF
 458:ble_process.c **** 
 1006              		.loc 1 458 0
 1007 059a 51E0     		b	.L38
 1008              	.L10:
 463:ble_process.c **** 			
 1009              		.loc 1 463 0
 1010 059c 344B     		ldr	r3, .L42+36
 1011 059e 0022     		movs	r2, #0
 1012 05a0 1A70     		strb	r2, [r3]
 466:ble_process.c **** 				SendBLEStatetoUART(CyBle_GetState());
 1013              		.loc 1 466 0
 1014 05a2 3C4B     		ldr	r3, .L42+72
 1015 05a4 1800     		movs	r0, r3
 1016 05a6 FFF7FEFF 		bl	UART_UartPutString
 467:ble_process.c **** 				UART_UartPutCRLF(' ');
 1017              		.loc 1 467 0
 1018 05aa 334B     		ldr	r3, .L42+44
 1019 05ac 1B78     		ldrb	r3, [r3]
 1020 05ae 1800     		movs	r0, r3
 1021 05b0 FFF7FEFF 		bl	SendBLEStatetoUART
 468:ble_process.c **** 			#endif
 1022              		.loc 1 468 0
 1023 05b4 2020     		movs	r0, #32
 1024 05b6 FFF7FEFF 		bl	UART_UartPutCRLF
 471:ble_process.c **** 			{
 1025              		.loc 1 471 0
 1026 05ba 2C4B     		ldr	r3, .L42+32
 1027 05bc 1B78     		ldrb	r3, [r3]
 1028 05be 012B     		cmp	r3, #1
 1029 05c0 17D1     		bne	.L30
 471:ble_process.c **** 			{
 1030              		.loc 1 471 0 is_stmt 0 discriminator 1
 1031 05c2 354B     		ldr	r3, .L42+76
 1032 05c4 1B78     		ldrb	r3, [r3]
 1033 05c6 012B     		cmp	r3, #1
 1034 05c8 13D0     		beq	.L30
 475:ble_process.c **** 				{
 1035              		.loc 1 475 0 is_stmt 1
 1036 05ca 2B4B     		ldr	r3, .L42+44
 1037 05cc 1B78     		ldrb	r3, [r3]
 1038 05ce 062B     		cmp	r3, #6
 1039 05d0 2BD1     		bne	.L32
 477:ble_process.c **** 					#ifdef DEBUG_ENABLED
 1040              		.loc 1 477 0
 1041 05d2 0020     		movs	r0, #0
 1042 05d4 FFF7FEFF 		bl	CyBle_GappStartAdvertisement
 479:ble_process.c **** 					SendBLEStatetoUART(CyBle_GetState());
 1043              		.loc 1 479 0
 1044 05d8 304B     		ldr	r3, .L42+80
ARM GAS  C:\Users\dmytro\AppData\Local\Temp\ccjppNo8.s 			page 32


 1045 05da 1800     		movs	r0, r3
 1046 05dc FFF7FEFF 		bl	UART_UartPutString
 480:ble_process.c **** 					UART_UartPutCRLF(' ');
 1047              		.loc 1 480 0
 1048 05e0 254B     		ldr	r3, .L42+44
 1049 05e2 1B78     		ldrb	r3, [r3]
 1050 05e4 1800     		movs	r0, r3
 1051 05e6 FFF7FEFF 		bl	SendBLEStatetoUART
 481:ble_process.c **** 					#endif
 1052              		.loc 1 481 0
 1053 05ea 2020     		movs	r0, #32
 1054 05ec FFF7FEFF 		bl	UART_UartPutCRLF
 475:ble_process.c **** 				{
 1055              		.loc 1 475 0
 1056 05f0 1BE0     		b	.L32
 1057              	.L30:
 485:ble_process.c **** 			{
 1058              		.loc 1 485 0
 1059 05f2 1E4B     		ldr	r3, .L42+32
 1060 05f4 1B78     		ldrb	r3, [r3]
 1061 05f6 022B     		cmp	r3, #2
 1062 05f8 24D1     		bne	.L39
 485:ble_process.c **** 			{
 1063              		.loc 1 485 0 is_stmt 0 discriminator 1
 1064 05fa 274B     		ldr	r3, .L42+76
 1065 05fc 1B78     		ldrb	r3, [r3]
 1066 05fe 012B     		cmp	r3, #1
 1067 0600 20D0     		beq	.L39
 489:ble_process.c **** 				{
 1068              		.loc 1 489 0 is_stmt 1
 1069 0602 1D4B     		ldr	r3, .L42+44
 1070 0604 1B78     		ldrb	r3, [r3]
 1071 0606 062B     		cmp	r3, #6
 1072 0608 1CD1     		bne	.L39
 491:ble_process.c **** 					#ifdef DEBUG_ENABLED
 1073              		.loc 1 491 0
 1074 060a 0020     		movs	r0, #0
 1075 060c FFF7FEFF 		bl	CyBle_GapcStartScan
 493:ble_process.c **** 					SendBLEStatetoUART(CyBle_GetState());
 1076              		.loc 1 493 0
 1077 0610 234B     		ldr	r3, .L42+84
 1078 0612 1800     		movs	r0, r3
 1079 0614 FFF7FEFF 		bl	UART_UartPutString
 494:ble_process.c **** 					UART_UartPutCRLF(' ');
 1080              		.loc 1 494 0
 1081 0618 174B     		ldr	r3, .L42+44
 1082 061a 1B78     		ldrb	r3, [r3]
 1083 061c 1800     		movs	r0, r3
 1084 061e FFF7FEFF 		bl	SendBLEStatetoUART
 495:ble_process.c **** 					#endif
 1085              		.loc 1 495 0
 1086 0622 2020     		movs	r0, #32
 1087 0624 FFF7FEFF 		bl	UART_UartPutCRLF
 499:ble_process.c **** 			
 1088              		.loc 1 499 0
 1089 0628 0CE0     		b	.L39
 1090              	.L32:
ARM GAS  C:\Users\dmytro\AppData\Local\Temp\ccjppNo8.s 			page 33


 499:ble_process.c **** 			
 1091              		.loc 1 499 0 is_stmt 0 discriminator 7
 1092 062a 0BE0     		b	.L39
 1093              	.L33:
 434:ble_process.c **** 			
 1094              		.loc 1 434 0 is_stmt 1
 1095 062c C046     		nop
 1096 062e 0AE0     		b	.L1
 1097              	.L34:
 103:ble_process.c **** 			
 1098              		.loc 1 103 0
 1099 0630 C046     		nop
 1100 0632 08E0     		b	.L1
 1101              	.L35:
 239:ble_process.c **** 		
 1102              		.loc 1 239 0
 1103 0634 C046     		nop
 1104 0636 06E0     		b	.L1
 1105              	.L36:
 368:ble_process.c **** 			
 1106              		.loc 1 368 0
 1107 0638 C046     		nop
 1108 063a 04E0     		b	.L1
 1109              	.L37:
 409:ble_process.c **** 			
 1110              		.loc 1 409 0
 1111 063c C046     		nop
 1112 063e 02E0     		b	.L1
 1113              	.L38:
 458:ble_process.c **** 
 1114              		.loc 1 458 0
 1115 0640 C046     		nop
 1116 0642 00E0     		b	.L1
 1117              	.L39:
 499:ble_process.c **** 			
 1118              		.loc 1 499 0
 1119 0644 C046     		nop
 1120              	.L1:
 504:ble_process.c **** 	}
 505:ble_process.c **** }
 1121              		.loc 1 505 0
 1122 0646 BD46     		mov	sp, r7
 1123 0648 19B0     		add	sp, sp, #100
 1124              		@ sp needed
 1125 064a 90BD     		pop	{r4, r7, pc}
 1126              	.L43:
 1127              		.align	2
 1128              	.L42:
 1129 064c 00000000 		.word	potential_node_found
 1130 0650 00000000 		.word	potential_node_bdAddrType
 1131 0654 00000000 		.word	potential_node_bdAddr
 1132 0658 00000000 		.word	scan_tag
 1133 065c A4010000 		.word	.LC36
 1134 0660 B4010000 		.word	.LC38
 1135 0664 00000000 		.word	peripAddr
 1136 0668 00000000 		.word	clientConnectToDevice
 1137 066c 00000000 		.word	ble_gap_state
ARM GAS  C:\Users\dmytro\AppData\Local\Temp\ccjppNo8.s 			page 34


 1138 0670 00000000 		.word	deviceConnected
 1139 0674 C8010000 		.word	.LC44
 1140 0678 00000000 		.word	cyBle_state
 1141 067c 00000000 		.word	dataADVCounter
 1142 0680 00000000 		.word	cyBle_connHandle
 1143 0684 00000000 		.word	RGBData
 1144 0688 F0010000 		.word	.LC46
 1145 068c 00000000 		.word	restartScanning
 1146 0690 0C020000 		.word	.LC49
 1147 0694 38020000 		.word	.LC51
 1148 0698 00000000 		.word	switch_Role
 1149 069c 40000000 		.word	.LC7
 1150 06a0 5C020000 		.word	.LC53
 1151              		.cfi_endproc
 1152              	.LFE35:
 1153              		.size	GenericEventHandler, .-GenericEventHandler
 1154              		.section	.rodata
 1155              		.align	2
 1156              	.LC57:
 1157 0274 50657269 		.ascii	"Peripheral closed connection \000"
 1157      70686572 
 1157      616C2063 
 1157      6C6F7365 
 1157      6420636F 
 1158 0292 0000     		.align	2
 1159              	.LC61:
 1160 0294 50657269 		.ascii	"Peripheral Advertisment Stopped \000"
 1160      70686572 
 1160      616C2041 
 1160      64766572 
 1160      7469736D 
 1161 02b5 000000   		.align	2
 1162              	.LC63:
 1163 02b8 53746172 		.ascii	"Start Scan API called \000"
 1163      74205363 
 1163      616E2041 
 1163      50492063 
 1163      616C6C65 
 1164 02cf 00       		.align	2
 1165              	.LC67:
 1166 02d0 53746172 		.ascii	"Start Scan API failed \000"
 1166      74205363 
 1166      616E2041 
 1166      50492066 
 1166      61696C65 
 1167 02e7 00       		.align	2
 1168              	.LC69:
 1169 02e8 43656E74 		.ascii	"Central Scan stopped \000"
 1169      72616C20 
 1169      5363616E 
 1169      2073746F 
 1169      70706564 
 1170 02fe 0000     		.align	2
 1171              	.LC74:
 1172 0300 55706461 		.ascii	"Updated ADV data = \000"
 1172      74656420 
 1172      41445620 
ARM GAS  C:\Users\dmytro\AppData\Local\Temp\ccjppNo8.s 			page 35


 1172      64617461 
 1172      203D2000 
 1173              		.align	2
 1174              	.LC77:
 1175 0314 50657269 		.ascii	"Peripheral Advertisment called \000"
 1175      70686572 
 1175      616C2041 
 1175      64766572 
 1175      7469736D 
 1176              		.align	2
 1177              	.LC79:
 1178 0334 53746172 		.ascii	"Start Peripheral Advertisment Failed \000"
 1178      74205065 
 1178      72697068 
 1178      6572616C 
 1178      20416476 
 1179              		.section	.text.SwitchRole,"ax",%progbits
 1180              		.align	2
 1181              		.global	SwitchRole
 1182              		.code	16
 1183              		.thumb_func
 1184              		.type	SwitchRole, %function
 1185              	SwitchRole:
 1186              	.LFB36:
 506:ble_process.c **** 
 507:ble_process.c **** /*******************************************************************************
 508:ble_process.c **** * Function Name: SwitchRole
 509:ble_process.c **** ********************************************************************************
 510:ble_process.c **** * Summary:
 511:ble_process.c **** *        This function switches the role between Central and Peripheral. If device 
 512:ble_process.c **** * is connected while switching role, then it is first disconnected.
 513:ble_process.c **** *
 514:ble_process.c **** * Parameters:
 515:ble_process.c **** *  void
 516:ble_process.c **** *
 517:ble_process.c **** * Return:
 518:ble_process.c **** *  void
 519:ble_process.c **** *
 520:ble_process.c **** *******************************************************************************/
 521:ble_process.c **** void SwitchRole(void)
 522:ble_process.c **** {
 1187              		.loc 1 522 0
 1188              		.cfi_startproc
 1189              		@ args = 0, pretend = 0, frame = 8
 1190              		@ frame_needed = 1, uses_anonymous_args = 0
 1191 0000 90B5     		push	{r4, r7, lr}
 1192              		.cfi_def_cfa_offset 12
 1193              		.cfi_offset 4, -12
 1194              		.cfi_offset 7, -8
 1195              		.cfi_offset 14, -4
 1196 0002 83B0     		sub	sp, sp, #12
 1197              		.cfi_def_cfa_offset 24
 1198 0004 00AF     		add	r7, sp, #0
 1199              		.cfi_def_cfa_register 7
 523:ble_process.c **** 	CYBLE_API_RESULT_T  apiResult;
 524:ble_process.c **** 	
 525:ble_process.c **** 	/* if the switch role flag is set... */
ARM GAS  C:\Users\dmytro\AppData\Local\Temp\ccjppNo8.s 			page 36


 526:ble_process.c **** 	if(switch_Role == TRUE)
 1200              		.loc 1 526 0
 1201 0006 684B     		ldr	r3, .L57
 1202 0008 1B78     		ldrb	r3, [r3]
 1203 000a 012B     		cmp	r3, #1
 1204 000c 00D0     		beq	.LCB846
 1205 000e C6E0     		b	.L56	@long jump
 1206              	.LCB846:
 527:ble_process.c **** 	{	
 528:ble_process.c **** 		/* Process pending BLE events */
 529:ble_process.c **** 		CyBle_ProcessEvents();
 1207              		.loc 1 529 0
 1208 0010 FFF7FEFF 		bl	CyBle_ProcessEvents
 530:ble_process.c **** 		
 531:ble_process.c **** 		/* If there is an existing connection, then disconnect before switching
 532:ble_process.c **** 		* role. */
 533:ble_process.c **** 		if((cyBle_connHandle.bdHandle != 0))
 1209              		.loc 1 533 0
 1210 0014 654B     		ldr	r3, .L57+4
 1211 0016 1B78     		ldrb	r3, [r3]
 1212 0018 002B     		cmp	r3, #0
 1213 001a 12D0     		beq	.L46
 534:ble_process.c **** 		{
 535:ble_process.c **** 			/* Disconnect the device and process the event */
 536:ble_process.c **** 			CyBle_GapDisconnect(cyBle_connHandle.bdHandle);
 1214              		.loc 1 536 0
 1215 001c 634B     		ldr	r3, .L57+4
 1216 001e 1B78     		ldrb	r3, [r3]
 1217 0020 1800     		movs	r0, r3
 1218 0022 FFF7FEFF 		bl	CyBle_GapDisconnect
 537:ble_process.c **** 			CyBle_ProcessEvents();
 1219              		.loc 1 537 0
 1220 0026 FFF7FEFF 		bl	CyBle_ProcessEvents
 538:ble_process.c **** 			#ifdef DEBUG_ENABLED
 539:ble_process.c **** 			UART_UartPutString("Peripheral closed connection ");
 1221              		.loc 1 539 0
 1222 002a 614B     		ldr	r3, .L57+8
 1223 002c 1800     		movs	r0, r3
 1224 002e FFF7FEFF 		bl	UART_UartPutString
 540:ble_process.c **** 			SendBLEStatetoUART(CyBle_GetState());
 1225              		.loc 1 540 0
 1226 0032 604B     		ldr	r3, .L57+12
 1227 0034 1B78     		ldrb	r3, [r3]
 1228 0036 1800     		movs	r0, r3
 1229 0038 FFF7FEFF 		bl	SendBLEStatetoUART
 541:ble_process.c **** 			UART_UartPutCRLF(' ');
 1230              		.loc 1 541 0
 1231 003c 2020     		movs	r0, #32
 1232 003e FFF7FEFF 		bl	UART_UartPutCRLF
 1233              	.L46:
 542:ble_process.c **** 			#endif
 543:ble_process.c **** 		}		
 544:ble_process.c **** 		
 545:ble_process.c **** 		switch(ble_gap_state)
 1234              		.loc 1 545 0
 1235 0042 5D4B     		ldr	r3, .L57+16
 1236 0044 1B78     		ldrb	r3, [r3]
ARM GAS  C:\Users\dmytro\AppData\Local\Temp\ccjppNo8.s 			page 37


 1237 0046 012B     		cmp	r3, #1
 1238 0048 02D0     		beq	.L48
 1239 004a 022B     		cmp	r3, #2
 1240 004c 4CD0     		beq	.L49
 546:ble_process.c **** 		{
 547:ble_process.c **** 			case BLE_PERIPHERAL:
 548:ble_process.c **** 				/* If the current role is Peripheral and system is advertising,
 549:ble_process.c **** 				* then stop advertisement before switching role */
 550:ble_process.c **** 				if(CyBle_GetState() == CYBLE_STATE_ADVERTISING)
 551:ble_process.c **** 				{
 552:ble_process.c **** 					CyBle_GappStopAdvertisement();
 553:ble_process.c **** 					CyBle_ProcessEvents();
 554:ble_process.c **** 
 555:ble_process.c **** 					#ifdef DEBUG_ENABLED
 556:ble_process.c **** 						UART_UartPutString("Peripheral Advertisment Stopped ");
 557:ble_process.c **** 						SendBLEStatetoUART(CyBle_GetState());
 558:ble_process.c **** 						UART_UartPutCRLF(' ');
 559:ble_process.c **** 					#endif
 560:ble_process.c **** 				}
 561:ble_process.c **** 				
 562:ble_process.c **** 				if(CyBle_GetState() == CYBLE_STATE_DISCONNECTED)
 563:ble_process.c **** 				{
 564:ble_process.c **** 					/* Switch BLE role by starting scan. This way, the system is set
 565:ble_process.c **** 					* to Central role */
 566:ble_process.c **** 					apiResult = CyBle_GapcStartScan(CYBLE_SCANNING_FAST);
 567:ble_process.c **** 					
 568:ble_process.c **** 					if(CYBLE_ERROR_OK == apiResult)
 569:ble_process.c **** 					{
 570:ble_process.c **** 						#ifdef DEBUG_ENABLED
 571:ble_process.c **** 						UART_UartPutString("Start Scan API called ");
 572:ble_process.c **** 						SendBLEStatetoUART(CyBle_GetState());
 573:ble_process.c **** 						UART_UartPutCRLF(' ');
 574:ble_process.c **** 						#endif
 575:ble_process.c **** 						
 576:ble_process.c **** 						/* Record the time at which Central role was started. This will be 
 577:ble_process.c **** 						* used for timeout and switching to Peripheral operation*/
 578:ble_process.c **** 						centralStartedTime = WatchDog_CurrentCount();
 579:ble_process.c **** 						
 580:ble_process.c **** 						/* Update the current BLE role to Central */
 581:ble_process.c **** 						ble_gap_state = BLE_CENTRAL;
 582:ble_process.c **** 						
 583:ble_process.c **** 						/* Reset the switch role flag*/
 584:ble_process.c **** 						switch_Role = FALSE;
 585:ble_process.c **** 					}
 586:ble_process.c **** 					else
 587:ble_process.c **** 					{
 588:ble_process.c **** 						/* If scanning did not start, maintain the current role and retry later */
 589:ble_process.c **** 						ble_gap_state = BLE_PERIPHERAL;
 590:ble_process.c **** 						
 591:ble_process.c **** 						#ifdef DEBUG_ENABLED
 592:ble_process.c **** 						UART_UartPutString("Start Scan API failed ");
 593:ble_process.c **** 						SendBLEStatetoUART(CyBle_GetState());
 594:ble_process.c **** 						UART_UartPutCRLF(' ');
 595:ble_process.c **** 						#endif
 596:ble_process.c **** 					}
 597:ble_process.c **** 				}
 598:ble_process.c **** 				
ARM GAS  C:\Users\dmytro\AppData\Local\Temp\ccjppNo8.s 			page 38


 599:ble_process.c **** 				/* Process Pending BLE Events */
 600:ble_process.c **** 				CyBle_ProcessEvents();
 601:ble_process.c **** 				
 602:ble_process.c **** 			break;
 603:ble_process.c **** 			
 604:ble_process.c **** 			case BLE_CENTRAL:
 605:ble_process.c **** 				/* If the current role is Central and system is scanning,
 606:ble_process.c **** 				* then stop scanning before switching role */
 607:ble_process.c **** 				if(CyBle_GetState() == CYBLE_STATE_SCANNING)
 608:ble_process.c **** 				{
 609:ble_process.c **** 					CyBle_GapcStopScan();
 610:ble_process.c **** 					CyBle_ProcessEvents();
 611:ble_process.c **** 					
 612:ble_process.c **** 					#ifdef DEBUG_ENABLED
 613:ble_process.c **** 						UART_UartPutString("Central Scan stopped ");
 614:ble_process.c **** 						UART_UartPutCRLF(' ');
 615:ble_process.c **** 					#endif
 616:ble_process.c **** 				}
 617:ble_process.c **** 				
 618:ble_process.c **** 				if(CyBle_GetState() == CYBLE_STATE_DISCONNECTED)
 619:ble_process.c **** 				{
 620:ble_process.c **** 					#ifdef ENABLE_ADV_DATA_COUNTER
 621:ble_process.c **** 					/* Increment data counter */
 622:ble_process.c **** 					new_advData.advData[new_advData.advDataLen - 1] = dataADVCounter;
 623:ble_process.c **** 					
 624:ble_process.c **** 					cyBle_discoveryModeInfo.advData = &new_advData;
 625:ble_process.c **** 					
 626:ble_process.c **** 					#ifdef DEBUG_ENABLED
 627:ble_process.c **** 						UART_UartPutString("Updated ADV data = ");
 628:ble_process.c **** 						PrintNum(dataADVCounter);
 629:ble_process.c **** 						UART_UartPutCRLF(' ');
 630:ble_process.c **** 					#endif
 631:ble_process.c **** 					#endif
 632:ble_process.c **** 					
 633:ble_process.c **** 					/* Switch BLE role by starting advertisement. This way, the system is 
 634:ble_process.c **** 					* set to Peripheral role */
 635:ble_process.c **** 					apiResult = CyBle_GappStartAdvertisement(CYBLE_ADVERTISING_FAST);
 636:ble_process.c **** 					
 637:ble_process.c **** 					if(apiResult == CYBLE_ERROR_OK)
 638:ble_process.c **** 					{
 639:ble_process.c **** 						/* If advertisement started successfully, set the BLE state and
 640:ble_process.c **** 						* reset the switch role flag*/
 641:ble_process.c **** 						ble_gap_state = BLE_PERIPHERAL;
 642:ble_process.c **** 						clientConnectToDevice = FALSE;	
 643:ble_process.c **** 						switch_Role = FALSE;
 644:ble_process.c **** 						
 645:ble_process.c **** 						#ifdef DEBUG_ENABLED
 646:ble_process.c **** 						UART_UartPutString("Peripheral Advertisment called ");
 647:ble_process.c **** 						SendBLEStatetoUART(CyBle_GetState());
 648:ble_process.c **** 						UART_UartPutCRLF(' ');
 649:ble_process.c **** 						#endif
 650:ble_process.c **** 					}
 651:ble_process.c **** 					else
 652:ble_process.c **** 					{
 653:ble_process.c **** 						/* If advertisement did not start, maintain the current role and retry later */
 654:ble_process.c **** 						ble_gap_state = BLE_CENTRAL;
 655:ble_process.c **** 						
ARM GAS  C:\Users\dmytro\AppData\Local\Temp\ccjppNo8.s 			page 39


 656:ble_process.c **** 						#ifdef DEBUG_ENABLED
 657:ble_process.c **** 						UART_UartPutString("Start Peripheral Advertisment Failed ");
 658:ble_process.c **** 						SendBLEStatetoUART(CyBle_GetState());
 659:ble_process.c **** 						UART_UartPutCRLF(' ');
 660:ble_process.c **** 						#endif					
 661:ble_process.c **** 					}
 662:ble_process.c **** 				}
 663:ble_process.c **** 				
 664:ble_process.c **** 				/* Process Pending BLE Events */
 665:ble_process.c **** 				CyBle_ProcessEvents();
 666:ble_process.c **** 			break;
 667:ble_process.c **** 			
 668:ble_process.c **** 			default:
 669:ble_process.c **** 			
 670:ble_process.c **** 			break;
 1241              		.loc 1 670 0
 1242 004e A6E0     		b	.L45
 1243              	.L48:
 550:ble_process.c **** 				{
 1244              		.loc 1 550 0
 1245 0050 584B     		ldr	r3, .L57+12
 1246 0052 1B78     		ldrb	r3, [r3]
 1247 0054 032B     		cmp	r3, #3
 1248 0056 0FD1     		bne	.L50
 552:ble_process.c **** 					CyBle_ProcessEvents();
 1249              		.loc 1 552 0
 1250 0058 FFF7FEFF 		bl	CyBle_GappStopAdvertisement
 553:ble_process.c **** 
 1251              		.loc 1 553 0
 1252 005c FFF7FEFF 		bl	CyBle_ProcessEvents
 556:ble_process.c **** 						SendBLEStatetoUART(CyBle_GetState());
 1253              		.loc 1 556 0
 1254 0060 564B     		ldr	r3, .L57+20
 1255 0062 1800     		movs	r0, r3
 1256 0064 FFF7FEFF 		bl	UART_UartPutString
 557:ble_process.c **** 						UART_UartPutCRLF(' ');
 1257              		.loc 1 557 0
 1258 0068 524B     		ldr	r3, .L57+12
 1259 006a 1B78     		ldrb	r3, [r3]
 1260 006c 1800     		movs	r0, r3
 1261 006e FFF7FEFF 		bl	SendBLEStatetoUART
 558:ble_process.c **** 					#endif
 1262              		.loc 1 558 0
 1263 0072 2020     		movs	r0, #32
 1264 0074 FFF7FEFF 		bl	UART_UartPutCRLF
 1265              	.L50:
 562:ble_process.c **** 				{
 1266              		.loc 1 562 0
 1267 0078 4E4B     		ldr	r3, .L57+12
 1268 007a 1B78     		ldrb	r3, [r3]
 1269 007c 062B     		cmp	r3, #6
 1270 007e 30D1     		bne	.L51
 566:ble_process.c **** 					
 1271              		.loc 1 566 0
 1272 0080 BC1D     		adds	r4, r7, #6
 1273 0082 0020     		movs	r0, #0
 1274 0084 FFF7FEFF 		bl	CyBle_GapcStartScan
ARM GAS  C:\Users\dmytro\AppData\Local\Temp\ccjppNo8.s 			page 40


 1275 0088 0300     		movs	r3, r0
 1276 008a 2380     		strh	r3, [r4]
 568:ble_process.c **** 					{
 1277              		.loc 1 568 0
 1278 008c BB1D     		adds	r3, r7, #6
 1279 008e 1B88     		ldrh	r3, [r3]
 1280 0090 002B     		cmp	r3, #0
 1281 0092 17D1     		bne	.L52
 571:ble_process.c **** 						SendBLEStatetoUART(CyBle_GetState());
 1282              		.loc 1 571 0
 1283 0094 4A4B     		ldr	r3, .L57+24
 1284 0096 1800     		movs	r0, r3
 1285 0098 FFF7FEFF 		bl	UART_UartPutString
 572:ble_process.c **** 						UART_UartPutCRLF(' ');
 1286              		.loc 1 572 0
 1287 009c 454B     		ldr	r3, .L57+12
 1288 009e 1B78     		ldrb	r3, [r3]
 1289 00a0 1800     		movs	r0, r3
 1290 00a2 FFF7FEFF 		bl	SendBLEStatetoUART
 573:ble_process.c **** 						#endif
 1291              		.loc 1 573 0
 1292 00a6 2020     		movs	r0, #32
 1293 00a8 FFF7FEFF 		bl	UART_UartPutCRLF
 578:ble_process.c **** 						
 1294              		.loc 1 578 0
 1295 00ac 454B     		ldr	r3, .L57+28
 1296 00ae 1B88     		ldrh	r3, [r3]
 1297 00b0 9AB2     		uxth	r2, r3
 1298 00b2 454B     		ldr	r3, .L57+32
 1299 00b4 1A80     		strh	r2, [r3]
 581:ble_process.c **** 						
 1300              		.loc 1 581 0
 1301 00b6 404B     		ldr	r3, .L57+16
 1302 00b8 0222     		movs	r2, #2
 1303 00ba 1A70     		strb	r2, [r3]
 584:ble_process.c **** 					}
 1304              		.loc 1 584 0
 1305 00bc 3A4B     		ldr	r3, .L57
 1306 00be 0022     		movs	r2, #0
 1307 00c0 1A70     		strb	r2, [r3]
 1308 00c2 0EE0     		b	.L51
 1309              	.L52:
 589:ble_process.c **** 						
 1310              		.loc 1 589 0
 1311 00c4 3C4B     		ldr	r3, .L57+16
 1312 00c6 0122     		movs	r2, #1
 1313 00c8 1A70     		strb	r2, [r3]
 592:ble_process.c **** 						SendBLEStatetoUART(CyBle_GetState());
 1314              		.loc 1 592 0
 1315 00ca 404B     		ldr	r3, .L57+36
 1316 00cc 1800     		movs	r0, r3
 1317 00ce FFF7FEFF 		bl	UART_UartPutString
 593:ble_process.c **** 						UART_UartPutCRLF(' ');
 1318              		.loc 1 593 0
 1319 00d2 384B     		ldr	r3, .L57+12
 1320 00d4 1B78     		ldrb	r3, [r3]
 1321 00d6 1800     		movs	r0, r3
ARM GAS  C:\Users\dmytro\AppData\Local\Temp\ccjppNo8.s 			page 41


 1322 00d8 FFF7FEFF 		bl	SendBLEStatetoUART
 594:ble_process.c **** 						#endif
 1323              		.loc 1 594 0
 1324 00dc 2020     		movs	r0, #32
 1325 00de FFF7FEFF 		bl	UART_UartPutCRLF
 1326              	.L51:
 600:ble_process.c **** 				
 1327              		.loc 1 600 0
 1328 00e2 FFF7FEFF 		bl	CyBle_ProcessEvents
 602:ble_process.c **** 			
 1329              		.loc 1 602 0
 1330 00e6 5AE0     		b	.L45
 1331              	.L49:
 607:ble_process.c **** 				{
 1332              		.loc 1 607 0
 1333 00e8 324B     		ldr	r3, .L57+12
 1334 00ea 1B78     		ldrb	r3, [r3]
 1335 00ec 042B     		cmp	r3, #4
 1336 00ee 0AD1     		bne	.L53
 609:ble_process.c **** 					CyBle_ProcessEvents();
 1337              		.loc 1 609 0
 1338 00f0 FFF7FEFF 		bl	CyBle_GapcStopScan
 610:ble_process.c **** 					
 1339              		.loc 1 610 0
 1340 00f4 FFF7FEFF 		bl	CyBle_ProcessEvents
 613:ble_process.c **** 						UART_UartPutCRLF(' ');
 1341              		.loc 1 613 0
 1342 00f8 354B     		ldr	r3, .L57+40
 1343 00fa 1800     		movs	r0, r3
 1344 00fc FFF7FEFF 		bl	UART_UartPutString
 614:ble_process.c **** 					#endif
 1345              		.loc 1 614 0
 1346 0100 2020     		movs	r0, #32
 1347 0102 FFF7FEFF 		bl	UART_UartPutCRLF
 1348              	.L53:
 618:ble_process.c **** 				{
 1349              		.loc 1 618 0
 1350 0106 2B4B     		ldr	r3, .L57+12
 1351 0108 1B78     		ldrb	r3, [r3]
 1352 010a 062B     		cmp	r3, #6
 1353 010c 44D1     		bne	.L54
 622:ble_process.c **** 					
 1354              		.loc 1 622 0
 1355 010e 314B     		ldr	r3, .L57+44
 1356 0110 DB7F     		ldrb	r3, [r3, #31]
 1357 0112 013B     		subs	r3, r3, #1
 1358 0114 304A     		ldr	r2, .L57+48
 1359 0116 1178     		ldrb	r1, [r2]
 1360 0118 2E4A     		ldr	r2, .L57+44
 1361 011a D154     		strb	r1, [r2, r3]
 624:ble_process.c **** 					
 1362              		.loc 1 624 0
 1363 011c 2F4B     		ldr	r3, .L57+52
 1364 011e 2D4A     		ldr	r2, .L57+44
 1365 0120 9A60     		str	r2, [r3, #8]
 627:ble_process.c **** 						PrintNum(dataADVCounter);
 1366              		.loc 1 627 0
ARM GAS  C:\Users\dmytro\AppData\Local\Temp\ccjppNo8.s 			page 42


 1367 0122 2F4B     		ldr	r3, .L57+56
 1368 0124 1800     		movs	r0, r3
 1369 0126 FFF7FEFF 		bl	UART_UartPutString
 628:ble_process.c **** 						UART_UartPutCRLF(' ');
 1370              		.loc 1 628 0
 1371 012a 2B4B     		ldr	r3, .L57+48
 1372 012c 1B78     		ldrb	r3, [r3]
 1373 012e 1800     		movs	r0, r3
 1374 0130 FFF7FEFF 		bl	PrintNum
 629:ble_process.c **** 					#endif
 1375              		.loc 1 629 0
 1376 0134 2020     		movs	r0, #32
 1377 0136 FFF7FEFF 		bl	UART_UartPutCRLF
 635:ble_process.c **** 					
 1378              		.loc 1 635 0
 1379 013a BC1D     		adds	r4, r7, #6
 1380 013c 0020     		movs	r0, #0
 1381 013e FFF7FEFF 		bl	CyBle_GappStartAdvertisement
 1382 0142 0300     		movs	r3, r0
 1383 0144 2380     		strh	r3, [r4]
 637:ble_process.c **** 					{
 1384              		.loc 1 637 0
 1385 0146 BB1D     		adds	r3, r7, #6
 1386 0148 1B88     		ldrh	r3, [r3]
 1387 014a 002B     		cmp	r3, #0
 1388 014c 15D1     		bne	.L55
 641:ble_process.c **** 						clientConnectToDevice = FALSE;	
 1389              		.loc 1 641 0
 1390 014e 1A4B     		ldr	r3, .L57+16
 1391 0150 0122     		movs	r2, #1
 1392 0152 1A70     		strb	r2, [r3]
 642:ble_process.c **** 						switch_Role = FALSE;
 1393              		.loc 1 642 0
 1394 0154 234B     		ldr	r3, .L57+60
 1395 0156 0022     		movs	r2, #0
 1396 0158 1A70     		strb	r2, [r3]
 643:ble_process.c **** 						
 1397              		.loc 1 643 0
 1398 015a 134B     		ldr	r3, .L57
 1399 015c 0022     		movs	r2, #0
 1400 015e 1A70     		strb	r2, [r3]
 646:ble_process.c **** 						SendBLEStatetoUART(CyBle_GetState());
 1401              		.loc 1 646 0
 1402 0160 214B     		ldr	r3, .L57+64
 1403 0162 1800     		movs	r0, r3
 1404 0164 FFF7FEFF 		bl	UART_UartPutString
 647:ble_process.c **** 						UART_UartPutCRLF(' ');
 1405              		.loc 1 647 0
 1406 0168 124B     		ldr	r3, .L57+12
 1407 016a 1B78     		ldrb	r3, [r3]
 1408 016c 1800     		movs	r0, r3
 1409 016e FFF7FEFF 		bl	SendBLEStatetoUART
 648:ble_process.c **** 						#endif
 1410              		.loc 1 648 0
 1411 0172 2020     		movs	r0, #32
 1412 0174 FFF7FEFF 		bl	UART_UartPutCRLF
 1413 0178 0EE0     		b	.L54
ARM GAS  C:\Users\dmytro\AppData\Local\Temp\ccjppNo8.s 			page 43


 1414              	.L55:
 654:ble_process.c **** 						
 1415              		.loc 1 654 0
 1416 017a 0F4B     		ldr	r3, .L57+16
 1417 017c 0222     		movs	r2, #2
 1418 017e 1A70     		strb	r2, [r3]
 657:ble_process.c **** 						SendBLEStatetoUART(CyBle_GetState());
 1419              		.loc 1 657 0
 1420 0180 1A4B     		ldr	r3, .L57+68
 1421 0182 1800     		movs	r0, r3
 1422 0184 FFF7FEFF 		bl	UART_UartPutString
 658:ble_process.c **** 						UART_UartPutCRLF(' ');
 1423              		.loc 1 658 0
 1424 0188 0A4B     		ldr	r3, .L57+12
 1425 018a 1B78     		ldrb	r3, [r3]
 1426 018c 1800     		movs	r0, r3
 1427 018e FFF7FEFF 		bl	SendBLEStatetoUART
 659:ble_process.c **** 						#endif					
 1428              		.loc 1 659 0
 1429 0192 2020     		movs	r0, #32
 1430 0194 FFF7FEFF 		bl	UART_UartPutCRLF
 1431              	.L54:
 665:ble_process.c **** 			break;
 1432              		.loc 1 665 0
 1433 0198 FFF7FEFF 		bl	CyBle_ProcessEvents
 666:ble_process.c **** 			
 1434              		.loc 1 666 0
 1435 019c C046     		nop
 1436              	.L45:
 1437              	.L56:
 671:ble_process.c **** 			
 672:ble_process.c **** 		}
 673:ble_process.c **** 	}
 674:ble_process.c **** }
 1438              		.loc 1 674 0
 1439 019e C046     		nop
 1440 01a0 BD46     		mov	sp, r7
 1441 01a2 03B0     		add	sp, sp, #12
 1442              		@ sp needed
 1443 01a4 90BD     		pop	{r4, r7, pc}
 1444              	.L58:
 1445 01a6 C046     		.align	2
 1446              	.L57:
 1447 01a8 00000000 		.word	switch_Role
 1448 01ac 00000000 		.word	cyBle_connHandle
 1449 01b0 74020000 		.word	.LC57
 1450 01b4 00000000 		.word	cyBle_state
 1451 01b8 00000000 		.word	ble_gap_state
 1452 01bc 94020000 		.word	.LC61
 1453 01c0 B8020000 		.word	.LC63
 1454 01c4 00000000 		.word	current_watchdog_counter
 1455 01c8 00000000 		.word	centralStartedTime
 1456 01cc D0020000 		.word	.LC67
 1457 01d0 E8020000 		.word	.LC69
 1458 01d4 00000000 		.word	new_advData
 1459 01d8 00000000 		.word	dataADVCounter
 1460 01dc 00000000 		.word	cyBle_discoveryModeInfo
ARM GAS  C:\Users\dmytro\AppData\Local\Temp\ccjppNo8.s 			page 44


 1461 01e0 00030000 		.word	.LC74
 1462 01e4 00000000 		.word	clientConnectToDevice
 1463 01e8 14030000 		.word	.LC77
 1464 01ec 34030000 		.word	.LC79
 1465              		.cfi_endproc
 1466              	.LFE36:
 1467              		.size	SwitchRole, .-SwitchRole
 1468              		.section	.rodata
 1469 035a 0000     		.align	2
 1470              	.LC84:
 1471 035c 436F6E6E 		.ascii	"Connect Request failed \000"
 1471      65637420 
 1471      52657175 
 1471      65737420 
 1471      6661696C 
 1472              		.align	2
 1473              	.LC86:
 1474 0374 436F6E6E 		.ascii	"Connect Request Sent \000"
 1474      65637420 
 1474      52657175 
 1474      65737420 
 1474      53656E74 
 1475              		.section	.text.ConnectToPeripheralDevice,"ax",%progbits
 1476              		.align	2
 1477              		.global	ConnectToPeripheralDevice
 1478              		.code	16
 1479              		.thumb_func
 1480              		.type	ConnectToPeripheralDevice, %function
 1481              	ConnectToPeripheralDevice:
 1482              	.LFB37:
 675:ble_process.c **** 
 676:ble_process.c **** /*******************************************************************************
 677:ble_process.c **** * Function Name: ConnectToPeripheralDevice
 678:ble_process.c **** ********************************************************************************
 679:ble_process.c **** * Summary:
 680:ble_process.c **** *        Connects to Peripheral device with given BD Address.
 681:ble_process.c **** *
 682:ble_process.c **** * Parameters:
 683:ble_process.c **** *  void
 684:ble_process.c **** *
 685:ble_process.c **** * Return:
 686:ble_process.c **** *  void
 687:ble_process.c **** *
 688:ble_process.c **** *******************************************************************************/
 689:ble_process.c **** void ConnectToPeripheralDevice(void)
 690:ble_process.c **** {
 1483              		.loc 1 690 0
 1484              		.cfi_startproc
 1485              		@ args = 0, pretend = 0, frame = 8
 1486              		@ frame_needed = 1, uses_anonymous_args = 0
 1487 0000 90B5     		push	{r4, r7, lr}
 1488              		.cfi_def_cfa_offset 12
 1489              		.cfi_offset 4, -12
 1490              		.cfi_offset 7, -8
 1491              		.cfi_offset 14, -4
 1492 0002 83B0     		sub	sp, sp, #12
 1493              		.cfi_def_cfa_offset 24
ARM GAS  C:\Users\dmytro\AppData\Local\Temp\ccjppNo8.s 			page 45


 1494 0004 00AF     		add	r7, sp, #0
 1495              		.cfi_def_cfa_register 7
 691:ble_process.c **** 	CYBLE_API_RESULT_T  apiResult;
 692:ble_process.c **** 	
 693:ble_process.c **** 	/* If flag has been set to connect to a device... */
 694:ble_process.c **** 	if(clientConnectToDevice)
 1496              		.loc 1 694 0
 1497 0006 1B4B     		ldr	r3, .L64
 1498 0008 1B78     		ldrb	r3, [r3]
 1499 000a 002B     		cmp	r3, #0
 1500 000c 2ED0     		beq	.L63
 695:ble_process.c **** 	{
 696:ble_process.c **** 		/* Process pending BLE events */
 697:ble_process.c **** 		CyBle_ProcessEvents();
 1501              		.loc 1 697 0
 1502 000e FFF7FEFF 		bl	CyBle_ProcessEvents
 698:ble_process.c **** 			
 699:ble_process.c **** 		#if 0
 700:ble_process.c **** 		if(CYBLE_STATE_SCANNING == CyBle_GetState())
 701:ble_process.c **** 		{
 702:ble_process.c **** 			CyBle_GapcStopScan();
 703:ble_process.c **** 			#ifdef DEBUG_ENABLED
 704:ble_process.c **** 				UART_UartPutString("Stop Scan called from clientConnectToDevice ");
 705:ble_process.c **** 				SendBLEStatetoUART(CyBle_GetState());
 706:ble_process.c **** 				UART_UartPutCRLF(' ');
 707:ble_process.c **** 			#endif
 708:ble_process.c **** 			CyBle_ProcessEvents();
 709:ble_process.c **** 		}
 710:ble_process.c **** 		#endif
 711:ble_process.c **** 			
 712:ble_process.c **** 		if(CYBLE_STATE_DISCONNECTED == CyBle_GetState())
 1503              		.loc 1 712 0
 1504 0012 194B     		ldr	r3, .L64+4
 1505 0014 1B78     		ldrb	r3, [r3]
 1506 0016 062B     		cmp	r3, #6
 1507 0018 28D1     		bne	.L63
 713:ble_process.c **** 		{
 714:ble_process.c **** 			/* Reset the flag to connect to a device*/
 715:ble_process.c **** 			clientConnectToDevice = FALSE;
 1508              		.loc 1 715 0
 1509 001a 164B     		ldr	r3, .L64
 1510 001c 0022     		movs	r2, #0
 1511 001e 1A70     		strb	r2, [r3]
 716:ble_process.c **** 
 717:ble_process.c **** 			/* Connect to the device whose address has been saved as part of 
 718:ble_process.c **** 			* potential node search */
 719:ble_process.c **** 			apiResult = CyBle_GapcConnectDevice(&peripAddr);
 1512              		.loc 1 719 0
 1513 0020 BC1D     		adds	r4, r7, #6
 1514 0022 164B     		ldr	r3, .L64+8
 1515 0024 1800     		movs	r0, r3
 1516 0026 FFF7FEFF 		bl	CyBle_GapcConnectDevice
 1517 002a 0300     		movs	r3, r0
 1518 002c 2380     		strh	r3, [r4]
 720:ble_process.c **** 			
 721:ble_process.c **** 			if(apiResult != CYBLE_ERROR_OK)
 1519              		.loc 1 721 0
ARM GAS  C:\Users\dmytro\AppData\Local\Temp\ccjppNo8.s 			page 46


 1520 002e BB1D     		adds	r3, r7, #6
 1521 0030 1B88     		ldrh	r3, [r3]
 1522 0032 002B     		cmp	r3, #0
 1523 0034 0CD0     		beq	.L61
 722:ble_process.c **** 			{
 723:ble_process.c **** 				#ifdef DEBUG_ENABLED
 724:ble_process.c **** 					UART_UartPutString("Connect Request failed ");
 1524              		.loc 1 724 0
 1525 0036 124B     		ldr	r3, .L64+12
 1526 0038 1800     		movs	r0, r3
 1527 003a FFF7FEFF 		bl	UART_UartPutString
 725:ble_process.c **** 					SendBLEStatetoUART(CyBle_GetState());
 1528              		.loc 1 725 0
 1529 003e 0E4B     		ldr	r3, .L64+4
 1530 0040 1B78     		ldrb	r3, [r3]
 1531 0042 1800     		movs	r0, r3
 1532 0044 FFF7FEFF 		bl	SendBLEStatetoUART
 726:ble_process.c **** 					UART_UartPutCRLF(' ');
 1533              		.loc 1 726 0
 1534 0048 2020     		movs	r0, #32
 1535 004a FFF7FEFF 		bl	UART_UartPutCRLF
 1536 004e 0BE0     		b	.L62
 1537              	.L61:
 727:ble_process.c **** 				#endif
 728:ble_process.c **** 			}
 729:ble_process.c **** 			else
 730:ble_process.c **** 			{
 731:ble_process.c **** 				#ifdef DEBUG_ENABLED
 732:ble_process.c **** 					UART_UartPutString("Connect Request Sent ");
 1538              		.loc 1 732 0
 1539 0050 0C4B     		ldr	r3, .L64+16
 1540 0052 1800     		movs	r0, r3
 1541 0054 FFF7FEFF 		bl	UART_UartPutString
 733:ble_process.c **** 					SendBLEStatetoUART(CyBle_GetState());
 1542              		.loc 1 733 0
 1543 0058 074B     		ldr	r3, .L64+4
 1544 005a 1B78     		ldrb	r3, [r3]
 1545 005c 1800     		movs	r0, r3
 1546 005e FFF7FEFF 		bl	SendBLEStatetoUART
 734:ble_process.c **** 					UART_UartPutCRLF(' ');
 1547              		.loc 1 734 0
 1548 0062 2020     		movs	r0, #32
 1549 0064 FFF7FEFF 		bl	UART_UartPutCRLF
 1550              	.L62:
 735:ble_process.c **** 				#endif	
 736:ble_process.c **** 			}
 737:ble_process.c **** 		
 738:ble_process.c **** 			/* Process pending BLE events */
 739:ble_process.c **** 			CyBle_ProcessEvents();
 1551              		.loc 1 739 0
 1552 0068 FFF7FEFF 		bl	CyBle_ProcessEvents
 1553              	.L63:
 740:ble_process.c **** 		}
 741:ble_process.c **** 	}
 742:ble_process.c **** }
 1554              		.loc 1 742 0
 1555 006c C046     		nop
ARM GAS  C:\Users\dmytro\AppData\Local\Temp\ccjppNo8.s 			page 47


 1556 006e BD46     		mov	sp, r7
 1557 0070 03B0     		add	sp, sp, #12
 1558              		@ sp needed
 1559 0072 90BD     		pop	{r4, r7, pc}
 1560              	.L65:
 1561              		.align	2
 1562              	.L64:
 1563 0074 00000000 		.word	clientConnectToDevice
 1564 0078 00000000 		.word	cyBle_state
 1565 007c 00000000 		.word	peripAddr
 1566 0080 5C030000 		.word	.LC84
 1567 0084 74030000 		.word	.LC86
 1568              		.cfi_endproc
 1569              	.LFE37:
 1570              		.size	ConnectToPeripheralDevice, .-ConnectToPeripheralDevice
 1571              		.section	.rodata
 1572 038a 0000     		.align	2
 1573              	.LC93:
 1574 038c 73776974 		.ascii	"switchRole from restartScanning loop \000"
 1574      6368526F 
 1574      6C652066 
 1574      726F6D20 
 1574      72657374 
 1575 03b2 0000     		.align	2
 1576              	.LC96:
 1577 03b4 72657374 		.ascii	"restartScanning loop \000"
 1577      61727453 
 1577      63616E6E 
 1577      696E6720 
 1577      6C6F6F70 
 1578 03ca 0000     		.align	2
 1579              	.LC98:
 1580 03cc 53746172 		.ascii	"Start Scan from restartScanning loop \000"
 1580      74205363 
 1580      616E2066 
 1580      726F6D20 
 1580      72657374 
 1581              		.section	.text.RestartCentralScanning,"ax",%progbits
 1582              		.align	2
 1583              		.global	RestartCentralScanning
 1584              		.code	16
 1585              		.thumb_func
 1586              		.type	RestartCentralScanning, %function
 1587              	RestartCentralScanning:
 1588              	.LFB38:
 743:ble_process.c **** 
 744:ble_process.c **** /*******************************************************************************
 745:ble_process.c **** * Function Name: RestartCentralScanning
 746:ble_process.c **** ********************************************************************************
 747:ble_process.c **** * Summary:
 748:ble_process.c **** *        Restarts Central scanning. Also, if the time that the device has remained
 749:ble_process.c **** * in Central role exceeds pre-determined value, then the switch role flag is set.
 750:ble_process.c **** *
 751:ble_process.c **** * Parameters:
 752:ble_process.c **** *  void
 753:ble_process.c **** *
 754:ble_process.c **** * Return:
ARM GAS  C:\Users\dmytro\AppData\Local\Temp\ccjppNo8.s 			page 48


 755:ble_process.c **** *  void
 756:ble_process.c **** *
 757:ble_process.c **** *******************************************************************************/
 758:ble_process.c **** void RestartCentralScanning(void)
 759:ble_process.c **** {
 1589              		.loc 1 759 0
 1590              		.cfi_startproc
 1591              		@ args = 0, pretend = 0, frame = 0
 1592              		@ frame_needed = 1, uses_anonymous_args = 0
 1593 0000 80B5     		push	{r7, lr}
 1594              		.cfi_def_cfa_offset 8
 1595              		.cfi_offset 7, -8
 1596              		.cfi_offset 14, -4
 1597 0002 00AF     		add	r7, sp, #0
 1598              		.cfi_def_cfa_register 7
 760:ble_process.c **** 	/* If the current role is Central and the Central time has exceeded the preset time,
 761:ble_process.c **** 	* then set the flag to switch role to Peripheral */
 762:ble_process.c **** 	if((BLE_CENTRAL == ble_gap_state) && 
 1599              		.loc 1 762 0
 1600 0004 214B     		ldr	r3, .L70
 1601 0006 1B78     		ldrb	r3, [r3]
 1602 0008 022B     		cmp	r3, #2
 1603 000a 1CD1     		bne	.L67
 763:ble_process.c **** 		(WatchDog_CurrentCount() - centralStartedTime > CENTRAL_STATE_SPAN) &&
 1604              		.loc 1 763 0 discriminator 1
 1605 000c 204B     		ldr	r3, .L70+4
 1606 000e 1B88     		ldrh	r3, [r3]
 1607 0010 9BB2     		uxth	r3, r3
 1608 0012 1A00     		movs	r2, r3
 1609 0014 1F4B     		ldr	r3, .L70+8
 1610 0016 1B88     		ldrh	r3, [r3]
 1611 0018 9BB2     		uxth	r3, r3
 1612 001a D31A     		subs	r3, r2, r3
 762:ble_process.c **** 		(WatchDog_CurrentCount() - centralStartedTime > CENTRAL_STATE_SPAN) &&
 1613              		.loc 1 762 0 discriminator 1
 1614 001c 2D2B     		cmp	r3, #45
 1615 001e 12DD     		ble	.L67
 764:ble_process.c **** 		((CYBLE_STATE_DISCONNECTED == CyBle_GetState()) || (CYBLE_STATE_SCANNING == CyBle_GetState())))
 1616              		.loc 1 764 0
 1617 0020 1D4B     		ldr	r3, .L70+12
 1618 0022 1B78     		ldrb	r3, [r3]
 763:ble_process.c **** 		(WatchDog_CurrentCount() - centralStartedTime > CENTRAL_STATE_SPAN) &&
 1619              		.loc 1 763 0
 1620 0024 062B     		cmp	r3, #6
 1621 0026 03D0     		beq	.L68
 1622              		.loc 1 764 0
 1623 0028 1B4B     		ldr	r3, .L70+12
 1624 002a 1B78     		ldrb	r3, [r3]
 1625 002c 042B     		cmp	r3, #4
 1626 002e 0AD1     		bne	.L67
 1627              	.L68:
 765:ble_process.c **** 	{
 766:ble_process.c **** 		/* Switch role flag set */
 767:ble_process.c **** 		switch_Role = TRUE;
 1628              		.loc 1 767 0
 1629 0030 1A4B     		ldr	r3, .L70+16
 1630 0032 0122     		movs	r2, #1
ARM GAS  C:\Users\dmytro\AppData\Local\Temp\ccjppNo8.s 			page 49


 1631 0034 1A70     		strb	r2, [r3]
 768:ble_process.c **** 		#ifdef DEBUG_ENABLED
 769:ble_process.c **** 		UART_UartPutString("switchRole from restartScanning loop ");
 1632              		.loc 1 769 0
 1633 0036 1A4B     		ldr	r3, .L70+20
 1634 0038 1800     		movs	r0, r3
 1635 003a FFF7FEFF 		bl	UART_UartPutString
 770:ble_process.c **** 		UART_UartPutCRLF(' ');
 1636              		.loc 1 770 0
 1637 003e 2020     		movs	r0, #32
 1638 0040 FFF7FEFF 		bl	UART_UartPutCRLF
 771:ble_process.c **** 		#endif
 772:ble_process.c **** 		
 773:ble_process.c **** 		return;
 1639              		.loc 1 773 0
 1640 0044 1FE0     		b	.L66
 1641              	.L67:
 774:ble_process.c **** 	}
 775:ble_process.c **** 			
 776:ble_process.c **** 	/* If restart scanning flag is set, the restart the Central scanning */
 777:ble_process.c **** 	if(restartScanning)
 1642              		.loc 1 777 0
 1643 0046 174B     		ldr	r3, .L70+24
 1644 0048 1B78     		ldrb	r3, [r3]
 1645 004a 002B     		cmp	r3, #0
 1646 004c 1BD0     		beq	.L66
 778:ble_process.c **** 	{
 779:ble_process.c **** 		/* Process pending BLE events */
 780:ble_process.c **** 		CyBle_ProcessEvents();
 1647              		.loc 1 780 0
 1648 004e FFF7FEFF 		bl	CyBle_ProcessEvents
 781:ble_process.c **** 		if(CYBLE_STATE_DISCONNECTED == CyBle_GetState())
 1649              		.loc 1 781 0
 1650 0052 114B     		ldr	r3, .L70+12
 1651 0054 1B78     		ldrb	r3, [r3]
 1652 0056 062B     		cmp	r3, #6
 1653 0058 15D1     		bne	.L66
 782:ble_process.c **** 		{
 783:ble_process.c **** 			/* Reset the restart scanning flag */
 784:ble_process.c **** 			restartScanning = FALSE;
 1654              		.loc 1 784 0
 1655 005a 124B     		ldr	r3, .L70+24
 1656 005c 0022     		movs	r2, #0
 1657 005e 1A70     		strb	r2, [r3]
 785:ble_process.c **** 			#ifdef DEBUG_ENABLED
 786:ble_process.c **** 			UART_UartPutString("restartScanning loop ");
 1658              		.loc 1 786 0
 1659 0060 114B     		ldr	r3, .L70+28
 1660 0062 1800     		movs	r0, r3
 1661 0064 FFF7FEFF 		bl	UART_UartPutString
 787:ble_process.c **** 			UART_UartPutCRLF(' ');
 1662              		.loc 1 787 0
 1663 0068 2020     		movs	r0, #32
 1664 006a FFF7FEFF 		bl	UART_UartPutCRLF
 788:ble_process.c **** 			#endif
 789:ble_process.c **** 			
 790:ble_process.c **** 			/* Start Central scan and process the event */
ARM GAS  C:\Users\dmytro\AppData\Local\Temp\ccjppNo8.s 			page 50


 791:ble_process.c **** 			CyBle_GapcStartScan(CYBLE_SCANNING_FAST);
 1665              		.loc 1 791 0
 1666 006e 0020     		movs	r0, #0
 1667 0070 FFF7FEFF 		bl	CyBle_GapcStartScan
 792:ble_process.c **** 			CyBle_ProcessEvents();
 1668              		.loc 1 792 0
 1669 0074 FFF7FEFF 		bl	CyBle_ProcessEvents
 793:ble_process.c **** 			
 794:ble_process.c **** 			#ifdef DEBUG_ENABLED
 795:ble_process.c **** 			UART_UartPutString("Start Scan from restartScanning loop ");
 1670              		.loc 1 795 0
 1671 0078 0C4B     		ldr	r3, .L70+32
 1672 007a 1800     		movs	r0, r3
 1673 007c FFF7FEFF 		bl	UART_UartPutString
 796:ble_process.c **** 			UART_UartPutCRLF(' ');
 1674              		.loc 1 796 0
 1675 0080 2020     		movs	r0, #32
 1676 0082 FFF7FEFF 		bl	UART_UartPutCRLF
 1677              	.L66:
 797:ble_process.c **** 			#endif
 798:ble_process.c **** 		}
 799:ble_process.c **** 	}
 800:ble_process.c **** }	
 1678              		.loc 1 800 0
 1679 0086 BD46     		mov	sp, r7
 1680              		@ sp needed
 1681 0088 80BD     		pop	{r7, pc}
 1682              	.L71:
 1683 008a C046     		.align	2
 1684              	.L70:
 1685 008c 00000000 		.word	ble_gap_state
 1686 0090 00000000 		.word	current_watchdog_counter
 1687 0094 00000000 		.word	centralStartedTime
 1688 0098 00000000 		.word	cyBle_state
 1689 009c 00000000 		.word	switch_Role
 1690 00a0 8C030000 		.word	.LC93
 1691 00a4 00000000 		.word	restartScanning
 1692 00a8 B4030000 		.word	.LC96
 1693 00ac CC030000 		.word	.LC98
 1694              		.cfi_endproc
 1695              	.LFE38:
 1696              		.size	RestartCentralScanning, .-RestartCentralScanning
 1697              		.section	.text.SendErrorCode,"ax",%progbits
 1698              		.align	2
 1699              		.global	SendErrorCode
 1700              		.code	16
 1701              		.thumb_func
 1702              		.type	SendErrorCode, %function
 1703              	SendErrorCode:
 1704              	.LFB39:
 801:ble_process.c **** 
 802:ble_process.c **** /*******************************************************************************
 803:ble_process.c **** * Function Name: SendErrorCode
 804:ble_process.c **** ********************************************************************************
 805:ble_process.c **** * Summary:
 806:ble_process.c **** *        Send Error code at GATT Layer
 807:ble_process.c **** *
ARM GAS  C:\Users\dmytro\AppData\Local\Temp\ccjppNo8.s 			page 51


 808:ble_process.c **** * Parameters:
 809:ble_process.c **** *  uint8 opCode, 
 810:ble_process.c **** *  CYBLE_GATT_DB_ATTR_HANDLE_T  attrHandle, 
 811:ble_process.c **** *  CYBLE_GATT_ERR_CODE_T errorCode
 812:ble_process.c **** *
 813:ble_process.c **** * Return:
 814:ble_process.c **** *  void
 815:ble_process.c **** *
 816:ble_process.c **** *******************************************************************************/
 817:ble_process.c **** void SendErrorCode(uint8 opCode, CYBLE_GATT_DB_ATTR_HANDLE_T  attrHandle, CYBLE_GATT_ERR_CODE_T err
 818:ble_process.c **** {
 1705              		.loc 1 818 0
 1706              		.cfi_startproc
 1707              		@ args = 0, pretend = 0, frame = 16
 1708              		@ frame_needed = 1, uses_anonymous_args = 0
 1709 0000 90B5     		push	{r4, r7, lr}
 1710              		.cfi_def_cfa_offset 12
 1711              		.cfi_offset 4, -12
 1712              		.cfi_offset 7, -8
 1713              		.cfi_offset 14, -4
 1714 0002 85B0     		sub	sp, sp, #20
 1715              		.cfi_def_cfa_offset 32
 1716 0004 00AF     		add	r7, sp, #0
 1717              		.cfi_def_cfa_register 7
 1718 0006 0400     		movs	r4, r0
 1719 0008 0800     		movs	r0, r1
 1720 000a 1100     		movs	r1, r2
 1721 000c FB1D     		adds	r3, r7, #7
 1722 000e 221C     		adds	r2, r4, #0
 1723 0010 1A70     		strb	r2, [r3]
 1724 0012 3B1D     		adds	r3, r7, #4
 1725 0014 021C     		adds	r2, r0, #0
 1726 0016 1A80     		strh	r2, [r3]
 1727 0018 BB1D     		adds	r3, r7, #6
 1728 001a 0A1C     		adds	r2, r1, #0
 1729 001c 1A70     		strb	r2, [r3]
 819:ble_process.c **** 	CYBLE_GATTS_ERR_PARAM_T err_param;
 820:ble_process.c **** 		            
 821:ble_process.c ****     err_param.opcode = opCode;
 1730              		.loc 1 821 0
 1731 001e 0C23     		movs	r3, #12
 1732 0020 FB18     		adds	r3, r7, r3
 1733 0022 FA1D     		adds	r2, r7, #7
 1734 0024 1278     		ldrb	r2, [r2]
 1735 0026 9A70     		strb	r2, [r3, #2]
 822:ble_process.c ****     err_param.attrHandle = attrHandle;
 1736              		.loc 1 822 0
 1737 0028 0C23     		movs	r3, #12
 1738 002a FB18     		adds	r3, r7, r3
 1739 002c 3A1D     		adds	r2, r7, #4
 1740 002e 1288     		ldrh	r2, [r2]
 1741 0030 1A80     		strh	r2, [r3]
 823:ble_process.c ****     err_param.errorCode = errorCode;
 1742              		.loc 1 823 0
 1743 0032 0C23     		movs	r3, #12
 1744 0034 FB18     		adds	r3, r7, r3
 1745 0036 BA1D     		adds	r2, r7, #6
ARM GAS  C:\Users\dmytro\AppData\Local\Temp\ccjppNo8.s 			page 52


 1746 0038 1278     		ldrb	r2, [r2]
 1747 003a DA70     		strb	r2, [r3, #3]
 824:ble_process.c **** 
 825:ble_process.c ****     /* Send Error Response */
 826:ble_process.c ****     (void)CyBle_GattsErrorRsp(cyBle_connHandle, &err_param);
 1748              		.loc 1 826 0
 1749 003c 0C23     		movs	r3, #12
 1750 003e F918     		adds	r1, r7, r3
 1751 0040 084B     		ldr	r3, .L73
 1752 0042 1A78     		ldrb	r2, [r3]
 1753 0044 5B78     		ldrb	r3, [r3, #1]
 1754 0046 1B02     		lsls	r3, r3, #8
 1755 0048 1A43     		orrs	r2, r3
 1756 004a 0023     		movs	r3, #0
 1757 004c 1204     		lsls	r2, r2, #16
 1758 004e 120C     		lsrs	r2, r2, #16
 1759 0050 1B0C     		lsrs	r3, r3, #16
 1760 0052 1B04     		lsls	r3, r3, #16
 1761 0054 1343     		orrs	r3, r2
 1762 0056 1800     		movs	r0, r3
 1763 0058 FFF7FEFF 		bl	CyBle_GattsErrorRsp
 827:ble_process.c **** }
 1764              		.loc 1 827 0
 1765 005c C046     		nop
 1766 005e BD46     		mov	sp, r7
 1767 0060 05B0     		add	sp, sp, #20
 1768              		@ sp needed
 1769 0062 90BD     		pop	{r4, r7, pc}
 1770              	.L74:
 1771              		.align	2
 1772              	.L73:
 1773 0064 00000000 		.word	cyBle_connHandle
 1774              		.cfi_endproc
 1775              	.LFE39:
 1776              		.size	SendErrorCode, .-SendErrorCode
 1777              		.section	.text.sendColorDataToNetwork,"ax",%progbits
 1778              		.align	2
 1779              		.global	sendColorDataToNetwork
 1780              		.code	16
 1781              		.thumb_func
 1782              		.type	sendColorDataToNetwork, %function
 1783              	sendColorDataToNetwork:
 1784              	.LFB40:
 828:ble_process.c **** /* [] END OF FILE */
 829:ble_process.c **** 
 830:ble_process.c **** 
 831:ble_process.c **** void sendColorDataToNetwork(uint8 RGB_Collection[4]) {
 1785              		.loc 1 831 0
 1786              		.cfi_startproc
 1787              		@ args = 0, pretend = 0, frame = 24
 1788              		@ frame_needed = 1, uses_anonymous_args = 0
 1789 0000 80B5     		push	{r7, lr}
 1790              		.cfi_def_cfa_offset 8
 1791              		.cfi_offset 7, -8
 1792              		.cfi_offset 14, -4
 1793 0002 86B0     		sub	sp, sp, #24
 1794              		.cfi_def_cfa_offset 32
ARM GAS  C:\Users\dmytro\AppData\Local\Temp\ccjppNo8.s 			page 53


 1795 0004 00AF     		add	r7, sp, #0
 1796              		.cfi_def_cfa_register 7
 1797 0006 7860     		str	r0, [r7, #4]
 832:ble_process.c ****     RGBData[RGB_RED_INDEX] = RGB_Collection[0];
 1798              		.loc 1 832 0
 1799 0008 7B68     		ldr	r3, [r7, #4]
 1800 000a 1A78     		ldrb	r2, [r3]
 1801 000c 1F4B     		ldr	r3, .L76
 1802 000e 1A70     		strb	r2, [r3]
 833:ble_process.c ****     RGBData[RGB_BLUE_INDEX] = RGB_Collection[1];
 1803              		.loc 1 833 0
 1804 0010 7B68     		ldr	r3, [r7, #4]
 1805 0012 5A78     		ldrb	r2, [r3, #1]
 1806 0014 1D4B     		ldr	r3, .L76
 1807 0016 9A70     		strb	r2, [r3, #2]
 834:ble_process.c ****     RGBData[RGB_GREEN_INDEX] = RGB_Collection[2];
 1808              		.loc 1 834 0
 1809 0018 7B68     		ldr	r3, [r7, #4]
 1810 001a 9A78     		ldrb	r2, [r3, #2]
 1811 001c 1B4B     		ldr	r3, .L76
 1812 001e 5A70     		strb	r2, [r3, #1]
 835:ble_process.c ****     RGBData[RGB_INTENSITY_INDEX] = RGB_Collection[3];
 1813              		.loc 1 835 0
 1814 0020 7B68     		ldr	r3, [r7, #4]
 1815 0022 DA78     		ldrb	r2, [r3, #3]
 1816 0024 194B     		ldr	r3, .L76
 1817 0026 DA70     		strb	r2, [r3, #3]
 836:ble_process.c ****     
 837:ble_process.c **** 	/* Modify RGB Color my configuring the PrISM components with new density 
 838:ble_process.c **** 	* value*/
 839:ble_process.c **** 	UpdateRGBled(RGBData, RGB_LED_DATA_LEN);
 1818              		.loc 1 839 0
 1819 0028 184B     		ldr	r3, .L76
 1820 002a 0421     		movs	r1, #4
 1821 002c 1800     		movs	r0, r3
 1822 002e FFF7FEFF 		bl	UpdateRGBled
 840:ble_process.c ****     
 841:ble_process.c **** 	/* Update the RGB LED Control characteristic in GATT DB to allow
 842:ble_process.c **** 	* Client to read the latest RGB LED color value set */
 843:ble_process.c ****     CYBLE_GATT_HANDLE_VALUE_PAIR_T value_pair;
 844:ble_process.c ****     value_pair.attrHandle = CYBLE_RGB_LED_CONTROL_CHAR_HANDLE;
 1823              		.loc 1 844 0
 1824 0032 0C23     		movs	r3, #12
 1825 0034 FB18     		adds	r3, r7, r3
 1826 0036 0E22     		movs	r2, #14
 1827 0038 1A81     		strh	r2, [r3, #8]
 845:ble_process.c ****     value_pair.value.val = RGB_Collection;
 1828              		.loc 1 845 0
 1829 003a 0C23     		movs	r3, #12
 1830 003c FB18     		adds	r3, r7, r3
 1831 003e 7A68     		ldr	r2, [r7, #4]
 1832 0040 1A60     		str	r2, [r3]
 846:ble_process.c ****     value_pair.value.len = RGB_LED_DATA_LEN;
 1833              		.loc 1 846 0
 1834 0042 0C23     		movs	r3, #12
 1835 0044 FB18     		adds	r3, r7, r3
 1836 0046 0422     		movs	r2, #4
ARM GAS  C:\Users\dmytro\AppData\Local\Temp\ccjppNo8.s 			page 54


 1837 0048 9A80     		strh	r2, [r3, #4]
 847:ble_process.c **** 	CyBle_GattsWriteAttributeValue(&value_pair, 0, &cyBle_connHandle, CYBLE_GATT_DB_LOCALLY_INITIATED)
 1838              		.loc 1 847 0
 1839 004a 114A     		ldr	r2, .L76+4
 1840 004c 0C23     		movs	r3, #12
 1841 004e F818     		adds	r0, r7, r3
 1842 0050 0023     		movs	r3, #0
 1843 0052 0021     		movs	r1, #0
 1844 0054 FFF7FEFF 		bl	CyBle_GattsWriteAttributeValue
 848:ble_process.c **** 	//CyBle_GattcWriteCharacteristicValue(cyBle_connHandle, &value_pair);
 849:ble_process.c **** 	
 850:ble_process.c **** 	/* After receiveing the color value, set the switch role flag to allow the system
 851:ble_process.c **** 	* to switch role to Central role */
 852:ble_process.c **** 	switch_Role = TRUE;
 1845              		.loc 1 852 0
 1846 0058 0E4B     		ldr	r3, .L76+8
 1847 005a 0122     		movs	r2, #1
 1848 005c 1A70     		strb	r2, [r3]
 853:ble_process.c ****     
 854:ble_process.c ****     #ifdef ENABLE_ADV_DATA_COUNTER
 855:ble_process.c ****     /* Increment the ADV data counter so that scanning Central device knows
 856:ble_process.c ****     * if this device has updated RGB LED data or not */
 857:ble_process.c ****     dataADVCounter++;
 1849              		.loc 1 857 0
 1850 005e 0E4B     		ldr	r3, .L76+12
 1851 0060 1B78     		ldrb	r3, [r3]
 1852 0062 0133     		adds	r3, r3, #1
 1853 0064 DAB2     		uxtb	r2, r3
 1854 0066 0C4B     		ldr	r3, .L76+12
 1855 0068 1A70     		strb	r2, [r3]
 858:ble_process.c ****     #endif
 859:ble_process.c **** 
 860:ble_process.c ****     #ifdef DEBUG_ENABLED
 861:ble_process.c ****     UART_UartPutString("incremented dataADVCounter value in CYBLE_EVT_GATTS_WRITE_REQ= ");
 1856              		.loc 1 861 0
 1857 006a 0C4B     		ldr	r3, .L76+16
 1858 006c 1800     		movs	r0, r3
 1859 006e FFF7FEFF 		bl	UART_UartPutString
 862:ble_process.c ****     PrintNum(dataADVCounter);
 1860              		.loc 1 862 0
 1861 0072 094B     		ldr	r3, .L76+12
 1862 0074 1B78     		ldrb	r3, [r3]
 1863 0076 1800     		movs	r0, r3
 1864 0078 FFF7FEFF 		bl	PrintNum
 863:ble_process.c ****     UART_UartPutCRLF(' ');
 1865              		.loc 1 863 0
 1866 007c 2020     		movs	r0, #32
 1867 007e FFF7FEFF 		bl	UART_UartPutCRLF
 864:ble_process.c ****     #endif
 865:ble_process.c **** }
 1868              		.loc 1 865 0
 1869 0082 C046     		nop
 1870 0084 BD46     		mov	sp, r7
 1871 0086 06B0     		add	sp, sp, #24
 1872              		@ sp needed
 1873 0088 80BD     		pop	{r7, pc}
 1874              	.L77:
ARM GAS  C:\Users\dmytro\AppData\Local\Temp\ccjppNo8.s 			page 55


 1875 008a C046     		.align	2
 1876              	.L76:
 1877 008c 00000000 		.word	RGBData
 1878 0090 00000000 		.word	cyBle_connHandle
 1879 0094 00000000 		.word	switch_Role
 1880 0098 00000000 		.word	dataADVCounter
 1881 009c D4000000 		.word	.LC21
 1882              		.cfi_endproc
 1883              	.LFE40:
 1884              		.size	sendColorDataToNetwork, .-sendColorDataToNetwork
 1885              		.text
 1886              	.Letext0:
 1887              		.file 2 "Generated_Source\\PSoC4/cytypes.h"
 1888              		.file 3 "Generated_Source\\PSoC4/BLE_Stack.h"
 1889              		.file 4 "Generated_Source\\PSoC4/BLE_StackGap.h"
 1890              		.file 5 "Generated_Source\\PSoC4/BLE_StackGatt.h"
 1891              		.file 6 "Generated_Source\\PSoC4/BLE_StackGattServer.h"
 1892              		.file 7 "Generated_Source\\PSoC4/BLE_StackGattClient.h"
 1893              		.file 8 "Generated_Source\\PSoC4/BLE_eventHandler.h"
 1894              		.file 9 "Generated_Source\\PSoC4/BLE.h"
 1895              		.file 10 "./main.h"