ARM GAS  C:\Users\dmytro\AppData\Local\Temp\ccjppNo8.s 			page 1


   1              		.syntax unified
   2              		.cpu cortex-m0
   3              		.fpu softvfp
   4              		.eabi_attribute 20, 1
   5              		.eabi_attribute 21, 1
   6              		.eabi_attribute 23, 3
   7              		.eabi_attribute 24, 1
   8              		.eabi_attribute 25, 1
   9              		.eabi_attribute 26, 1
  10              		.eabi_attribute 30, 6
  11              		.eabi_attribute 34, 0
  12              		.eabi_attribute 18, 4
  13              		.thumb
  14              		.syntax unified
  15              		.file	"ble_process.c"
  16              		.text
  17              	.Ltext0:
  18              		.cfi_sections	.debug_frame
  19              		.comm	current_watchdog_counter,2,2
  20              		.comm	RGBData,4,4
  21              		.global	dataADVCounter
  22              		.data
  23              		.type	dataADVCounter, %object
  24              		.size	dataADVCounter, 1
  25              	dataADVCounter:
  26 0000 01       		.byte	1
  27              		.global	switch_Role
  28              		.bss
  29              		.type	switch_Role, %object
  30              		.size	switch_Role, 1
  31              	switch_Role:
  32 0000 00       		.space	1
  33              		.comm	new_advData,32,4
  34              		.global	potential_node_found
  35              		.type	potential_node_found, %object
  36              		.size	potential_node_found, 1
  37              	potential_node_found:
  38 0001 00       		.space	1
  39              		.comm	potential_node_bdAddr,6,4
  40              		.global	potential_node_bdAddrType
  41              		.type	potential_node_bdAddrType, %object
  42              		.size	potential_node_bdAddrType, 1
  43              	potential_node_bdAddrType:
  44 0002 00       		.space	1
  45              		.global	scan_tag
  46              		.data
  47 0001 000000   		.align	2
  48              		.type	scan_tag, %object
  49              		.size	scan_tag, 20
  50              	scan_tag:
  51 0004 13       		.byte	19
  52 0005 21       		.byte	33
  53 0006 31       		.byte	49
  54 0007 01       		.byte	1
  55 0008 9B       		.byte	-101
  56 0009 5F       		.byte	95
  57 000a 80       		.byte	-128
ARM GAS  C:\Users\dmytro\AppData\Local\Temp\ccjppNo8.s 			page 2


  58 000b 00       		.byte	0
  59 000c 00       		.byte	0
  60 000d 80       		.byte	-128
  61 000e 00       		.byte	0
  62 000f 10       		.byte	16
  63 0010 00       		.byte	0
  64 0011 00       		.byte	0
  65 0012 BB       		.byte	-69
  66 0013 CB       		.byte	-53
  67 0014 03       		.byte	3
  68 0015 00       		.byte	0
  69 0016 BB       		.byte	-69
  70 0017 CB       		.byte	-53
  71              		.comm	peripAddr,7,4
  72              		.global	clientConnectToDevice
  73              		.bss
  74              		.type	clientConnectToDevice, %object
  75              		.size	clientConnectToDevice, 1
  76              	clientConnectToDevice:
  77 0003 00       		.space	1
  78              		.global	ble_gap_state
  79              		.data
  80              		.type	ble_gap_state, %object
  81              		.size	ble_gap_state, 1
  82              	ble_gap_state:
  83 0018 01       		.byte	1
  84              		.global	deviceConnected
  85              		.bss
  86              		.type	deviceConnected, %object
  87              		.size	deviceConnected, 1
  88              	deviceConnected:
  89 0004 00       		.space	1
  90              		.global	restartScanning
  91              		.type	restartScanning, %object
  92              		.size	restartScanning, 1
  93              	restartScanning:
  94 0005 00       		.space	1
  95              		.global	centralStartedTime
  96              		.align	1
  97              		.type	centralStartedTime, %object
  98              		.size	centralStartedTime, 2
  99              	centralStartedTime:
 100 0006 0000     		.space	2
 101              		.section	.rodata
 102              		.align	2
 103              	.LC1:
 104 0000 4359424C 		.ascii	"CYBLE_EVT_STACK_ON \000"
 104      455F4556 
 104      545F5354 
 104      41434B5F 
 104      4F4E2000 
 105              		.align	2
 106              	.LC3:
 107 0014 4359424C 		.ascii	"CYBLE_EVT_GAPP_ADVERTISEMENT_START_STOP \000"
 107      455F4556 
 107      545F4741 
 107      50505F41 
ARM GAS  C:\Users\dmytro\AppData\Local\Temp\ccjppNo8.s 			page 3


 107      44564552 
 108 003d 000000   		.align	2
 109              	.LC7:
 110 0040 52657374 		.ascii	"Restart Advertisement \000"
 110      61727420 
 110      41647665 
 110      72746973 
 110      656D656E 
 111 0057 00       		.align	2
 112              	.LC9:
 113 0058 4359424C 		.ascii	"CYBLE_EVT_GAPC_SCAN_START_STOP \000"
 113      455F4556 
 113      545F4741 
 113      50435F53 
 113      43414E5F 
 114              		.align	2
 115              	.LC11:
 116 0078 4359424C 		.ascii	"CYBLE_EVT_GATT_CONNECT_IND \000"
 116      455F4556 
 116      545F4741 
 116      54545F43 
 116      4F4E4E45 
 117              		.align	2
 118              	.LC13:
 119 0094 4359424C 		.ascii	"CYBLE_EVT_GATT_DISCONNECT_IND \000"
 119      455F4556 
 119      545F4741 
 119      54545F44 
 119      4953434F 
 120 00b3 00       		.align	2
 121              	.LC15:
 122 00b4 52474220 		.ascii	"RGB CYBLE_EVT_GATTS_WRITE_REQ \000"
 122      4359424C 
 122      455F4556 
 122      545F4741 
 122      5454535F 
 123 00d3 00       		.align	2
 124              	.LC21:
 125 00d4 696E6372 		.ascii	"incremented dataADVCounter value in CYBLE_EVT_GATTS"
 125      656D656E 
 125      74656420 
 125      64617461 
 125      41445643 
 126 0107 5F575249 		.ascii	"_WRITE_REQ= \000"
 126      54455F52 
 126      45513D20 
 126      00
 127              		.align	2
 128              	.LC23:
 129 0114 73776974 		.ascii	"switchRole to Central\000"
 129      6368526F 
 129      6C652074 
 129      6F204365 
 129      6E747261 
 130 012a 0000     		.align	2
 131              	.LC25:
 132 012c 64617461 		.ascii	"dataADVCounter from CYBLE_EVT_GATTS_WRITE_CMD_REQ ="
ARM GAS  C:\Users\dmytro\AppData\Local\Temp\ccjppNo8.s 			page 4


 132      41445643 
 132      6F756E74 
 132      65722066 
 132      726F6D20 
 133 015f 2000     		.ascii	" \000"
 134 0161 000000   		.align	2
 135              	.LC27:
 136 0164 4359424C 		.ascii	"CYBLE_EVT_GAPC_SCAN_PROGRESS_RESULT \000"
 136      455F4556 
 136      545F4741 
 136      50435F53 
 136      43414E5F 
 137 0189 000000   		.align	2
 138              	.LC33:
 139 018c 706F7465 		.ascii	"potential_node_found \000"
 139      6E746961 
 139      6C5F6E6F 
 139      64655F66 
 139      6F756E64 
 140 01a2 0000     		.align	2
 141              	.LC36:
 142 01a4 54697461 		.ascii	"Titan Found \000"
 142      6E20466F 
 142      756E6420 
 142      00
 143 01b1 000000   		.align	2
 144              	.LC38:
 145 01b4 53746F70 		.ascii	"Stop Scan called \000"
 145      20536361 
 145      6E206361 
 145      6C6C6564 
 145      2000
 146 01c6 0000     		.align	2
 147              	.LC44:
 148 01c8 44697265 		.ascii	"Directly write RGB using Attr handle \000"
 148      63746C79 
 148      20777269 
 148      74652052 
 148      47422075 
 149 01ee 0000     		.align	2
 150              	.LC46:
 151 01f0 4359424C 		.ascii	"CYBLE_EVT_GATTC_WRITE_RSP \000"
 151      455F4556 
 151      545F4741 
 151      5454435F 
 151      57524954 
 152 020b 00       		.align	2
 153              	.LC49:
 154 020c 44697363 		.ascii	"Disconnect from CYBLE_EVT_GATTC_WRITE_RSP \000"
 154      6F6E6E65 
 154      63742066 
 154      726F6D20 
 154      4359424C 
 155 0237 00       		.align	2
 156              	.LC51:
 157 0238 4359424C 		.ascii	"CYBLE_EVT_GAP_DEVICE_DISCONNECTED \000"
 157      455F4556 
ARM GAS  C:\Users\dmytro\AppData\Local\Temp\ccjppNo8.s 			page 5


 157      545F4741 
 157      505F4445 
 157      56494345 
 158 025b 00       		.align	2
 159              	.LC53:
 160 025c 52657374 		.ascii	"Restart Scanning \000"
 160      61727420 
 160      5363616E 
 160      6E696E67 
 160      2000
 161 026e 0000     		.align	2
 162              	.LC0:
 163 0270 FF       		.byte	-1
 164 0271 FF       		.byte	-1
 165 0272 FF       		.byte	-1
 166 0273 FF       		.byte	-1
 167              		.section	.text.GenericEventHandler,"ax",%progbits
 168              		.align	2
 169              		.global	GenericEventHandler
 170              		.code	16
 171              		.thumb_func
 172              		.type	GenericEventHandler, %function
 173              	GenericEventHandler:
 174              	.LFB35:
 175              		.file 1 "ble_process.c"
   1:ble_process.c **** /*******************************************************************************
   2:ble_process.c **** * File Name: ble_process.c
   3:ble_process.c **** *
   4:ble_process.c **** * Version: 1.0
   5:ble_process.c **** *
   6:ble_process.c **** * Description:
   7:ble_process.c **** * This file contains the definiton for BLE related functions, such as event handler,
   8:ble_process.c **** * GAP role switching, central scanning and connection to peripherals.
   9:ble_process.c **** *
  10:ble_process.c **** ********************************************************************************
  11:ble_process.c **** * Copyright 2015, Cypress Semiconductor Corporation.  All rights reserved.
  12:ble_process.c **** * You may use this file only in accordance with the license, terms, conditions,
  13:ble_process.c **** * disclaimers, and limitations in the end user license agreement accompanying
  14:ble_process.c **** * the software package with which this file was provided.
  15:ble_process.c **** *******************************************************************************/
  16:ble_process.c **** #include <main.h>
  17:ble_process.c **** 
  18:ble_process.c **** uint8 RGBData[4];
  19:ble_process.c **** uint8 dataADVCounter = 1;
  20:ble_process.c **** uint8 switch_Role = FALSE;
  21:ble_process.c **** 
  22:ble_process.c **** #ifdef ENABLE_ADV_DATA_COUNTER
  23:ble_process.c **** CYBLE_GAPP_DISC_DATA_T  new_advData;
  24:ble_process.c **** uint8 potential_node_found = 0;
  25:ble_process.c **** uint8 potential_node_bdAddr[6];
  26:ble_process.c **** uint8 potential_node_bdAddrType = 0;
  27:ble_process.c **** #endif
  28:ble_process.c **** 
  29:ble_process.c **** uint8 scan_tag[SCAN_TAG_DATA_LEN] = {0x13, 0x21, 0x31, 0x01, 0x9B, 0x5F, 0x80, 0x00,
  30:ble_process.c **** 									0x00, 0x80, 0x00, 0x10, 0x00, 0x00, 0xBB, 0xCB, 
  31:ble_process.c **** 									0x03, 0x00, 0xBB, 0xCB};
  32:ble_process.c **** 
ARM GAS  C:\Users\dmytro\AppData\Local\Temp\ccjppNo8.s 			page 6


  33:ble_process.c **** CYBLE_GAP_BD_ADDR_T				peripAddr;
  34:ble_process.c **** uint8 clientConnectToDevice = FALSE;
  35:ble_process.c **** uint8 ble_gap_state = BLE_PERIPHERAL;
  36:ble_process.c **** 
  37:ble_process.c **** uint8 deviceConnected = FALSE;
  38:ble_process.c **** uint8 restartScanning = FALSE;
  39:ble_process.c **** volatile uint16 centralStartedTime = 0;
  40:ble_process.c **** 
  41:ble_process.c **** /*******************************************************************************
  42:ble_process.c **** * Function Name: GenericEventHandler
  43:ble_process.c **** ********************************************************************************
  44:ble_process.c **** * Summary:
  45:ble_process.c **** *        Event handler function for the BLE stack. All the events by BLE stack
  46:ble_process.c **** * are received by application through this function. For this, CyBle_ProcessEvents()
  47:ble_process.c **** * should be called continuously in main loop.
  48:ble_process.c **** *
  49:ble_process.c **** * Parameters:
  50:ble_process.c **** *  event: 		event value
  51:ble_process.c **** *  eventParame: pointer to the location where relevant event data is stored
  52:ble_process.c **** *
  53:ble_process.c **** * Return:
  54:ble_process.c **** *  void
  55:ble_process.c **** *
  56:ble_process.c **** *******************************************************************************/
  57:ble_process.c **** void GenericEventHandler(uint32 event, void * eventParam)
  58:ble_process.c **** {
 176              		.loc 1 58 0
 177              		.cfi_startproc
 178              		@ args = 0, pretend = 0, frame = 96
 179              		@ frame_needed = 1, uses_anonymous_args = 0
 180 0000 90B5     		push	{r4, r7, lr}
 181              		.cfi_def_cfa_offset 12
 182              		.cfi_offset 4, -12
 183              		.cfi_offset 7, -8
 184              		.cfi_offset 14, -4
 185 0002 99B0     		sub	sp, sp, #100
 186              		.cfi_def_cfa_offset 112
 187 0004 00AF     		add	r7, sp, #0
 188              		.cfi_def_cfa_register 7
 189 0006 7860     		str	r0, [r7, #4]
 190 0008 3960     		str	r1, [r7]
  59:ble_process.c **** 	/* Local variables and data structures*/
  60:ble_process.c **** 	CYBLE_GATTS_WRITE_REQ_PARAM_T 		writeReqData;
  61:ble_process.c **** 	CYBLE_GATTC_WRITE_REQ_T				writeADVcounterdata;
  62:ble_process.c **** 	CYBLE_GAPC_ADV_REPORT_T				scan_report;
  63:ble_process.c **** 	CYBLE_GATTS_WRITE_CMD_REQ_PARAM_T	writeCmdData;
  64:ble_process.c **** 	CYBLE_API_RESULT_T					apiResult;
  65:ble_process.c **** 	CYBLE_GATTC_WRITE_REQ_T 			writeRGBdata;
  66:ble_process.c **** 	
  67:ble_process.c **** 	switch(event)
 191              		.loc 1 67 0
 192 000a 7B68     		ldr	r3, [r7, #4]
 193 000c 2B2B     		cmp	r3, #43
 194 000e 5AD0     		beq	.L3
 195 0010 0FD8     		bhi	.L4
 196 0012 262B     		cmp	r3, #38
 197 0014 2BD0     		beq	.L5
ARM GAS  C:\Users\dmytro\AppData\Local\Temp\ccjppNo8.s 			page 7


 198 0016 05D8     		bhi	.L6
 199 0018 012B     		cmp	r3, #1
 200 001a 1DD0     		beq	.L7
 201 001c 202B     		cmp	r3, #32
 202 001e 00D1     		bne	.LCB27
 203 0020 31E1     		b	.L8	@long jump
 204              	.LCB27:
  68:ble_process.c **** 	{
  69:ble_process.c **** 		case CYBLE_EVT_STACK_ON:
  70:ble_process.c **** 			#ifdef DEBUG_ENABLED
  71:ble_process.c **** 			UART_UartPutString("CYBLE_EVT_STACK_ON ");
  72:ble_process.c **** 			UART_UartPutCRLF(' ');
  73:ble_process.c **** 			#endif
  74:ble_process.c **** 			/* At the start of the BLE stack, start advertisement */
  75:ble_process.c **** 			CyBle_GappStartAdvertisement(CYBLE_ADVERTISING_FAST);
  76:ble_process.c **** 		break;
  77:ble_process.c **** 			
  78:ble_process.c **** 		case CYBLE_EVT_GAPP_ADVERTISEMENT_START_STOP:
  79:ble_process.c **** 			/* This event is received at every start or stop of peripheral advertisement*/
  80:ble_process.c **** 			#ifdef DEBUG_ENABLED
  81:ble_process.c **** 			UART_UartPutString("CYBLE_EVT_GAPP_ADVERTISEMENT_START_STOP ");
  82:ble_process.c **** 			SendBLEStatetoUART(CyBle_GetState());
  83:ble_process.c **** 			UART_UartPutCRLF(' ');
  84:ble_process.c **** 			#endif
  85:ble_process.c **** 			
  86:ble_process.c **** 			if((CYBLE_STATE_DISCONNECTED == CyBle_GetState()) && (switch_Role == FALSE))
  87:ble_process.c **** 			{
  88:ble_process.c **** 				/* If the current state of the BLE is Disconnected, then restart advertisement.
  89:ble_process.c **** 				* Note that the advertisement should only be restarted if the switch flag is not
  90:ble_process.c **** 				* TRUE. If switch role flag is TRUE, then there is no need to start advertisement
  91:ble_process.c **** 				* as the GAP role has to be switched*/
  92:ble_process.c **** 				CyBle_GappStartAdvertisement(CYBLE_ADVERTISING_FAST);	
  93:ble_process.c **** 				
  94:ble_process.c **** 				if(apiResult == CYBLE_ERROR_OK)
  95:ble_process.c **** 				{
  96:ble_process.c **** 					#ifdef DEBUG_ENABLED
  97:ble_process.c **** 					UART_UartPutString("Restart Advertisement ");
  98:ble_process.c **** 					SendBLEStatetoUART(CyBle_GetState());
  99:ble_process.c **** 					UART_UartPutCRLF(' ');
 100:ble_process.c **** 					#endif
 101:ble_process.c **** 				}
 102:ble_process.c **** 			}
 103:ble_process.c **** 		break;
 104:ble_process.c **** 			
 105:ble_process.c **** 		case CYBLE_EVT_GAPC_SCAN_START_STOP:
 106:ble_process.c **** 			/* This event is received at every start or stop of central scanning*/
 107:ble_process.c **** 			#ifdef DEBUG_ENABLED
 108:ble_process.c **** 			UART_UartPutString("CYBLE_EVT_GAPC_SCAN_START_STOP ");
 109:ble_process.c **** 			SendBLEStatetoUART(CyBle_GetState());
 110:ble_process.c **** 			UART_UartPutCRLF(' ');
 111:ble_process.c **** 			#endif
 112:ble_process.c **** 		break;
 113:ble_process.c **** 			
 114:ble_process.c **** 		case CYBLE_EVT_GATT_CONNECT_IND:
 115:ble_process.c **** 			/* This event is received at GATT connection with a device. This event
 116:ble_process.c **** 			* is received for both Client or Server role */
 117:ble_process.c **** 			#ifdef DEBUG_ENABLED
ARM GAS  C:\Users\dmytro\AppData\Local\Temp\ccjppNo8.s 			page 8


 118:ble_process.c **** 			UART_UartPutString("CYBLE_EVT_GATT_CONNECT_IND ");
 119:ble_process.c **** 			UART_UartPutCRLF(' ');
 120:ble_process.c **** 			#endif
 121:ble_process.c **** 		break;
 122:ble_process.c **** 		
 123:ble_process.c **** 		case CYBLE_EVT_GATT_DISCONNECT_IND:
 124:ble_process.c **** 			/* This event is received at GATT disconnection with a device. This event
 125:ble_process.c **** 			* is received for both Client or Server role */
 126:ble_process.c **** 			#ifdef DEBUG_ENABLED
 127:ble_process.c **** 			UART_UartPutString("CYBLE_EVT_GATT_DISCONNECT_IND ");
 128:ble_process.c **** 			UART_UartPutCRLF(' ');
 129:ble_process.c **** 			#endif
 130:ble_process.c **** 		break;
 131:ble_process.c **** 			
 132:ble_process.c **** 		case CYBLE_EVT_GATTS_WRITE_REQ:
 133:ble_process.c **** 			/* This event is received at when Server receives a Write request from
 134:ble_process.c **** 			* connected Client device */
 135:ble_process.c **** 			/* Save the associated event parameter in local variable */
 136:ble_process.c **** 			writeReqData = *(CYBLE_GATTS_WRITE_REQ_PARAM_T*)eventParam;
 137:ble_process.c **** 
 138:ble_process.c **** 			if(writeReqData.handleValPair.attrHandle == CYBLE_RGB_LED_CONTROL_CHAR_HANDLE)
 139:ble_process.c **** 			{
 140:ble_process.c **** 				/* If the Write request is on RGB LED Control Characteristic, then Client is 
 141:ble_process.c **** 				* trying to set a new color to the device. */
 142:ble_process.c **** 				if(writeReqData.handleValPair.value.len == RGB_LED_DATA_LEN)
 143:ble_process.c **** 				{
 144:ble_process.c **** 					#ifdef DEBUG_ENABLED
 145:ble_process.c **** 						UART_UartPutString("RGB CYBLE_EVT_GATTS_WRITE_REQ ");
 146:ble_process.c **** 						UART_UartPutCRLF(' ');
 147:ble_process.c **** 					#endif
 148:ble_process.c **** 					
 149:ble_process.c **** 					/* Extract the four bytes containing the color value and store it */
 150:ble_process.c **** 					RGBData[RGB_RED_INDEX] = writeReqData.handleValPair.value.val[0];
 151:ble_process.c **** 					RGBData[RGB_GREEN_INDEX] = writeReqData.handleValPair.value.val[1];
 152:ble_process.c **** 					RGBData[RGB_BLUE_INDEX] = writeReqData.handleValPair.value.val[2];
 153:ble_process.c **** 					RGBData[RGB_INTENSITY_INDEX] = writeReqData.handleValPair.value.val[3];
 154:ble_process.c **** 					
 155:ble_process.c ****                     uint8 RGB_Collection[4] = {0xFF, 0xFF, 0xFF, 0xFF};
 156:ble_process.c ****                     RGBData[RGB_RED_INDEX] = RGB_Collection[0];
 157:ble_process.c ****                     RGBData[RGB_BLUE_INDEX] = RGB_Collection[1];
 158:ble_process.c ****                     RGBData[RGB_GREEN_INDEX] = RGB_Collection[2];
 159:ble_process.c ****                     RGBData[RGB_INTENSITY_INDEX] = RGB_Collection[3];
 160:ble_process.c ****                     
 161:ble_process.c **** 					/* Modify RGB Color my configuring the PrISM components with new density 
 162:ble_process.c **** 					* value*/
 163:ble_process.c **** 					UpdateRGBled(RGBData, RGB_LED_DATA_LEN);
 164:ble_process.c **** 					
 165:ble_process.c **** 					/* Update the RGB LED Control characteristic in GATT DB  to allow
 166:ble_process.c **** 					* Client to read the latest RGB LED color value set */
 167:ble_process.c **** 					CyBle_GattsWriteAttributeValue(&writeReqData.handleValPair,0,&cyBle_connHandle,CYBLE_GATT_DB_L
 168:ble_process.c **** 							
 169:ble_process.c **** 					#ifdef ENABLE_ADV_DATA_COUNTER
 170:ble_process.c **** 					/* Increment the ADV data counter so that scanning Central device knows
 171:ble_process.c **** 					* if this device has updated RGB LED data or not */
 172:ble_process.c **** 					dataADVCounter++;
 173:ble_process.c **** 					#endif
 174:ble_process.c **** 					
ARM GAS  C:\Users\dmytro\AppData\Local\Temp\ccjppNo8.s 			page 9


 175:ble_process.c **** 					#ifdef DEBUG_ENABLED
 176:ble_process.c **** 					UART_UartPutString("incremented dataADVCounter value in CYBLE_EVT_GATTS_WRITE_REQ= ");
 177:ble_process.c **** 					PrintNum(dataADVCounter);
 178:ble_process.c **** 					UART_UartPutCRLF(' ');
 179:ble_process.c **** 					#endif
 180:ble_process.c **** 					
 181:ble_process.c **** 					/* After receiveing the color value, set the switch role flag to allow the system
 182:ble_process.c **** 					* to switch role to Central role */
 183:ble_process.c **** 					switch_Role = TRUE;
 184:ble_process.c **** 					
 185:ble_process.c **** 					#ifdef DEBUG_ENABLED
 186:ble_process.c **** 					UART_UartPutString("switchRole to Central");
 187:ble_process.c **** 					UART_UartPutCRLF(' ');
 188:ble_process.c **** 					#endif
 189:ble_process.c **** 				}
 190:ble_process.c **** 				else
 191:ble_process.c **** 				{
 192:ble_process.c **** 					/* Send the error code for invalid attribute length packet */
 193:ble_process.c **** 					SendErrorCode(CYBLE_GATT_WRITE_REQ, 
 194:ble_process.c **** 									writeReqData.handleValPair.attrHandle, 
 195:ble_process.c **** 									ERR_INVALID_ATT_LEN);
 196:ble_process.c **** 					
 197:ble_process.c **** 					return;
 198:ble_process.c **** 				}
 199:ble_process.c **** 			}
 200:ble_process.c **** 
 201:ble_process.c **** 			/* As part of every write request, the server needs to send a write response. Note
 202:ble_process.c **** 			* that this will be sent only if all the application layer conditions are met on a 
 203:ble_process.c **** 			* write request. Else, an appropriate error code is sent. */
 204:ble_process.c **** 	        CyBle_GattsWriteRsp(cyBle_connHandle);
 205:ble_process.c **** 		break;
 206:ble_process.c **** 			
 207:ble_process.c **** 		case CYBLE_EVT_GATTS_WRITE_CMD_REQ:
 208:ble_process.c **** 			/* This event is generated whenever a Client device sends a Write Command (Write 
 209:ble_process.c **** 			* without response) to a connected Server. Save the associated event parameter in
 210:ble_process.c **** 			* local variable. */
 211:ble_process.c **** 			writeCmdData = *(CYBLE_GATTS_WRITE_CMD_REQ_PARAM_T*)eventParam;
 212:ble_process.c **** 			
 213:ble_process.c **** 			/* Check if the Write command is for ADV Data counter characteristic */
 214:ble_process.c **** 			if(writeCmdData.handleValPair.attrHandle == CYBLE_RGB_DATA_COUNT_CHAR_HANDLE)
 215:ble_process.c **** 			{
 216:ble_process.c **** 				/* If the data sent is of one byte, then proceed. */
 217:ble_process.c **** 				if(writeCmdData.handleValPair.value.len == 1)
 218:ble_process.c **** 				{
 219:ble_process.c **** 					/* Extract and save the set ADV data counter value */
 220:ble_process.c **** 					dataADVCounter = *(writeCmdData.handleValPair.value.val);	
 221:ble_process.c **** 					
 222:ble_process.c **** 					/* This increment is done to balance the ++ done as part of CYBLE_EVT_GATTS_WRITE_REQ */
 223:ble_process.c **** 					dataADVCounter--;
 224:ble_process.c **** 					
 225:ble_process.c **** 					/* Update the ADV data counter characteristic in GATT DB  to allow
 226:ble_process.c **** 					* Client to read the latest ADV data counter value */
 227:ble_process.c **** 					CyBle_GattsWriteAttributeValue(&writeCmdData.handleValPair,
 228:ble_process.c **** 													0,
 229:ble_process.c **** 													&cyBle_connHandle,
 230:ble_process.c **** 													CYBLE_GATT_DB_LOCALLY_INITIATED);
 231:ble_process.c **** 
ARM GAS  C:\Users\dmytro\AppData\Local\Temp\ccjppNo8.s 			page 10


 232:ble_process.c **** 					#ifdef DEBUG_ENABLED
 233:ble_process.c **** 					UART_UartPutString("dataADVCounter from CYBLE_EVT_GATTS_WRITE_CMD_REQ = ");
 234:ble_process.c **** 					PrintNum(dataADVCounter);
 235:ble_process.c **** 					UART_UartPutCRLF(' ');
 236:ble_process.c **** 					#endif
 237:ble_process.c **** 				}	/* if(writeCmdData.handleValPair.value.len == 1) */
 238:ble_process.c **** 			}
 239:ble_process.c **** 			break;
 240:ble_process.c **** 		
 241:ble_process.c **** 		case CYBLE_EVT_GAPC_SCAN_PROGRESS_RESULT:
 242:ble_process.c **** 			/* This event is generated whenever there is a peripheral device found by 
 243:ble_process.c **** 			* while scanning */
 244:ble_process.c **** 			if(CYBLE_STATE_CONNECTED != CyBle_GetState())	
 245:ble_process.c **** 			{
 246:ble_process.c **** 				/* If we are not connected to any peripheral device, then save the new device  
 247:ble_process.c **** 				* information so to add it to our list */
 248:ble_process.c **** 				scan_report = *(CYBLE_GAPC_ADV_REPORT_T*)eventParam;
 249:ble_process.c **** 				
 250:ble_process.c **** 				#ifdef DEBUG_ENABLED
 251:ble_process.c **** 					UART_UartPutString("CYBLE_EVT_GAPC_SCAN_PROGRESS_RESULT ");
 252:ble_process.c **** 					UART_UartPutCRLF(' ');
 253:ble_process.c **** 				#endif
 254:ble_process.c **** 				
 255:ble_process.c **** 				#ifdef ENABLE_ADV_DATA_COUNTER
 256:ble_process.c **** 				/* If ADV DATA COUNTER is enabled, then the central device would check
 257:ble_process.c **** 				* if the counter in ADV packet of peripheral is less than its own counter
 258:ble_process.c **** 				* or not. If yes, then it will consider the peripheral as a potential 
 259:ble_process.c **** 				* device to connect to.*/
 260:ble_process.c **** 				if(scan_report.eventType == CYBLE_GAPC_CONN_UNDIRECTED_ADV)
 261:ble_process.c **** 				{
 262:ble_process.c **** 					/* If the scan report received is of advertising nature and the data 
 263:ble_process.c **** 					* length is as expected... */
 264:ble_process.c **** 					if(scan_report.dataLen == new_advData.advDataLen)
 265:ble_process.c **** 					{
 266:ble_process.c **** 						/* If the second last value of the advertising data matches the custom 
 267:ble_process.c **** 						* marker, then the peripheral is a node of the network */
 268:ble_process.c **** 						if(scan_report.data[scan_report.dataLen-2] == CUSTOM_ADV_DATA_MARKER)
 269:ble_process.c **** 						{
 270:ble_process.c **** 							/* If the ADV counter data in Advertising data is less than that of
 271:ble_process.c **** 							* the value in this scanning device, then the node is a potential node 
 272:ble_process.c **** 							* whose color has to be updated. */
 273:ble_process.c **** 							if((scan_report.data[scan_report.dataLen-1] < dataADVCounter) ||
 274:ble_process.c **** 							((scan_report.data[scan_report.dataLen-1] == 255) && (dataADVCounter == 0)))
 275:ble_process.c **** 							{
 276:ble_process.c **** 								/* Potential node found*/
 277:ble_process.c **** 								potential_node_found = TRUE;
 278:ble_process.c **** 								/* Save the advertising peripheral address and type*/
 279:ble_process.c **** 								memcpy(potential_node_bdAddr, scan_report.peerBdAddr, 6);
 280:ble_process.c **** 								potential_node_bdAddrType = scan_report.peerAddrType;
 281:ble_process.c **** 								
 282:ble_process.c **** 								#ifdef DEBUG_ENABLED
 283:ble_process.c **** 								UART_UartPutString("potential_node_found ");
 284:ble_process.c **** 								UART_UartPutCRLF(' ');
 285:ble_process.c **** 								#endif
 286:ble_process.c **** 							}
 287:ble_process.c **** 							else
 288:ble_process.c **** 							{
ARM GAS  C:\Users\dmytro\AppData\Local\Temp\ccjppNo8.s 			page 11


 289:ble_process.c **** 								/* If the ADV data counter is equal or more than the data counter
 290:ble_process.c **** 								* in this scanning device, then the node has latest RGB LED data
 291:ble_process.c **** 								* and does not need to be connected to. Reset the potential node 
 292:ble_process.c **** 								* address */
 293:ble_process.c **** 								potential_node_found = FALSE;
 294:ble_process.c **** 								
 295:ble_process.c **** 								potential_node_bdAddrType = 0;
 296:ble_process.c **** 								
 297:ble_process.c **** 								potential_node_bdAddr[0] = 0x00;
 298:ble_process.c **** 								potential_node_bdAddr[1] = 0x00;
 299:ble_process.c **** 								potential_node_bdAddr[2] = 0x00;
 300:ble_process.c **** 								potential_node_bdAddr[3] = 0x00;
 301:ble_process.c **** 								potential_node_bdAddr[4] = 0x00;
 302:ble_process.c **** 								potential_node_bdAddr[5] = 0x00;
 303:ble_process.c **** 							}
 304:ble_process.c **** 						}
 305:ble_process.c **** 					}
 306:ble_process.c **** 				}
 307:ble_process.c **** 				#endif
 308:ble_process.c **** 				
 309:ble_process.c **** 				/* If the received scan data is part of scan response from a peripheral... */
 310:ble_process.c **** 				if(scan_report.eventType == CYBLE_GAPC_SCAN_RSP)
 311:ble_process.c **** 				{
 312:ble_process.c **** 					/* If the data lenght of the scan reponse packet is equal to expected
 313:ble_process.c **** 					* scan response data lenght...*/
 314:ble_process.c **** 					if(scan_report.dataLen == SCAN_TAG_DATA_LEN)
 315:ble_process.c **** 					{
 316:ble_process.c **** 						#ifdef ENABLE_ADV_DATA_COUNTER
 317:ble_process.c **** 						/* If a potential node had been found earlier as part of received 
 318:ble_process.c **** 						* advertising data, then compare the address of stored potential 
 319:ble_process.c **** 						* node and received address of the scan response */
 320:ble_process.c **** 						if(potential_node_found)
 321:ble_process.c **** 						{
 322:ble_process.c **** 							/* Compare the two addresses and type */
 323:ble_process.c **** 							if((!memcmp(scan_report.peerBdAddr, potential_node_bdAddr, 6))  
 324:ble_process.c **** 								&& (potential_node_bdAddrType == scan_report.peerAddrType))
 325:ble_process.c **** 							{
 326:ble_process.c **** 						#endif
 327:ble_process.c **** 								/* If the scan report data matches the expected data (scan_tag),
 328:ble_process.c **** 								* then it is our desired node */
 329:ble_process.c **** 								if(!memcmp(scan_report.data, scan_tag, scan_report.dataLen))
 330:ble_process.c **** 								{
 331:ble_process.c **** 									#ifdef DEBUG_ENABLED
 332:ble_process.c **** 									UART_UartPutString("Titan Found ");
 333:ble_process.c **** 									UART_UartPutCRLF(' ');
 334:ble_process.c **** 									#endif
 335:ble_process.c **** 									/* Stop existing scan */
 336:ble_process.c **** 									CyBle_GapcStopScan();
 337:ble_process.c **** 									#ifdef DEBUG_ENABLED
 338:ble_process.c **** 									UART_UartPutString("Stop Scan called ");
 339:ble_process.c **** 									UART_UartPutCRLF(' ');
 340:ble_process.c **** 									#endif
 341:ble_process.c **** 									
 342:ble_process.c **** 									/* Save the peripheral BD address and type*/
 343:ble_process.c **** 									peripAddr.type = scan_report.peerAddrType;
 344:ble_process.c **** 									peripAddr.bdAddr[0] = scan_report.peerBdAddr[0];
 345:ble_process.c **** 									peripAddr.bdAddr[1] = scan_report.peerBdAddr[1];
ARM GAS  C:\Users\dmytro\AppData\Local\Temp\ccjppNo8.s 			page 12


 346:ble_process.c **** 									peripAddr.bdAddr[2] = scan_report.peerBdAddr[2];
 347:ble_process.c **** 									peripAddr.bdAddr[3] = scan_report.peerBdAddr[3];
 348:ble_process.c **** 									peripAddr.bdAddr[4] = scan_report.peerBdAddr[4];
 349:ble_process.c **** 									peripAddr.bdAddr[5] = scan_report.peerBdAddr[5];
 350:ble_process.c **** 
 351:ble_process.c **** 									/* Set the flag to allow application to connect to the
 352:ble_process.c **** 									* peripheral found */
 353:ble_process.c **** 									clientConnectToDevice = TRUE;
 354:ble_process.c **** 									
 355:ble_process.c **** 									#ifdef ENABLE_ADV_DATA_COUNTER
 356:ble_process.c **** 									/* Reset the potential node flag*/
 357:ble_process.c **** 									potential_node_found = FALSE;
 358:ble_process.c **** 									#endif
 359:ble_process.c **** 								}
 360:ble_process.c **** 						#ifdef ENABLE_ADV_DATA_COUNTER
 361:ble_process.c **** 							}
 362:ble_process.c **** 						}
 363:ble_process.c **** 						#endif
 364:ble_process.c **** 					}
 365:ble_process.c **** 				}
 366:ble_process.c **** 			}
 367:ble_process.c **** 
 368:ble_process.c **** 		break;
 369:ble_process.c **** 			
 370:ble_process.c **** 		case CYBLE_EVT_GAP_DEVICE_CONNECTED:
 371:ble_process.c **** 			/* This event is received whenever the device connect on GAP layer */
 372:ble_process.c **** 			if(ble_gap_state == BLE_CENTRAL)
 373:ble_process.c **** 			{
 374:ble_process.c **** 				#ifdef ENABLE_CENTRAL_DISCOVERY
 375:ble_process.c **** 					/* The Device is connected now. Start Attributes discovery process.*/
 376:ble_process.c **** 					CyBle_GattcStartDiscovery(cyBle_connHandle);
 377:ble_process.c **** 					#ifdef DEBUG_ENABLED
 378:ble_process.c **** 						UART_UartPutString("CYBLE_EVT_GAP_DEVICE_CONNECTED ");
 379:ble_process.c **** 						SendBLEStatetoUART(CyBle_GetState());
 380:ble_process.c **** 						UART_UartPutCRLF(' ');
 381:ble_process.c **** 					#endif
 382:ble_process.c **** 				#else
 383:ble_process.c **** 					/* If this system is currently acting in Central role and has connected
 384:ble_process.c **** 					* to a peripheral device, then write directly the ADV counter data and
 385:ble_process.c **** 					* RGB LED control data using attribute handles */
 386:ble_process.c **** 					
 387:ble_process.c **** 					/* Set the device connected flag */
 388:ble_process.c **** 					deviceConnected = TRUE;
 389:ble_process.c **** 					
 390:ble_process.c **** 					#ifdef DEBUG_ENABLED
 391:ble_process.c **** 						UART_UartPutString("Directly write RGB using Attr handle ");
 392:ble_process.c **** 						SendBLEStatetoUART(CyBle_GetState());
 393:ble_process.c **** 						UART_UartPutCRLF(' ');
 394:ble_process.c **** 					#endif
 395:ble_process.c **** 					
 396:ble_process.c **** 					/* Write the Data Counter value */
 397:ble_process.c **** 					writeADVcounterdata.attrHandle = CYBLE_RGB_DATA_COUNT_CHAR_HANDLE;
 398:ble_process.c **** 					writeADVcounterdata.value.val = &dataADVCounter;
 399:ble_process.c **** 					writeADVcounterdata.value.len = 1;
 400:ble_process.c **** 					CyBle_GattcWriteWithoutResponse(cyBle_connHandle, &writeADVcounterdata);
 401:ble_process.c **** 				    
 402:ble_process.c **** 					/* Write the RGB LED Value */
ARM GAS  C:\Users\dmytro\AppData\Local\Temp\ccjppNo8.s 			page 13


 403:ble_process.c **** 					writeRGBdata.attrHandle = CYBLE_RGB_LED_CONTROL_CHAR_HANDLE;
 404:ble_process.c **** 					writeRGBdata.value.val = RGBData;
 405:ble_process.c **** 					writeRGBdata.value.len = RGB_LED_DATA_LEN;
 406:ble_process.c **** 					CyBle_GattcWriteCharacteristicValue(cyBle_connHandle, &writeRGBdata);
 407:ble_process.c **** 				#endif
 408:ble_process.c **** 			}	
 409:ble_process.c ****         break;
 410:ble_process.c **** 			
 411:ble_process.c **** 		case CYBLE_EVT_GATTC_DISCOVERY_COMPLETE:
 412:ble_process.c **** 			/* This event is generated whenever the discovery procedure is complete*/
 413:ble_process.c **** 			
 414:ble_process.c **** 			#ifdef ENABLE_CENTRAL_DISCOVERY
 415:ble_process.c **** 			deviceConnected = TRUE;
 416:ble_process.c **** 			#ifdef DEBUG_ENABLED
 417:ble_process.c **** 				UART_UartPutString("CYBLE_EVT_GATTC_DISCOVERY_COMPLETE ");
 418:ble_process.c **** 				SendBLEStatetoUART(CyBle_GetState());
 419:ble_process.c **** 				UART_UartPutCRLF(' ');
 420:ble_process.c **** 			#endif
 421:ble_process.c **** 			
 422:ble_process.c **** 			/* Write the Data Counter value */
 423:ble_process.c **** 			writeADVcounterdata.attrHandle = CYBLE_RGB_DATA_COUNT_CHAR_HANDLE;
 424:ble_process.c **** 			writeADVcounterdata.value.val = &dataADVCounter;
 425:ble_process.c **** 			writeADVcounterdata.value.len = 1;
 426:ble_process.c **** 			CyBle_GattcWriteWithoutResponse(cyBle_connHandle, &writeADVcounterdata);
 427:ble_process.c **** 		
 428:ble_process.c **** 			/* Write the RGB LED Value */
 429:ble_process.c **** 			writeRGBdata.attrHandle = CYBLE_RGB_LED_CONTROL_CHAR_HANDLE;
 430:ble_process.c **** 			writeRGBdata.value.val = RGBData;
 431:ble_process.c **** 			writeRGBdata.value.len = RGB_LED_DATA_LEN;
 432:ble_process.c **** 			CyBle_GattcWriteCharacteristicValue(cyBle_connHandle, &writeRGBdata);
 433:ble_process.c **** 			#endif
 434:ble_process.c **** 		break;
 435:ble_process.c **** 			
 436:ble_process.c **** 		case CYBLE_EVT_GATTC_WRITE_RSP:
 437:ble_process.c **** 			/* This event is generated when the Client device receives a response
 438:ble_process.c **** 			* as part of the Write request sent earlier. This indicates that
 439:ble_process.c **** 			* the RGB LED data was written successfully */
 440:ble_process.c **** 			#ifdef DEBUG_ENABLED
 441:ble_process.c **** 				UART_UartPutString("CYBLE_EVT_GATTC_WRITE_RSP ");
 442:ble_process.c **** 				SendBLEStatetoUART(CyBle_GetState());
 443:ble_process.c **** 				UART_UartPutCRLF(' ');
 444:ble_process.c **** 			#endif
 445:ble_process.c **** 			
 446:ble_process.c **** 			/* Disconnect the existing connection and restart scanning */
 447:ble_process.c **** 			if((cyBle_connHandle.bdHandle != 0))
 448:ble_process.c **** 			{
 449:ble_process.c **** 				CyBle_GapDisconnect(cyBle_connHandle.bdHandle);
 450:ble_process.c **** 				
 451:ble_process.c **** 				restartScanning = TRUE;
 452:ble_process.c **** 				#ifdef DEBUG_ENABLED
 453:ble_process.c **** 				UART_UartPutString("Disconnect from CYBLE_EVT_GATTC_WRITE_RSP ");
 454:ble_process.c **** 				SendBLEStatetoUART(CyBle_GetState());
 455:ble_process.c **** 				UART_UartPutCRLF(' ');
 456:ble_process.c **** 				#endif
 457:ble_process.c **** 			}
 458:ble_process.c **** 		break;
 459:ble_process.c **** 
ARM GAS  C:\Users\dmytro\AppData\Local\Temp\ccjppNo8.s 			page 14


 460:ble_process.c **** 		case CYBLE_EVT_GAP_DEVICE_DISCONNECTED:
 461:ble_process.c **** 			/* This event is generated when the device disconnects from an 
 462:ble_process.c **** 			* existing connection */
 463:ble_process.c **** 			deviceConnected = FALSE;
 464:ble_process.c **** 			
 465:ble_process.c **** 			#ifdef DEBUG_ENABLED
 466:ble_process.c **** 				UART_UartPutString("CYBLE_EVT_GAP_DEVICE_DISCONNECTED ");
 467:ble_process.c **** 				SendBLEStatetoUART(CyBle_GetState());
 468:ble_process.c **** 				UART_UartPutCRLF(' ');
 469:ble_process.c **** 			#endif
 470:ble_process.c **** 			
 471:ble_process.c **** 			if((ble_gap_state == BLE_PERIPHERAL) && (switch_Role != TRUE))
 472:ble_process.c **** 			{
 473:ble_process.c **** 				/* If the current role of this system was Peripheral and the role
 474:ble_process.c **** 				* is not to be switched, then restart advertisement */
 475:ble_process.c **** 				if(CYBLE_STATE_DISCONNECTED == CyBle_GetState())
 476:ble_process.c **** 				{
 477:ble_process.c **** 					CyBle_GappStartAdvertisement(CYBLE_ADVERTISING_FAST);	
 478:ble_process.c **** 					#ifdef DEBUG_ENABLED
 479:ble_process.c **** 					UART_UartPutString("Restart Advertisement ");
 480:ble_process.c **** 					SendBLEStatetoUART(CyBle_GetState());
 481:ble_process.c **** 					UART_UartPutCRLF(' ');
 482:ble_process.c **** 					#endif
 483:ble_process.c **** 				}
 484:ble_process.c **** 			}
 485:ble_process.c **** 			else if((ble_gap_state == BLE_CENTRAL) && (switch_Role != TRUE))
 486:ble_process.c **** 			{
 487:ble_process.c **** 				/* If the current role of this system was Central and the role
 488:ble_process.c **** 				* is not to be switched, then restart scanning */
 489:ble_process.c **** 				if(CYBLE_STATE_DISCONNECTED == CyBle_GetState())
 490:ble_process.c **** 				{
 491:ble_process.c **** 					CyBle_GapcStartScan(CYBLE_SCANNING_FAST);	
 492:ble_process.c **** 					#ifdef DEBUG_ENABLED
 493:ble_process.c **** 					UART_UartPutString("Restart Scanning ");
 494:ble_process.c **** 					SendBLEStatetoUART(CyBle_GetState());
 495:ble_process.c **** 					UART_UartPutCRLF(' ');
 496:ble_process.c **** 					#endif
 497:ble_process.c **** 				}	
 498:ble_process.c **** 			}
 499:ble_process.c **** 		break;
 500:ble_process.c **** 			
 501:ble_process.c **** 		default:
 502:ble_process.c **** 			eventParam = eventParam;
 503:ble_process.c **** 		break;
 205              		.loc 1 503 0
 206 0022 10E3     		b	.L1
 207              	.L6:
  67:ble_process.c **** 	{
 208              		.loc 1 67 0
 209 0024 272B     		cmp	r3, #39
 210 0026 00D1     		bne	.LCB33
 211 0028 46E2     		b	.L9	@long jump
 212              	.LCB33:
 213 002a 282B     		cmp	r3, #40
 214 002c 00D1     		bne	.LCB35
 215 002e B5E2     		b	.L10	@long jump
 216              	.LCB35:
ARM GAS  C:\Users\dmytro\AppData\Local\Temp\ccjppNo8.s 			page 15


 217              		.loc 1 503 0
 218 0030 09E3     		b	.L1
 219              	.L4:
  67:ble_process.c **** 	{
 220              		.loc 1 67 0
 221 0032 4C2B     		cmp	r3, #76
 222 0034 64D0     		beq	.L11
 223 0036 04D8     		bhi	.L12
 224 0038 412B     		cmp	r3, #65
 225 003a 51D0     		beq	.L13
 226 003c 422B     		cmp	r3, #66
 227 003e 57D0     		beq	.L14
 228              		.loc 1 503 0
 229 0040 01E3     		b	.L1
 230              	.L12:
  67:ble_process.c **** 	{
 231              		.loc 1 67 0
 232 0042 4E2B     		cmp	r3, #78
 233 0044 00D1     		bne	.LCB53
 234 0046 EAE0     		b	.L15	@long jump
 235              	.LCB53:
 236 0048 00D2     		bcs	.LCB55
 237 004a 82E2     		b	.L16	@long jump
 238              	.LCB55:
 239 004c 8922     		movs	r2, #137
 240 004e 5200     		lsls	r2, r2, #1
 241 0050 9342     		cmp	r3, r2
 242 0052 00D1     		bne	.LCB59
 243 0054 EAE2     		b	.L33	@long jump
 244              	.LCB59:
 245              		.loc 1 503 0
 246 0056 F6E2     		b	.L1
 247              	.L7:
  71:ble_process.c **** 			UART_UartPutCRLF(' ');
 248              		.loc 1 71 0
 249 0058 BC4B     		ldr	r3, .L40
 250 005a 1800     		movs	r0, r3
 251 005c FFF7FEFF 		bl	UART_UartPutString
  72:ble_process.c **** 			#endif
 252              		.loc 1 72 0
 253 0060 2020     		movs	r0, #32
 254 0062 FFF7FEFF 		bl	UART_UartPutCRLF
  75:ble_process.c **** 		break;
 255              		.loc 1 75 0
 256 0066 0020     		movs	r0, #0
 257 0068 FFF7FEFF 		bl	CyBle_GappStartAdvertisement
  76:ble_process.c **** 			
 258              		.loc 1 76 0
 259 006c EBE2     		b	.L1
 260              	.L5:
  81:ble_process.c **** 			SendBLEStatetoUART(CyBle_GetState());
 261              		.loc 1 81 0
 262 006e B84B     		ldr	r3, .L40+4
 263 0070 1800     		movs	r0, r3
 264 0072 FFF7FEFF 		bl	UART_UartPutString
  82:ble_process.c **** 			UART_UartPutCRLF(' ');
 265              		.loc 1 82 0
ARM GAS  C:\Users\dmytro\AppData\Local\Temp\ccjppNo8.s 			page 16


 266 0076 B74B     		ldr	r3, .L40+8
 267 0078 1B78     		ldrb	r3, [r3]
 268 007a 1800     		movs	r0, r3
 269 007c FFF7FEFF 		bl	SendBLEStatetoUART
  83:ble_process.c **** 			#endif
 270              		.loc 1 83 0
 271 0080 2020     		movs	r0, #32
 272 0082 FFF7FEFF 		bl	UART_UartPutCRLF
  86:ble_process.c **** 			{
 273              		.loc 1 86 0
 274 0086 B34B     		ldr	r3, .L40+8
 275 0088 1B78     		ldrb	r3, [r3]
 276 008a 062B     		cmp	r3, #6
 277 008c 00D0     		beq	.LCB87
 278 008e CFE2     		b	.L34	@long jump
 279              	.LCB87:
  86:ble_process.c **** 			{
 280              		.loc 1 86 0 is_stmt 0 discriminator 1
 281 0090 B14B     		ldr	r3, .L40+12
 282 0092 1B78     		ldrb	r3, [r3]
 283 0094 002B     		cmp	r3, #0
 284 0096 00D0     		beq	.LCB91
 285 0098 CAE2     		b	.L34	@long jump
 286              	.LCB91:
  92:ble_process.c **** 				
 287              		.loc 1 92 0 is_stmt 1
 288 009a 0020     		movs	r0, #0
 289 009c FFF7FEFF 		bl	CyBle_GappStartAdvertisement
  94:ble_process.c **** 				{
 290              		.loc 1 94 0
 291 00a0 5E23     		movs	r3, #94
 292 00a2 FB18     		adds	r3, r7, r3
 293 00a4 1B88     		ldrh	r3, [r3]
 294 00a6 002B     		cmp	r3, #0
 295 00a8 00D0     		beq	.LCB98
 296 00aa C1E2     		b	.L34	@long jump
 297              	.LCB98:
  97:ble_process.c **** 					SendBLEStatetoUART(CyBle_GetState());
 298              		.loc 1 97 0
 299 00ac AB4B     		ldr	r3, .L40+16
 300 00ae 1800     		movs	r0, r3
 301 00b0 FFF7FEFF 		bl	UART_UartPutString
  98:ble_process.c **** 					UART_UartPutCRLF(' ');
 302              		.loc 1 98 0
 303 00b4 A74B     		ldr	r3, .L40+8
 304 00b6 1B78     		ldrb	r3, [r3]
 305 00b8 1800     		movs	r0, r3
 306 00ba FFF7FEFF 		bl	SendBLEStatetoUART
  99:ble_process.c **** 					#endif
 307              		.loc 1 99 0
 308 00be 2020     		movs	r0, #32
 309 00c0 FFF7FEFF 		bl	UART_UartPutCRLF
 103:ble_process.c **** 			
 310              		.loc 1 103 0
 311 00c4 B4E2     		b	.L34
 312              	.L3:
 108:ble_process.c **** 			SendBLEStatetoUART(CyBle_GetState());
ARM GAS  C:\Users\dmytro\AppData\Local\Temp\ccjppNo8.s 			page 17


 313              		.loc 1 108 0
 314 00c6 A64B     		ldr	r3, .L40+20
 315 00c8 1800     		movs	r0, r3
 316 00ca FFF7FEFF 		bl	UART_UartPutString
 109:ble_process.c **** 			UART_UartPutCRLF(' ');
 317              		.loc 1 109 0
 318 00ce A14B     		ldr	r3, .L40+8
 319 00d0 1B78     		ldrb	r3, [r3]
 320 00d2 1800     		movs	r0, r3
 321 00d4 FFF7FEFF 		bl	SendBLEStatetoUART
 110:ble_process.c **** 			#endif
 322              		.loc 1 110 0
 323 00d8 2020     		movs	r0, #32
 324 00da FFF7FEFF 		bl	UART_UartPutCRLF
 112:ble_process.c **** 			
 325              		.loc 1 112 0
 326 00de B2E2     		b	.L1
 327              	.L13:
 118:ble_process.c **** 			UART_UartPutCRLF(' ');
 328              		.loc 1 118 0
 329 00e0 A04B     		ldr	r3, .L40+24
 330 00e2 1800     		movs	r0, r3
 331 00e4 FFF7FEFF 		bl	UART_UartPutString
 119:ble_process.c **** 			#endif
 332              		.loc 1 119 0
 333 00e8 2020     		movs	r0, #32
 334 00ea FFF7FEFF 		bl	UART_UartPutCRLF
 121:ble_process.c **** 		
 335              		.loc 1 121 0
 336 00ee AAE2     		b	.L1
 337              	.L14:
 127:ble_process.c **** 			UART_UartPutCRLF(' ');
 338              		.loc 1 127 0
 339 00f0 9D4B     		ldr	r3, .L40+28
 340 00f2 1800     		movs	r0, r3
 341 00f4 FFF7FEFF 		bl	UART_UartPutString
 128:ble_process.c **** 			#endif
 342              		.loc 1 128 0
 343 00f8 2020     		movs	r0, #32
 344 00fa FFF7FEFF 		bl	UART_UartPutCRLF
 130:ble_process.c **** 			
 345              		.loc 1 130 0
 346 00fe A2E2     		b	.L1
 347              	.L11:
 136:ble_process.c **** 
 348              		.loc 1 136 0
 349 0100 4C23     		movs	r3, #76
 350 0102 FB18     		adds	r3, r7, r3
 351 0104 3A68     		ldr	r2, [r7]
 352 0106 13CA     		ldmia	r2!, {r0, r1, r4}
 353 0108 13C3     		stmia	r3!, {r0, r1, r4}
 354 010a 1268     		ldr	r2, [r2]
 355 010c 1A60     		str	r2, [r3]
 138:ble_process.c **** 			{
 356              		.loc 1 138 0
 357 010e 4C23     		movs	r3, #76
 358 0110 FB18     		adds	r3, r7, r3
ARM GAS  C:\Users\dmytro\AppData\Local\Temp\ccjppNo8.s 			page 18


 359 0112 9B89     		ldrh	r3, [r3, #12]
 360 0114 0E2B     		cmp	r3, #14
 361 0116 73D1     		bne	.L20
 142:ble_process.c **** 				{
 362              		.loc 1 142 0
 363 0118 4C23     		movs	r3, #76
 364 011a FB18     		adds	r3, r7, r3
 365 011c 1B89     		ldrh	r3, [r3, #8]
 366 011e 042B     		cmp	r3, #4
 367 0120 65D1     		bne	.L21
 368              	.LBB2:
 145:ble_process.c **** 						UART_UartPutCRLF(' ');
 369              		.loc 1 145 0
 370 0122 924B     		ldr	r3, .L40+32
 371 0124 1800     		movs	r0, r3
 372 0126 FFF7FEFF 		bl	UART_UartPutString
 146:ble_process.c **** 					#endif
 373              		.loc 1 146 0
 374 012a 2020     		movs	r0, #32
 375 012c FFF7FEFF 		bl	UART_UartPutCRLF
 150:ble_process.c **** 					RGBData[RGB_GREEN_INDEX] = writeReqData.handleValPair.value.val[1];
 376              		.loc 1 150 0
 377 0130 4C23     		movs	r3, #76
 378 0132 FB18     		adds	r3, r7, r3
 379 0134 5B68     		ldr	r3, [r3, #4]
 380 0136 1A78     		ldrb	r2, [r3]
 381 0138 8D4B     		ldr	r3, .L40+36
 382 013a 1A70     		strb	r2, [r3]
 151:ble_process.c **** 					RGBData[RGB_BLUE_INDEX] = writeReqData.handleValPair.value.val[2];
 383              		.loc 1 151 0
 384 013c 4C23     		movs	r3, #76
 385 013e FB18     		adds	r3, r7, r3
 386 0140 5B68     		ldr	r3, [r3, #4]
 387 0142 5A78     		ldrb	r2, [r3, #1]
 388 0144 8A4B     		ldr	r3, .L40+36
 389 0146 5A70     		strb	r2, [r3, #1]
 152:ble_process.c **** 					RGBData[RGB_INTENSITY_INDEX] = writeReqData.handleValPair.value.val[3];
 390              		.loc 1 152 0
 391 0148 4C23     		movs	r3, #76
 392 014a FB18     		adds	r3, r7, r3
 393 014c 5B68     		ldr	r3, [r3, #4]
 394 014e 9A78     		ldrb	r2, [r3, #2]
 395 0150 874B     		ldr	r3, .L40+36
 396 0152 9A70     		strb	r2, [r3, #2]
 153:ble_process.c **** 					
 397              		.loc 1 153 0
 398 0154 4C23     		movs	r3, #76
 399 0156 FB18     		adds	r3, r7, r3
 400 0158 5B68     		ldr	r3, [r3, #4]
 401 015a DA78     		ldrb	r2, [r3, #3]
 402 015c 844B     		ldr	r3, .L40+36
 403 015e DA70     		strb	r2, [r3, #3]
 155:ble_process.c ****                     RGBData[RGB_RED_INDEX] = RGB_Collection[0];
 404              		.loc 1 155 0
 405 0160 0C23     		movs	r3, #12
 406 0162 FA18     		adds	r2, r7, r3
 407 0164 834B     		ldr	r3, .L40+40
ARM GAS  C:\Users\dmytro\AppData\Local\Temp\ccjppNo8.s 			page 19


 408 0166 1000     		movs	r0, r2
 409 0168 1900     		movs	r1, r3
 410 016a 0423     		movs	r3, #4
 411 016c 1A00     		movs	r2, r3
 412 016e FFF7FEFF 		bl	memcpy
 156:ble_process.c ****                     RGBData[RGB_BLUE_INDEX] = RGB_Collection[1];
 413              		.loc 1 156 0
 414 0172 0C23     		movs	r3, #12
 415 0174 FB18     		adds	r3, r7, r3
 416 0176 1A78     		ldrb	r2, [r3]
 417 0178 7D4B     		ldr	r3, .L40+36
 418 017a 1A70     		strb	r2, [r3]
 157:ble_process.c ****                     RGBData[RGB_GREEN_INDEX] = RGB_Collection[2];
 419              		.loc 1 157 0
 420 017c 0C23     		movs	r3, #12
 421 017e FB18     		adds	r3, r7, r3
 422 0180 5A78     		ldrb	r2, [r3, #1]
 423 0182 7B4B     		ldr	r3, .L40+36
 424 0184 9A70     		strb	r2, [r3, #2]
 158:ble_process.c ****                     RGBData[RGB_INTENSITY_INDEX] = RGB_Collection[3];
 425              		.loc 1 158 0
 426 0186 0C23     		movs	r3, #12
 427 0188 FB18     		adds	r3, r7, r3
 428 018a 9A78     		ldrb	r2, [r3, #2]
 429 018c 784B     		ldr	r3, .L40+36
 430 018e 5A70     		strb	r2, [r3, #1]
 159:ble_process.c ****                     
 431              		.loc 1 159 0
 432 0190 0C23     		movs	r3, #12
 433 0192 FB18     		adds	r3, r7, r3
 434 0194 DA78     		ldrb	r2, [r3, #3]
 435 0196 764B     		ldr	r3, .L40+36
 436 0198 DA70     		strb	r2, [r3, #3]
 163:ble_process.c **** 					
 437              		.loc 1 163 0
 438 019a 754B     		ldr	r3, .L40+36
 439 019c 0421     		movs	r1, #4
 440 019e 1800     		movs	r0, r3
 441 01a0 FFF7FEFF 		bl	UpdateRGBled
 167:ble_process.c **** 							
 442              		.loc 1 167 0
 443 01a4 744A     		ldr	r2, .L40+44
 444 01a6 4C23     		movs	r3, #76
 445 01a8 FB18     		adds	r3, r7, r3
 446 01aa 181D     		adds	r0, r3, #4
 447 01ac 0023     		movs	r3, #0
 448 01ae 0021     		movs	r1, #0
 449 01b0 FFF7FEFF 		bl	CyBle_GattsWriteAttributeValue
 172:ble_process.c **** 					#endif
 450              		.loc 1 172 0
 451 01b4 714B     		ldr	r3, .L40+48
 452 01b6 1B78     		ldrb	r3, [r3]
 453 01b8 0133     		adds	r3, r3, #1
 454 01ba DAB2     		uxtb	r2, r3
 455 01bc 6F4B     		ldr	r3, .L40+48
 456 01be 1A70     		strb	r2, [r3]
 176:ble_process.c **** 					PrintNum(dataADVCounter);
ARM GAS  C:\Users\dmytro\AppData\Local\Temp\ccjppNo8.s 			page 20


 457              		.loc 1 176 0
 458 01c0 6F4B     		ldr	r3, .L40+52
 459 01c2 1800     		movs	r0, r3
 460 01c4 FFF7FEFF 		bl	UART_UartPutString
 177:ble_process.c **** 					UART_UartPutCRLF(' ');
 461              		.loc 1 177 0
 462 01c8 6C4B     		ldr	r3, .L40+48
 463 01ca 1B78     		ldrb	r3, [r3]
 464 01cc 1800     		movs	r0, r3
 465 01ce FFF7FEFF 		bl	PrintNum
 178:ble_process.c **** 					#endif
 466              		.loc 1 178 0
 467 01d2 2020     		movs	r0, #32
 468 01d4 FFF7FEFF 		bl	UART_UartPutCRLF
 183:ble_process.c **** 					
 469              		.loc 1 183 0
 470 01d8 5F4B     		ldr	r3, .L40+12
 471 01da 0122     		movs	r2, #1
 472 01dc 1A70     		strb	r2, [r3]
 186:ble_process.c **** 					UART_UartPutCRLF(' ');
 473              		.loc 1 186 0
 474 01de 694B     		ldr	r3, .L40+56
 475 01e0 1800     		movs	r0, r3
 476 01e2 FFF7FEFF 		bl	UART_UartPutString
 187:ble_process.c **** 					#endif
 477              		.loc 1 187 0
 478 01e6 2020     		movs	r0, #32
 479 01e8 FFF7FEFF 		bl	UART_UartPutCRLF
 480              	.LBE2:
 481 01ec 08E0     		b	.L20
 482              	.L21:
 193:ble_process.c **** 									writeReqData.handleValPair.attrHandle, 
 483              		.loc 1 193 0
 484 01ee 4C23     		movs	r3, #76
 485 01f0 FB18     		adds	r3, r7, r3
 486 01f2 9B89     		ldrh	r3, [r3, #12]
 487 01f4 0D22     		movs	r2, #13
 488 01f6 1900     		movs	r1, r3
 489 01f8 1220     		movs	r0, #18
 490 01fa FFF7FEFF 		bl	SendErrorCode
 491 01fe 22E2     		b	.L1
 492              	.L20:
 204:ble_process.c **** 		break;
 493              		.loc 1 204 0
 494 0200 5D4B     		ldr	r3, .L40+44
 495 0202 1A78     		ldrb	r2, [r3]
 496 0204 5B78     		ldrb	r3, [r3, #1]
 497 0206 1B02     		lsls	r3, r3, #8
 498 0208 1A43     		orrs	r2, r3
 499 020a 0023     		movs	r3, #0
 500 020c 1204     		lsls	r2, r2, #16
 501 020e 120C     		lsrs	r2, r2, #16
 502 0210 1B0C     		lsrs	r3, r3, #16
 503 0212 1B04     		lsls	r3, r3, #16
 504 0214 1343     		orrs	r3, r2
 505 0216 1800     		movs	r0, r3
 506 0218 FFF7FEFF 		bl	CyBle_GattsWriteRsp
ARM GAS  C:\Users\dmytro\AppData\Local\Temp\ccjppNo8.s 			page 21


 205:ble_process.c **** 			
 507              		.loc 1 205 0
 508 021c 13E2     		b	.L1
 509              	.L15:
 211:ble_process.c **** 			
 510              		.loc 1 211 0
 511 021e 1C23     		movs	r3, #28
 512 0220 FB18     		adds	r3, r7, r3
 513 0222 3A68     		ldr	r2, [r7]
 514 0224 13CA     		ldmia	r2!, {r0, r1, r4}
 515 0226 13C3     		stmia	r3!, {r0, r1, r4}
 516 0228 1268     		ldr	r2, [r2]
 517 022a 1A60     		str	r2, [r3]
 214:ble_process.c **** 			{
 518              		.loc 1 214 0
 519 022c 1C23     		movs	r3, #28
 520 022e FB18     		adds	r3, r7, r3
 521 0230 9B89     		ldrh	r3, [r3, #12]
 522 0232 112B     		cmp	r3, #17
 523 0234 00D0     		beq	.LCB294
 524 0236 FDE1     		b	.L35	@long jump
 525              	.LCB294:
 217:ble_process.c **** 				{
 526              		.loc 1 217 0
 527 0238 1C23     		movs	r3, #28
 528 023a FB18     		adds	r3, r7, r3
 529 023c 1B89     		ldrh	r3, [r3, #8]
 530 023e 012B     		cmp	r3, #1
 531 0240 00D0     		beq	.LCB299
 532 0242 F7E1     		b	.L35	@long jump
 533              	.LCB299:
 220:ble_process.c **** 					
 534              		.loc 1 220 0
 535 0244 1C23     		movs	r3, #28
 536 0246 FB18     		adds	r3, r7, r3
 537 0248 5B68     		ldr	r3, [r3, #4]
 538 024a 1A78     		ldrb	r2, [r3]
 539 024c 4B4B     		ldr	r3, .L40+48
 540 024e 1A70     		strb	r2, [r3]
 223:ble_process.c **** 					
 541              		.loc 1 223 0
 542 0250 4A4B     		ldr	r3, .L40+48
 543 0252 1B78     		ldrb	r3, [r3]
 544 0254 013B     		subs	r3, r3, #1
 545 0256 DAB2     		uxtb	r2, r3
 546 0258 484B     		ldr	r3, .L40+48
 547 025a 1A70     		strb	r2, [r3]
 227:ble_process.c **** 													0,
 548              		.loc 1 227 0
 549 025c 464A     		ldr	r2, .L40+44
 550 025e 1C23     		movs	r3, #28
 551 0260 FB18     		adds	r3, r7, r3
 552 0262 181D     		adds	r0, r3, #4
 553 0264 0023     		movs	r3, #0
 554 0266 0021     		movs	r1, #0
 555 0268 FFF7FEFF 		bl	CyBle_GattsWriteAttributeValue
 233:ble_process.c **** 					PrintNum(dataADVCounter);
ARM GAS  C:\Users\dmytro\AppData\Local\Temp\ccjppNo8.s 			page 22


 556              		.loc 1 233 0
 557 026c 464B     		ldr	r3, .L40+60
 558 026e 1800     		movs	r0, r3
 559 0270 FFF7FEFF 		bl	UART_UartPutString
 234:ble_process.c **** 					UART_UartPutCRLF(' ');
 560              		.loc 1 234 0
 561 0274 414B     		ldr	r3, .L40+48
 562 0276 1B78     		ldrb	r3, [r3]
 563 0278 1800     		movs	r0, r3
 564 027a FFF7FEFF 		bl	PrintNum
 235:ble_process.c **** 					#endif
 565              		.loc 1 235 0
 566 027e 2020     		movs	r0, #32
 567 0280 FFF7FEFF 		bl	UART_UartPutCRLF
 239:ble_process.c **** 		
 568              		.loc 1 239 0
 569 0284 D6E1     		b	.L35
 570              	.L8:
 244:ble_process.c **** 			{
 571              		.loc 1 244 0
 572 0286 334B     		ldr	r3, .L40+8
 573 0288 1B78     		ldrb	r3, [r3]
 574 028a 022B     		cmp	r3, #2
 575 028c 00D1     		bne	.LCB335
 576 028e D3E1     		b	.L36	@long jump
 577              	.LCB335:
 248:ble_process.c **** 				
 578              		.loc 1 248 0
 579 0290 2C23     		movs	r3, #44
 580 0292 FB18     		adds	r3, r7, r3
 581 0294 3A68     		ldr	r2, [r7]
 582 0296 13CA     		ldmia	r2!, {r0, r1, r4}
 583 0298 13C3     		stmia	r3!, {r0, r1, r4}
 584 029a 03CA     		ldmia	r2!, {r0, r1}
 585 029c 03C3     		stmia	r3!, {r0, r1}
 251:ble_process.c **** 					UART_UartPutCRLF(' ');
 586              		.loc 1 251 0
 587 029e 3B4B     		ldr	r3, .L40+64
 588 02a0 1800     		movs	r0, r3
 589 02a2 FFF7FEFF 		bl	UART_UartPutString
 252:ble_process.c **** 				#endif
 590              		.loc 1 252 0
 591 02a6 2020     		movs	r0, #32
 592 02a8 FFF7FEFF 		bl	UART_UartPutCRLF
 260:ble_process.c **** 				{
 593              		.loc 1 260 0
 594 02ac 2C23     		movs	r3, #44
 595 02ae FB18     		adds	r3, r7, r3
 596 02b0 1B78     		ldrb	r3, [r3]
 597 02b2 002B     		cmp	r3, #0
 598 02b4 00D0     		beq	.LCB350
 599 02b6 8DE0     		b	.L25	@long jump
 600              	.LCB350:
 264:ble_process.c **** 					{
 601              		.loc 1 264 0
 602 02b8 2C23     		movs	r3, #44
 603 02ba FB18     		adds	r3, r7, r3
ARM GAS  C:\Users\dmytro\AppData\Local\Temp\ccjppNo8.s 			page 23


 604 02bc 1A7A     		ldrb	r2, [r3, #8]
 605 02be 344B     		ldr	r3, .L40+68
 606 02c0 DB7F     		ldrb	r3, [r3, #31]
 607 02c2 9A42     		cmp	r2, r3
 608 02c4 00D0     		beq	.LCB357
 609 02c6 85E0     		b	.L25	@long jump
 610              	.LCB357:
 268:ble_process.c **** 						{
 611              		.loc 1 268 0
 612 02c8 2C23     		movs	r3, #44
 613 02ca FB18     		adds	r3, r7, r3
 614 02cc DA68     		ldr	r2, [r3, #12]
 615 02ce 2C23     		movs	r3, #44
 616 02d0 FB18     		adds	r3, r7, r3
 617 02d2 1B7A     		ldrb	r3, [r3, #8]
 618 02d4 023B     		subs	r3, r3, #2
 619 02d6 D318     		adds	r3, r2, r3
 620 02d8 1B78     		ldrb	r3, [r3]
 621 02da 012B     		cmp	r3, #1
 622 02dc 00D0     		beq	.LCB368
 623 02de 79E0     		b	.L25	@long jump
 624              	.LCB368:
 273:ble_process.c **** 							((scan_report.data[scan_report.dataLen-1] == 255) && (dataADVCounter == 0)))
 625              		.loc 1 273 0
 626 02e0 2C23     		movs	r3, #44
 627 02e2 FB18     		adds	r3, r7, r3
 628 02e4 DA68     		ldr	r2, [r3, #12]
 629 02e6 2C23     		movs	r3, #44
 630 02e8 FB18     		adds	r3, r7, r3
 631 02ea 1B7A     		ldrb	r3, [r3, #8]
 632 02ec 013B     		subs	r3, r3, #1
 633 02ee D318     		adds	r3, r2, r3
 634 02f0 1A78     		ldrb	r2, [r3]
 635 02f2 224B     		ldr	r3, .L40+48
 636 02f4 1B78     		ldrb	r3, [r3]
 637 02f6 9A42     		cmp	r2, r3
 638 02f8 0ED3     		bcc	.L26
 274:ble_process.c **** 							{
 639              		.loc 1 274 0 discriminator 1
 640 02fa 2C23     		movs	r3, #44
 641 02fc FB18     		adds	r3, r7, r3
 642 02fe DA68     		ldr	r2, [r3, #12]
 643 0300 2C23     		movs	r3, #44
 644 0302 FB18     		adds	r3, r7, r3
 645 0304 1B7A     		ldrb	r3, [r3, #8]
 646 0306 013B     		subs	r3, r3, #1
 647 0308 D318     		adds	r3, r2, r3
 648 030a 1B78     		ldrb	r3, [r3]
 273:ble_process.c **** 							((scan_report.data[scan_report.dataLen-1] == 255) && (dataADVCounter == 0)))
 649              		.loc 1 273 0 discriminator 1
 650 030c FF2B     		cmp	r3, #255
 651 030e 49D1     		bne	.L27
 274:ble_process.c **** 							{
 652              		.loc 1 274 0
 653 0310 1A4B     		ldr	r3, .L40+48
 654 0312 1B78     		ldrb	r3, [r3]
 655 0314 002B     		cmp	r3, #0
ARM GAS  C:\Users\dmytro\AppData\Local\Temp\ccjppNo8.s 			page 24


 656 0316 45D1     		bne	.L27
 657              	.L26:
 277:ble_process.c **** 								/* Save the advertising peripheral address and type*/
 658              		.loc 1 277 0
 659 0318 1E4B     		ldr	r3, .L40+72
 660 031a 0122     		movs	r2, #1
 661 031c 1A70     		strb	r2, [r3]
 279:ble_process.c **** 								potential_node_bdAddrType = scan_report.peerAddrType;
 662              		.loc 1 279 0
 663 031e 2C23     		movs	r3, #44
 664 0320 FB18     		adds	r3, r7, r3
 665 0322 5B68     		ldr	r3, [r3, #4]
 666 0324 1C4A     		ldr	r2, .L40+76
 667 0326 1000     		movs	r0, r2
 668 0328 1900     		movs	r1, r3
 669 032a 0623     		movs	r3, #6
 670 032c 1A00     		movs	r2, r3
 671 032e FFF7FEFF 		bl	memcpy
 280:ble_process.c **** 								
 672              		.loc 1 280 0
 673 0332 2C23     		movs	r3, #44
 674 0334 FB18     		adds	r3, r7, r3
 675 0336 5A78     		ldrb	r2, [r3, #1]
 676 0338 184B     		ldr	r3, .L40+80
 677 033a 1A70     		strb	r2, [r3]
 283:ble_process.c **** 								UART_UartPutCRLF(' ');
 678              		.loc 1 283 0
 679 033c 184B     		ldr	r3, .L40+84
 680 033e 1800     		movs	r0, r3
 681 0340 FFF7FEFF 		bl	UART_UartPutString
 284:ble_process.c **** 								#endif
 682              		.loc 1 284 0
 683 0344 2020     		movs	r0, #32
 684 0346 FFF7FEFF 		bl	UART_UartPutCRLF
 685 034a 43E0     		b	.L25
 686              	.L41:
 687              		.align	2
 688              	.L40:
 689 034c 00000000 		.word	.LC1
 690 0350 14000000 		.word	.LC3
 691 0354 00000000 		.word	cyBle_state
 692 0358 00000000 		.word	switch_Role
 693 035c 40000000 		.word	.LC7
 694 0360 58000000 		.word	.LC9
 695 0364 78000000 		.word	.LC11
 696 0368 94000000 		.word	.LC13
 697 036c B4000000 		.word	.LC15
 698 0370 00000000 		.word	RGBData
 699 0374 70020000 		.word	.LC0
 700 0378 00000000 		.word	cyBle_connHandle
 701 037c 00000000 		.word	dataADVCounter
 702 0380 D4000000 		.word	.LC21
 703 0384 14010000 		.word	.LC23
 704 0388 2C010000 		.word	.LC25
 705 038c 64010000 		.word	.LC27
 706 0390 00000000 		.word	new_advData
 707 0394 00000000 		.word	potential_node_found
ARM GAS  C:\Users\dmytro\AppData\Local\Temp\ccjppNo8.s 			page 25


 708 0398 00000000 		.word	potential_node_bdAddr
 709 039c 00000000 		.word	potential_node_bdAddrType
 710 03a0 8C010000 		.word	.LC33
 711              	.L27:
 293:ble_process.c **** 								
 712              		.loc 1 293 0
 713 03a4 A94B     		ldr	r3, .L42
 714 03a6 0022     		movs	r2, #0
 715 03a8 1A70     		strb	r2, [r3]
 295:ble_process.c **** 								
 716              		.loc 1 295 0
 717 03aa A94B     		ldr	r3, .L42+4
 718 03ac 0022     		movs	r2, #0
 719 03ae 1A70     		strb	r2, [r3]
 297:ble_process.c **** 								potential_node_bdAddr[1] = 0x00;
 720              		.loc 1 297 0
 721 03b0 A84B     		ldr	r3, .L42+8
 722 03b2 0022     		movs	r2, #0
 723 03b4 1A70     		strb	r2, [r3]
 298:ble_process.c **** 								potential_node_bdAddr[2] = 0x00;
 724              		.loc 1 298 0
 725 03b6 A74B     		ldr	r3, .L42+8
 726 03b8 0022     		movs	r2, #0
 727 03ba 5A70     		strb	r2, [r3, #1]
 299:ble_process.c **** 								potential_node_bdAddr[3] = 0x00;
 728              		.loc 1 299 0
 729 03bc A54B     		ldr	r3, .L42+8
 730 03be 0022     		movs	r2, #0
 731 03c0 9A70     		strb	r2, [r3, #2]
 300:ble_process.c **** 								potential_node_bdAddr[4] = 0x00;
 732              		.loc 1 300 0
 733 03c2 A44B     		ldr	r3, .L42+8
 734 03c4 0022     		movs	r2, #0
 735 03c6 DA70     		strb	r2, [r3, #3]
 301:ble_process.c **** 								potential_node_bdAddr[5] = 0x00;
 736              		.loc 1 301 0
 737 03c8 A24B     		ldr	r3, .L42+8
 738 03ca 0022     		movs	r2, #0
 739 03cc 1A71     		strb	r2, [r3, #4]
 302:ble_process.c **** 							}
 740              		.loc 1 302 0
 741 03ce A14B     		ldr	r3, .L42+8
 742 03d0 0022     		movs	r2, #0
 743 03d2 5A71     		strb	r2, [r3, #5]
 744              	.L25:
 310:ble_process.c **** 				{
 745              		.loc 1 310 0
 746 03d4 2C23     		movs	r3, #44
 747 03d6 FB18     		adds	r3, r7, r3
 748 03d8 1B78     		ldrb	r3, [r3]
 749 03da 042B     		cmp	r3, #4
 750 03dc 00D0     		beq	.LCB481
 751 03de 2BE1     		b	.L36	@long jump
 752              	.LCB481:
 314:ble_process.c **** 					{
 753              		.loc 1 314 0
 754 03e0 2C23     		movs	r3, #44
ARM GAS  C:\Users\dmytro\AppData\Local\Temp\ccjppNo8.s 			page 26


 755 03e2 FB18     		adds	r3, r7, r3
 756 03e4 1B7A     		ldrb	r3, [r3, #8]
 757 03e6 142B     		cmp	r3, #20
 758 03e8 00D0     		beq	.LCB486
 759 03ea 25E1     		b	.L36	@long jump
 760              	.LCB486:
 320:ble_process.c **** 						{
 761              		.loc 1 320 0
 762 03ec 974B     		ldr	r3, .L42
 763 03ee 1B78     		ldrb	r3, [r3]
 764 03f0 002B     		cmp	r3, #0
 765 03f2 00D1     		bne	.LCB490
 766 03f4 20E1     		b	.L36	@long jump
 767              	.LCB490:
 323:ble_process.c **** 								&& (potential_node_bdAddrType == scan_report.peerAddrType))
 768              		.loc 1 323 0
 769 03f6 2C23     		movs	r3, #44
 770 03f8 FB18     		adds	r3, r7, r3
 771 03fa 5B68     		ldr	r3, [r3, #4]
 772 03fc 9549     		ldr	r1, .L42+8
 773 03fe 0622     		movs	r2, #6
 774 0400 1800     		movs	r0, r3
 775 0402 FFF7FEFF 		bl	memcmp
 776 0406 031E     		subs	r3, r0, #0
 777 0408 00D0     		beq	.LCB500
 778 040a 15E1     		b	.L36	@long jump
 779              	.LCB500:
 324:ble_process.c **** 							{
 780              		.loc 1 324 0
 781 040c 2C23     		movs	r3, #44
 782 040e FB18     		adds	r3, r7, r3
 783 0410 5A78     		ldrb	r2, [r3, #1]
 784 0412 8F4B     		ldr	r3, .L42+4
 785 0414 1B78     		ldrb	r3, [r3]
 786 0416 9A42     		cmp	r2, r3
 787 0418 00D0     		beq	.LCB507
 788 041a 0DE1     		b	.L36	@long jump
 789              	.LCB507:
 329:ble_process.c **** 								{
 790              		.loc 1 329 0
 791 041c 2C23     		movs	r3, #44
 792 041e FB18     		adds	r3, r7, r3
 793 0420 D868     		ldr	r0, [r3, #12]
 794 0422 2C23     		movs	r3, #44
 795 0424 FB18     		adds	r3, r7, r3
 796 0426 1B7A     		ldrb	r3, [r3, #8]
 797 0428 1A00     		movs	r2, r3
 798 042a 8B4B     		ldr	r3, .L42+12
 799 042c 1900     		movs	r1, r3
 800 042e FFF7FEFF 		bl	memcmp
 801 0432 031E     		subs	r3, r0, #0
 802 0434 00D0     		beq	.LCB520
 803 0436 FFE0     		b	.L36	@long jump
 804              	.LCB520:
 332:ble_process.c **** 									UART_UartPutCRLF(' ');
 805              		.loc 1 332 0
 806 0438 884B     		ldr	r3, .L42+16
ARM GAS  C:\Users\dmytro\AppData\Local\Temp\ccjppNo8.s 			page 27


 807 043a 1800     		movs	r0, r3
 808 043c FFF7FEFF 		bl	UART_UartPutString
 333:ble_process.c **** 									#endif
 809              		.loc 1 333 0
 810 0440 2020     		movs	r0, #32
 811 0442 FFF7FEFF 		bl	UART_UartPutCRLF
 336:ble_process.c **** 									#ifdef DEBUG_ENABLED
 812              		.loc 1 336 0
 813 0446 FFF7FEFF 		bl	CyBle_GapcStopScan
 338:ble_process.c **** 									UART_UartPutCRLF(' ');
 814              		.loc 1 338 0
 815 044a 854B     		ldr	r3, .L42+20
 816 044c 1800     		movs	r0, r3
 817 044e FFF7FEFF 		bl	UART_UartPutString
 339:ble_process.c **** 									#endif
 818              		.loc 1 339 0
 819 0452 2020     		movs	r0, #32
 820 0454 FFF7FEFF 		bl	UART_UartPutCRLF
 343:ble_process.c **** 									peripAddr.bdAddr[0] = scan_report.peerBdAddr[0];
 821              		.loc 1 343 0
 822 0458 2C23     		movs	r3, #44
 823 045a FB18     		adds	r3, r7, r3
 824 045c 5A78     		ldrb	r2, [r3, #1]
 825 045e 814B     		ldr	r3, .L42+24
 826 0460 9A71     		strb	r2, [r3, #6]
 344:ble_process.c **** 									peripAddr.bdAddr[1] = scan_report.peerBdAddr[1];
 827              		.loc 1 344 0
 828 0462 2C23     		movs	r3, #44
 829 0464 FB18     		adds	r3, r7, r3
 830 0466 5B68     		ldr	r3, [r3, #4]
 831 0468 1A78     		ldrb	r2, [r3]
 832 046a 7E4B     		ldr	r3, .L42+24
 833 046c 1A70     		strb	r2, [r3]
 345:ble_process.c **** 									peripAddr.bdAddr[2] = scan_report.peerBdAddr[2];
 834              		.loc 1 345 0
 835 046e 2C23     		movs	r3, #44
 836 0470 FB18     		adds	r3, r7, r3
 837 0472 5B68     		ldr	r3, [r3, #4]
 838 0474 5A78     		ldrb	r2, [r3, #1]
 839 0476 7B4B     		ldr	r3, .L42+24
 840 0478 5A70     		strb	r2, [r3, #1]
 346:ble_process.c **** 									peripAddr.bdAddr[3] = scan_report.peerBdAddr[3];
 841              		.loc 1 346 0
 842 047a 2C23     		movs	r3, #44
 843 047c FB18     		adds	r3, r7, r3
 844 047e 5B68     		ldr	r3, [r3, #4]
 845 0480 9A78     		ldrb	r2, [r3, #2]
 846 0482 784B     		ldr	r3, .L42+24
 847 0484 9A70     		strb	r2, [r3, #2]
 347:ble_process.c **** 									peripAddr.bdAddr[4] = scan_report.peerBdAddr[4];
 848              		.loc 1 347 0
 849 0486 2C23     		movs	r3, #44
 850 0488 FB18     		adds	r3, r7, r3
 851 048a 5B68     		ldr	r3, [r3, #4]
 852 048c DA78     		ldrb	r2, [r3, #3]
 853 048e 754B     		ldr	r3, .L42+24
 854 0490 DA70     		strb	r2, [r3, #3]
ARM GAS  C:\Users\dmytro\AppData\Local\Temp\ccjppNo8.s 			page 28


 348:ble_process.c **** 									peripAddr.bdAddr[5] = scan_report.peerBdAddr[5];
 855              		.loc 1 348 0
 856 0492 2C23     		movs	r3, #44
 857 0494 FB18     		adds	r3, r7, r3
 858 0496 5B68     		ldr	r3, [r3, #4]
 859 0498 1A79     		ldrb	r2, [r3, #4]
 860 049a 724B     		ldr	r3, .L42+24
 861 049c 1A71     		strb	r2, [r3, #4]
 349:ble_process.c **** 
 862              		.loc 1 349 0
 863 049e 2C23     		movs	r3, #44
 864 04a0 FB18     		adds	r3, r7, r3
 865 04a2 5B68     		ldr	r3, [r3, #4]
 866 04a4 5A79     		ldrb	r2, [r3, #5]
 867 04a6 6F4B     		ldr	r3, .L42+24
 868 04a8 5A71     		strb	r2, [r3, #5]
 353:ble_process.c **** 									
 869              		.loc 1 353 0
 870 04aa 6F4B     		ldr	r3, .L42+28
 871 04ac 0122     		movs	r2, #1
 872 04ae 1A70     		strb	r2, [r3]
 357:ble_process.c **** 									#endif
 873              		.loc 1 357 0
 874 04b0 664B     		ldr	r3, .L42
 875 04b2 0022     		movs	r2, #0
 876 04b4 1A70     		strb	r2, [r3]
 368:ble_process.c **** 			
 877              		.loc 1 368 0
 878 04b6 BFE0     		b	.L36
 879              	.L9:
 372:ble_process.c **** 			{
 880              		.loc 1 372 0
 881 04b8 6C4B     		ldr	r3, .L42+32
 882 04ba 1B78     		ldrb	r3, [r3]
 883 04bc 022B     		cmp	r3, #2
 884 04be 00D0     		beq	.LCB586
 885 04c0 BCE0     		b	.L37	@long jump
 886              	.LCB586:
 388:ble_process.c **** 					
 887              		.loc 1 388 0
 888 04c2 6B4B     		ldr	r3, .L42+36
 889 04c4 0122     		movs	r2, #1
 890 04c6 1A70     		strb	r2, [r3]
 391:ble_process.c **** 						SendBLEStatetoUART(CyBle_GetState());
 891              		.loc 1 391 0
 892 04c8 6A4B     		ldr	r3, .L42+40
 893 04ca 1800     		movs	r0, r3
 894 04cc FFF7FEFF 		bl	UART_UartPutString
 392:ble_process.c **** 						UART_UartPutCRLF(' ');
 895              		.loc 1 392 0
 896 04d0 694B     		ldr	r3, .L42+44
 897 04d2 1B78     		ldrb	r3, [r3]
 898 04d4 1800     		movs	r0, r3
 899 04d6 FFF7FEFF 		bl	SendBLEStatetoUART
 393:ble_process.c **** 					#endif
 900              		.loc 1 393 0
 901 04da 2020     		movs	r0, #32
ARM GAS  C:\Users\dmytro\AppData\Local\Temp\ccjppNo8.s 			page 29


 902 04dc FFF7FEFF 		bl	UART_UartPutCRLF
 397:ble_process.c **** 					writeADVcounterdata.value.val = &dataADVCounter;
 903              		.loc 1 397 0
 904 04e0 4023     		movs	r3, #64
 905 04e2 FB18     		adds	r3, r7, r3
 906 04e4 1122     		movs	r2, #17
 907 04e6 1A81     		strh	r2, [r3, #8]
 398:ble_process.c **** 					writeADVcounterdata.value.len = 1;
 908              		.loc 1 398 0
 909 04e8 4023     		movs	r3, #64
 910 04ea FB18     		adds	r3, r7, r3
 911 04ec 634A     		ldr	r2, .L42+48
 912 04ee 1A60     		str	r2, [r3]
 399:ble_process.c **** 					CyBle_GattcWriteWithoutResponse(cyBle_connHandle, &writeADVcounterdata);
 913              		.loc 1 399 0
 914 04f0 4023     		movs	r3, #64
 915 04f2 FB18     		adds	r3, r7, r3
 916 04f4 0122     		movs	r2, #1
 917 04f6 9A80     		strh	r2, [r3, #4]
 400:ble_process.c **** 				    
 918              		.loc 1 400 0
 919 04f8 4023     		movs	r3, #64
 920 04fa F918     		adds	r1, r7, r3
 921 04fc 604B     		ldr	r3, .L42+52
 922 04fe 1A78     		ldrb	r2, [r3]
 923 0500 5B78     		ldrb	r3, [r3, #1]
 924 0502 1B02     		lsls	r3, r3, #8
 925 0504 1A43     		orrs	r2, r3
 926 0506 0023     		movs	r3, #0
 927 0508 1204     		lsls	r2, r2, #16
 928 050a 120C     		lsrs	r2, r2, #16
 929 050c 1B0C     		lsrs	r3, r3, #16
 930 050e 1B04     		lsls	r3, r3, #16
 931 0510 1343     		orrs	r3, r2
 932 0512 1800     		movs	r0, r3
 933 0514 FFF7FEFF 		bl	CyBle_GattcWriteWithoutResponse
 403:ble_process.c **** 					writeRGBdata.value.val = RGBData;
 934              		.loc 1 403 0
 935 0518 1023     		movs	r3, #16
 936 051a FB18     		adds	r3, r7, r3
 937 051c 0E22     		movs	r2, #14
 938 051e 1A81     		strh	r2, [r3, #8]
 404:ble_process.c **** 					writeRGBdata.value.len = RGB_LED_DATA_LEN;
 939              		.loc 1 404 0
 940 0520 1023     		movs	r3, #16
 941 0522 FB18     		adds	r3, r7, r3
 942 0524 574A     		ldr	r2, .L42+56
 943 0526 1A60     		str	r2, [r3]
 405:ble_process.c **** 					CyBle_GattcWriteCharacteristicValue(cyBle_connHandle, &writeRGBdata);
 944              		.loc 1 405 0
 945 0528 1023     		movs	r3, #16
 946 052a FB18     		adds	r3, r7, r3
 947 052c 0422     		movs	r2, #4
 948 052e 9A80     		strh	r2, [r3, #4]
 406:ble_process.c **** 				#endif
 949              		.loc 1 406 0
 950 0530 1023     		movs	r3, #16
ARM GAS  C:\Users\dmytro\AppData\Local\Temp\ccjppNo8.s 			page 30


 951 0532 F918     		adds	r1, r7, r3
 952 0534 524B     		ldr	r3, .L42+52
 953 0536 1A78     		ldrb	r2, [r3]
 954 0538 5B78     		ldrb	r3, [r3, #1]
 955 053a 1B02     		lsls	r3, r3, #8
 956 053c 1A43     		orrs	r2, r3
 957 053e 0023     		movs	r3, #0
 958 0540 1204     		lsls	r2, r2, #16
 959 0542 120C     		lsrs	r2, r2, #16
 960 0544 1B0C     		lsrs	r3, r3, #16
 961 0546 1B04     		lsls	r3, r3, #16
 962 0548 1343     		orrs	r3, r2
 963 054a 1800     		movs	r0, r3
 964 054c FFF7FEFF 		bl	CyBle_GattcWriteCharacteristicValue
 409:ble_process.c **** 			
 965              		.loc 1 409 0
 966 0550 74E0     		b	.L37
 967              	.L16:
 441:ble_process.c **** 				SendBLEStatetoUART(CyBle_GetState());
 968              		.loc 1 441 0
 969 0552 4D4B     		ldr	r3, .L42+60
 970 0554 1800     		movs	r0, r3
 971 0556 FFF7FEFF 		bl	UART_UartPutString
 442:ble_process.c **** 				UART_UartPutCRLF(' ');
 972              		.loc 1 442 0
 973 055a 474B     		ldr	r3, .L42+44
 974 055c 1B78     		ldrb	r3, [r3]
 975 055e 1800     		movs	r0, r3
 976 0560 FFF7FEFF 		bl	SendBLEStatetoUART
 443:ble_process.c **** 			#endif
 977              		.loc 1 443 0
 978 0564 2020     		movs	r0, #32
 979 0566 FFF7FEFF 		bl	UART_UartPutCRLF
 447:ble_process.c **** 			{
 980              		.loc 1 447 0
 981 056a 454B     		ldr	r3, .L42+52
 982 056c 1B78     		ldrb	r3, [r3]
 983 056e 002B     		cmp	r3, #0
 984 0570 66D0     		beq	.L38
 449:ble_process.c **** 				
 985              		.loc 1 449 0
 986 0572 434B     		ldr	r3, .L42+52
 987 0574 1B78     		ldrb	r3, [r3]
 988 0576 1800     		movs	r0, r3
 989 0578 FFF7FEFF 		bl	CyBle_GapDisconnect
 451:ble_process.c **** 				#ifdef DEBUG_ENABLED
 990              		.loc 1 451 0
 991 057c 434B     		ldr	r3, .L42+64
 992 057e 0122     		movs	r2, #1
 993 0580 1A70     		strb	r2, [r3]
 453:ble_process.c **** 				SendBLEStatetoUART(CyBle_GetState());
 994              		.loc 1 453 0
 995 0582 434B     		ldr	r3, .L42+68
 996 0584 1800     		movs	r0, r3
 997 0586 FFF7FEFF 		bl	UART_UartPutString
 454:ble_process.c **** 				UART_UartPutCRLF(' ');
 998              		.loc 1 454 0
ARM GAS  C:\Users\dmytro\AppData\Local\Temp\ccjppNo8.s 			page 31


 999 058a 3B4B     		ldr	r3, .L42+44
 1000 058c 1B78     		ldrb	r3, [r3]
 1001 058e 1800     		movs	r0, r3
 1002 0590 FFF7FEFF 		bl	SendBLEStatetoUART
 455:ble_process.c **** 				#endif
 1003              		.loc 1 455 0
 1004 0594 2020     		movs	r0, #32
 1005 0596 FFF7FEFF 		bl	UART_UartPutCRLF
 458:ble_process.c **** 
 1006              		.loc 1 458 0
 1007 059a 51E0     		b	.L38
 1008              	.L10:
 463:ble_process.c **** 			
 1009              		.loc 1 463 0
 1010 059c 344B     		ldr	r3, .L42+36
 1011 059e 0022     		movs	r2, #0
 1012 05a0 1A70     		strb	r2, [r3]
 466:ble_process.c **** 				SendBLEStatetoUART(CyBle_GetState());
 1013              		.loc 1 466 0
 1014 05a2 3C4B     		ldr	r3, .L42+72
 1015 05a4 1800     		movs	r0, r3
 1016 05a6 FFF7FEFF 		bl	UART_UartPutString
 467:ble_process.c **** 				UART_UartPutCRLF(' ');
 1017              		.loc 1 467 0
 1018 05aa 334B     		ldr	r3, .L42+44
 1019 05ac 1B78     		ldrb	r3, [r3]
 1020 05ae 1800     		movs	r0, r3
 1021 05b0 FFF7FEFF 		bl	SendBLEStatetoUART
 468:ble_process.c **** 			#endif
 1022              		.loc 1 468 0
 1023 05b4 2020     		movs	r0, #32
 1024 05b6 FFF7FEFF 		bl	UART_UartPutCRLF
 471:ble_process.c **** 			{
 1025              		.loc 1 471 0
 1026 05ba 2C4B     		ldr	r3, .L42+32
 1027 05bc 1B78     		ldrb	r3, [r3]
 1028 05be 012B     		cmp	r3, #1
 1029 05c0 17D1     		bne	.L30
 471:ble_process.c **** 			{
 1030              		.loc 1 471 0 is_stmt 0 discriminator 1
 1031 05c2 354B     		ldr	r3, .L42+76
 1032 05c4 1B78     		ldrb	r3, [r3]
 1033 05c6 012B     		cmp	r3, #1
 1034 05c8 13D0     		beq	.L30
 475:ble_process.c **** 				{
 1035              		.loc 1 475 0 is_stmt 1
 1036 05ca 2B4B     		ldr	r3, .L42+44
 1037 05cc 1B78     		ldrb	r3, [r3]
 1038 05ce 062B     		cmp	r3, #6
 1039 05d0 2BD1     		bne	.L32
 477:ble_process.c **** 					#ifdef DEBUG_ENABLED
 1040              		.loc 1 477 0
 1041 05d2 0020     		movs	r0, #0
 1042 05d4 FFF7FEFF 		bl	CyBle_GappStartAdvertisement
 479:ble_process.c **** 					SendBLEStatetoUART(CyBle_GetState());
 1043              		.loc 1 479 0
 1044 05d8 304B     		ldr	r3, .L42+80
ARM GAS  C:\Users\dmytro\AppData\Local\Temp\ccjppNo8.s 			page 32


 1045 05da 1800     		movs	r0, r3
 1046 05dc FFF7FEFF 		bl	UART_UartPutString
 480:ble_process.c **** 					UART_UartPutCRLF(' ');
 1047              		.loc 1 480 0
 1048 05e0 254B     		ldr	r3, .L42+44
 1049 05e2 1B78     		ldrb	r3, [r3]
 1050 05e4 1800     		movs	r0, r3
 1051 05e6 FFF7FEFF 		bl	SendBLEStatetoUART
 481:ble_process.c **** 					#endif
 1052              		.loc 1 481 0
 1053 05ea 2020     		movs	r0, #32
 1054 05ec FFF7FEFF 		bl	UART_UartPutCRLF
 475:ble_process.c **** 				{
 1055              		.loc 1 475 0
 1056 05f0 1BE0     		b	.L32
 1057              	.L30:
 485:ble_process.c **** 			{
 1058              		.loc 1 485 0
 1059 05f2 1E4B     		ldr	r3, .L42+32
 1060 05f4 1B78     		ldrb	r3, [r3]
 1061 05f6 022B     		cmp	r3, #2
 1062 05f8 24D1     		bne	.L39
 485:ble_process.c **** 			{
 1063              		.loc 1 485 0 is_stmt 0 discriminator 1
 1064 05fa 274B     		ldr	r3, .L42+76
 1065 05fc 1B78     		ldrb	r3, [r3]
 1066 05fe 012B     		cmp	r3, #1
 1067 0600 20D0     		beq	.L39
 489:ble_process.c **** 				{
 1068              		.loc 1 489 0 is_stmt 1
 1069 0602 1D4B     		ldr	r3, .L42+44
 1070 0604 1B78     		ldrb	r3, [r3]
 1071 0606 062B     		cmp	r3, #6
 1072 0608 1CD1     		bne	.L39
 491:ble_process.c **** 					#ifdef DEBUG_ENABLED
 1073              		.loc 1 491 0
 1074 060a 0020     		movs	r0, #0
 1075 060c FFF7FEFF 		bl	CyBle_GapcStartScan
 493:ble_process.c **** 					SendBLEStatetoUART(CyBle_GetState());
 1076              		.loc 1 493 0
 1077 0610 234B     		ldr	r3, .L42+84
 1078 0612 1800     		movs	r0, r3
 1079 0614 FFF7FEFF 		bl	UART_UartPutString
 494:ble_process.c **** 					UART_UartPutCRLF(' ');
 1080              		.loc 1 494 0
 1081 0618 174B     		ldr	r3, .L42+44
 1082 061a 1B78     		ldrb	r3, [r3]
 1083 061c 1800     		movs	r0, r3
 1084 061e FFF7FEFF 		bl	SendBLEStatetoUART
 495:ble_process.c **** 					#endif
 1085              		.loc 1 495 0
 1086 0622 2020     		movs	r0, #32
 1087 0624 FFF7FEFF 		bl	UART_UartPutCRLF
 499:ble_process.c **** 			
 1088              		.loc 1 499 0
 1089 0628 0CE0     		b	.L39
 1090              	.L32:
ARM GAS  C:\Users\dmytro\AppData\Local\Temp\ccjppNo8.s 			page 33


 499:ble_process.c **** 			
 1091              		.loc 1 499 0 is_stmt 0 discriminator 7
 1092 062a 0BE0     		b	.L39
 1093              	.L33:
 434:ble_process.c **** 			
 1094              		.loc 1 434 0 is_stmt 1
 1095 062c C046     		nop
 1096 062e 0AE0     		b	.L1
 1097              	.L34:
 103:ble_process.c **** 			
 1098              		.loc 1 103 0
 1099 0630 C046     		nop
 1100 0632 08E0     		b	.L1
 1101              	.L35:
 239:ble_process.c **** 		
 1102              		.loc 1 239 0
 1103 0634 C046     		nop
 1104 0636 06E0     		b	.L1
 1105              	.L36:
 368:ble_process.c **** 			
 1106              		.loc 1 368 0
 1107 0638 C046     		nop
 1108 063a 04E0     		b	.L1
 1109              	.L37:
 409:ble_process.c **** 			
 1110              		.loc 1 409 0
 1111 063c C046     		nop
 1112 063e 02E0     		b	.L1
 1113              	.L38:
 458:ble_process.c **** 
 1114              		.loc 1 458 0
 1115 0640 C046     		nop
 1116 0642 00E0     		b	.L1
 1117              	.L39:
 499:ble_process.c **** 			
 1118              		.loc 1 499 0
 1119 0644 C046     		nop
 1120              	.L1:
 504:ble_process.c **** 	}
 505:ble_process.c **** }
 1121              		.loc 1 505 0
 1122 0646 BD46     		mov	sp, r7
 1123 0648 19B0     		add	sp, sp, #100
 1124              		@ sp needed
 1125 064a 90BD     		pop	{r4, r7, pc}
 1126              	.L43:
 1127              		.align	2
 1128              	.L42:
 1129 064c 00000000 		.word	potential_node_found
 1130 0650 00000000 		.word	potential_node_bdAddrType
 1131 0654 00000000 		.word	potential_node_bdAddr
 1132 0658 00000000 		.word	scan_tag
 1133 065c A4010000 		.word	.LC36
 1134 0660 B4010000 		.word	.LC38
 1135 0664 00000000 		.word	peripAddr
 1136 0668 00000000 		.word	clientConnectToDevice
 1137 066c 00000000 		.word	ble_gap_state
ARM GAS  C:\Users\dmytro\AppData\Local\Temp\ccjppNo8.s 			page 34


 1138 0670 00000000 		.word	deviceConnected
 1139 0674 C8010000 		.word	.LC44
 1140 0678 00000000 		.word	cyBle_state
 1141 067c 00000000 		.word	dataADVCounter
 1142 0680 00000000 		.word	cyBle_connHandle
 1143 0684 00000000 		.word	RGBData
 1144 0688 F0010000 		.word	.LC46
 1145 068c 00000000 		.word	restartScanning
 1146 0690 0C020000 		.word	.LC49
 1147 0694 38020000 		.word	.LC51
 1148 0698 00000000 		.word	switch_Role
 1149 069c 40000000 		.word	.LC7
 1150 06a0 5C020000 		.word	.LC53
 1151              		.cfi_endproc
 1152              	.LFE35:
 1153              		.size	GenericEventHandler, .-GenericEventHandler
 1154              		.section	.rodata
 1155              		.align	2
 1156              	.LC57:
 1157 0274 50657269 		.ascii	"Peripheral closed connection \000"
 1157      70686572 
 1157      616C2063 
 1157      6C6F7365 
 1157      6420636F 
 1158 0292 0000     		.align	2
 1159              	.LC61:
 1160 0294 50657269 		.ascii	"Peripheral Advertisment Stopped \000"
 1160      70686572 
 1160      616C2041 
 1160      64766572 
 1160      7469736D 
 1161 02b5 000000   		.align	2
 1162              	.LC63:
 1163 02b8 53746172 		.ascii	"Start Scan API called \000"
 1163      74205363 
 1163      616E2041 
 1163      50492063 
 1163      616C6C65 
 1164 02cf 00       		.align	2
 1165              	.LC67:
 1166 02d0 53746172 		.ascii	"Start Scan API failed \000"
 1166      74205363 
 1166      616E2041 
 1166      50492066 
 1166      61696C65 
 1167 02e7 00       		.align	2
 1168              	.LC69:
 1169 02e8 43656E74 		.ascii	"Central Scan stopped \000"
 1169      72616C20 
 1169      5363616E 
 1169      2073746F 
 1169      70706564 
 1170 02fe 0000     		.align	2
 1171              	.LC74:
 1172 0300 55706461 		.ascii	"Updated ADV data = \000"
 1172      74656420 
 1172      41445620 
ARM GAS  C:\Users\dmytro\AppData\Local\Temp\ccjppNo8.s 			page 35


 1172      64617461 
 1172      203D2000 
 1173              		.align	2
 1174              	.LC77:
 1175 0314 50657269 		.ascii	"Peripheral Advertisment called \000"
 1175      70686572 
 1175      616C2041 
 1175      64766572 
 1175      7469736D 
 1176              		.align	2
 1177              	.LC79:
 1178 0334 53746172 		.ascii	"Start Peripheral Advertisment Failed \000"
 1178      74205065 
 1178      72697068 
 1178      6572616C 
 1178      20416476 
 1179              		.section	.text.SwitchRole,"ax",%progbits
 1180              		.align	2
 1181              		.global	SwitchRole
 1182              		.code	16
 1183              		.thumb_func
 1184              		.type	SwitchRole, %function
 1185              	SwitchRole:
 1186              	.LFB36:
 506:ble_process.c **** 
 507:ble_process.c **** /*******************************************************************************
 508:ble_process.c **** * Function Name: SwitchRole
 509:ble_process.c **** ********************************************************************************
 510:ble_process.c **** * Summary:
 511:ble_process.c **** *        This function switches the role between Central and Peripheral. If device 
 512:ble_process.c **** * is connected while switching role, then it is first disconnected.
 513:ble_process.c **** *
 514:ble_process.c **** * Parameters:
 515:ble_process.c **** *  void
 516:ble_process.c **** *
 517:ble_process.c **** * Return:
 518:ble_process.c **** *  void
 519:ble_process.c **** *
 520:ble_process.c **** *******************************************************************************/
 521:ble_process.c **** void SwitchRole(void)
 522:ble_process.c **** {
 1187              		.loc 1 522 0
 1188              		.cfi_startproc
 1189              		@ args = 0, pretend = 0, frame = 8
 1190              		@ frame_needed = 1, uses_anonymous_args = 0
 1191 0000 90B5     		push	{r4, r7, lr}
 1192              		.cfi_def_cfa_offset 12
 1193              		.cfi_offset 4, -12
 1194              		.cfi_offset 7, -8
 1195              		.cfi_offset 14, -4
 1196 0002 83B0     		sub	sp, sp, #12
 1197              		.cfi_def_cfa_offset 24
 1198 0004 00AF     		add	r7, sp, #0
 1199              		.cfi_def_cfa_register 7
 523:ble_process.c **** 	CYBLE_API_RESULT_T  apiResult;
 524:ble_process.c **** 	
 525:ble_process.c **** 	/* if the switch role flag is set... */
ARM GAS  C:\Users\dmytro\AppData\Local\Temp\ccjppNo8.s 			page 36


 526:ble_process.c **** 	if(switch_Role == TRUE)
 1200              		.loc 1 526 0
 1201 0006 684B     		ldr	r3, .L57
 1202 0008 1B78     		ldrb	r3, [r3]
 1203 000a 012B     		cmp	r3, #1
 1204 000c 00D0     		beq	.LCB846
 1205 000e C6E0     		b	.L56	@long jump
 1206              	.LCB846:
 527:ble_process.c **** 	{	
 528:ble_process.c **** 		/* Process pending BLE events */
 529:ble_process.c **** 		CyBle_ProcessEvents();
 1207              		.loc 1 529 0
 1208 0010 FFF7FEFF 		bl	CyBle_ProcessEvents
 530:ble_process.c **** 		
 531:ble_process.c **** 		/* If there is an existing connection, then disconnect before switching
 532:ble_process.c **** 		* role. */
 533:ble_process.c **** 		if((cyBle_connHandle.bdHandle != 0))
 1209              		.loc 1 533 0
 1210 0014 654B     		ldr	r3, .L57+4
 1211 0016 1B78     		ldrb	r3, [r3]
 1212 0018 002B     		cmp	r3, #0
 1213 001a 12D0     		beq	.L46
 534:ble_process.c **** 		{
 535:ble_process.c **** 			/* Disconnect the device and process the event */
 536:ble_process.c **** 			CyBle_GapDisconnect(cyBle_connHandle.bdHandle);
 1214              		.loc 1 536 0
 1215 001c 634B     		ldr	r3, .L57+4
 1216 001e 1B78     		ldrb	r3, [r3]
 1217 0020 1800     		movs	r0, r3
 1218 0022 FFF7FEFF 		bl	CyBle_GapDisconnect
 537:ble_process.c **** 			CyBle_ProcessEvents();
 1219              		.loc 1 537 0
 1220 0026 FFF7FEFF 		bl	CyBle_ProcessEvents
 538:ble_process.c **** 			#ifdef DEBUG_ENABLED
 539:ble_process.c **** 			UART_UartPutString("Peripheral closed connection ");
 1221              		.loc 1 539 0
 1222 002a 614B     		ldr	r3, .L57+8
 1223 002c 1800     		movs	r0, r3
 1224 002e FFF7FEFF 		bl	UART_UartPutString
 540:ble_process.c **** 			SendBLEStatetoUART(CyBle_GetState());
 1225              		.loc 1 540 0
 1226 0032 604B     		ldr	r3, .L57+12
 1227 0034 1B78     		ldrb	r3, [r3]
 1228 0036 1800     		movs	r0, r3
 1229 0038 FFF7FEFF 		bl	SendBLEStatetoUART
 541:ble_process.c **** 			UART_UartPutCRLF(' ');
 1230              		.loc 1 541 0
 1231 003c 2020     		movs	r0, #32
 1232 003e FFF7FEFF 		bl	UART_UartPutCRLF
 1233              	.L46:
 542:ble_process.c **** 			#endif
 543:ble_process.c **** 		}		
 544:ble_process.c **** 		
 545:ble_process.c **** 		switch(ble_gap_state)
 1234              		.loc 1 545 0
 1235 0042 5D4B     		ldr	r3, .L57+16
 1236 0044 1B78     		ldrb	r3, [r3]
ARM GAS  C:\Users\dmytro\AppData\Local\Temp\ccjppNo8.s 			page 37


 1237 0046 012B     		cmp	r3, #1
 1238 0048 02D0     		beq	.L48
 1239 004a 022B     		cmp	r3, #2
 1240 004c 4CD0     		beq	.L49
 546:ble_process.c **** 		{
 547:ble_process.c **** 			case BLE_PERIPHERAL:
 548:ble_process.c **** 				/* If the current role is Peripheral and system is advertising,
 549:ble_process.c **** 				* then stop advertisement before switching role */
 550:ble_process.c **** 				if(CyBle_GetState() == CYBLE_STATE_ADVERTISING)
 551:ble_process.c **** 				{
 552:ble_process.c **** 					CyBle_GappStopAdvertisement();
 553:ble_process.c **** 					CyBle_ProcessEvents();
 554:ble_process.c **** 
 555:ble_process.c **** 					#ifdef DEBUG_ENABLED
 556:ble_process.c **** 						UART_UartPutString("Peripheral Advertisment Stopped ");
 557:ble_process.c **** 						SendBLEStatetoUART(CyBle_GetState());
 558:ble_process.c **** 						UART_UartPutCRLF(' ');
 559:ble_process.c **** 					#endif
 560:ble_process.c **** 				}
 561:ble_process.c **** 				
 562:ble_process.c **** 				if(CyBle_GetState() == CYBLE_STATE_DISCONNECTED)
 563:ble_process.c **** 				{
 564:ble_process.c **** 					/* Switch BLE role by starting scan. This way, the system is set
 565:ble_process.c **** 					* to Central role */
 566:ble_process.c **** 					apiResult = CyBle_GapcStartScan(CYBLE_SCANNING_FAST);
 567:ble_process.c **** 					
 568:ble_process.c **** 					if(CYBLE_ERROR_OK == apiResult)
 569:ble_process.c **** 					{
 570:ble_process.c **** 						#ifdef DEBUG_ENABLED
 571:ble_process.c **** 						UART_UartPutString("Start Scan API called ");
 572:ble_process.c **** 						SendBLEStatetoUART(CyBle_GetState());
 573:ble_process.c **** 						UART_UartPutCRLF(' ');
 574:ble_process.c **** 						#endif
 575:ble_process.c **** 						
 576:ble_process.c **** 						/* Record the time at which Central role was started. This will be 
 577:ble_process.c **** 						* used for timeout and switching to Peripheral operation*/
 578:ble_process.c **** 						centralStartedTime = WatchDog_CurrentCount();
 579:ble_process.c **** 						
 580:ble_process.c **** 						/* Update the current BLE role to Central */
 581:ble_process.c **** 						ble_gap_state = BLE_CENTRAL;
 582:ble_process.c **** 						
 583:ble_process.c **** 						/* Reset the switch role flag*/
 584:ble_process.c **** 						switch_Role = FALSE;
 585:ble_process.c **** 					}
 586:ble_process.c **** 					else
 587:ble_process.c **** 					{
 588:ble_process.c **** 						/* If scanning did not start, maintain the current role and retry later */
 589:ble_process.c **** 						ble_gap_state = BLE_PERIPHERAL;
 590:ble_process.c **** 						
 591:ble_process.c **** 						#ifdef DEBUG_ENABLED
 592:ble_process.c **** 						UART_UartPutString("Start Scan API failed ");
 593:ble_process.c **** 						SendBLEStatetoUART(CyBle_GetState());
 594:ble_process.c **** 						UART_UartPutCRLF(' ');
 595:ble_process.c **** 						#endif
 596:ble_process.c **** 					}
 597:ble_process.c **** 				}
 598:ble_process.c **** 				
ARM GAS  C:\Users\dmytro\AppData\Local\Temp\ccjppNo8.s 			page 38


 599:ble_process.c **** 				/* Process Pending BLE Events */
 600:ble_process.c **** 				CyBle_ProcessEvents();
 601:ble_process.c **** 				
 602:ble_process.c **** 			break;
 603:ble_process.c **** 			
 604:ble_process.c **** 			case BLE_CENTRAL:
 605:ble_process.c **** 				/* If the current role is Central and system is scanning,
 606:ble_process.c **** 				* then stop scanning before switching role */
 607:ble_process.c **** 				if(CyBle_GetState() == CYBLE_STATE_SCANNING)
 608:ble_process.c **** 				{
 609:ble_process.c **** 					CyBle_GapcStopScan();
 610:ble_process.c **** 					CyBle_ProcessEvents();
 611:ble_process.c **** 					
 612:ble_process.c **** 					#ifdef DEBUG_ENABLED
 613:ble_process.c **** 						UART_UartPutString("Central Scan stopped ");
 614:ble_process.c **** 						UART_UartPutCRLF(' ');
 615:ble_process.c **** 					#endif
 616:ble_process.c **** 				}
 617:ble_process.c **** 				
 618:ble_process.c **** 				if(CyBle_GetState() == CYBLE_STATE_DISCONNECTED)
 619:ble_process.c **** 				{
 620:ble_process.c **** 					#ifdef ENABLE_ADV_DATA_COUNTER
 621:ble_process.c **** 					/* Increment data counter */
 622:ble_process.c **** 					new_advData.advData[new_advData.advDataLen - 1] = dataADVCounter;
 623:ble_process.c **** 					
 624:ble_process.c **** 					cyBle_discoveryModeInfo.advData = &new_advData;
 625:ble_process.c **** 					
 626:ble_process.c **** 					#ifdef DEBUG_ENABLED
 627:ble_process.c **** 						UART_UartPutString("Updated ADV data = ");
 628:ble_process.c **** 						PrintNum(dataADVCounter);
 629:ble_process.c **** 						UART_UartPutCRLF(' ');
 630:ble_process.c **** 					#endif
 631:ble_process.c **** 					#endif
 632:ble_process.c **** 					
 633:ble_process.c **** 					/* Switch BLE role by starting advertisement. This way, the system is 
 634:ble_process.c **** 					* set to Peripheral role */
 635:ble_process.c **** 					apiResult = CyBle_GappStartAdvertisement(CYBLE_ADVERTISING_FAST);
 636:ble_process.c **** 					
 637:ble_process.c **** 					if(apiResult == CYBLE_ERROR_OK)
 638:ble_process.c **** 					{
 639:ble_process.c **** 						/* If advertisement started successfully, set the BLE state and
 640:ble_process.c **** 						* reset the switch role flag*/
 641:ble_process.c **** 						ble_gap_state = BLE_PERIPHERAL;
 642:ble_process.c **** 						clientConnectToDevice = FALSE;	
 643:ble_process.c **** 						switch_Role = FALSE;
 644:ble_process.c **** 						
 645:ble_process.c **** 						#ifdef DEBUG_ENABLED
 646:ble_process.c **** 						UART_UartPutString("Peripheral Advertisment called ");
 647:ble_process.c **** 						SendBLEStatetoUART(CyBle_GetState());
 648:ble_process.c **** 						UART_UartPutCRLF(' ');
 649:ble_process.c **** 						#endif
 650:ble_process.c **** 					}
 651:ble_process.c **** 					else
 652:ble_process.c **** 					{
 653:ble_process.c **** 						/* If advertisement did not start, maintain the current role and retry later */
 654:ble_process.c **** 						ble_gap_state = BLE_CENTRAL;
 655:ble_process.c **** 						
ARM GAS  C:\Users\dmytro\AppData\Local\Temp\ccjppNo8.s 			page 39


 656:ble_process.c **** 						#ifdef DEBUG_ENABLED
 657:ble_process.c **** 						UART_UartPutString("Start Peripheral Advertisment Failed ");
 658:ble_process.c **** 						SendBLEStatetoUART(CyBle_GetState());
 659:ble_process.c **** 						UART_UartPutCRLF(' ');
 660:ble_process.c **** 						#endif					
 661:ble_process.c **** 					}
 662:ble_process.c **** 				}
 663:ble_process.c **** 				
 664:ble_process.c **** 				/* Process Pending BLE Events */
 665:ble_process.c **** 				CyBle_ProcessEvents();
 666:ble_process.c **** 			break;
 667:ble_process.c **** 			
 668:ble_process.c **** 			default:
 669:ble_process.c **** 			
 670:ble_process.c **** 			break;
 1241              		.loc 1 670 0
 1242 004e A6E0     		b	.L45
 1243              	.L48:
 550:ble_process.c **** 				{
 1244              		.loc 1 550 0
 1245 0050 584B     		ldr	r3, .L57+12
 1246 0052 1B78     		ldrb	r3, [r3]
 1247 0054 032B     		cmp	r3, #3
 1248 0056 0FD1     		bne	.L50
 552:ble_process.c **** 					CyBle_ProcessEvents();
 1249              		.loc 1 552 0
 1250 0058 FFF7FEFF 		bl	CyBle_GappStopAdvertisement
 553:ble_process.c **** 
 1251              		.loc 1 553 0
 1252 005c FFF7FEFF 		bl	CyBle_ProcessEvents
 556:ble_process.c **** 						SendBLEStatetoUART(CyBle_GetState());
 1253              		.loc 1 556 0
 1254 0060 564B     		ldr	r3, .L57+20
 1255 0062 1800     		movs	r0, r3
 1256 0064 FFF7FEFF 		bl	UART_UartPutString
 557:ble_process.c **** 						UART_UartPutCRLF(' ');
 1257              		.loc 1 557 0
 1258 0068 524B     		ldr	r3, .L57+12
 1259 006a 1B78     		ldrb	r3, [r3]
 1260 006c 1800     		movs	r0, r3
 1261 006e FFF7FEFF 		bl	SendBLEStatetoUART
 558:ble_process.c **** 					#endif
 1262              		.loc 1 558 0
 1263 0072 2020     		movs	r0, #32
 1264 0074 FFF7FEFF 		bl	UART_UartPutCRLF
 1265              	.L50:
 562:ble_process.c **** 				{
 1266              		.loc 1 562 0
 1267 0078 4E4B     		ldr	r3, .L57+12
 1268 007a 1B78     		ldrb	r3, [r3]
 1269 007c 062B     		cmp	r3, #6
 1270 007e 30D1     		bne	.L51
 566:ble_process.c **** 					
 1271              		.loc 1 566 0
 1272 0080 BC1D     		adds	r4, r7, #6
 1273 0082 0020     		movs	r0, #0
 1274 0084 FFF7FEFF 		bl	CyBle_GapcStartScan
ARM GAS  C:\Users\dmytro\AppData\Local\Temp\ccjppNo8.s 			page 40


 1275 0088 0300     		movs	r3, r0
 1276 008a 2380     		strh	r3, [r4]
 568:ble_process.c **** 					{
 1277              		.loc 1 568 0
 1278 008c BB1D     		adds	r3, r7, #6
 1279 008e 1B88     		ldrh	r3, [r3]
 1280 0090 002B     		cmp	r3, #0
 1281 0092 17D1     		bne	.L52
 571:ble_process.c **** 						SendBLEStatetoUART(CyBle_GetState());
 1282              		.loc 1 571 0
 1283 0094 4A4B     		ldr	r3, .L57+24
 1284 0096 1800     		movs	r0, r3
 1285 0098 FFF7FEFF 		bl	UART_UartPutString
 572:ble_process.c **** 						UART_UartPutCRLF(' ');
 1286              		.loc 1 572 0
 1287 009c 454B     		ldr	r3, .L57+12
 1288 009e 1B78     		ldrb	r3, [r3]
 1289 00a0 1800     		movs	r0, r3
 1290 00a2 FFF7FEFF 		bl	SendBLEStatetoUART
 573:ble_process.c **** 						#endif
 1291              		.loc 1 573 0
 1292 00a6 2020     		movs	r0, #32
 1293 00a8 FFF7FEFF 		bl	UART_UartPutCRLF
 578:ble_process.c **** 						
 1294              		.loc 1 578 0
 1295 00ac 454B     		ldr	r3, .L57+28
 1296 00ae 1B88     		ldrh	r3, [r3]
 1297 00b0 9AB2     		uxth	r2, r3
 1298 00b2 454B     		ldr	r3, .L57+32
 1299 00b4 1A80     		strh	r2, [r3]
 581:ble_process.c **** 						
 1300              		.loc 1 581 0
 1301 00b6 404B     		ldr	r3, .L57+16
 1302 00b8 0222     		movs	r2, #2
 1303 00ba 1A70     		strb	r2, [r3]
 584:ble_process.c **** 					}
 1304              		.loc 1 584 0
 1305 00bc 3A4B     		ldr	r3, .L57
 1306 00be 0022     		movs	r2, #0
 1307 00c0 1A70     		strb	r2, [r3]
 1308 00c2 0EE0     		b	.L51
 1309              	.L52:
 589:ble_process.c **** 						
 1310              		.loc 1 589 0
 1311 00c4 3C4B     		ldr	r3, .L57+16
 1312 00c6 0122     		movs	r2, #1
 1313 00c8 1A70     		strb	r2, [r3]
 592:ble_process.c **** 						SendBLEStatetoUART(CyBle_GetState());
 1314              		.loc 1 592 0
 1315 00ca 404B     		ldr	r3, .L57+36
 1316 00cc 1800     		movs	r0, r3
 1317 00ce FFF7FEFF 		bl	UART_UartPutString
 593:ble_process.c **** 						UART_UartPutCRLF(' ');
 1318              		.loc 1 593 0
 1319 00d2 384B     		ldr	r3, .L57+12
 1320 00d4 1B78     		ldrb	r3, [r3]
 1321 00d6 1800     		movs	r0, r3
ARM GAS  C:\Users\dmytro\AppData\Local\Temp\ccjppNo8.s 			page 41


 1322 00d8 FFF7FEFF 		bl	SendBLEStatetoUART
 594:ble_process.c **** 						#endif
 1323              		.loc 1 594 0
 1324 00dc 2020     		movs	r0, #32
 1325 00de FFF7FEFF 		bl	UART_UartPutCRLF
 1326              	.L51:
 600:ble_process.c **** 				
 1327              		.loc 1 600 0
 1328 00e2 FFF7FEFF 		bl	CyBle_ProcessEvents
 602:ble_process.c **** 			
 1329              		.loc 1 602 0
 1330 00e6 5AE0     		b	.L45
 1331              	.L49:
 607:ble_process.c **** 				{
 1332              		.loc 1 607 0
 1333 00e8 324B     		ldr	r3, .L57+12
 1334 00ea 1B78     		ldrb	r3, [r3]
 1335 00ec 042B     		cmp	r3, #4
 1336 00ee 0AD1     		bne	.L53
 609:ble_process.c **** 					CyBle_ProcessEvents();
 1337              		.loc 1 609 0
 1338 00f0 FFF7FEFF 		bl	CyBle_GapcStopScan
 610:ble_process.c **** 					
 1339              		.loc 1 610 0
 1340 00f4 FFF7FEFF 		bl	CyBle_ProcessEvents
 613:ble_process.c **** 						UART_UartPutCRLF(' ');
 1341              		.loc 1 613 0
 1342 00f8 354B     		ldr	r3, .L57+40
 1343 00fa 1800     		movs	r0, r3
 1344 00fc FFF7FEFF 		bl	UART_UartPutString
 614:ble_process.c **** 					#endif
 1345              		.loc 1 614 0
 1346 0100 2020     		movs	r0, #32
 1347 0102 FFF7FEFF 		bl	UART_UartPutCRLF
 1348              	.L53:
 618:ble_process.c **** 				{
 1349              		.loc 1 618 0
 1350 0106 2B4B     		ldr	r3, .L57+12
 1351 0108 1B78     		ldrb	r3, [r3]
 1352 010a 062B     		cmp	r3, #6
 1353 010c 44D1     		bne	.L54
 622:ble_process.c **** 					
 1354              		.loc 1 622 0
 1355 010e 314B     		ldr	r3, .L57+44
 1356 0110 DB7F     		ldrb	r3, [r3, #31]
 1357 0112 013B     		subs	r3, r3, #1
 1358 0114 304A     		ldr	r2, .L57+48
 1359 0116 1178     		ldrb	r1, [r2]
 1360 0118 2E4A     		ldr	r2, .L57+44
 1361 011a D154     		strb	r1, [r2, r3]
 624:ble_process.c **** 					
 1362              		.loc 1 624 0
 1363 011c 2F4B     		ldr	r3, .L57+52
 1364 011e 2D4A     		ldr	r2, .L57+44
 1365 0120 9A60     		str	r2, [r3, #8]
 627:ble_process.c **** 						PrintNum(dataADVCounter);
 1366              		.loc 1 627 0
ARM GAS  C:\Users\dmytro\AppData\Local\Temp\ccjppNo8.s 			page 42


 1367 0122 2F4B     		ldr	r3, .L57+56
 1368 0124 1800     		movs	r0, r3
 1369 0126 FFF7FEFF 		bl	UART_UartPutString
 628:ble_process.c **** 						UART_UartPutCRLF(' ');
 1370              		.loc 1 628 0
 1371 012a 2B4B     		ldr	r3, .L57+48
 1372 012c 1B78     		ldrb	r3, [r3]
 1373 012e 1800     		movs	r0, r3
 1374 0130 FFF7FEFF 		bl	PrintNum
 629:ble_process.c **** 					#endif
 1375              		.loc 1 629 0
 1376 0134 2020     		movs	r0, #32
 1377 0136 FFF7FEFF 		bl	UART_UartPutCRLF
 635:ble_process.c **** 					
 1378              		.loc 1 635 0
 1379 013a BC1D     		adds	r4, r7, #6
 1380 013c 0020     		movs	r0, #0
 1381 013e FFF7FEFF 		bl	CyBle_GappStartAdvertisement
 1382 0142 0300     		movs	r3, r0
 1383 0144 2380     		strh	r3, [r4]
 637:ble_process.c **** 					{
 1384              		.loc 1 637 0
 1385 0146 BB1D     		adds	r3, r7, #6
 1386 0148 1B88     		ldrh	r3, [r3]
 1387 014a 002B     		cmp	r3, #0
 1388 014c 15D1     		bne	.L55
 641:ble_process.c **** 						clientConnectToDevice = FALSE;	
 1389              		.loc 1 641 0
 1390 014e 1A4B     		ldr	r3, .L57+16
 1391 0150 0122     		movs	r2, #1
 1392 0152 1A70     		strb	r2, [r3]
 642:ble_process.c **** 						switch_Role = FALSE;
 1393              		.loc 1 642 0
 1394 0154 234B     		ldr	r3, .L57+60
 1395 0156 0022     		movs	r2, #0
 1396 0158 1A70     		strb	r2, [r3]
 643:ble_process.c **** 						
 1397              		.loc 1 643 0
 1398 015a 134B     		ldr	r3, .L57
 1399 015c 0022     		movs	r2, #0
 1400 015e 1A70     		strb	r2, [r3]
 646:ble_process.c **** 						SendBLEStatetoUART(CyBle_GetState());
 1401              		.loc 1 646 0
 1402 0160 214B     		ldr	r3, .L57+64
 1403 0162 1800     		movs	r0, r3
 1404 0164 FFF7FEFF 		bl	UART_UartPutString
 647:ble_process.c **** 						UART_UartPutCRLF(' ');
 1405              		.loc 1 647 0
 1406 0168 124B     		ldr	r3, .L57+12
 1407 016a 1B78     		ldrb	r3, [r3]
 1408 016c 1800     		movs	r0, r3
 1409 016e FFF7FEFF 		bl	SendBLEStatetoUART
 648:ble_process.c **** 						#endif
 1410              		.loc 1 648 0
 1411 0172 2020     		movs	r0, #32
 1412 0174 FFF7FEFF 		bl	UART_UartPutCRLF
 1413 0178 0EE0     		b	.L54
ARM GAS  C:\Users\dmytro\AppData\Local\Temp\ccjppNo8.s 			page 43


 1414              	.L55:
 654:ble_process.c **** 						
 1415              		.loc 1 654 0
 1416 017a 0F4B     		ldr	r3, .L57+16
 1417 017c 0222     		movs	r2, #2
 1418 017e 1A70     		strb	r2, [r3]
 657:ble_process.c **** 						SendBLEStatetoUART(CyBle_GetState());
 1419              		.loc 1 657 0
 1420 0180 1A4B     		ldr	r3, .L57+68
 1421 0182 1800     		movs	r0, r3
 1422 0184 FFF7FEFF 		bl	UART_UartPutString
 658:ble_process.c **** 						UART_UartPutCRLF(' ');
 1423              		.loc 1 658 0
 1424 0188 0A4B     		ldr	r3, .L57+12
 1425 018a 1B78     		ldrb	r3, [r3]
 1426 018c 1800     		movs	r0, r3
 1427 018e FFF7FEFF 		bl	SendBLEStatetoUART
 659:ble_process.c **** 						#endif					
 1428              		.loc 1 659 0
 1429 0192 2020     		movs	r0, #32
 1430 0194 FFF7FEFF 		bl	UART_UartPutCRLF
 1431              	.L54:
 665:ble_process.c **** 			break;
 1432              		.loc 1 665 0
 1433 0198 FFF7FEFF 		bl	CyBle_ProcessEvents
 666:ble_process.c **** 			
 1434              		.loc 1 666 0
 1435 019c C046     		nop
 1436              	.L45:
 1437              	.L56:
 671:ble_process.c **** 			
 672:ble_process.c **** 		}
 673:ble_process.c **** 	}
 674:ble_process.c **** }
 1438              		.loc 1 674 0
 1439 019e C046     		nop
 1440 01a0 BD46     		mov	sp, r7
 1441 01a2 03B0     		add	sp, sp, #12
 1442              		@ sp needed
 1443 01a4 90BD     		pop	{r4, r7, pc}
 1444              	.L58:
 1445 01a6 C046     		.align	2
 1446              	.L57:
 1447 01a8 00000000 		.word	switch_Role
 1448 01ac 00000000 		.word	cyBle_connHandle
 1449 01b0 74020000 		.word	.LC57
 1450 01b4 00000000 		.word	cyBle_state
 1451 01b8 00000000 		.word	ble_gap_state
 1452 01bc 94020000 		.word	.LC61
 1453 01c0 B8020000 		.word	.LC63
 1454 01c4 00000000 		.word	current_watchdog_counter
 1455 01c8 00000000 		.word	centralStartedTime
 1456 01cc D0020000 		.word	.LC67
 1457 01d0 E8020000 		.word	.LC69
 1458 01d4 00000000 		.word	new_advData
 1459 01d8 00000000 		.word	dataADVCounter
 1460 01dc 00000000 		.word	cyBle_discoveryModeInfo
ARM GAS  C:\Users\dmytro\AppData\Local\Temp\ccjppNo8.s 			page 44


 1461 01e0 00030000 		.word	.LC74
 1462 01e4 00000000 		.word	clientConnectToDevice
 1463 01e8 14030000 		.word	.LC77
 1464 01ec 34030000 		.word	.LC79
 1465              		.cfi_endproc
 1466              	.LFE36:
 1467              		.size	SwitchRole, .-SwitchRole
 1468              		.section	.rodata
 1469 035a 0000     		.align	2
 1470              	.LC84:
 1471 035c 436F6E6E 		.ascii	"Connect Request failed \000"
 1471      65637420 
 1471      52657175 
 1471      65737420 
 1471      6661696C 
 1472              		.align	2
 1473              	.LC86:
 1474 0374 436F6E6E 		.ascii	"Connect Request Sent \000"
 1474      65637420 
 1474      52657175 
 1474      65737420 
 1474      53656E74 
 1475              		.section	.text.ConnectToPeripheralDevice,"ax",%progbits
 1476              		.align	2
 1477              		.global	ConnectToPeripheralDevice
 1478              		.code	16
 1479              		.thumb_func
 1480              		.type	ConnectToPeripheralDevice, %function
 1481              	ConnectToPeripheralDevice:
 1482              	.LFB37:
 675:ble_process.c **** 
 676:ble_process.c **** /*******************************************************************************
 677:ble_process.c **** * Function Name: ConnectToPeripheralDevice
 678:ble_process.c **** ********************************************************************************
 679:ble_process.c **** * Summary:
 680:ble_process.c **** *        Connects to Peripheral device with given BD Address.
 681:ble_process.c **** *
 682:ble_process.c **** * Parameters:
 683:ble_process.c **** *  void
 684:ble_process.c **** *
 685:ble_process.c **** * Return:
 686:ble_process.c **** *  void
 687:ble_process.c **** *
 688:ble_process.c **** *******************************************************************************/
 689:ble_process.c **** void ConnectToPeripheralDevice(void)
 690:ble_process.c **** {
 1483              		.loc 1 690 0
 1484              		.cfi_startproc
 1485              		@ args = 0, pretend = 0, frame = 8
 1486              		@ frame_needed = 1, uses_anonymous_args = 0
 1487 0000 90B5     		push	{r4, r7, lr}
 1488              		.cfi_def_cfa_offset 12
 1489              		.cfi_offset 4, -12
 1490              		.cfi_offset 7, -8
 1491              		.cfi_offset 14, -4
 1492 0002 83B0     		sub	sp, sp, #12
 1493              		.cfi_def_cfa_offset 24
ARM GAS  C:\Users\dmytro\AppData\Local\Temp\ccjppNo8.s 			page 45


 1494 0004 00AF     		add	r7, sp, #0
 1495              		.cfi_def_cfa_register 7
 691:ble_process.c **** 	CYBLE_API_RESULT_T  apiResult;
 692:ble_process.c **** 	
 693:ble_process.c **** 	/* If flag has been set to connect to a device... */
 694:ble_process.c **** 	if(clientConnectToDevice)
 1496              		.loc 1 694 0
 1497 0006 1B4B     		ldr	r3, .L64
 1498 0008 1B78     		ldrb	r3, [r3]
 1499 000a 002B     		cmp	r3, #0
 1500 000c 2ED0     		beq	.L63
 695:ble_process.c **** 	{
 696:ble_process.c **** 		/* Process pending BLE events */
 697:ble_process.c **** 		CyBle_ProcessEvents();
 1501              		.loc 1 697 0
 1502 000e FFF7FEFF 		bl	CyBle_ProcessEvents
 698:ble_process.c **** 			
 699:ble_process.c **** 		#if 0
 700:ble_process.c **** 		if(CYBLE_STATE_SCANNING == CyBle_GetState())
 701:ble_process.c **** 		{
 702:ble_process.c **** 			CyBle_GapcStopScan();
 703:ble_process.c **** 			#ifdef DEBUG_ENABLED
 704:ble_process.c **** 				UART_UartPutString("Stop Scan called from clientConnectToDevice ");
 705:ble_process.c **** 				SendBLEStatetoUART(CyBle_GetState());
 706:ble_process.c **** 				UART_UartPutCRLF(' ');
 707:ble_process.c **** 			#endif
 708:ble_process.c **** 			CyBle_ProcessEvents();
 709:ble_process.c **** 		}
 710:ble_process.c **** 		#endif
 711:ble_process.c **** 			
 712:ble_process.c **** 		if(CYBLE_STATE_DISCONNECTED == CyBle_GetState())
 1503              		.loc 1 712 0
 1504 0012 194B     		ldr	r3, .L64+4
 1505 0014 1B78     		ldrb	r3, [r3]
 1506 0016 062B     		cmp	r3, #6
 1507 0018 28D1     		bne	.L63
 713:ble_process.c **** 		{
 714:ble_process.c **** 			/* Reset the flag to connect to a device*/
 715:ble_process.c **** 			clientConnectToDevice = FALSE;
 1508              		.loc 1 715 0
 1509 001a 164B     		ldr	r3, .L64
 1510 001c 0022     		movs	r2, #0
 1511 001e 1A70     		strb	r2, [r3]
 716:ble_process.c **** 
 717:ble_process.c **** 			/* Connect to the device whose address has been saved as part of 
 718:ble_process.c **** 			* potential node search */
 719:ble_process.c **** 			apiResult = CyBle_GapcConnectDevice(&peripAddr);
 1512              		.loc 1 719 0
 1513 0020 BC1D     		adds	r4, r7, #6
 1514 0022 164B     		ldr	r3, .L64+8
 1515 0024 1800     		movs	r0, r3
 1516 0026 FFF7FEFF 		bl	CyBle_GapcConnectDevice
 1517 002a 0300     		movs	r3, r0
 1518 002c 2380     		strh	r3, [r4]
 720:ble_process.c **** 			
 721:ble_process.c **** 			if(apiResult != CYBLE_ERROR_OK)
 1519              		.loc 1 721 0
ARM GAS  C:\Users\dmytro\AppData\Local\Temp\ccjppNo8.s 			page 46


 1520 002e BB1D     		adds	r3, r7, #6
 1521 0030 1B88     		ldrh	r3, [r3]
 1522 0032 002B     		cmp	r3, #0
 1523 0034 0CD0     		beq	.L61
 722:ble_process.c **** 			{
 723:ble_process.c **** 				#ifdef DEBUG_ENABLED
 724:ble_process.c **** 					UART_UartPutString("Connect Request failed ");
 1524              		.loc 1 724 0
 1525 0036 124B     		ldr	r3, .L64+12
 1526 0038 1800     		movs	r0, r3
 1527 003a FFF7FEFF 		bl	UART_UartPutString
 725:ble_process.c **** 					SendBLEStatetoUART(CyBle_GetState());
 1528              		.loc 1 725 0
 1529 003e 0E4B     		ldr	r3, .L64+4
 1530 0040 1B78     		ldrb	r3, [r3]
 1531 0042 1800     		movs	r0, r3
 1532 0044 FFF7FEFF 		bl	SendBLEStatetoUART
 726:ble_process.c **** 					UART_UartPutCRLF(' ');
 1533              		.loc 1 726 0
 1534 0048 2020     		movs	r0, #32
 1535 004a FFF7FEFF 		bl	UART_UartPutCRLF
 1536 004e 0BE0     		b	.L62
 1537              	.L61:
 727:ble_process.c **** 				#endif
 728:ble_process.c **** 			}
 729:ble_process.c **** 			else
 730:ble_process.c **** 			{
 731:ble_process.c **** 				#ifdef DEBUG_ENABLED
 732:ble_process.c **** 					UART_UartPutString("Connect Request Sent ");
 1538              		.loc 1 732 0
 1539 0050 0C4B     		ldr	r3, .L64+16
 1540 0052 1800     		movs	r0, r3
 1541 0054 FFF7FEFF 		bl	UART_UartPutString
 733:ble_process.c **** 					SendBLEStatetoUART(CyBle_GetState());
 1542              		.loc 1 733 0
 1543 0058 074B     		ldr	r3, .L64+4
 1544 005a 1B78     		ldrb	r3, [r3]
 1545 005c 1800     		movs	r0, r3
 1546 005e FFF7FEFF 		bl	SendBLEStatetoUART
 734:ble_process.c **** 					UART_UartPutCRLF(' ');
 1547              		.loc 1 734 0
 1548 0062 2020     		movs	r0, #32
 1549 0064 FFF7FEFF 		bl	UART_UartPutCRLF
 1550              	.L62:
 735:ble_process.c **** 				#endif	
 736:ble_process.c **** 			}
 737:ble_process.c **** 		
 738:ble_process.c **** 			/* Process pending BLE events */
 739:ble_process.c **** 			CyBle_ProcessEvents();
 1551              		.loc 1 739 0
 1552 0068 FFF7FEFF 		bl	CyBle_ProcessEvents
 1553              	.L63:
 740:ble_process.c **** 		}
 741:ble_process.c **** 	}
 742:ble_process.c **** }
 1554              		.loc 1 742 0
 1555 006c C046     		nop
ARM GAS  C:\Users\dmytro\AppData\Local\Temp\ccjppNo8.s 			page 47


 1556 006e BD46     		mov	sp, r7
 1557 0070 03B0     		add	sp, sp, #12
 1558              		@ sp needed
 1559 0072 90BD     		pop	{r4, r7, pc}
 1560              	.L65:
 1561              		.align	2
 1562              	.L64:
 1563 0074 00000000 		.word	clientConnectToDevice
 1564 0078 00000000 		.word	cyBle_state
 1565 007c 00000000 		.word	peripAddr
 1566 0080 5C030000 		.word	.LC84
 1567 0084 74030000 		.word	.LC86
 1568              		.cfi_endproc
 1569              	.LFE37:
 1570              		.size	ConnectToPeripheralDevice, .-ConnectToPeripheralDevice
 1571              		.section	.rodata
 1572 038a 0000     		.align	2
 1573              	.LC93:
 1574 038c 73776974 		.ascii	"switchRole from restartScanning loop \000"
 1574      6368526F 
 1574      6C652066 
 1574      726F6D20 
 1574      72657374 
 1575 03b2 0000     		.align	2
 1576              	.LC96:
 1577 03b4 72657374 		.ascii	"restartScanning loop \000"
 1577      61727453 
 1577      63616E6E 
 1577      696E6720 
 1577      6C6F6F70 
 1578 03ca 0000     		.align	2
 1579              	.LC98:
 1580 03cc 53746172 		.ascii	"Start Scan from restartScanning loop \000"
 1580      74205363 
 1580      616E2066 
 1580      726F6D20 
 1580      72657374 
 1581              		.section	.text.RestartCentralScanning,"ax",%progbits
 1582              		.align	2
 1583              		.global	RestartCentralScanning
 1584              		.code	16
 1585              		.thumb_func
 1586              		.type	RestartCentralScanning, %function
 1587              	RestartCentralScanning:
 1588              	.LFB38:
 743:ble_process.c **** 
 744:ble_process.c **** /*******************************************************************************
 745:ble_process.c **** * Function Name: RestartCentralScanning
 746:ble_process.c **** ********************************************************************************
 747:ble_process.c **** * Summary:
 748:ble_process.c **** *        Restarts Central scanning. Also, if the time that the device has remained
 749:ble_process.c **** * in Central role exceeds pre-determined value, then the switch role flag is set.
 750:ble_process.c **** *
 751:ble_process.c **** * Parameters:
 752:ble_process.c **** *  void
 753:ble_process.c **** *
 754:ble_process.c **** * Return:
ARM GAS  C:\Users\dmytro\AppData\Local\Temp\ccjppNo8.s 			page 48


 755:ble_process.c **** *  void
 756:ble_process.c **** *
 757:ble_process.c **** *******************************************************************************/
 758:ble_process.c **** void RestartCentralScanning(void)
 759:ble_process.c **** {
 1589              		.loc 1 759 0
 1590              		.cfi_startproc
 1591              		@ args = 0, pretend = 0, frame = 0
 1592              		@ frame_needed = 1, uses_anonymous_args = 0
 1593 0000 80B5     		push	{r7, lr}
 1594              		.cfi_def_cfa_offset 8
 1595              		.cfi_offset 7, -8
 1596              		.cfi_offset 14, -4
 1597 0002 00AF     		add	r7, sp, #0
 1598              		.cfi_def_cfa_register 7
 760:ble_process.c **** 	/* If the current role is Central and the Central time has exceeded the preset time,
 761:ble_process.c **** 	* then set the flag to switch role to Peripheral */
 762:ble_process.c **** 	if((BLE_CENTRAL == ble_gap_state) && 
 1599              		.loc 1 762 0
 1600 0004 214B     		ldr	r3, .L70
 1601 0006 1B78     		ldrb	r3, [r3]
 1602 0008 022B     		cmp	r3, #2
 1603 000a 1CD1     		bne	.L67
 763:ble_process.c **** 		(WatchDog_CurrentCount() - centralStartedTime > CENTRAL_STATE_SPAN) &&
 1604              		.loc 1 763 0 discriminator 1
 1605 000c 204B     		ldr	r3, .L70+4
 1606 000e 1B88     		ldrh	r3, [r3]
 1607 0010 9BB2     		uxth	r3, r3
 1608 0012 1A00     		movs	r2, r3
 1609 0014 1F4B     		ldr	r3, .L70+8
 1610 0016 1B88     		ldrh	r3, [r3]
 1611 0018 9BB2     		uxth	r3, r3
 1612 001a D31A     		subs	r3, r2, r3
 762:ble_process.c **** 		(WatchDog_CurrentCount() - centralStartedTime > CENTRAL_STATE_SPAN) &&
 1613              		.loc 1 762 0 discriminator 1
 1614 001c 2D2B     		cmp	r3, #45
 1615 001e 12DD     		ble	.L67
 764:ble_process.c **** 		((CYBLE_STATE_DISCONNECTED == CyBle_GetState()) || (CYBLE_STATE_SCANNING == CyBle_GetState())))
 1616              		.loc 1 764 0
 1617 0020 1D4B     		ldr	r3, .L70+12
 1618 0022 1B78     		ldrb	r3, [r3]
 763:ble_process.c **** 		(WatchDog_CurrentCount() - centralStartedTime > CENTRAL_STATE_SPAN) &&
 1619              		.loc 1 763 0
 1620 0024 062B     		cmp	r3, #6
 1621 0026 03D0     		beq	.L68
 1622              		.loc 1 764 0
 1623 0028 1B4B     		ldr	r3, .L70+12
 1624 002a 1B78     		ldrb	r3, [r3]
 1625 002c 042B     		cmp	r3, #4
 1626 002e 0AD1     		bne	.L67
 1627              	.L68:
 765:ble_process.c **** 	{
 766:ble_process.c **** 		/* Switch role flag set */
 767:ble_process.c **** 		switch_Role = TRUE;
 1628              		.loc 1 767 0
 1629 0030 1A4B     		ldr	r3, .L70+16
 1630 0032 0122     		movs	r2, #1
ARM GAS  C:\Users\dmytro\AppData\Local\Temp\ccjppNo8.s 			page 49


 1631 0034 1A70     		strb	r2, [r3]
 768:ble_process.c **** 		#ifdef DEBUG_ENABLED
 769:ble_process.c **** 		UART_UartPutString("switchRole from restartScanning loop ");
 1632              		.loc 1 769 0
 1633 0036 1A4B     		ldr	r3, .L70+20
 1634 0038 1800     		movs	r0, r3
 1635 003a FFF7FEFF 		bl	UART_UartPutString
 770:ble_process.c **** 		UART_UartPutCRLF(' ');
 1636              		.loc 1 770 0
 1637 003e 2020     		movs	r0, #32
 1638 0040 FFF7FEFF 		bl	UART_UartPutCRLF
 771:ble_process.c **** 		#endif
 772:ble_process.c **** 		
 773:ble_process.c **** 		return;
 1639              		.loc 1 773 0
 1640 0044 1FE0     		b	.L66
 1641              	.L67:
 774:ble_process.c **** 	}
 775:ble_process.c **** 			
 776:ble_process.c **** 	/* If restart scanning flag is set, the restart the Central scanning */
 777:ble_process.c **** 	if(restartScanning)
 1642              		.loc 1 777 0
 1643 0046 174B     		ldr	r3, .L70+24
 1644 0048 1B78     		ldrb	r3, [r3]
 1645 004a 002B     		cmp	r3, #0
 1646 004c 1BD0     		beq	.L66
 778:ble_process.c **** 	{
 779:ble_process.c **** 		/* Process pending BLE events */
 780:ble_process.c **** 		CyBle_ProcessEvents();
 1647              		.loc 1 780 0
 1648 004e FFF7FEFF 		bl	CyBle_ProcessEvents
 781:ble_process.c **** 		if(CYBLE_STATE_DISCONNECTED == CyBle_GetState())
 1649              		.loc 1 781 0
 1650 0052 114B     		ldr	r3, .L70+12
 1651 0054 1B78     		ldrb	r3, [r3]
 1652 0056 062B     		cmp	r3, #6
 1653 0058 15D1     		bne	.L66
 782:ble_process.c **** 		{
 783:ble_process.c **** 			/* Reset the restart scanning flag */
 784:ble_process.c **** 			restartScanning = FALSE;
 1654              		.loc 1 784 0
 1655 005a 124B     		ldr	r3, .L70+24
 1656 005c 0022     		movs	r2, #0
 1657 005e 1A70     		strb	r2, [r3]
 785:ble_process.c **** 			#ifdef DEBUG_ENABLED
 786:ble_process.c **** 			UART_UartPutString("restartScanning loop ");
 1658              		.loc 1 786 0
 1659 0060 114B     		ldr	r3, .L70+28
 1660 0062 1800     		movs	r0, r3
 1661 0064 FFF7FEFF 		bl	UART_UartPutString
 787:ble_process.c **** 			UART_UartPutCRLF(' ');
 1662              		.loc 1 787 0
 1663 0068 2020     		movs	r0, #32
 1664 006a FFF7FEFF 		bl	UART_UartPutCRLF
 788:ble_process.c **** 			#endif
 789:ble_process.c **** 			
 790:ble_process.c **** 			/* Start Central scan and process the event */
ARM GAS  C:\Users\dmytro\AppData\Local\Temp\ccjppNo8.s 			page 50


 791:ble_process.c **** 			CyBle_GapcStartScan(CYBLE_SCANNING_FAST);
 1665              		.loc 1 791 0
 1666 006e 0020     		movs	r0, #0
 1667 0070 FFF7FEFF 		bl	CyBle_GapcStartScan
 792:ble_process.c **** 			CyBle_ProcessEvents();
 1668              		.loc 1 792 0
 1669 0074 FFF7FEFF 		bl	CyBle_ProcessEvents
 793:ble_process.c **** 			
 794:ble_process.c **** 			#ifdef DEBUG_ENABLED
 795:ble_process.c **** 			UART_UartPutString("Start Scan from restartScanning loop ");
 1670              		.loc 1 795 0
 1671 0078 0C4B     		ldr	r3, .L70+32
 1672 007a 1800     		movs	r0, r3
 1673 007c FFF7FEFF 		bl	UART_UartPutString
 796:ble_process.c **** 			UART_UartPutCRLF(' ');
 1674              		.loc 1 796 0
 1675 0080 2020     		movs	r0, #32
 1676 0082 FFF7FEFF 		bl	UART_UartPutCRLF
 1677              	.L66:
 797:ble_process.c **** 			#endif
 798:ble_process.c **** 		}
 799:ble_process.c **** 	}
 800:ble_process.c **** }	
 1678              		.loc 1 800 0
 1679 0086 BD46     		mov	sp, r7
 1680              		@ sp needed
 1681 0088 80BD     		pop	{r7, pc}
 1682              	.L71:
 1683 008a C046     		.align	2
 1684              	.L70:
 1685 008c 00000000 		.word	ble_gap_state
 1686 0090 00000000 		.word	current_watchdog_counter
 1687 0094 00000000 		.word	centralStartedTime
 1688 0098 00000000 		.word	cyBle_state
 1689 009c 00000000 		.word	switch_Role
 1690 00a0 8C030000 		.word	.LC93
 1691 00a4 00000000 		.word	restartScanning
 1692 00a8 B4030000 		.word	.LC96
 1693 00ac CC030000 		.word	.LC98
 1694              		.cfi_endproc
 1695              	.LFE38:
 1696              		.size	RestartCentralScanning, .-RestartCentralScanning
 1697              		.section	.text.SendErrorCode,"ax",%progbits
 1698              		.align	2
 1699              		.global	SendErrorCode
 1700              		.code	16
 1701              		.thumb_func
 1702              		.type	SendErrorCode, %function
 1703              	SendErrorCode:
 1704              	.LFB39:
 801:ble_process.c **** 
 802:ble_process.c **** /*******************************************************************************
 803:ble_process.c **** * Function Name: SendErrorCode
 804:ble_process.c **** ********************************************************************************
 805:ble_process.c **** * Summary:
 806:ble_process.c **** *        Send Error code at GATT Layer
 807:ble_process.c **** *
ARM GAS  C:\Users\dmytro\AppData\Local\Temp\ccjppNo8.s 			page 51


 808:ble_process.c **** * Parameters:
 809:ble_process.c **** *  uint8 opCode, 
 810:ble_process.c **** *  CYBLE_GATT_DB_ATTR_HANDLE_T  attrHandle, 
 811:ble_process.c **** *  CYBLE_GATT_ERR_CODE_T errorCode
 812:ble_process.c **** *
 813:ble_process.c **** * Return:
 814:ble_process.c **** *  void
 815:ble_process.c **** *
 816:ble_process.c **** *******************************************************************************/
 817:ble_process.c **** void SendErrorCode(uint8 opCode, CYBLE_GATT_DB_ATTR_HANDLE_T  attrHandle, CYBLE_GATT_ERR_CODE_T err
 818:ble_process.c **** {
 1705              		.loc 1 818 0
 1706              		.cfi_startproc
 1707              		@ args = 0, pretend = 0, frame = 16
 1708              		@ frame_needed = 1, uses_anonymous_args = 0
 1709 0000 90B5     		push	{r4, r7, lr}
 1710              		.cfi_def_cfa_offset 12
 1711              		.cfi_offset 4, -12
 1712              		.cfi_offset 7, -8
 1713              		.cfi_offset 14, -4
 1714 0002 85B0     		sub	sp, sp, #20
 1715              		.cfi_def_cfa_offset 32
 1716 0004 00AF     		add	r7, sp, #0
 1717              		.cfi_def_cfa_register 7
 1718 0006 0400     		movs	r4, r0
 1719 0008 0800     		movs	r0, r1
 1720 000a 1100     		movs	r1, r2
 1721 000c FB1D     		adds	r3, r7, #7
 1722 000e 221C     		adds	r2, r4, #0
 1723 0010 1A70     		strb	r2, [r3]
 1724 0012 3B1D     		adds	r3, r7, #4
 1725 0014 021C     		adds	r2, r0, #0
 1726 0016 1A80     		strh	r2, [r3]
 1727 0018 BB1D     		adds	r3, r7, #6
 1728 001a 0A1C     		adds	r2, r1, #0
 1729 001c 1A70     		strb	r2, [r3]
 819:ble_process.c **** 	CYBLE_GATTS_ERR_PARAM_T err_param;
 820:ble_process.c **** 		            
 821:ble_process.c ****     err_param.opcode = opCode;
 1730              		.loc 1 821 0
 1731 001e 0C23     		movs	r3, #12
 1732 0020 FB18     		adds	r3, r7, r3
 1733 0022 FA1D     		adds	r2, r7, #7
 1734 0024 1278     		ldrb	r2, [r2]
 1735 0026 9A70     		strb	r2, [r3, #2]
 822:ble_process.c ****     err_param.attrHandle = attrHandle;
 1736              		.loc 1 822 0
 1737 0028 0C23     		movs	r3, #12
 1738 002a FB18     		adds	r3, r7, r3
 1739 002c 3A1D     		adds	r2, r7, #4
 1740 002e 1288     		ldrh	r2, [r2]
 1741 0030 1A80     		strh	r2, [r3]
 823:ble_process.c ****     err_param.errorCode = errorCode;
 1742              		.loc 1 823 0
 1743 0032 0C23     		movs	r3, #12
 1744 0034 FB18     		adds	r3, r7, r3
 1745 0036 BA1D     		adds	r2, r7, #6
ARM GAS  C:\Users\dmytro\AppData\Local\Temp\ccjppNo8.s 			page 52


 1746 0038 1278     		ldrb	r2, [r2]
 1747 003a DA70     		strb	r2, [r3, #3]
 824:ble_process.c **** 
 825:ble_process.c ****     /* Send Error Response */
 826:ble_process.c ****     (void)CyBle_GattsErrorRsp(cyBle_connHandle, &err_param);
 1748              		.loc 1 826 0
 1749 003c 0C23     		movs	r3, #12
 1750 003e F918     		adds	r1, r7, r3
 1751 0040 084B     		ldr	r3, .L73
 1752 0042 1A78     		ldrb	r2, [r3]
 1753 0044 5B78     		ldrb	r3, [r3, #1]
 1754 0046 1B02     		lsls	r3, r3, #8
 1755 0048 1A43     		orrs	r2, r3
 1756 004a 0023     		movs	r3, #0
 1757 004c 1204     		lsls	r2, r2, #16
 1758 004e 120C     		lsrs	r2, r2, #16
 1759 0050 1B0C     		lsrs	r3, r3, #16
 1760 0052 1B04     		lsls	r3, r3, #16
 1761 0054 1343     		orrs	r3, r2
 1762 0056 1800     		movs	r0, r3
 1763 0058 FFF7FEFF 		bl	CyBle_GattsErrorRsp
 827:ble_process.c **** }
 1764              		.loc 1 827 0
 1765 005c C046     		nop
 1766 005e BD46     		mov	sp, r7
 1767 0060 05B0     		add	sp, sp, #20
 1768              		@ sp needed
 1769 0062 90BD     		pop	{r4, r7, pc}
 1770              	.L74:
 1771              		.align	2
 1772              	.L73:
 1773 0064 00000000 		.word	cyBle_connHandle
 1774              		.cfi_endproc
 1775              	.LFE39:
 1776              		.size	SendErrorCode, .-SendErrorCode
 1777              		.section	.text.sendColorDataToNetwork,"ax",%progbits
 1778              		.align	2
 1779              		.global	sendColorDataToNetwork
 1780              		.code	16
 1781              		.thumb_func
 1782              		.type	sendColorDataToNetwork, %function
 1783              	sendColorDataToNetwork:
 1784              	.LFB40:
 828:ble_process.c **** /* [] END OF FILE */
 829:ble_process.c **** 
 830:ble_process.c **** 
 831:ble_process.c **** void sendColorDataToNetwork(uint8 RGB_Collection[4]) {
 1785              		.loc 1 831 0
 1786              		.cfi_startproc
 1787              		@ args = 0, pretend = 0, frame = 24
 1788              		@ frame_needed = 1, uses_anonymous_args = 0
 1789 0000 80B5     		push	{r7, lr}
 1790              		.cfi_def_cfa_offset 8
 1791              		.cfi_offset 7, -8
 1792              		.cfi_offset 14, -4
 1793 0002 86B0     		sub	sp, sp, #24
 1794              		.cfi_def_cfa_offset 32
ARM GAS  C:\Users\dmytro\AppData\Local\Temp\ccjppNo8.s 			page 53


 1795 0004 00AF     		add	r7, sp, #0
 1796              		.cfi_def_cfa_register 7
 1797 0006 7860     		str	r0, [r7, #4]
 832:ble_process.c ****     RGBData[RGB_RED_INDEX] = RGB_Collection[0];
 1798              		.loc 1 832 0
 1799 0008 7B68     		ldr	r3, [r7, #4]
 1800 000a 1A78     		ldrb	r2, [r3]
 1801 000c 1F4B     		ldr	r3, .L76
 1802 000e 1A70     		strb	r2, [r3]
 833:ble_process.c ****     RGBData[RGB_BLUE_INDEX] = RGB_Collection[1];
 1803              		.loc 1 833 0
 1804 0010 7B68     		ldr	r3, [r7, #4]
 1805 0012 5A78     		ldrb	r2, [r3, #1]
 1806 0014 1D4B     		ldr	r3, .L76
 1807 0016 9A70     		strb	r2, [r3, #2]
 834:ble_process.c ****     RGBData[RGB_GREEN_INDEX] = RGB_Collection[2];
 1808              		.loc 1 834 0
 1809 0018 7B68     		ldr	r3, [r7, #4]
 1810 001a 9A78     		ldrb	r2, [r3, #2]
 1811 001c 1B4B     		ldr	r3, .L76
 1812 001e 5A70     		strb	r2, [r3, #1]
 835:ble_process.c ****     RGBData[RGB_INTENSITY_INDEX] = RGB_Collection[3];
 1813              		.loc 1 835 0
 1814 0020 7B68     		ldr	r3, [r7, #4]
 1815 0022 DA78     		ldrb	r2, [r3, #3]
 1816 0024 194B     		ldr	r3, .L76
 1817 0026 DA70     		strb	r2, [r3, #3]
 836:ble_process.c ****     
 837:ble_process.c **** 	/* Modify RGB Color my configuring the PrISM components with new density 
 838:ble_process.c **** 	* value*/
 839:ble_process.c **** 	UpdateRGBled(RGBData, RGB_LED_DATA_LEN);
 1818              		.loc 1 839 0
 1819 0028 184B     		ldr	r3, .L76
 1820 002a 0421     		movs	r1, #4
 1821 002c 1800     		movs	r0, r3
 1822 002e FFF7FEFF 		bl	UpdateRGBled
 840:ble_process.c ****     
 841:ble_process.c **** 	/* Update the RGB LED Control characteristic in GATT DB to allow
 842:ble_process.c **** 	* Client to read the latest RGB LED color value set */
 843:ble_process.c ****     CYBLE_GATT_HANDLE_VALUE_PAIR_T value_pair;
 844:ble_process.c ****     value_pair.attrHandle = CYBLE_RGB_LED_CONTROL_CHAR_HANDLE;
 1823              		.loc 1 844 0
 1824 0032 0C23     		movs	r3, #12
 1825 0034 FB18     		adds	r3, r7, r3
 1826 0036 0E22     		movs	r2, #14
 1827 0038 1A81     		strh	r2, [r3, #8]
 845:ble_process.c ****     value_pair.value.val = RGB_Collection;
 1828              		.loc 1 845 0
 1829 003a 0C23     		movs	r3, #12
 1830 003c FB18     		adds	r3, r7, r3
 1831 003e 7A68     		ldr	r2, [r7, #4]
 1832 0040 1A60     		str	r2, [r3]
 846:ble_process.c ****     value_pair.value.len = RGB_LED_DATA_LEN;
 1833              		.loc 1 846 0
 1834 0042 0C23     		movs	r3, #12
 1835 0044 FB18     		adds	r3, r7, r3
 1836 0046 0422     		movs	r2, #4
ARM GAS  C:\Users\dmytro\AppData\Local\Temp\ccjppNo8.s 			page 54


 1837 0048 9A80     		strh	r2, [r3, #4]
 847:ble_process.c **** 	CyBle_GattsWriteAttributeValue(&value_pair, 0, &cyBle_connHandle, CYBLE_GATT_DB_LOCALLY_INITIATED)
 1838              		.loc 1 847 0
 1839 004a 114A     		ldr	r2, .L76+4
 1840 004c 0C23     		movs	r3, #12
 1841 004e F818     		adds	r0, r7, r3
 1842 0050 0023     		movs	r3, #0
 1843 0052 0021     		movs	r1, #0
 1844 0054 FFF7FEFF 		bl	CyBle_GattsWriteAttributeValue
 848:ble_process.c **** 	//CyBle_GattcWriteCharacteristicValue(cyBle_connHandle, &value_pair);
 849:ble_process.c **** 	
 850:ble_process.c **** 	/* After receiveing the color value, set the switch role flag to allow the system
 851:ble_process.c **** 	* to switch role to Central role */
 852:ble_process.c **** 	switch_Role = TRUE;
 1845              		.loc 1 852 0
 1846 0058 0E4B     		ldr	r3, .L76+8
 1847 005a 0122     		movs	r2, #1
 1848 005c 1A70     		strb	r2, [r3]
 853:ble_process.c ****     
 854:ble_process.c ****     #ifdef ENABLE_ADV_DATA_COUNTER
 855:ble_process.c ****     /* Increment the ADV data counter so that scanning Central device knows
 856:ble_process.c ****     * if this device has updated RGB LED data or not */
 857:ble_process.c ****     dataADVCounter++;
 1849              		.loc 1 857 0
 1850 005e 0E4B     		ldr	r3, .L76+12
 1851 0060 1B78     		ldrb	r3, [r3]
 1852 0062 0133     		adds	r3, r3, #1
 1853 0064 DAB2     		uxtb	r2, r3
 1854 0066 0C4B     		ldr	r3, .L76+12
 1855 0068 1A70     		strb	r2, [r3]
 858:ble_process.c ****     #endif
 859:ble_process.c **** 
 860:ble_process.c ****     #ifdef DEBUG_ENABLED
 861:ble_process.c ****     UART_UartPutString("incremented dataADVCounter value in CYBLE_EVT_GATTS_WRITE_REQ= ");
 1856              		.loc 1 861 0
 1857 006a 0C4B     		ldr	r3, .L76+16
 1858 006c 1800     		movs	r0, r3
 1859 006e FFF7FEFF 		bl	UART_UartPutString
 862:ble_process.c ****     PrintNum(dataADVCounter);
 1860              		.loc 1 862 0
 1861 0072 094B     		ldr	r3, .L76+12
 1862 0074 1B78     		ldrb	r3, [r3]
 1863 0076 1800     		movs	r0, r3
 1864 0078 FFF7FEFF 		bl	PrintNum
 863:ble_process.c ****     UART_UartPutCRLF(' ');
 1865              		.loc 1 863 0
 1866 007c 2020     		movs	r0, #32
 1867 007e FFF7FEFF 		bl	UART_UartPutCRLF
 864:ble_process.c ****     #endif
 865:ble_process.c **** }
 1868              		.loc 1 865 0
 1869 0082 C046     		nop
 1870 0084 BD46     		mov	sp, r7
 1871 0086 06B0     		add	sp, sp, #24
 1872              		@ sp needed
 1873 0088 80BD     		pop	{r7, pc}
 1874              	.L77:
ARM GAS  C:\Users\dmytro\AppData\Local\Temp\ccjppNo8.s 			page 55


 1875 008a C046     		.align	2
 1876              	.L76:
 1877 008c 00000000 		.word	RGBData
 1878 0090 00000000 		.word	cyBle_connHandle
 1879 0094 00000000 		.word	switch_Role
 1880 0098 00000000 		.word	dataADVCounter
 1881 009c D4000000 		.word	.LC21
 1882              		.cfi_endproc
 1883              	.LFE40:
 1884              		.size	sendColorDataToNetwork, .-sendColorDataToNetwork
 1885              		.text
 1886              	.Letext0:
 1887              		.file 2 "Generated_Source\\PSoC4/cytypes.h"
 1888              		.file 3 "Generated_Source\\PSoC4/BLE_Stack.h"
 1889              		.file 4 "Generated_Source\\PSoC4/BLE_StackGap.h"
 1890              		.file 5 "Generated_Source\\PSoC4/BLE_StackGatt.h"
 1891              		.file 6 "Generated_Source\\PSoC4/BLE_StackGattServer.h"
 1892              		.file 7 "Generated_Source\\PSoC4/BLE_StackGattClient.h"
 1893              		.file 8 "Generated_Source\\PSoC4/BLE_eventHandler.h"
 1894              		.file 9 "Generated_Source\\PSoC4/BLE.h"
 1895              		.file 10 "./main.h"
 1896              		.section	.debug_info,"",%progbits
 1897              	.Ldebug_info0:
 1898 0000 62140000 		.4byte	0x1462
 1899 0004 0400     		.2byte	0x4
 1900 0006 00000000 		.4byte	.Ldebug_abbrev0
 1901 000a 04       		.byte	0x4
 1902 000b 01       		.uleb128 0x1
 1903 000c 3A1C0000 		.4byte	.LASF606
 1904 0010 0C       		.byte	0xc
 1905 0011 EF120000 		.4byte	.LASF607
 1906 0015 B8030000 		.4byte	.LASF608
 1907 0019 00000000 		.4byte	.Ldebug_ranges0+0
 1908 001d 00000000 		.4byte	0
 1909 0021 00000000 		.4byte	.Ldebug_line0
 1910 0025 02       		.uleb128 0x2
 1911 0026 01       		.byte	0x1
 1912 0027 06       		.byte	0x6
 1913 0028 CB0F0000 		.4byte	.LASF0
 1914 002c 02       		.uleb128 0x2
 1915 002d 01       		.byte	0x1
 1916 002e 08       		.byte	0x8
 1917 002f 0A110000 		.4byte	.LASF1
 1918 0033 02       		.uleb128 0x2
 1919 0034 02       		.byte	0x2
 1920 0035 05       		.byte	0x5
 1921 0036 61390000 		.4byte	.LASF2
 1922 003a 02       		.uleb128 0x2
 1923 003b 02       		.byte	0x2
 1924 003c 07       		.byte	0x7
 1925 003d 1C420000 		.4byte	.LASF3
 1926 0041 02       		.uleb128 0x2
 1927 0042 04       		.byte	0x4
 1928 0043 05       		.byte	0x5
 1929 0044 760C0000 		.4byte	.LASF4
 1930 0048 02       		.uleb128 0x2
 1931 0049 04       		.byte	0x4
ARM GAS  C:\Users\dmytro\AppData\Local\Temp\ccjppNo8.s 			page 56


 1932 004a 07       		.byte	0x7
 1933 004b 001F0000 		.4byte	.LASF5
 1934 004f 02       		.uleb128 0x2
 1935 0050 08       		.byte	0x8
 1936 0051 05       		.byte	0x5
 1937 0052 1C240000 		.4byte	.LASF6
 1938 0056 02       		.uleb128 0x2
 1939 0057 08       		.byte	0x8
 1940 0058 07       		.byte	0x7
 1941 0059 92310000 		.4byte	.LASF7
 1942 005d 03       		.uleb128 0x3
 1943 005e 04       		.byte	0x4
 1944 005f 05       		.byte	0x5
 1945 0060 696E7400 		.ascii	"int\000"
 1946 0064 02       		.uleb128 0x2
 1947 0065 04       		.byte	0x4
 1948 0066 07       		.byte	0x7
 1949 0067 E5280000 		.4byte	.LASF8
 1950 006b 04       		.uleb128 0x4
 1951 006c DB380000 		.4byte	.LASF9
 1952 0070 02       		.byte	0x2
 1953 0071 FB01     		.2byte	0x1fb
 1954 0073 2C000000 		.4byte	0x2c
 1955 0077 04       		.uleb128 0x4
 1956 0078 C4450000 		.4byte	.LASF10
 1957 007c 02       		.byte	0x2
 1958 007d FC01     		.2byte	0x1fc
 1959 007f 3A000000 		.4byte	0x3a
 1960 0083 04       		.uleb128 0x4
 1961 0084 051D0000 		.4byte	.LASF11
 1962 0088 02       		.byte	0x2
 1963 0089 FD01     		.2byte	0x1fd
 1964 008b 48000000 		.4byte	0x48
 1965 008f 04       		.uleb128 0x4
 1966 0090 EF080000 		.4byte	.LASF12
 1967 0094 02       		.byte	0x2
 1968 0095 FE01     		.2byte	0x1fe
 1969 0097 25000000 		.4byte	0x25
 1970 009b 02       		.uleb128 0x2
 1971 009c 04       		.byte	0x4
 1972 009d 04       		.byte	0x4
 1973 009e 52270000 		.4byte	.LASF13
 1974 00a2 02       		.uleb128 0x2
 1975 00a3 08       		.byte	0x8
 1976 00a4 04       		.byte	0x4
 1977 00a5 46250000 		.4byte	.LASF14
 1978 00a9 02       		.uleb128 0x2
 1979 00aa 01       		.byte	0x1
 1980 00ab 08       		.byte	0x8
 1981 00ac BE130000 		.4byte	.LASF15
 1982 00b0 05       		.uleb128 0x5
 1983 00b1 77000000 		.4byte	0x77
 1984 00b5 02       		.uleb128 0x2
 1985 00b6 08       		.byte	0x8
 1986 00b7 04       		.byte	0x4
 1987 00b8 6C2E0000 		.4byte	.LASF16
 1988 00bc 02       		.uleb128 0x2
ARM GAS  C:\Users\dmytro\AppData\Local\Temp\ccjppNo8.s 			page 57


 1989 00bd 04       		.byte	0x4
 1990 00be 07       		.byte	0x7
 1991 00bf C2000000 		.4byte	.LASF17
 1992 00c3 06       		.uleb128 0x6
 1993 00c4 04       		.byte	0x4
 1994 00c5 07       		.uleb128 0x7
 1995 00c6 01       		.byte	0x1
 1996 00c7 2C000000 		.4byte	0x2c
 1997 00cb 03       		.byte	0x3
 1998 00cc 3501     		.2byte	0x135
 1999 00ce 83020000 		.4byte	0x283
 2000 00d2 08       		.uleb128 0x8
 2001 00d3 AD140000 		.4byte	.LASF18
 2002 00d7 00       		.byte	0
 2003 00d8 08       		.uleb128 0x8
 2004 00d9 2E0D0000 		.4byte	.LASF19
 2005 00dd 01       		.byte	0x1
 2006 00de 08       		.uleb128 0x8
 2007 00df C7310000 		.4byte	.LASF20
 2008 00e3 02       		.byte	0x2
 2009 00e4 08       		.uleb128 0x8
 2010 00e5 5A100000 		.4byte	.LASF21
 2011 00e9 03       		.byte	0x3
 2012 00ea 08       		.uleb128 0x8
 2013 00eb A6430000 		.4byte	.LASF22
 2014 00ef 04       		.byte	0x4
 2015 00f0 08       		.uleb128 0x8
 2016 00f1 75400000 		.4byte	.LASF23
 2017 00f5 05       		.byte	0x5
 2018 00f6 08       		.uleb128 0x8
 2019 00f7 B62E0000 		.4byte	.LASF24
 2020 00fb 06       		.byte	0x6
 2021 00fc 08       		.uleb128 0x8
 2022 00fd 533C0000 		.4byte	.LASF25
 2023 0101 20       		.byte	0x20
 2024 0102 08       		.uleb128 0x8
 2025 0103 D8080000 		.4byte	.LASF26
 2026 0107 21       		.byte	0x21
 2027 0108 08       		.uleb128 0x8
 2028 0109 19230000 		.4byte	.LASF27
 2029 010d 22       		.byte	0x22
 2030 010e 08       		.uleb128 0x8
 2031 010f AC2C0000 		.4byte	.LASF28
 2032 0113 23       		.byte	0x23
 2033 0114 08       		.uleb128 0x8
 2034 0115 AC1D0000 		.4byte	.LASF29
 2035 0119 24       		.byte	0x24
 2036 011a 08       		.uleb128 0x8
 2037 011b FB1D0000 		.4byte	.LASF30
 2038 011f 25       		.byte	0x25
 2039 0120 08       		.uleb128 0x8
 2040 0121 1B380000 		.4byte	.LASF31
 2041 0125 26       		.byte	0x26
 2042 0126 08       		.uleb128 0x8
 2043 0127 17030000 		.4byte	.LASF32
 2044 012b 27       		.byte	0x27
 2045 012c 08       		.uleb128 0x8
ARM GAS  C:\Users\dmytro\AppData\Local\Temp\ccjppNo8.s 			page 58


 2046 012d FA440000 		.4byte	.LASF33
 2047 0131 28       		.byte	0x28
 2048 0132 08       		.uleb128 0x8
 2049 0133 892F0000 		.4byte	.LASF34
 2050 0137 29       		.byte	0x29
 2051 0138 08       		.uleb128 0x8
 2052 0139 E2210000 		.4byte	.LASF35
 2053 013d 2A       		.byte	0x2a
 2054 013e 08       		.uleb128 0x8
 2055 013f F82B0000 		.4byte	.LASF36
 2056 0143 2B       		.byte	0x2b
 2057 0144 08       		.uleb128 0x8
 2058 0145 0E410000 		.4byte	.LASF37
 2059 0149 2C       		.byte	0x2c
 2060 014a 08       		.uleb128 0x8
 2061 014b CF010000 		.4byte	.LASF38
 2062 014f 2D       		.byte	0x2d
 2063 0150 08       		.uleb128 0x8
 2064 0151 03390000 		.4byte	.LASF39
 2065 0155 2E       		.byte	0x2e
 2066 0156 08       		.uleb128 0x8
 2067 0157 160A0000 		.4byte	.LASF40
 2068 015b 2F       		.byte	0x2f
 2069 015c 08       		.uleb128 0x8
 2070 015d 78130000 		.4byte	.LASF41
 2071 0161 30       		.byte	0x30
 2072 0162 08       		.uleb128 0x8
 2073 0163 65260000 		.4byte	.LASF42
 2074 0167 31       		.byte	0x31
 2075 0168 08       		.uleb128 0x8
 2076 0169 FD140000 		.4byte	.LASF43
 2077 016d 32       		.byte	0x32
 2078 016e 08       		.uleb128 0x8
 2079 016f FD110000 		.4byte	.LASF44
 2080 0173 33       		.byte	0x33
 2081 0174 08       		.uleb128 0x8
 2082 0175 24120000 		.4byte	.LASF45
 2083 0179 34       		.byte	0x34
 2084 017a 08       		.uleb128 0x8
 2085 017b F53D0000 		.4byte	.LASF46
 2086 017f 35       		.byte	0x35
 2087 0180 08       		.uleb128 0x8
 2088 0181 BB090000 		.4byte	.LASF47
 2089 0185 36       		.byte	0x36
 2090 0186 08       		.uleb128 0x8
 2091 0187 C2300000 		.4byte	.LASF48
 2092 018b 37       		.byte	0x37
 2093 018c 08       		.uleb128 0x8
 2094 018d B33A0000 		.4byte	.LASF49
 2095 0191 40       		.byte	0x40
 2096 0192 08       		.uleb128 0x8
 2097 0193 65030000 		.4byte	.LASF50
 2098 0197 41       		.byte	0x41
 2099 0198 08       		.uleb128 0x8
 2100 0199 E1430000 		.4byte	.LASF51
 2101 019d 42       		.byte	0x42
 2102 019e 08       		.uleb128 0x8
ARM GAS  C:\Users\dmytro\AppData\Local\Temp\ccjppNo8.s 			page 59


 2103 019f 0F300000 		.4byte	.LASF52
 2104 01a3 43       		.byte	0x43
 2105 01a4 08       		.uleb128 0x8
 2106 01a5 18110000 		.4byte	.LASF53
 2107 01a9 44       		.byte	0x44
 2108 01aa 08       		.uleb128 0x8
 2109 01ab B7100000 		.4byte	.LASF54
 2110 01af 45       		.byte	0x45
 2111 01b0 08       		.uleb128 0x8
 2112 01b1 EA350000 		.4byte	.LASF55
 2113 01b5 46       		.byte	0x46
 2114 01b6 08       		.uleb128 0x8
 2115 01b7 CC350000 		.4byte	.LASF56
 2116 01bb 47       		.byte	0x47
 2117 01bc 08       		.uleb128 0x8
 2118 01bd 1E130000 		.4byte	.LASF57
 2119 01c1 48       		.byte	0x48
 2120 01c2 08       		.uleb128 0x8
 2121 01c3 212D0000 		.4byte	.LASF58
 2122 01c7 49       		.byte	0x49
 2123 01c8 08       		.uleb128 0x8
 2124 01c9 77150000 		.4byte	.LASF59
 2125 01cd 4A       		.byte	0x4a
 2126 01ce 08       		.uleb128 0x8
 2127 01cf 3D140000 		.4byte	.LASF60
 2128 01d3 4B       		.byte	0x4b
 2129 01d4 08       		.uleb128 0x8
 2130 01d5 4C2C0000 		.4byte	.LASF61
 2131 01d9 4C       		.byte	0x4c
 2132 01da 08       		.uleb128 0x8
 2133 01db 7A370000 		.4byte	.LASF62
 2134 01df 4D       		.byte	0x4d
 2135 01e0 08       		.uleb128 0x8
 2136 01e1 F20B0000 		.4byte	.LASF63
 2137 01e5 4E       		.byte	0x4e
 2138 01e6 08       		.uleb128 0x8
 2139 01e7 F2280000 		.4byte	.LASF64
 2140 01eb 4F       		.byte	0x4f
 2141 01ec 08       		.uleb128 0x8
 2142 01ed 343C0000 		.4byte	.LASF65
 2143 01f1 50       		.byte	0x50
 2144 01f2 08       		.uleb128 0x8
 2145 01f3 DB150000 		.4byte	.LASF66
 2146 01f7 51       		.byte	0x51
 2147 01f8 08       		.uleb128 0x8
 2148 01f9 B7080000 		.4byte	.LASF67
 2149 01fd 52       		.byte	0x52
 2150 01fe 08       		.uleb128 0x8
 2151 01ff F53F0000 		.4byte	.LASF68
 2152 0203 53       		.byte	0x53
 2153 0204 08       		.uleb128 0x8
 2154 0205 3C450000 		.4byte	.LASF69
 2155 0209 54       		.byte	0x54
 2156 020a 08       		.uleb128 0x8
 2157 020b 32070000 		.4byte	.LASF70
 2158 020f 55       		.byte	0x55
 2159 0210 08       		.uleb128 0x8
ARM GAS  C:\Users\dmytro\AppData\Local\Temp\ccjppNo8.s 			page 60


 2160 0211 0F170000 		.4byte	.LASF71
 2161 0215 56       		.byte	0x56
 2162 0216 08       		.uleb128 0x8
 2163 0217 FE270000 		.4byte	.LASF72
 2164 021b 57       		.byte	0x57
 2165 021c 08       		.uleb128 0x8
 2166 021d B6440000 		.4byte	.LASF73
 2167 0221 58       		.byte	0x58
 2168 0222 08       		.uleb128 0x8
 2169 0223 74410000 		.4byte	.LASF74
 2170 0227 70       		.byte	0x70
 2171 0228 08       		.uleb128 0x8
 2172 0229 B81B0000 		.4byte	.LASF75
 2173 022d 71       		.byte	0x71
 2174 022e 08       		.uleb128 0x8
 2175 022f 190F0000 		.4byte	.LASF76
 2176 0233 72       		.byte	0x72
 2177 0234 08       		.uleb128 0x8
 2178 0235 163C0000 		.4byte	.LASF77
 2179 0239 73       		.byte	0x73
 2180 023a 08       		.uleb128 0x8
 2181 023b A02D0000 		.4byte	.LASF78
 2182 023f 74       		.byte	0x74
 2183 0240 08       		.uleb128 0x8
 2184 0241 6B220000 		.4byte	.LASF79
 2185 0245 75       		.byte	0x75
 2186 0246 08       		.uleb128 0x8
 2187 0247 FD120000 		.4byte	.LASF80
 2188 024b 76       		.byte	0x76
 2189 024c 08       		.uleb128 0x8
 2190 024d 7D320000 		.4byte	.LASF81
 2191 0251 77       		.byte	0x77
 2192 0252 08       		.uleb128 0x8
 2193 0253 56070000 		.4byte	.LASF82
 2194 0257 78       		.byte	0x78
 2195 0258 08       		.uleb128 0x8
 2196 0259 530C0000 		.4byte	.LASF83
 2197 025d 79       		.byte	0x79
 2198 025e 08       		.uleb128 0x8
 2199 025f 25440000 		.4byte	.LASF84
 2200 0263 7A       		.byte	0x7a
 2201 0264 08       		.uleb128 0x8
 2202 0265 92250000 		.4byte	.LASF85
 2203 0269 FA       		.byte	0xfa
 2204 026a 08       		.uleb128 0x8
 2205 026b 333F0000 		.4byte	.LASF86
 2206 026f FB       		.byte	0xfb
 2207 0270 08       		.uleb128 0x8
 2208 0271 DE1B0000 		.4byte	.LASF87
 2209 0275 FC       		.byte	0xfc
 2210 0276 08       		.uleb128 0x8
 2211 0277 542E0000 		.4byte	.LASF88
 2212 027b FD       		.byte	0xfd
 2213 027c 08       		.uleb128 0x8
 2214 027d EA2B0000 		.4byte	.LASF89
 2215 0281 FF       		.byte	0xff
 2216 0282 00       		.byte	0
ARM GAS  C:\Users\dmytro\AppData\Local\Temp\ccjppNo8.s 			page 61


 2217 0283 07       		.uleb128 0x7
 2218 0284 02       		.byte	0x2
 2219 0285 3A000000 		.4byte	0x3a
 2220 0289 03       		.byte	0x3
 2221 028a EA03     		.2byte	0x3ea
 2222 028c 62030000 		.4byte	0x362
 2223 0290 08       		.uleb128 0x8
 2224 0291 73100000 		.4byte	.LASF90
 2225 0295 00       		.byte	0
 2226 0296 08       		.uleb128 0x8
 2227 0297 67180000 		.4byte	.LASF91
 2228 029b 01       		.byte	0x1
 2229 029c 08       		.uleb128 0x8
 2230 029d 88430000 		.4byte	.LASF92
 2231 02a1 02       		.byte	0x2
 2232 02a2 08       		.uleb128 0x8
 2233 02a3 031A0000 		.4byte	.LASF93
 2234 02a7 03       		.byte	0x3
 2235 02a8 08       		.uleb128 0x8
 2236 02a9 6E1E0000 		.4byte	.LASF94
 2237 02ad 04       		.byte	0x4
 2238 02ae 08       		.uleb128 0x8
 2239 02af 05250000 		.4byte	.LASF95
 2240 02b3 05       		.byte	0x5
 2241 02b4 08       		.uleb128 0x8
 2242 02b5 F63E0000 		.4byte	.LASF96
 2243 02b9 06       		.byte	0x6
 2244 02ba 08       		.uleb128 0x8
 2245 02bb 5A150000 		.4byte	.LASF97
 2246 02bf 07       		.byte	0x7
 2247 02c0 08       		.uleb128 0x8
 2248 02c1 F7260000 		.4byte	.LASF98
 2249 02c5 08       		.byte	0x8
 2250 02c6 08       		.uleb128 0x8
 2251 02c7 653D0000 		.4byte	.LASF99
 2252 02cb 09       		.byte	0x9
 2253 02cc 08       		.uleb128 0x8
 2254 02cd FB450000 		.4byte	.LASF100
 2255 02d1 0A       		.byte	0xa
 2256 02d2 08       		.uleb128 0x8
 2257 02d3 4A090000 		.4byte	.LASF101
 2258 02d7 0B       		.byte	0xb
 2259 02d8 08       		.uleb128 0x8
 2260 02d9 5E400000 		.4byte	.LASF102
 2261 02dd 0C       		.byte	0xc
 2262 02de 08       		.uleb128 0x8
 2263 02df CF2A0000 		.4byte	.LASF103
 2264 02e3 0D       		.byte	0xd
 2265 02e4 08       		.uleb128 0x8
 2266 02e5 AA200000 		.4byte	.LASF104
 2267 02e9 0E       		.byte	0xe
 2268 02ea 08       		.uleb128 0x8
 2269 02eb E0240000 		.4byte	.LASF105
 2270 02ef 0F       		.byte	0xf
 2271 02f0 08       		.uleb128 0x8
 2272 02f1 9A060000 		.4byte	.LASF106
 2273 02f5 10       		.byte	0x10
ARM GAS  C:\Users\dmytro\AppData\Local\Temp\ccjppNo8.s 			page 62


 2274 02f6 08       		.uleb128 0x8
 2275 02f7 D3260000 		.4byte	.LASF107
 2276 02fb 11       		.byte	0x11
 2277 02fc 08       		.uleb128 0x8
 2278 02fd 410D0000 		.4byte	.LASF108
 2279 0301 12       		.byte	0x12
 2280 0302 08       		.uleb128 0x8
 2281 0303 A30F0000 		.4byte	.LASF109
 2282 0307 13       		.byte	0x13
 2283 0308 08       		.uleb128 0x8
 2284 0309 4D250000 		.4byte	.LASF110
 2285 030d 27       		.byte	0x27
 2286 030e 08       		.uleb128 0x8
 2287 030f B3270000 		.4byte	.LASF111
 2288 0313 28       		.byte	0x28
 2289 0314 08       		.uleb128 0x8
 2290 0315 C8060000 		.4byte	.LASF112
 2291 0319 29       		.byte	0x29
 2292 031a 08       		.uleb128 0x8
 2293 031b 1D3A0000 		.4byte	.LASF113
 2294 031f 2A       		.byte	0x2a
 2295 0320 08       		.uleb128 0x8
 2296 0321 CD1F0000 		.4byte	.LASF114
 2297 0325 2B       		.byte	0x2b
 2298 0326 08       		.uleb128 0x8
 2299 0327 6C330000 		.4byte	.LASF115
 2300 032b 2C       		.byte	0x2c
 2301 032c 08       		.uleb128 0x8
 2302 032d 1C370000 		.4byte	.LASF116
 2303 0331 2D       		.byte	0x2d
 2304 0332 08       		.uleb128 0x8
 2305 0333 4B180000 		.4byte	.LASF117
 2306 0337 FE       		.byte	0xfe
 2307 0338 08       		.uleb128 0x8
 2308 0339 851B0000 		.4byte	.LASF118
 2309 033d FF       		.byte	0xff
 2310 033e 09       		.uleb128 0x9
 2311 033f EB2C0000 		.4byte	.LASF119
 2312 0343 0001     		.2byte	0x100
 2313 0345 09       		.uleb128 0x9
 2314 0346 D22C0000 		.4byte	.LASF120
 2315 034a 0101     		.2byte	0x101
 2316 034c 09       		.uleb128 0x9
 2317 034d 310E0000 		.4byte	.LASF121
 2318 0351 0201     		.2byte	0x102
 2319 0353 09       		.uleb128 0x9
 2320 0354 24320000 		.4byte	.LASF122
 2321 0358 0301     		.2byte	0x103
 2322 035a 09       		.uleb128 0x9
 2323 035b 321E0000 		.4byte	.LASF123
 2324 035f 0401     		.2byte	0x104
 2325 0361 00       		.byte	0
 2326 0362 04       		.uleb128 0x4
 2327 0363 523F0000 		.4byte	.LASF124
 2328 0367 03       		.byte	0x3
 2329 0368 5C04     		.2byte	0x45c
 2330 036a 83020000 		.4byte	0x283
ARM GAS  C:\Users\dmytro\AppData\Local\Temp\ccjppNo8.s 			page 63


 2331 036e 0A       		.uleb128 0xa
 2332 036f 07       		.byte	0x7
 2333 0370 03       		.byte	0x3
 2334 0371 2A05     		.2byte	0x52a
 2335 0373 92030000 		.4byte	0x392
 2336 0377 0B       		.uleb128 0xb
 2337 0378 503E0000 		.4byte	.LASF125
 2338 037c 03       		.byte	0x3
 2339 037d 2D05     		.2byte	0x52d
 2340 037f 92030000 		.4byte	0x392
 2341 0383 00       		.byte	0
 2342 0384 0B       		.uleb128 0xb
 2343 0385 E6070000 		.4byte	.LASF126
 2344 0389 03       		.byte	0x3
 2345 038a 2F05     		.2byte	0x52f
 2346 038c 6B000000 		.4byte	0x6b
 2347 0390 06       		.byte	0x6
 2348 0391 00       		.byte	0
 2349 0392 0C       		.uleb128 0xc
 2350 0393 6B000000 		.4byte	0x6b
 2351 0397 A2030000 		.4byte	0x3a2
 2352 039b 0D       		.uleb128 0xd
 2353 039c BC000000 		.4byte	0xbc
 2354 03a0 05       		.byte	0x5
 2355 03a1 00       		.byte	0
 2356 03a2 04       		.uleb128 0x4
 2357 03a3 42340000 		.4byte	.LASF127
 2358 03a7 03       		.byte	0x3
 2359 03a8 3005     		.2byte	0x530
 2360 03aa 6E030000 		.4byte	0x36e
 2361 03ae 0E       		.uleb128 0xe
 2362 03af 04       		.byte	0x4
 2363 03b0 6B000000 		.4byte	0x6b
 2364 03b4 0F       		.uleb128 0xf
 2365 03b5 01       		.byte	0x1
 2366 03b6 2C000000 		.4byte	0x2c
 2367 03ba 04       		.byte	0x4
 2368 03bb E0       		.byte	0xe0
 2369 03bc DF030000 		.4byte	0x3df
 2370 03c0 08       		.uleb128 0x8
 2371 03c1 3A430000 		.4byte	.LASF128
 2372 03c5 00       		.byte	0
 2373 03c6 08       		.uleb128 0x8
 2374 03c7 3A2D0000 		.4byte	.LASF129
 2375 03cb 01       		.byte	0x1
 2376 03cc 08       		.uleb128 0x8
 2377 03cd F23B0000 		.4byte	.LASF130
 2378 03d1 02       		.byte	0x2
 2379 03d2 08       		.uleb128 0x8
 2380 03d3 EF0E0000 		.4byte	.LASF131
 2381 03d7 03       		.byte	0x3
 2382 03d8 08       		.uleb128 0x8
 2383 03d9 9F190000 		.4byte	.LASF132
 2384 03dd 04       		.byte	0x4
 2385 03de 00       		.byte	0
 2386 03df 10       		.uleb128 0x10
 2387 03e0 3B2C0000 		.4byte	.LASF133
ARM GAS  C:\Users\dmytro\AppData\Local\Temp\ccjppNo8.s 			page 64


 2388 03e4 04       		.byte	0x4
 2389 03e5 F0       		.byte	0xf0
 2390 03e6 B4030000 		.4byte	0x3b4
 2391 03ea 0F       		.uleb128 0xf
 2392 03eb 01       		.byte	0x1
 2393 03ec 2C000000 		.4byte	0x2c
 2394 03f0 04       		.byte	0x4
 2395 03f1 F4       		.byte	0xf4
 2396 03f2 15040000 		.4byte	0x415
 2397 03f6 08       		.uleb128 0x8
 2398 03f7 340C0000 		.4byte	.LASF134
 2399 03fb 00       		.byte	0
 2400 03fc 08       		.uleb128 0x8
 2401 03fd C7330000 		.4byte	.LASF135
 2402 0401 01       		.byte	0x1
 2403 0402 08       		.uleb128 0x8
 2404 0403 B7390000 		.4byte	.LASF136
 2405 0407 02       		.byte	0x2
 2406 0408 08       		.uleb128 0x8
 2407 0409 F00A0000 		.4byte	.LASF137
 2408 040d 03       		.byte	0x3
 2409 040e 08       		.uleb128 0x8
 2410 040f 7F000000 		.4byte	.LASF138
 2411 0413 04       		.byte	0x4
 2412 0414 00       		.byte	0
 2413 0415 04       		.uleb128 0x4
 2414 0416 DF3E0000 		.4byte	.LASF139
 2415 041a 04       		.byte	0x4
 2416 041b 0401     		.2byte	0x104
 2417 041d EA030000 		.4byte	0x3ea
 2418 0421 0A       		.uleb128 0xa
 2419 0422 10       		.byte	0x10
 2420 0423 04       		.byte	0x4
 2421 0424 2102     		.2byte	0x221
 2422 0426 93040000 		.4byte	0x493
 2423 042a 0B       		.uleb128 0xb
 2424 042b 3C120000 		.4byte	.LASF140
 2425 042f 04       		.byte	0x4
 2426 0430 2702     		.2byte	0x227
 2427 0432 77000000 		.4byte	0x77
 2428 0436 00       		.byte	0
 2429 0437 0B       		.uleb128 0xb
 2430 0438 E8460000 		.4byte	.LASF141
 2431 043c 04       		.byte	0x4
 2432 043d 2D02     		.2byte	0x22d
 2433 043f 77000000 		.4byte	0x77
 2434 0443 02       		.byte	0x2
 2435 0444 0B       		.uleb128 0xb
 2436 0445 491E0000 		.4byte	.LASF142
 2437 0449 04       		.byte	0x4
 2438 044a 3602     		.2byte	0x236
 2439 044c DF030000 		.4byte	0x3df
 2440 0450 04       		.byte	0x4
 2441 0451 0B       		.uleb128 0xb
 2442 0452 EF450000 		.4byte	.LASF143
 2443 0456 04       		.byte	0x4
 2444 0457 3E02     		.2byte	0x23e
ARM GAS  C:\Users\dmytro\AppData\Local\Temp\ccjppNo8.s 			page 65


 2445 0459 6B000000 		.4byte	0x6b
 2446 045d 05       		.byte	0x5
 2447 045e 0B       		.uleb128 0xb
 2448 045f 56260000 		.4byte	.LASF144
 2449 0463 04       		.byte	0x4
 2450 0464 4502     		.2byte	0x245
 2451 0466 6B000000 		.4byte	0x6b
 2452 046a 06       		.byte	0x6
 2453 046b 0B       		.uleb128 0xb
 2454 046c 90420000 		.4byte	.LASF145
 2455 0470 04       		.byte	0x4
 2456 0471 4B02     		.2byte	0x24b
 2457 0473 92030000 		.4byte	0x392
 2458 0477 07       		.byte	0x7
 2459 0478 0B       		.uleb128 0xb
 2460 0479 BB420000 		.4byte	.LASF146
 2461 047d 04       		.byte	0x4
 2462 047e 5302     		.2byte	0x253
 2463 0480 6B000000 		.4byte	0x6b
 2464 0484 0D       		.byte	0xd
 2465 0485 0B       		.uleb128 0xb
 2466 0486 C81D0000 		.4byte	.LASF147
 2467 048a 04       		.byte	0x4
 2468 048b 5F02     		.2byte	0x25f
 2469 048d 6B000000 		.4byte	0x6b
 2470 0491 0E       		.byte	0xe
 2471 0492 00       		.byte	0
 2472 0493 04       		.uleb128 0x4
 2473 0494 0C1D0000 		.4byte	.LASF148
 2474 0498 04       		.byte	0x4
 2475 0499 6102     		.2byte	0x261
 2476 049b 21040000 		.4byte	0x421
 2477 049f 0A       		.uleb128 0xa
 2478 04a0 20       		.byte	0x20
 2479 04a1 04       		.byte	0x4
 2480 04a2 6402     		.2byte	0x264
 2481 04a4 C3040000 		.4byte	0x4c3
 2482 04a8 0B       		.uleb128 0xb
 2483 04a9 662C0000 		.4byte	.LASF149
 2484 04ad 04       		.byte	0x4
 2485 04ae 6702     		.2byte	0x267
 2486 04b0 C3040000 		.4byte	0x4c3
 2487 04b4 00       		.byte	0
 2488 04b5 0B       		.uleb128 0xb
 2489 04b6 F4340000 		.4byte	.LASF150
 2490 04ba 04       		.byte	0x4
 2491 04bb 6A02     		.2byte	0x26a
 2492 04bd 6B000000 		.4byte	0x6b
 2493 04c1 1F       		.byte	0x1f
 2494 04c2 00       		.byte	0
 2495 04c3 0C       		.uleb128 0xc
 2496 04c4 6B000000 		.4byte	0x6b
 2497 04c8 D3040000 		.4byte	0x4d3
 2498 04cc 0D       		.uleb128 0xd
 2499 04cd BC000000 		.4byte	0xbc
 2500 04d1 1E       		.byte	0x1e
 2501 04d2 00       		.byte	0
ARM GAS  C:\Users\dmytro\AppData\Local\Temp\ccjppNo8.s 			page 66


 2502 04d3 04       		.uleb128 0x4
 2503 04d4 91120000 		.4byte	.LASF151
 2504 04d8 04       		.byte	0x4
 2505 04d9 6C02     		.2byte	0x26c
 2506 04db 9F040000 		.4byte	0x49f
 2507 04df 0A       		.uleb128 0xa
 2508 04e0 20       		.byte	0x20
 2509 04e1 04       		.byte	0x4
 2510 04e2 6F02     		.2byte	0x26f
 2511 04e4 03050000 		.4byte	0x503
 2512 04e8 0B       		.uleb128 0xb
 2513 04e9 93000000 		.4byte	.LASF152
 2514 04ed 04       		.byte	0x4
 2515 04ee 7302     		.2byte	0x273
 2516 04f0 C3040000 		.4byte	0x4c3
 2517 04f4 00       		.byte	0
 2518 04f5 0B       		.uleb128 0xb
 2519 04f6 FA390000 		.4byte	.LASF153
 2520 04fa 04       		.byte	0x4
 2521 04fb 7602     		.2byte	0x276
 2522 04fd 6B000000 		.4byte	0x6b
 2523 0501 1F       		.byte	0x1f
 2524 0502 00       		.byte	0
 2525 0503 04       		.uleb128 0x4
 2526 0504 43380000 		.4byte	.LASF154
 2527 0508 04       		.byte	0x4
 2528 0509 7802     		.2byte	0x278
 2529 050b DF040000 		.4byte	0x4df
 2530 050f 0A       		.uleb128 0xa
 2531 0510 14       		.byte	0x14
 2532 0511 04       		.byte	0x4
 2533 0512 7B02     		.2byte	0x27b
 2534 0514 5A050000 		.4byte	0x55a
 2535 0518 0B       		.uleb128 0xb
 2536 0519 B4050000 		.4byte	.LASF155
 2537 051d 04       		.byte	0x4
 2538 051e 8302     		.2byte	0x283
 2539 0520 6B000000 		.4byte	0x6b
 2540 0524 00       		.byte	0
 2541 0525 0B       		.uleb128 0xb
 2542 0526 B5240000 		.4byte	.LASF156
 2543 052a 04       		.byte	0x4
 2544 052b 8602     		.2byte	0x286
 2545 052d 5A050000 		.4byte	0x55a
 2546 0531 04       		.byte	0x4
 2547 0532 0B       		.uleb128 0xb
 2548 0533 662C0000 		.4byte	.LASF149
 2549 0537 04       		.byte	0x4
 2550 0538 8802     		.2byte	0x288
 2551 053a 60050000 		.4byte	0x560
 2552 053e 08       		.byte	0x8
 2553 053f 0B       		.uleb128 0xb
 2554 0540 93000000 		.4byte	.LASF152
 2555 0544 04       		.byte	0x4
 2556 0545 8A02     		.2byte	0x28a
 2557 0547 66050000 		.4byte	0x566
 2558 054b 0C       		.byte	0xc
ARM GAS  C:\Users\dmytro\AppData\Local\Temp\ccjppNo8.s 			page 67


 2559 054c 0B       		.uleb128 0xb
 2560 054d 31170000 		.4byte	.LASF157
 2561 0551 04       		.byte	0x4
 2562 0552 9402     		.2byte	0x294
 2563 0554 77000000 		.4byte	0x77
 2564 0558 10       		.byte	0x10
 2565 0559 00       		.byte	0
 2566 055a 0E       		.uleb128 0xe
 2567 055b 04       		.byte	0x4
 2568 055c 93040000 		.4byte	0x493
 2569 0560 0E       		.uleb128 0xe
 2570 0561 04       		.byte	0x4
 2571 0562 D3040000 		.4byte	0x4d3
 2572 0566 0E       		.uleb128 0xe
 2573 0567 04       		.byte	0x4
 2574 0568 03050000 		.4byte	0x503
 2575 056c 04       		.uleb128 0x4
 2576 056d 83350000 		.4byte	.LASF158
 2577 0571 04       		.byte	0x4
 2578 0572 9602     		.2byte	0x296
 2579 0574 0F050000 		.4byte	0x50f
 2580 0578 0A       		.uleb128 0xa
 2581 0579 14       		.byte	0x14
 2582 057a 04       		.byte	0x4
 2583 057b 2403     		.2byte	0x324
 2584 057d D0050000 		.4byte	0x5d0
 2585 0581 0B       		.uleb128 0xb
 2586 0582 EB3F0000 		.4byte	.LASF159
 2587 0586 04       		.byte	0x4
 2588 0587 2D03     		.2byte	0x32d
 2589 0589 15040000 		.4byte	0x415
 2590 058d 00       		.byte	0
 2591 058e 0B       		.uleb128 0xb
 2592 058f 583D0000 		.4byte	.LASF160
 2593 0593 04       		.byte	0x4
 2594 0594 3503     		.2byte	0x335
 2595 0596 6B000000 		.4byte	0x6b
 2596 059a 01       		.byte	0x1
 2597 059b 0B       		.uleb128 0xb
 2598 059c 82100000 		.4byte	.LASF161
 2599 05a0 04       		.byte	0x4
 2600 05a1 3903     		.2byte	0x339
 2601 05a3 AE030000 		.4byte	0x3ae
 2602 05a7 04       		.byte	0x4
 2603 05a8 0B       		.uleb128 0xb
 2604 05a9 C80C0000 		.4byte	.LASF162
 2605 05ad 04       		.byte	0x4
 2606 05ae 3C03     		.2byte	0x33c
 2607 05b0 6B000000 		.4byte	0x6b
 2608 05b4 08       		.byte	0x8
 2609 05b5 0B       		.uleb128 0xb
 2610 05b6 D9440000 		.4byte	.LASF163
 2611 05ba 04       		.byte	0x4
 2612 05bb 3F03     		.2byte	0x33f
 2613 05bd AE030000 		.4byte	0x3ae
 2614 05c1 0C       		.byte	0xc
 2615 05c2 0B       		.uleb128 0xb
ARM GAS  C:\Users\dmytro\AppData\Local\Temp\ccjppNo8.s 			page 68


 2616 05c3 6B440000 		.4byte	.LASF164
 2617 05c7 04       		.byte	0x4
 2618 05c8 4403     		.2byte	0x344
 2619 05ca 8F000000 		.4byte	0x8f
 2620 05ce 10       		.byte	0x10
 2621 05cf 00       		.byte	0
 2622 05d0 04       		.uleb128 0x4
 2623 05d1 AC450000 		.4byte	.LASF165
 2624 05d5 04       		.byte	0x4
 2625 05d6 4603     		.2byte	0x346
 2626 05d8 78050000 		.4byte	0x578
 2627 05dc 0F       		.uleb128 0xf
 2628 05dd 01       		.byte	0x1
 2629 05de 2C000000 		.4byte	0x2c
 2630 05e2 05       		.byte	0x5
 2631 05e3 49       		.byte	0x49
 2632 05e4 97060000 		.4byte	0x697
 2633 05e8 08       		.uleb128 0x8
 2634 05e9 36180000 		.4byte	.LASF166
 2635 05ed 01       		.byte	0x1
 2636 05ee 08       		.uleb128 0x8
 2637 05ef 41150000 		.4byte	.LASF167
 2638 05f3 02       		.byte	0x2
 2639 05f4 08       		.uleb128 0x8
 2640 05f5 7C0B0000 		.4byte	.LASF168
 2641 05f9 03       		.byte	0x3
 2642 05fa 08       		.uleb128 0x8
 2643 05fb 41100000 		.4byte	.LASF169
 2644 05ff 04       		.byte	0x4
 2645 0600 08       		.uleb128 0x8
 2646 0601 85300000 		.4byte	.LASF170
 2647 0605 05       		.byte	0x5
 2648 0606 08       		.uleb128 0x8
 2649 0607 782E0000 		.4byte	.LASF171
 2650 060b 06       		.byte	0x6
 2651 060c 08       		.uleb128 0x8
 2652 060d 0C0D0000 		.4byte	.LASF172
 2653 0611 07       		.byte	0x7
 2654 0612 08       		.uleb128 0x8
 2655 0613 842D0000 		.4byte	.LASF173
 2656 0617 08       		.byte	0x8
 2657 0618 08       		.uleb128 0x8
 2658 0619 80080000 		.4byte	.LASF174
 2659 061d 09       		.byte	0x9
 2660 061e 08       		.uleb128 0x8
 2661 061f 121F0000 		.4byte	.LASF175
 2662 0623 0A       		.byte	0xa
 2663 0624 08       		.uleb128 0x8
 2664 0625 A83E0000 		.4byte	.LASF176
 2665 0629 0B       		.byte	0xb
 2666 062a 08       		.uleb128 0x8
 2667 062b 79340000 		.4byte	.LASF177
 2668 062f 0C       		.byte	0xc
 2669 0630 08       		.uleb128 0x8
 2670 0631 4D0F0000 		.4byte	.LASF178
 2671 0635 0D       		.byte	0xd
 2672 0636 08       		.uleb128 0x8
ARM GAS  C:\Users\dmytro\AppData\Local\Temp\ccjppNo8.s 			page 69


 2673 0637 042D0000 		.4byte	.LASF179
 2674 063b 0E       		.byte	0xe
 2675 063c 08       		.uleb128 0x8
 2676 063d AF070000 		.4byte	.LASF180
 2677 0641 0F       		.byte	0xf
 2678 0642 08       		.uleb128 0x8
 2679 0643 DE420000 		.4byte	.LASF181
 2680 0647 10       		.byte	0x10
 2681 0648 08       		.uleb128 0x8
 2682 0649 511E0000 		.4byte	.LASF182
 2683 064d 11       		.byte	0x11
 2684 064e 08       		.uleb128 0x8
 2685 064f 4C390000 		.4byte	.LASF183
 2686 0653 12       		.byte	0x12
 2687 0654 08       		.uleb128 0x8
 2688 0655 FA130000 		.4byte	.LASF184
 2689 0659 13       		.byte	0x13
 2690 065a 08       		.uleb128 0x8
 2691 065b A3030000 		.4byte	.LASF185
 2692 065f 52       		.byte	0x52
 2693 0660 08       		.uleb128 0x8
 2694 0661 57060000 		.4byte	.LASF186
 2695 0665 16       		.byte	0x16
 2696 0666 08       		.uleb128 0x8
 2697 0667 F42A0000 		.4byte	.LASF187
 2698 066b 17       		.byte	0x17
 2699 066c 08       		.uleb128 0x8
 2700 066d 32410000 		.4byte	.LASF188
 2701 0671 18       		.byte	0x18
 2702 0672 08       		.uleb128 0x8
 2703 0673 681B0000 		.4byte	.LASF189
 2704 0677 19       		.byte	0x19
 2705 0678 08       		.uleb128 0x8
 2706 0679 23200000 		.4byte	.LASF190
 2707 067d 1B       		.byte	0x1b
 2708 067e 08       		.uleb128 0x8
 2709 067f 5A110000 		.4byte	.LASF191
 2710 0683 1D       		.byte	0x1d
 2711 0684 08       		.uleb128 0x8
 2712 0685 6E010000 		.4byte	.LASF192
 2713 0689 1E       		.byte	0x1e
 2714 068a 08       		.uleb128 0x8
 2715 068b A41A0000 		.4byte	.LASF193
 2716 068f D2       		.byte	0xd2
 2717 0690 08       		.uleb128 0x8
 2718 0691 09320000 		.4byte	.LASF194
 2719 0695 FF       		.byte	0xff
 2720 0696 00       		.byte	0
 2721 0697 0F       		.uleb128 0xf
 2722 0698 01       		.byte	0x1
 2723 0699 2C000000 		.4byte	0x2c
 2724 069d 05       		.byte	0x5
 2725 069e A5       		.byte	0xa5
 2726 069f 8E070000 		.4byte	0x78e
 2727 06a3 08       		.uleb128 0x8
 2728 06a4 9C320000 		.4byte	.LASF195
 2729 06a8 00       		.byte	0
ARM GAS  C:\Users\dmytro\AppData\Local\Temp\ccjppNo8.s 			page 70


 2730 06a9 08       		.uleb128 0x8
 2731 06aa A9310000 		.4byte	.LASF196
 2732 06ae 01       		.byte	0x1
 2733 06af 08       		.uleb128 0x8
 2734 06b0 04060000 		.4byte	.LASF197
 2735 06b4 02       		.byte	0x2
 2736 06b5 08       		.uleb128 0x8
 2737 06b6 E6410000 		.4byte	.LASF198
 2738 06ba 03       		.byte	0x3
 2739 06bb 08       		.uleb128 0x8
 2740 06bc 160E0000 		.4byte	.LASF199
 2741 06c0 04       		.byte	0x4
 2742 06c1 08       		.uleb128 0x8
 2743 06c2 11290000 		.4byte	.LASF200
 2744 06c6 05       		.byte	0x5
 2745 06c7 08       		.uleb128 0x8
 2746 06c8 8E3A0000 		.4byte	.LASF201
 2747 06cc 06       		.byte	0x6
 2748 06cd 08       		.uleb128 0x8
 2749 06ce 662D0000 		.4byte	.LASF202
 2750 06d2 07       		.byte	0x7
 2751 06d3 08       		.uleb128 0x8
 2752 06d4 52280000 		.4byte	.LASF203
 2753 06d8 08       		.byte	0x8
 2754 06d9 08       		.uleb128 0x8
 2755 06da 9F2B0000 		.4byte	.LASF204
 2756 06de 09       		.byte	0x9
 2757 06df 08       		.uleb128 0x8
 2758 06e0 362B0000 		.4byte	.LASF205
 2759 06e4 0A       		.byte	0xa
 2760 06e5 08       		.uleb128 0x8
 2761 06e6 54160000 		.4byte	.LASF206
 2762 06ea 0B       		.byte	0xb
 2763 06eb 08       		.uleb128 0x8
 2764 06ec B0250000 		.4byte	.LASF207
 2765 06f0 0C       		.byte	0xc
 2766 06f1 08       		.uleb128 0x8
 2767 06f2 660F0000 		.4byte	.LASF208
 2768 06f6 0D       		.byte	0xd
 2769 06f7 08       		.uleb128 0x8
 2770 06f8 DF140000 		.4byte	.LASF209
 2771 06fc 0E       		.byte	0xe
 2772 06fd 08       		.uleb128 0x8
 2773 06fe 2F420000 		.4byte	.LASF210
 2774 0702 0F       		.byte	0xf
 2775 0703 08       		.uleb128 0x8
 2776 0704 74060000 		.4byte	.LASF211
 2777 0708 10       		.byte	0x10
 2778 0709 08       		.uleb128 0x8
 2779 070a 26060000 		.4byte	.LASF212
 2780 070e 11       		.byte	0x11
 2781 070f 08       		.uleb128 0x8
 2782 0710 EB070000 		.4byte	.LASF213
 2783 0714 80       		.byte	0x80
 2784 0715 08       		.uleb128 0x8
 2785 0716 FA150000 		.4byte	.LASF214
 2786 071a 80       		.byte	0x80
ARM GAS  C:\Users\dmytro\AppData\Local\Temp\ccjppNo8.s 			page 71


 2787 071b 08       		.uleb128 0x8
 2788 071c 481D0000 		.4byte	.LASF215
 2789 0720 80       		.byte	0x80
 2790 0721 08       		.uleb128 0x8
 2791 0722 3A3A0000 		.4byte	.LASF216
 2792 0726 80       		.byte	0x80
 2793 0727 08       		.uleb128 0x8
 2794 0728 A7330000 		.4byte	.LASF217
 2795 072c 80       		.byte	0x80
 2796 072d 08       		.uleb128 0x8
 2797 072e 3F2A0000 		.4byte	.LASF218
 2798 0732 80       		.byte	0x80
 2799 0733 08       		.uleb128 0x8
 2800 0734 B71E0000 		.4byte	.LASF219
 2801 0738 80       		.byte	0x80
 2802 0739 08       		.uleb128 0x8
 2803 073a C4140000 		.4byte	.LASF220
 2804 073e 80       		.byte	0x80
 2805 073f 08       		.uleb128 0x8
 2806 0740 041B0000 		.4byte	.LASF221
 2807 0744 81       		.byte	0x81
 2808 0745 08       		.uleb128 0x8
 2809 0746 78360000 		.4byte	.LASF222
 2810 074a 81       		.byte	0x81
 2811 074b 08       		.uleb128 0x8
 2812 074c 64000000 		.4byte	.LASF223
 2813 0750 81       		.byte	0x81
 2814 0751 08       		.uleb128 0x8
 2815 0752 AB0D0000 		.4byte	.LASF224
 2816 0756 81       		.byte	0x81
 2817 0757 08       		.uleb128 0x8
 2818 0758 480A0000 		.4byte	.LASF225
 2819 075c 82       		.byte	0x82
 2820 075d 08       		.uleb128 0x8
 2821 075e 573E0000 		.4byte	.LASF226
 2822 0762 A0       		.byte	0xa0
 2823 0763 08       		.uleb128 0x8
 2824 0764 ED200000 		.4byte	.LASF227
 2825 0768 A0       		.byte	0xa0
 2826 0769 08       		.uleb128 0x8
 2827 076a B60A0000 		.4byte	.LASF228
 2828 076e A1       		.byte	0xa1
 2829 076f 08       		.uleb128 0x8
 2830 0770 1A3D0000 		.4byte	.LASF229
 2831 0774 A2       		.byte	0xa2
 2832 0775 08       		.uleb128 0x8
 2833 0776 76170000 		.4byte	.LASF230
 2834 077a A3       		.byte	0xa3
 2835 077b 08       		.uleb128 0x8
 2836 077c 8D100000 		.4byte	.LASF231
 2837 0780 FD       		.byte	0xfd
 2838 0781 08       		.uleb128 0x8
 2839 0782 05260000 		.4byte	.LASF232
 2840 0786 FE       		.byte	0xfe
 2841 0787 08       		.uleb128 0x8
 2842 0788 1E2E0000 		.4byte	.LASF233
 2843 078c FF       		.byte	0xff
ARM GAS  C:\Users\dmytro\AppData\Local\Temp\ccjppNo8.s 			page 72


 2844 078d 00       		.byte	0
 2845 078e 04       		.uleb128 0x4
 2846 078f 043D0000 		.4byte	.LASF234
 2847 0793 05       		.byte	0x5
 2848 0794 5F01     		.2byte	0x15f
 2849 0796 97060000 		.4byte	0x697
 2850 079a 04       		.uleb128 0x4
 2851 079b 3E320000 		.4byte	.LASF235
 2852 079f 05       		.byte	0x5
 2853 07a0 8901     		.2byte	0x189
 2854 07a2 77000000 		.4byte	0x77
 2855 07a6 0A       		.uleb128 0xa
 2856 07a7 02       		.byte	0x2
 2857 07a8 05       		.byte	0x5
 2858 07a9 9301     		.2byte	0x193
 2859 07ab CA070000 		.4byte	0x7ca
 2860 07af 0B       		.uleb128 0xb
 2861 07b0 3F0A0000 		.4byte	.LASF236
 2862 07b4 05       		.byte	0x5
 2863 07b5 9A01     		.2byte	0x19a
 2864 07b7 6B000000 		.4byte	0x6b
 2865 07bb 00       		.byte	0
 2866 07bc 0B       		.uleb128 0xb
 2867 07bd 82430000 		.4byte	.LASF237
 2868 07c1 05       		.byte	0x5
 2869 07c2 A001     		.2byte	0x1a0
 2870 07c4 6B000000 		.4byte	0x6b
 2871 07c8 01       		.byte	0x1
 2872 07c9 00       		.byte	0
 2873 07ca 04       		.uleb128 0x4
 2874 07cb 1C090000 		.4byte	.LASF238
 2875 07cf 05       		.byte	0x5
 2876 07d0 A201     		.2byte	0x1a2
 2877 07d2 A6070000 		.4byte	0x7a6
 2878 07d6 0A       		.uleb128 0xa
 2879 07d7 08       		.byte	0x8
 2880 07d8 05       		.byte	0x5
 2881 07d9 BE01     		.2byte	0x1be
 2882 07db 07080000 		.4byte	0x807
 2883 07df 11       		.uleb128 0x11
 2884 07e0 76616C00 		.ascii	"val\000"
 2885 07e4 05       		.byte	0x5
 2886 07e5 C101     		.2byte	0x1c1
 2887 07e7 AE030000 		.4byte	0x3ae
 2888 07eb 00       		.byte	0
 2889 07ec 11       		.uleb128 0x11
 2890 07ed 6C656E00 		.ascii	"len\000"
 2891 07f1 05       		.byte	0x5
 2892 07f2 C401     		.2byte	0x1c4
 2893 07f4 77000000 		.4byte	0x77
 2894 07f8 04       		.byte	0x4
 2895 07f9 0B       		.uleb128 0xb
 2896 07fa B1420000 		.4byte	.LASF239
 2897 07fe 05       		.byte	0x5
 2898 07ff CB01     		.2byte	0x1cb
 2899 0801 77000000 		.4byte	0x77
 2900 0805 06       		.byte	0x6
ARM GAS  C:\Users\dmytro\AppData\Local\Temp\ccjppNo8.s 			page 73


 2901 0806 00       		.byte	0
 2902 0807 04       		.uleb128 0x4
 2903 0808 79070000 		.4byte	.LASF240
 2904 080c 05       		.byte	0x5
 2905 080d CD01     		.2byte	0x1cd
 2906 080f D6070000 		.4byte	0x7d6
 2907 0813 0A       		.uleb128 0xa
 2908 0814 0C       		.byte	0xc
 2909 0815 05       		.byte	0x5
 2910 0816 D001     		.2byte	0x1d0
 2911 0818 37080000 		.4byte	0x837
 2912 081c 0B       		.uleb128 0xb
 2913 081d B0320000 		.4byte	.LASF241
 2914 0821 05       		.byte	0x5
 2915 0822 D301     		.2byte	0x1d3
 2916 0824 07080000 		.4byte	0x807
 2917 0828 00       		.byte	0
 2918 0829 0B       		.uleb128 0xb
 2919 082a 7C280000 		.4byte	.LASF242
 2920 082e 05       		.byte	0x5
 2921 082f D601     		.2byte	0x1d6
 2922 0831 9A070000 		.4byte	0x79a
 2923 0835 08       		.byte	0x8
 2924 0836 00       		.byte	0
 2925 0837 04       		.uleb128 0x4
 2926 0838 910E0000 		.4byte	.LASF243
 2927 083c 05       		.byte	0x5
 2928 083d D801     		.2byte	0x1d8
 2929 083f 13080000 		.4byte	0x813
 2930 0843 12       		.uleb128 0x12
 2931 0844 04       		.byte	0x4
 2932 0845 06       		.byte	0x6
 2933 0846 3A       		.byte	0x3a
 2934 0847 70080000 		.4byte	0x870
 2935 084b 13       		.uleb128 0x13
 2936 084c 7C280000 		.4byte	.LASF242
 2937 0850 06       		.byte	0x6
 2938 0851 3D       		.byte	0x3d
 2939 0852 9A070000 		.4byte	0x79a
 2940 0856 00       		.byte	0
 2941 0857 13       		.uleb128 0x13
 2942 0858 4B280000 		.4byte	.LASF244
 2943 085c 06       		.byte	0x6
 2944 085d 43       		.byte	0x43
 2945 085e 6B000000 		.4byte	0x6b
 2946 0862 02       		.byte	0x2
 2947 0863 13       		.uleb128 0x13
 2948 0864 87120000 		.4byte	.LASF245
 2949 0868 06       		.byte	0x6
 2950 0869 46       		.byte	0x46
 2951 086a 8E070000 		.4byte	0x78e
 2952 086e 03       		.byte	0x3
 2953 086f 00       		.byte	0
 2954 0870 10       		.uleb128 0x10
 2955 0871 F2100000 		.4byte	.LASF246
 2956 0875 06       		.byte	0x6
 2957 0876 48       		.byte	0x48
ARM GAS  C:\Users\dmytro\AppData\Local\Temp\ccjppNo8.s 			page 74


 2958 0877 43080000 		.4byte	0x843
 2959 087b 12       		.uleb128 0x12
 2960 087c 10       		.byte	0x10
 2961 087d 06       		.byte	0x6
 2962 087e 8A       		.byte	0x8a
 2963 087f 9C080000 		.4byte	0x89c
 2964 0883 13       		.uleb128 0x13
 2965 0884 C4340000 		.4byte	.LASF247
 2966 0888 06       		.byte	0x6
 2967 0889 8D       		.byte	0x8d
 2968 088a CA070000 		.4byte	0x7ca
 2969 088e 00       		.byte	0
 2970 088f 13       		.uleb128 0x13
 2971 0890 6B390000 		.4byte	.LASF248
 2972 0894 06       		.byte	0x6
 2973 0895 90       		.byte	0x90
 2974 0896 37080000 		.4byte	0x837
 2975 089a 04       		.byte	0x4
 2976 089b 00       		.byte	0
 2977 089c 10       		.uleb128 0x10
 2978 089d C7280000 		.4byte	.LASF249
 2979 08a1 06       		.byte	0x6
 2980 08a2 92       		.byte	0x92
 2981 08a3 7B080000 		.4byte	0x87b
 2982 08a7 10       		.uleb128 0x10
 2983 08a8 91400000 		.4byte	.LASF250
 2984 08ac 06       		.byte	0x6
 2985 08ad 95       		.byte	0x95
 2986 08ae 9C080000 		.4byte	0x89c
 2987 08b2 10       		.uleb128 0x10
 2988 08b3 350F0000 		.4byte	.LASF251
 2989 08b7 07       		.byte	0x7
 2990 08b8 7A       		.byte	0x7a
 2991 08b9 37080000 		.4byte	0x837
 2992 08bd 0F       		.uleb128 0xf
 2993 08be 02       		.byte	0x2
 2994 08bf 3A000000 		.4byte	0x3a
 2995 08c3 08       		.byte	0x8
 2996 08c4 B4       		.byte	0xb4
 2997 08c5 28110000 		.4byte	0x1128
 2998 08c9 09       		.uleb128 0x9
 2999 08ca 922A0000 		.4byte	.LASF252
 3000 08ce 0001     		.2byte	0x100
 3001 08d0 09       		.uleb128 0x9
 3002 08d1 49440000 		.4byte	.LASF253
 3003 08d5 0101     		.2byte	0x101
 3004 08d7 09       		.uleb128 0x9
 3005 08d8 D00C0000 		.4byte	.LASF254
 3006 08dc 0201     		.2byte	0x102
 3007 08de 09       		.uleb128 0x9
 3008 08df FF430000 		.4byte	.LASF255
 3009 08e3 0301     		.2byte	0x103
 3010 08e5 09       		.uleb128 0x9
 3011 08e6 6F310000 		.4byte	.LASF256
 3012 08ea 0401     		.2byte	0x104
 3013 08ec 09       		.uleb128 0x9
 3014 08ed 93390000 		.4byte	.LASF257
ARM GAS  C:\Users\dmytro\AppData\Local\Temp\ccjppNo8.s 			page 75


 3015 08f1 0501     		.2byte	0x105
 3016 08f3 09       		.uleb128 0x9
 3017 08f4 6C120000 		.4byte	.LASF258
 3018 08f8 0601     		.2byte	0x106
 3019 08fa 09       		.uleb128 0x9
 3020 08fb 7F3B0000 		.4byte	.LASF259
 3021 08ff 0701     		.2byte	0x107
 3022 0901 09       		.uleb128 0x9
 3023 0902 C0410000 		.4byte	.LASF260
 3024 0906 0801     		.2byte	0x108
 3025 0908 09       		.uleb128 0x9
 3026 0909 F9060000 		.4byte	.LASF261
 3027 090d 0901     		.2byte	0x109
 3028 090f 09       		.uleb128 0x9
 3029 0910 48040000 		.4byte	.LASF262
 3030 0914 0A01     		.2byte	0x10a
 3031 0916 09       		.uleb128 0x9
 3032 0917 FF330000 		.4byte	.LASF263
 3033 091b 0B01     		.2byte	0x10b
 3034 091d 09       		.uleb128 0x9
 3035 091e 4C240000 		.4byte	.LASF264
 3036 0922 0C01     		.2byte	0x10c
 3037 0924 09       		.uleb128 0x9
 3038 0925 ED2F0000 		.4byte	.LASF265
 3039 0929 0D01     		.2byte	0x10d
 3040 092b 09       		.uleb128 0x9
 3041 092c 17050000 		.4byte	.LASF266
 3042 0930 0E01     		.2byte	0x10e
 3043 0932 09       		.uleb128 0x9
 3044 0933 A7010000 		.4byte	.LASF267
 3045 0937 0F01     		.2byte	0x10f
 3046 0939 09       		.uleb128 0x9
 3047 093a F4080000 		.4byte	.LASF268
 3048 093e 1001     		.2byte	0x110
 3049 0940 09       		.uleb128 0x9
 3050 0941 FB420000 		.4byte	.LASF269
 3051 0945 1101     		.2byte	0x111
 3052 0947 09       		.uleb128 0x9
 3053 0948 893F0000 		.4byte	.LASF270
 3054 094c 1201     		.2byte	0x112
 3055 094e 09       		.uleb128 0x9
 3056 094f 0C190000 		.4byte	.LASF271
 3057 0953 1301     		.2byte	0x113
 3058 0955 09       		.uleb128 0x9
 3059 0956 C2460000 		.4byte	.LASF272
 3060 095a 1401     		.2byte	0x114
 3061 095c 09       		.uleb128 0x9
 3062 095d 5A320000 		.4byte	.LASF273
 3063 0961 1501     		.2byte	0x115
 3064 0963 09       		.uleb128 0x9
 3065 0964 6D0E0000 		.4byte	.LASF274
 3066 0968 1601     		.2byte	0x116
 3067 096a 09       		.uleb128 0x9
 3068 096b 173B0000 		.4byte	.LASF275
 3069 096f 1701     		.2byte	0x117
 3070 0971 09       		.uleb128 0x9
 3071 0972 E4330000 		.4byte	.LASF276
ARM GAS  C:\Users\dmytro\AppData\Local\Temp\ccjppNo8.s 			page 76


 3072 0976 1801     		.2byte	0x118
 3073 0978 09       		.uleb128 0x9
 3074 0979 D93D0000 		.4byte	.LASF277
 3075 097d 1901     		.2byte	0x119
 3076 097f 09       		.uleb128 0x9
 3077 0980 F8010000 		.4byte	.LASF278
 3078 0984 1A01     		.2byte	0x11a
 3079 0986 09       		.uleb128 0x9
 3080 0987 7B140000 		.4byte	.LASF279
 3081 098b 1B01     		.2byte	0x11b
 3082 098d 09       		.uleb128 0x9
 3083 098e CF2E0000 		.4byte	.LASF280
 3084 0992 1C01     		.2byte	0x11c
 3085 0994 09       		.uleb128 0x9
 3086 0995 D6390000 		.4byte	.LASF281
 3087 0999 1D01     		.2byte	0x11d
 3088 099b 09       		.uleb128 0x9
 3089 099c B8370000 		.4byte	.LASF282
 3090 09a0 1E01     		.2byte	0x11e
 3091 09a2 09       		.uleb128 0x9
 3092 09a3 6D2A0000 		.4byte	.LASF283
 3093 09a7 1F01     		.2byte	0x11f
 3094 09a9 09       		.uleb128 0x9
 3095 09aa 5C140000 		.4byte	.LASF284
 3096 09ae 2001     		.2byte	0x120
 3097 09b0 09       		.uleb128 0x9
 3098 09b1 45130000 		.4byte	.LASF285
 3099 09b5 2101     		.2byte	0x121
 3100 09b7 09       		.uleb128 0x9
 3101 09b8 9E340000 		.4byte	.LASF286
 3102 09bc 2201     		.2byte	0x122
 3103 09be 09       		.uleb128 0x9
 3104 09bf 5A050000 		.4byte	.LASF287
 3105 09c3 2301     		.2byte	0x123
 3106 09c5 09       		.uleb128 0x9
 3107 09c6 82380000 		.4byte	.LASF288
 3108 09ca 2401     		.2byte	0x124
 3109 09cc 09       		.uleb128 0x9
 3110 09cd CB450000 		.4byte	.LASF289
 3111 09d1 2501     		.2byte	0x125
 3112 09d3 09       		.uleb128 0x9
 3113 09d4 27280000 		.4byte	.LASF290
 3114 09d8 2601     		.2byte	0x126
 3115 09da 09       		.uleb128 0x9
 3116 09db 9F180000 		.4byte	.LASF291
 3117 09df 2701     		.2byte	0x127
 3118 09e1 09       		.uleb128 0x9
 3119 09e2 3C3B0000 		.4byte	.LASF292
 3120 09e6 2801     		.2byte	0x128
 3121 09e8 09       		.uleb128 0x9
 3122 09e9 172C0000 		.4byte	.LASF293
 3123 09ed 2901     		.2byte	0x129
 3124 09ef 09       		.uleb128 0x9
 3125 09f0 3A460000 		.4byte	.LASF294
 3126 09f4 2A01     		.2byte	0x12a
 3127 09f6 09       		.uleb128 0x9
 3128 09f7 C73B0000 		.4byte	.LASF295
ARM GAS  C:\Users\dmytro\AppData\Local\Temp\ccjppNo8.s 			page 77


 3129 09fb 2B01     		.2byte	0x12b
 3130 09fd 09       		.uleb128 0x9
 3131 09fe DE440000 		.4byte	.LASF296
 3132 0a02 2C01     		.2byte	0x12c
 3133 0a04 09       		.uleb128 0x9
 3134 0a05 65200000 		.4byte	.LASF297
 3135 0a09 2D01     		.2byte	0x12d
 3136 0a0b 09       		.uleb128 0x9
 3137 0a0c 6D420000 		.4byte	.LASF298
 3138 0a10 2E01     		.2byte	0x12e
 3139 0a12 09       		.uleb128 0x9
 3140 0a13 E1050000 		.4byte	.LASF299
 3141 0a17 2F01     		.2byte	0x12f
 3142 0a19 09       		.uleb128 0x9
 3143 0a1a F7300000 		.4byte	.LASF300
 3144 0a1e 3001     		.2byte	0x130
 3145 0a20 09       		.uleb128 0x9
 3146 0a21 11210000 		.4byte	.LASF301
 3147 0a25 3101     		.2byte	0x131
 3148 0a27 09       		.uleb128 0x9
 3149 0a28 CF340000 		.4byte	.LASF302
 3150 0a2c 3201     		.2byte	0x132
 3151 0a2e 09       		.uleb128 0x9
 3152 0a2f 6D2F0000 		.4byte	.LASF303
 3153 0a33 3301     		.2byte	0x133
 3154 0a35 09       		.uleb128 0x9
 3155 0a36 123E0000 		.4byte	.LASF304
 3156 0a3a 3401     		.2byte	0x134
 3157 0a3c 09       		.uleb128 0x9
 3158 0a3d 1E100000 		.4byte	.LASF305
 3159 0a41 3501     		.2byte	0x135
 3160 0a43 09       		.uleb128 0x9
 3161 0a44 5B3B0000 		.4byte	.LASF306
 3162 0a48 3601     		.2byte	0x136
 3163 0a4a 09       		.uleb128 0x9
 3164 0a4b E21A0000 		.4byte	.LASF307
 3165 0a4f 3701     		.2byte	0x137
 3166 0a51 09       		.uleb128 0x9
 3167 0a52 640D0000 		.4byte	.LASF308
 3168 0a56 3801     		.2byte	0x138
 3169 0a58 09       		.uleb128 0x9
 3170 0a59 94040000 		.4byte	.LASF309
 3171 0a5d 3901     		.2byte	0x139
 3172 0a5f 09       		.uleb128 0x9
 3173 0a60 B8040000 		.4byte	.LASF310
 3174 0a64 3A01     		.2byte	0x13a
 3175 0a66 09       		.uleb128 0x9
 3176 0a67 CB000000 		.4byte	.LASF311
 3177 0a6b 3B01     		.2byte	0x13b
 3178 0a6d 09       		.uleb128 0x9
 3179 0a6e D70F0000 		.4byte	.LASF312
 3180 0a72 3C01     		.2byte	0x13c
 3181 0a74 09       		.uleb128 0x9
 3182 0a75 70440000 		.4byte	.LASF313
 3183 0a79 3D01     		.2byte	0x13d
 3184 0a7b 09       		.uleb128 0x9
 3185 0a7c 42080000 		.4byte	.LASF314
ARM GAS  C:\Users\dmytro\AppData\Local\Temp\ccjppNo8.s 			page 78


 3186 0a80 3E01     		.2byte	0x13e
 3187 0a82 09       		.uleb128 0x9
 3188 0a83 77290000 		.4byte	.LASF315
 3189 0a87 3F01     		.2byte	0x13f
 3190 0a89 09       		.uleb128 0x9
 3191 0a8a 59020000 		.4byte	.LASF316
 3192 0a8e 4001     		.2byte	0x140
 3193 0a90 09       		.uleb128 0x9
 3194 0a91 EE170000 		.4byte	.LASF317
 3195 0a95 4101     		.2byte	0x141
 3196 0a97 09       		.uleb128 0x9
 3197 0a98 112B0000 		.4byte	.LASF318
 3198 0a9c 4201     		.2byte	0x142
 3199 0a9e 09       		.uleb128 0x9
 3200 0a9f 701A0000 		.4byte	.LASF319
 3201 0aa3 4301     		.2byte	0x143
 3202 0aa5 09       		.uleb128 0x9
 3203 0aa6 64080000 		.4byte	.LASF320
 3204 0aaa 4401     		.2byte	0x144
 3205 0aac 09       		.uleb128 0x9
 3206 0aad F5020000 		.4byte	.LASF321
 3207 0ab1 4501     		.2byte	0x145
 3208 0ab3 09       		.uleb128 0x9
 3209 0ab4 130B0000 		.4byte	.LASF322
 3210 0ab8 4601     		.2byte	0x146
 3211 0aba 09       		.uleb128 0x9
 3212 0abb EC320000 		.4byte	.LASF323
 3213 0abf 4701     		.2byte	0x147
 3214 0ac1 09       		.uleb128 0x9
 3215 0ac2 79390000 		.4byte	.LASF324
 3216 0ac6 4801     		.2byte	0x148
 3217 0ac8 09       		.uleb128 0x9
 3218 0ac9 DC090000 		.4byte	.LASF325
 3219 0acd 4901     		.2byte	0x149
 3220 0acf 09       		.uleb128 0x9
 3221 0ad0 BE2D0000 		.4byte	.LASF326
 3222 0ad4 4A01     		.2byte	0x14a
 3223 0ad6 09       		.uleb128 0x9
 3224 0ad7 103F0000 		.4byte	.LASF327
 3225 0adb 4B01     		.2byte	0x14b
 3226 0add 09       		.uleb128 0x9
 3227 0ade 23250000 		.4byte	.LASF328
 3228 0ae2 4C01     		.2byte	0x14c
 3229 0ae4 09       		.uleb128 0x9
 3230 0ae5 653F0000 		.4byte	.LASF329
 3231 0ae9 4D01     		.2byte	0x14d
 3232 0aeb 09       		.uleb128 0x9
 3233 0aec 6E0A0000 		.4byte	.LASF330
 3234 0af0 4E01     		.2byte	0x14e
 3235 0af2 09       		.uleb128 0x9
 3236 0af3 47120000 		.4byte	.LASF331
 3237 0af7 4F01     		.2byte	0x14f
 3238 0af9 09       		.uleb128 0x9
 3239 0afa 9A410000 		.4byte	.LASF332
 3240 0afe 5001     		.2byte	0x150
 3241 0b00 09       		.uleb128 0x9
 3242 0b01 AC3F0000 		.4byte	.LASF333
ARM GAS  C:\Users\dmytro\AppData\Local\Temp\ccjppNo8.s 			page 79


 3243 0b05 5101     		.2byte	0x151
 3244 0b07 09       		.uleb128 0x9
 3245 0b08 ED000000 		.4byte	.LASF334
 3246 0b0c 5201     		.2byte	0x152
 3247 0b0e 09       		.uleb128 0x9
 3248 0b0f 713A0000 		.4byte	.LASF335
 3249 0b13 5301     		.2byte	0x153
 3250 0b15 09       		.uleb128 0x9
 3251 0b16 0B220000 		.4byte	.LASF336
 3252 0b1a 5401     		.2byte	0x154
 3253 0b1c 09       		.uleb128 0x9
 3254 0b1d B7380000 		.4byte	.LASF337
 3255 0b21 5501     		.2byte	0x155
 3256 0b23 09       		.uleb128 0x9
 3257 0b24 31360000 		.4byte	.LASF338
 3258 0b28 5601     		.2byte	0x156
 3259 0b2a 09       		.uleb128 0x9
 3260 0b2b A0020000 		.4byte	.LASF339
 3261 0b2f 5701     		.2byte	0x157
 3262 0b31 09       		.uleb128 0x9
 3263 0b32 24350000 		.4byte	.LASF340
 3264 0b36 5801     		.2byte	0x158
 3265 0b38 09       		.uleb128 0x9
 3266 0b39 76110000 		.4byte	.LASF341
 3267 0b3d 5901     		.2byte	0x159
 3268 0b3f 09       		.uleb128 0x9
 3269 0b40 950B0000 		.4byte	.LASF342
 3270 0b44 5A01     		.2byte	0x15a
 3271 0b46 09       		.uleb128 0x9
 3272 0b47 590B0000 		.4byte	.LASF343
 3273 0b4b 5B01     		.2byte	0x15b
 3274 0b4d 09       		.uleb128 0x9
 3275 0b4e 36110000 		.4byte	.LASF344
 3276 0b52 5C01     		.2byte	0x15c
 3277 0b54 09       		.uleb128 0x9
 3278 0b55 59230000 		.4byte	.LASF345
 3279 0b59 5D01     		.2byte	0x15d
 3280 0b5b 09       		.uleb128 0x9
 3281 0b5c 60430000 		.4byte	.LASF346
 3282 0b60 5E01     		.2byte	0x15e
 3283 0b62 09       		.uleb128 0x9
 3284 0b63 37170000 		.4byte	.LASF347
 3285 0b67 5F01     		.2byte	0x15f
 3286 0b69 09       		.uleb128 0x9
 3287 0b6a B6320000 		.4byte	.LASF348
 3288 0b6e 6001     		.2byte	0x160
 3289 0b70 09       		.uleb128 0x9
 3290 0b71 30090000 		.4byte	.LASF349
 3291 0b75 6101     		.2byte	0x161
 3292 0b77 09       		.uleb128 0x9
 3293 0b78 37020000 		.4byte	.LASF350
 3294 0b7c 6201     		.2byte	0x162
 3295 0b7e 09       		.uleb128 0x9
 3296 0b7f 95210000 		.4byte	.LASF351
 3297 0b83 6301     		.2byte	0x163
 3298 0b85 09       		.uleb128 0x9
 3299 0b86 08010000 		.4byte	.LASF352
ARM GAS  C:\Users\dmytro\AppData\Local\Temp\ccjppNo8.s 			page 80


 3300 0b8a 6401     		.2byte	0x164
 3301 0b8c 09       		.uleb128 0x9
 3302 0b8d 100C0000 		.4byte	.LASF353
 3303 0b91 6501     		.2byte	0x165
 3304 0b93 09       		.uleb128 0x9
 3305 0b94 16400000 		.4byte	.LASF354
 3306 0b98 6601     		.2byte	0x166
 3307 0b9a 09       		.uleb128 0x9
 3308 0b9b 4B1A0000 		.4byte	.LASF355
 3309 0b9f 6701     		.2byte	0x167
 3310 0ba1 09       		.uleb128 0x9
 3311 0ba2 31190000 		.4byte	.LASF356
 3312 0ba6 6801     		.2byte	0x168
 3313 0ba8 09       		.uleb128 0x9
 3314 0ba9 8C070000 		.4byte	.LASF357
 3315 0bad 6901     		.2byte	0x169
 3316 0baf 09       		.uleb128 0x9
 3317 0bb0 A40C0000 		.4byte	.LASF358
 3318 0bb4 6A01     		.2byte	0x16a
 3319 0bb6 09       		.uleb128 0x9
 3320 0bb7 AB260000 		.4byte	.LASF359
 3321 0bbb 6B01     		.2byte	0x16b
 3322 0bbd 09       		.uleb128 0x9
 3323 0bbe 8C220000 		.4byte	.LASF360
 3324 0bc2 6C01     		.2byte	0x16c
 3325 0bc4 09       		.uleb128 0x9
 3326 0bc5 6A090000 		.4byte	.LASF361
 3327 0bc9 6D01     		.2byte	0x16d
 3328 0bcb 09       		.uleb128 0x9
 3329 0bcc 9C080000 		.4byte	.LASF362
 3330 0bd0 6E01     		.2byte	0x16e
 3331 0bd2 09       		.uleb128 0x9
 3332 0bd3 7D020000 		.4byte	.LASF363
 3333 0bd7 6F01     		.2byte	0x16f
 3334 0bd9 09       		.uleb128 0x9
 3335 0bda 47220000 		.4byte	.LASF364
 3336 0bde 7001     		.2byte	0x170
 3337 0be0 09       		.uleb128 0x9
 3338 0be1 88450000 		.4byte	.LASF365
 3339 0be5 7101     		.2byte	0x171
 3340 0be7 09       		.uleb128 0x9
 3341 0be8 151C0000 		.4byte	.LASF366
 3342 0bec 7201     		.2byte	0x172
 3343 0bee 09       		.uleb128 0x9
 3344 0bef 57190000 		.4byte	.LASF367
 3345 0bf3 7301     		.2byte	0x173
 3346 0bf5 09       		.uleb128 0x9
 3347 0bf6 52290000 		.4byte	.LASF368
 3348 0bfa 7401     		.2byte	0x174
 3349 0bfc 09       		.uleb128 0x9
 3350 0bfd AB3C0000 		.4byte	.LASF369
 3351 0c01 7501     		.2byte	0x175
 3352 0c03 09       		.uleb128 0x9
 3353 0c04 50330000 		.4byte	.LASF370
 3354 0c08 7601     		.2byte	0x176
 3355 0c0a 09       		.uleb128 0x9
 3356 0c0b F5040000 		.4byte	.LASF371
ARM GAS  C:\Users\dmytro\AppData\Local\Temp\ccjppNo8.s 			page 81


 3357 0c0f 7701     		.2byte	0x177
 3358 0c11 09       		.uleb128 0x9
 3359 0c12 D9310000 		.4byte	.LASF372
 3360 0c16 7801     		.2byte	0x178
 3361 0c18 09       		.uleb128 0x9
 3362 0c19 76160000 		.4byte	.LASF373
 3363 0c1d 7901     		.2byte	0x179
 3364 0c1f 09       		.uleb128 0x9
 3365 0c20 57210000 		.4byte	.LASF374
 3366 0c24 7A01     		.2byte	0x17a
 3367 0c26 09       		.uleb128 0x9
 3368 0c27 35210000 		.4byte	.LASF375
 3369 0c2b 7B01     		.2byte	0x17b
 3370 0c2d 09       		.uleb128 0x9
 3371 0c2e 94370000 		.4byte	.LASF376
 3372 0c32 7C01     		.2byte	0x17c
 3373 0c34 09       		.uleb128 0x9
 3374 0c35 98170000 		.4byte	.LASF377
 3375 0c39 7D01     		.2byte	0x17d
 3376 0c3b 09       		.uleb128 0x9
 3377 0c3c 30270000 		.4byte	.LASF378
 3378 0c40 7E01     		.2byte	0x17e
 3379 0c42 09       		.uleb128 0x9
 3380 0c43 6F250000 		.4byte	.LASF379
 3381 0c47 7F01     		.2byte	0x17f
 3382 0c49 09       		.uleb128 0x9
 3383 0c4a 182A0000 		.4byte	.LASF380
 3384 0c4e 8001     		.2byte	0x180
 3385 0c50 09       		.uleb128 0x9
 3386 0c51 60370000 		.4byte	.LASF381
 3387 0c55 8101     		.2byte	0x181
 3388 0c57 09       		.uleb128 0x9
 3389 0c58 15270000 		.4byte	.LASF382
 3390 0c5c 8201     		.2byte	0x182
 3391 0c5e 09       		.uleb128 0x9
 3392 0c5f 97270000 		.4byte	.LASF383
 3393 0c63 8301     		.2byte	0x183
 3394 0c65 09       		.uleb128 0x9
 3395 0c66 85180000 		.4byte	.LASF384
 3396 0c6a 8401     		.2byte	0x184
 3397 0c6c 09       		.uleb128 0x9
 3398 0c6d B00E0000 		.4byte	.LASF385
 3399 0c71 8501     		.2byte	0x185
 3400 0c73 09       		.uleb128 0x9
 3401 0c74 F43A0000 		.4byte	.LASF386
 3402 0c78 8601     		.2byte	0x186
 3403 0c7a 09       		.uleb128 0x9
 3404 0c7b D81D0000 		.4byte	.LASF387
 3405 0c7f 8701     		.2byte	0x187
 3406 0c81 09       		.uleb128 0x9
 3407 0c82 870D0000 		.4byte	.LASF388
 3408 0c86 8801     		.2byte	0x188
 3409 0c88 09       		.uleb128 0x9
 3410 0c89 A53B0000 		.4byte	.LASF389
 3411 0c8d 8901     		.2byte	0x189
 3412 0c8f 09       		.uleb128 0x9
 3413 0c90 84330000 		.4byte	.LASF390
ARM GAS  C:\Users\dmytro\AppData\Local\Temp\ccjppNo8.s 			page 82


 3414 0c94 8A01     		.2byte	0x18a
 3415 0c96 09       		.uleb128 0x9
 3416 0c97 3D310000 		.4byte	.LASF391
 3417 0c9b 8B01     		.2byte	0x18b
 3418 0c9d 09       		.uleb128 0x9
 3419 0c9e 6D240000 		.4byte	.LASF392
 3420 0ca2 8C01     		.2byte	0x18c
 3421 0ca4 09       		.uleb128 0x9
 3422 0ca5 C5020000 		.4byte	.LASF393
 3423 0ca9 8D01     		.2byte	0x18d
 3424 0cab 09       		.uleb128 0x9
 3425 0cac 3A2E0000 		.4byte	.LASF394
 3426 0cb0 8E01     		.2byte	0x18e
 3427 0cb2 09       		.uleb128 0x9
 3428 0cb3 20430000 		.4byte	.LASF395
 3429 0cb7 8F01     		.2byte	0x18f
 3430 0cb9 09       		.uleb128 0x9
 3431 0cba 343E0000 		.4byte	.LASF396
 3432 0cbe 9001     		.2byte	0x190
 3433 0cc0 09       		.uleb128 0x9
 3434 0cc1 DC370000 		.4byte	.LASF397
 3435 0cc5 9101     		.2byte	0x191
 3436 0cc7 09       		.uleb128 0x9
 3437 0cc8 80030000 		.4byte	.LASF398
 3438 0ccc 9201     		.2byte	0x192
 3439 0cce 09       		.uleb128 0x9
 3440 0ccf 1E150000 		.4byte	.LASF399
 3441 0cd3 9301     		.2byte	0x193
 3442 0cd5 09       		.uleb128 0x9
 3443 0cd6 C73F0000 		.4byte	.LASF400
 3444 0cda 9401     		.2byte	0x194
 3445 0cdc 09       		.uleb128 0x9
 3446 0cdd 79460000 		.4byte	.LASF401
 3447 0ce1 9501     		.2byte	0x195
 3448 0ce3 09       		.uleb128 0x9
 3449 0ce4 D8270000 		.4byte	.LASF402
 3450 0ce8 9601     		.2byte	0x196
 3451 0cea 09       		.uleb128 0x9
 3452 0ceb 1C450000 		.4byte	.LASF403
 3453 0cef 9701     		.2byte	0x197
 3454 0cf1 09       		.uleb128 0x9
 3455 0cf2 75270000 		.4byte	.LASF404
 3456 0cf6 9801     		.2byte	0x198
 3457 0cf8 09       		.uleb128 0x9
 3458 0cf9 8B0F0000 		.4byte	.LASF405
 3459 0cfd 9901     		.2byte	0x199
 3460 0cff 09       		.uleb128 0x9
 3461 0d00 151E0000 		.4byte	.LASF406
 3462 0d04 9A01     		.2byte	0x19a
 3463 0d06 09       		.uleb128 0x9
 3464 0d07 C01A0000 		.4byte	.LASF407
 3465 0d0b 9B01     		.2byte	0x19b
 3466 0d0d 09       		.uleb128 0x9
 3467 0d0e D20E0000 		.4byte	.LASF408
 3468 0d12 9C01     		.2byte	0x19c
 3469 0d14 09       		.uleb128 0x9
 3470 0d15 55360000 		.4byte	.LASF409
ARM GAS  C:\Users\dmytro\AppData\Local\Temp\ccjppNo8.s 			page 83


 3471 0d19 9D01     		.2byte	0x19d
 3472 0d1b 09       		.uleb128 0x9
 3473 0d1c DC1E0000 		.4byte	.LASF410
 3474 0d20 9E01     		.2byte	0x19e
 3475 0d22 09       		.uleb128 0x9
 3476 0d23 272F0000 		.4byte	.LASF411
 3477 0d27 9F01     		.2byte	0x19f
 3478 0d29 09       		.uleb128 0x9
 3479 0d2a FF340000 		.4byte	.LASF412
 3480 0d2e A001     		.2byte	0x1a0
 3481 0d30 09       		.uleb128 0x9
 3482 0d31 DC230000 		.4byte	.LASF413
 3483 0d35 A101     		.2byte	0x1a1
 3484 0d37 09       		.uleb128 0x9
 3485 0d38 3C300000 		.4byte	.LASF414
 3486 0d3c A201     		.2byte	0x1a2
 3487 0d3e 09       		.uleb128 0x9
 3488 0d3f 8A1A0000 		.4byte	.LASF415
 3489 0d43 A301     		.2byte	0x1a3
 3490 0d45 09       		.uleb128 0x9
 3491 0d46 3D230000 		.4byte	.LASF416
 3492 0d4a A401     		.2byte	0x1a4
 3493 0d4c 09       		.uleb128 0x9
 3494 0d4d BE240000 		.4byte	.LASF417
 3495 0d51 A501     		.2byte	0x1a5
 3496 0d53 09       		.uleb128 0x9
 3497 0d54 883C0000 		.4byte	.LASF418
 3498 0d58 A601     		.2byte	0x1a6
 3499 0d5a 09       		.uleb128 0x9
 3500 0d5b 12180000 		.4byte	.LASF419
 3501 0d5f A701     		.2byte	0x1a7
 3502 0d61 09       		.uleb128 0x9
 3503 0d62 C72B0000 		.4byte	.LASF420
 3504 0d66 A801     		.2byte	0x1a8
 3505 0d68 09       		.uleb128 0x9
 3506 0d69 51170000 		.4byte	.LASF421
 3507 0d6d A901     		.2byte	0x1a9
 3508 0d6f 09       		.uleb128 0x9
 3509 0d70 241D0000 		.4byte	.LASF422
 3510 0d74 AA01     		.2byte	0x1aa
 3511 0d76 09       		.uleb128 0x9
 3512 0d77 18470000 		.4byte	.LASF423
 3513 0d7b AB01     		.2byte	0x1ab
 3514 0d7d 09       		.uleb128 0x9
 3515 0d7e 9A2E0000 		.4byte	.LASF424
 3516 0d82 AC01     		.2byte	0x1ac
 3517 0d84 09       		.uleb128 0x9
 3518 0d85 4B2F0000 		.4byte	.LASF425
 3519 0d89 AD01     		.2byte	0x1ad
 3520 0d8b 09       		.uleb128 0x9
 3521 0d8c 56340000 		.4byte	.LASF426
 3522 0d90 AE01     		.2byte	0x1ae
 3523 0d92 09       		.uleb128 0x9
 3524 0d93 281A0000 		.4byte	.LASF427
 3525 0d97 AF01     		.2byte	0x1af
 3526 0d99 09       		.uleb128 0x9
 3527 0d9a F8360000 		.4byte	.LASF428
ARM GAS  C:\Users\dmytro\AppData\Local\Temp\ccjppNo8.s 			page 84


 3528 0d9e B001     		.2byte	0x1b0
 3529 0da0 09       		.uleb128 0x9
 3530 0da1 F20D0000 		.4byte	.LASF429
 3531 0da5 B101     		.2byte	0x1b1
 3532 0da7 09       		.uleb128 0x9
 3533 0da8 3F000000 		.4byte	.LASF430
 3534 0dac B201     		.2byte	0x1b2
 3535 0dae 09       		.uleb128 0x9
 3536 0daf 7A3D0000 		.4byte	.LASF431
 3537 0db3 B301     		.2byte	0x1b3
 3538 0db5 09       		.uleb128 0x9
 3539 0db6 95150000 		.4byte	.LASF432
 3540 0dba B401     		.2byte	0x1b4
 3541 0dbc 09       		.uleb128 0x9
 3542 0dbd 9E460000 		.4byte	.LASF433
 3543 0dc1 B501     		.2byte	0x1b5
 3544 0dc3 09       		.uleb128 0x9
 3545 0dc4 D3200000 		.4byte	.LASF434
 3546 0dc8 B601     		.2byte	0x1b6
 3547 0dca 09       		.uleb128 0x9
 3548 0dcb 00240000 		.4byte	.LASF435
 3549 0dcf B701     		.2byte	0x1b7
 3550 0dd1 09       		.uleb128 0x9
 3551 0dd2 5F460000 		.4byte	.LASF436
 3552 0dd6 B801     		.2byte	0x1b8
 3553 0dd8 09       		.uleb128 0x9
 3554 0dd9 E1380000 		.4byte	.LASF437
 3555 0ddd B901     		.2byte	0x1b9
 3556 0ddf 09       		.uleb128 0x9
 3557 0de0 592B0000 		.4byte	.LASF438
 3558 0de4 BA01     		.2byte	0x1ba
 3559 0de6 09       		.uleb128 0x9
 3560 0de7 E12D0000 		.4byte	.LASF439
 3561 0deb BB01     		.2byte	0x1bb
 3562 0ded 09       		.uleb128 0x9
 3563 0dee EA400000 		.4byte	.LASF440
 3564 0df2 BC01     		.2byte	0x1bc
 3565 0df4 09       		.uleb128 0x9
 3566 0df5 491F0000 		.4byte	.LASF441
 3567 0df9 BD01     		.2byte	0x1bd
 3568 0dfb 09       		.uleb128 0x9
 3569 0dfc A1090000 		.4byte	.LASF442
 3570 0e00 BE01     		.2byte	0x1be
 3571 0e02 09       		.uleb128 0x9
 3572 0e03 CD120000 		.4byte	.LASF443
 3573 0e07 BF01     		.2byte	0x1bf
 3574 0e09 09       		.uleb128 0x9
 3575 0e0a 5D450000 		.4byte	.LASF444
 3576 0e0e C001     		.2byte	0x1c0
 3577 0e10 09       		.uleb128 0x9
 3578 0e11 CF0D0000 		.4byte	.LASF445
 3579 0e15 C101     		.2byte	0x1c1
 3580 0e17 09       		.uleb128 0x9
 3581 0e18 261F0000 		.4byte	.LASF446
 3582 0e1c C201     		.2byte	0x1c2
 3583 0e1e 09       		.uleb128 0x9
 3584 0e1f 7A230000 		.4byte	.LASF447
ARM GAS  C:\Users\dmytro\AppData\Local\Temp\ccjppNo8.s 			page 85


 3585 0e23 C301     		.2byte	0x1c3
 3586 0e25 09       		.uleb128 0x9
 3587 0e26 CC400000 		.4byte	.LASF448
 3588 0e2a C401     		.2byte	0x1c4
 3589 0e2c 09       		.uleb128 0x9
 3590 0e2d E73C0000 		.4byte	.LASF449
 3591 0e31 C501     		.2byte	0x1c5
 3592 0e33 09       		.uleb128 0x9
 3593 0e34 E5190000 		.4byte	.LASF450
 3594 0e38 C601     		.2byte	0x1c6
 3595 0e3a 09       		.uleb128 0x9
 3596 0e3b 89260000 		.4byte	.LASF451
 3597 0e3f C701     		.2byte	0x1c7
 3598 0e41 09       		.uleb128 0x9
 3599 0e42 BC3E0000 		.4byte	.LASF452
 3600 0e46 C801     		.2byte	0x1c8
 3601 0e48 09       		.uleb128 0x9
 3602 0e49 20340000 		.4byte	.LASF453
 3603 0e4d C901     		.2byte	0x1c9
 3604 0e4f 09       		.uleb128 0x9
 3605 0e50 D2040000 		.4byte	.LASF454
 3606 0e54 CA01     		.2byte	0x1ca
 3607 0e56 09       		.uleb128 0x9
 3608 0e57 9E300000 		.4byte	.LASF455
 3609 0e5b CB01     		.2byte	0x1cb
 3610 0e5d 09       		.uleb128 0x9
 3611 0e5e CE0B0000 		.4byte	.LASF456
 3612 0e62 CC01     		.2byte	0x1cc
 3613 0e64 09       		.uleb128 0x9
 3614 0e65 7F0C0000 		.4byte	.LASF457
 3615 0e69 CD01     		.2byte	0x1cd
 3616 0e6b 09       		.uleb128 0x9
 3617 0e6c 46370000 		.4byte	.LASF458
 3618 0e70 CE01     		.2byte	0x1ce
 3619 0e72 09       		.uleb128 0x9
 3620 0e73 CC070000 		.4byte	.LASF459
 3621 0e77 CF01     		.2byte	0x1cf
 3622 0e79 09       		.uleb128 0x9
 3623 0e7a 10330000 		.4byte	.LASF460
 3624 0e7e D001     		.2byte	0x1d0
 3625 0e80 09       		.uleb128 0x9
 3626 0e81 1B310000 		.4byte	.LASF461
 3627 0e85 D101     		.2byte	0x1d1
 3628 0e87 09       		.uleb128 0x9
 3629 0e88 951B0000 		.4byte	.LASF462
 3630 0e8c D201     		.2byte	0x1d2
 3631 0e8e 09       		.uleb128 0x9
 3632 0e8f 87200000 		.4byte	.LASF463
 3633 0e93 D301     		.2byte	0x1d3
 3634 0e95 09       		.uleb128 0x9
 3635 0e96 32260000 		.4byte	.LASF464
 3636 0e9a D401     		.2byte	0x1d4
 3637 0e9c 09       		.uleb128 0x9
 3638 0e9d CA2F0000 		.4byte	.LASF465
 3639 0ea1 D501     		.2byte	0x1d5
 3640 0ea3 09       		.uleb128 0x9
 3641 0ea4 BD170000 		.4byte	.LASF466
ARM GAS  C:\Users\dmytro\AppData\Local\Temp\ccjppNo8.s 			page 86


 3642 0ea8 D601     		.2byte	0x1d6
 3643 0eaa 09       		.uleb128 0x9
 3644 0eab 9A290000 		.4byte	.LASF467
 3645 0eaf D701     		.2byte	0x1d7
 3646 0eb1 09       		.uleb128 0x9
 3647 0eb2 91240000 		.4byte	.LASF468
 3648 0eb6 D801     		.2byte	0x1d8
 3649 0eb8 09       		.uleb128 0x9
 3650 0eb9 9C3D0000 		.4byte	.LASF469
 3651 0ebd D901     		.2byte	0x1d9
 3652 0ebf 09       		.uleb128 0x9
 3653 0ec0 A7220000 		.4byte	.LASF470
 3654 0ec4 DA01     		.2byte	0x1da
 3655 0ec6 09       		.uleb128 0x9
 3656 0ec7 9A160000 		.4byte	.LASF471
 3657 0ecb DB01     		.2byte	0x1db
 3658 0ecd 09       		.uleb128 0x9
 3659 0ece 26040000 		.4byte	.LASF472
 3660 0ed2 DC01     		.2byte	0x1dc
 3661 0ed4 09       		.uleb128 0x9
 3662 0ed5 D73A0000 		.4byte	.LASF473
 3663 0ed9 DD01     		.2byte	0x1dd
 3664 0edb 09       		.uleb128 0x9
 3665 0edc 930A0000 		.4byte	.LASF474
 3666 0ee0 DE01     		.2byte	0x1de
 3667 0ee2 09       		.uleb128 0x9
 3668 0ee3 360B0000 		.4byte	.LASF475
 3669 0ee7 DF01     		.2byte	0x1df
 3670 0ee9 09       		.uleb128 0x9
 3671 0eea 671F0000 		.4byte	.LASF476
 3672 0eee E001     		.2byte	0x1e0
 3673 0ef0 09       		.uleb128 0x9
 3674 0ef1 8E1D0000 		.4byte	.LASF477
 3675 0ef5 E101     		.2byte	0x1e1
 3676 0ef7 09       		.uleb128 0x9
 3677 0ef8 8B1F0000 		.4byte	.LASF478
 3678 0efc E201     		.2byte	0x1e2
 3679 0efe 09       		.uleb128 0x9
 3680 0eff 0B360000 		.4byte	.LASF479
 3681 0f03 E301     		.2byte	0x1e3
 3682 0f05 09       		.uleb128 0x9
 3683 0f06 7A210000 		.4byte	.LASF480
 3684 0f0a E401     		.2byte	0x1e4
 3685 0f0c 09       		.uleb128 0x9
 3686 0f0d B01F0000 		.4byte	.LASF481
 3687 0f11 E501     		.2byte	0x1e5
 3688 0f13 09       		.uleb128 0x9
 3689 0f14 1F080000 		.4byte	.LASF482
 3690 0f18 E601     		.2byte	0x1e6
 3691 0f1a 09       		.uleb128 0x9
 3692 0f1b EB160000 		.4byte	.LASF483
 3693 0f1f E701     		.2byte	0x1e7
 3694 0f21 09       		.uleb128 0x9
 3695 0f22 27390000 		.4byte	.LASF484
 3696 0f26 E801     		.2byte	0x1e8
 3697 0f28 09       		.uleb128 0x9
 3698 0f29 C3130000 		.4byte	.LASF485
ARM GAS  C:\Users\dmytro\AppData\Local\Temp\ccjppNo8.s 			page 87


 3699 0f2d E901     		.2byte	0x1e9
 3700 0f2f 09       		.uleb128 0x9
 3701 0f30 0F140000 		.4byte	.LASF486
 3702 0f34 EA01     		.2byte	0x1ea
 3703 0f36 09       		.uleb128 0x9
 3704 0f37 3F200000 		.4byte	.LASF487
 3705 0f3b EB01     		.2byte	0x1eb
 3706 0f3d 09       		.uleb128 0x9
 3707 0f3e 9F000000 		.4byte	.LASF488
 3708 0f42 EC01     		.2byte	0x1ec
 3709 0f44 09       		.uleb128 0x9
 3710 0f45 C2220000 		.4byte	.LASF489
 3711 0f49 ED01     		.2byte	0x1ed
 3712 0f4b 09       		.uleb128 0x9
 3713 0f4c BD290000 		.4byte	.LASF490
 3714 0f50 EE01     		.2byte	0x1ee
 3715 0f52 09       		.uleb128 0x9
 3716 0f53 22000000 		.4byte	.LASF491
 3717 0f57 EF01     		.2byte	0x1ef
 3718 0f59 09       		.uleb128 0x9
 3719 0f5a 75050000 		.4byte	.LASF492
 3720 0f5e F001     		.2byte	0x1f0
 3721 0f60 09       		.uleb128 0x9
 3722 0f61 E21C0000 		.4byte	.LASF493
 3723 0f65 F101     		.2byte	0x1f1
 3724 0f67 09       		.uleb128 0x9
 3725 0f68 B8210000 		.4byte	.LASF494
 3726 0f6c F201     		.2byte	0x1f2
 3727 0f6e 09       		.uleb128 0x9
 3728 0f6f 2B010000 		.4byte	.LASF495
 3729 0f73 F301     		.2byte	0x1f3
 3730 0f75 09       		.uleb128 0x9
 3731 0f76 B7230000 		.4byte	.LASF496
 3732 0f7a F401     		.2byte	0x1f4
 3733 0f7c 09       		.uleb128 0x9
 3734 0f7d 9F380000 		.4byte	.LASF497
 3735 0f81 F501     		.2byte	0x1f5
 3736 0f83 09       		.uleb128 0x9
 3737 0f84 15460000 		.4byte	.LASF498
 3738 0f88 F601     		.2byte	0x1f6
 3739 0f8a 09       		.uleb128 0x9
 3740 0f8b 911E0000 		.4byte	.LASF499
 3741 0f8f F701     		.2byte	0x1f7
 3742 0f91 09       		.uleb128 0x9
 3743 0f92 36030000 		.4byte	.LASF500
 3744 0f96 F801     		.2byte	0x1f8
 3745 0f98 09       		.uleb128 0x9
 3746 0f99 7B190000 		.4byte	.LASF501
 3747 0f9d F901     		.2byte	0x1f9
 3748 0f9f 09       		.uleb128 0x9
 3749 0fa0 F22E0000 		.4byte	.LASF502
 3750 0fa4 FA01     		.2byte	0x1fa
 3751 0fa6 09       		.uleb128 0x9
 3752 0fa7 3F050000 		.4byte	.LASF503
 3753 0fab FB01     		.2byte	0x1fb
 3754 0fad 09       		.uleb128 0x9
 3755 0fae FE370000 		.4byte	.LASF504
ARM GAS  C:\Users\dmytro\AppData\Local\Temp\ccjppNo8.s 			page 88


 3756 0fb2 FC01     		.2byte	0x1fc
 3757 0fb4 09       		.uleb128 0x9
 3758 0fb5 9B110000 		.4byte	.LASF505
 3759 0fb9 FD01     		.2byte	0x1fd
 3760 0fbb 09       		.uleb128 0x9
 3761 0fbc F6220000 		.4byte	.LASF506
 3762 0fc0 FE01     		.2byte	0x1fe
 3763 0fc2 09       		.uleb128 0x9
 3764 0fc3 C4180000 		.4byte	.LASF507
 3765 0fc7 FF01     		.2byte	0x1ff
 3766 0fc9 09       		.uleb128 0x9
 3767 0fca 3A400000 		.4byte	.LASF508
 3768 0fce 0002     		.2byte	0x200
 3769 0fd0 09       		.uleb128 0x9
 3770 0fd1 6F040000 		.4byte	.LASF509
 3771 0fd5 0102     		.2byte	0x201
 3772 0fd7 09       		.uleb128 0x9
 3773 0fd8 4F010000 		.4byte	.LASF510
 3774 0fdc 0202     		.2byte	0x202
 3775 0fde 09       		.uleb128 0x9
 3776 0fdf B8150000 		.4byte	.LASF511
 3777 0fe3 0302     		.2byte	0x203
 3778 0fe5 09       		.uleb128 0x9
 3779 0fe6 A8120000 		.4byte	.LASF512
 3780 0fea 0402     		.2byte	0x204
 3781 0fec 09       		.uleb128 0x9
 3782 0fed F2290000 		.4byte	.LASF513
 3783 0ff1 0502     		.2byte	0x205
 3784 0ff3 09       		.uleb128 0x9
 3785 0ff4 803E0000 		.4byte	.LASF514
 3786 0ff8 0602     		.2byte	0x206
 3787 0ffa 09       		.uleb128 0x9
 3788 0ffb 58270000 		.4byte	.LASF515
 3789 0fff 0702     		.2byte	0x207
 3790 1001 09       		.uleb128 0x9
 3791 1002 D4360000 		.4byte	.LASF516
 3792 1006 0802     		.2byte	0x208
 3793 1008 09       		.uleb128 0x9
 3794 1009 99130000 		.4byte	.LASF517
 3795 100d 0902     		.2byte	0x209
 3796 100f 09       		.uleb128 0x9
 3797 1010 BD050000 		.4byte	.LASF518
 3798 1014 0A02     		.2byte	0x20a
 3799 1016 09       		.uleb128 0x9
 3800 1017 AF360000 		.4byte	.LASF519
 3801 101b 0B02     		.2byte	0x20b
 3802 101d 09       		.uleb128 0x9
 3803 101e DE130000 		.4byte	.LASF520
 3804 1022 0C02     		.2byte	0x20c
 3805 1024 09       		.uleb128 0x9
 3806 1025 2A240000 		.4byte	.LASF521
 3807 1029 0D02     		.2byte	0x20d
 3808 102b 09       		.uleb128 0x9
 3809 102c 60350000 		.4byte	.LASF522
 3810 1030 0E02     		.2byte	0x20e
 3811 1032 09       		.uleb128 0x9
 3812 1033 E8180000 		.4byte	.LASF523
ARM GAS  C:\Users\dmytro\AppData\Local\Temp\ccjppNo8.s 			page 89


 3813 1037 0F02     		.2byte	0x20f
 3814 1039 09       		.uleb128 0x9
 3815 103a C53C0000 		.4byte	.LASF524
 3816 103e 1002     		.2byte	0x210
 3817 1040 09       		.uleb128 0x9
 3818 1041 C8160000 		.4byte	.LASF525
 3819 1045 1102     		.2byte	0x211
 3820 1047 09       		.uleb128 0x9
 3821 1048 A62F0000 		.4byte	.LASF526
 3822 104c 1202     		.2byte	0x212
 3823 104e 09       		.uleb128 0x9
 3824 104f 61300000 		.4byte	.LASF527
 3825 1053 1302     		.2byte	0x213
 3826 1055 09       		.uleb128 0x9
 3827 1056 F01B0000 		.4byte	.LASF528
 3828 105a 1402     		.2byte	0x214
 3829 105c 09       		.uleb128 0x9
 3830 105d 540E0000 		.4byte	.LASF529
 3831 1061 1502     		.2byte	0x215
 3832 1063 09       		.uleb128 0x9
 3833 1064 C81C0000 		.4byte	.LASF530
 3834 1068 1602     		.2byte	0x216
 3835 106a 09       		.uleb128 0x9
 3836 106b 87090000 		.4byte	.LASF531
 3837 106f 1702     		.2byte	0x217
 3838 1071 09       		.uleb128 0x9
 3839 1072 87280000 		.4byte	.LASF532
 3840 1076 1802     		.2byte	0x218
 3841 1078 09       		.uleb128 0x9
 3842 1079 00000000 		.4byte	.LASF533
 3843 107d 1902     		.2byte	0x219
 3844 107f 09       		.uleb128 0x9
 3845 1080 6E2C0000 		.4byte	.LASF534
 3846 1084 1A02     		.2byte	0x21a
 3847 1086 09       		.uleb128 0x9
 3848 1087 B63D0000 		.4byte	.LASF535
 3849 108b 1B02     		.2byte	0x21b
 3850 108d 09       		.uleb128 0x9
 3851 108e 90050000 		.4byte	.LASF536
 3852 1092 1C02     		.2byte	0x21c
 3853 1094 09       		.uleb128 0x9
 3854 1095 AE350000 		.4byte	.LASF537
 3855 1099 1D02     		.2byte	0x21d
 3856 109b 09       		.uleb128 0x9
 3857 109c D9250000 		.4byte	.LASF538
 3858 10a0 1E02     		.2byte	0x21e
 3859 10a2 09       		.uleb128 0x9
 3860 10a3 BB430000 		.4byte	.LASF539
 3861 10a7 1F02     		.2byte	0x21f
 3862 10a9 09       		.uleb128 0x9
 3863 10aa 00200000 		.4byte	.LASF540
 3864 10ae 2002     		.2byte	0x220
 3865 10b0 09       		.uleb128 0x9
 3866 10b1 D9110000 		.4byte	.LASF541
 3867 10b5 2102     		.2byte	0x221
 3868 10b7 09       		.uleb128 0x9
 3869 10b8 F3460000 		.4byte	.LASF542
ARM GAS  C:\Users\dmytro\AppData\Local\Temp\ccjppNo8.s 			page 90


 3870 10bc 2202     		.2byte	0x222
 3871 10be 09       		.uleb128 0x9
 3872 10bf CA190000 		.4byte	.LASF543
 3873 10c3 2302     		.2byte	0x223
 3874 10c5 09       		.uleb128 0x9
 3875 10c6 8A010000 		.4byte	.LASF544
 3876 10ca 2402     		.2byte	0x224
 3877 10cc 09       		.uleb128 0x9
 3878 10cd 912C0000 		.4byte	.LASF545
 3879 10d1 2502     		.2byte	0x225
 3880 10d3 09       		.uleb128 0x9
 3881 10d4 A3280000 		.4byte	.LASF546
 3882 10d8 2602     		.2byte	0x226
 3883 10da 09       		.uleb128 0x9
 3884 10db 451B0000 		.4byte	.LASF547
 3885 10df 2702     		.2byte	0x227
 3886 10e1 09       		.uleb128 0x9
 3887 10e2 5E380000 		.4byte	.LASF548
 3888 10e6 2802     		.2byte	0x228
 3889 10e8 09       		.uleb128 0x9
 3890 10e9 4F410000 		.4byte	.LASF549
 3891 10ed 2902     		.2byte	0x229
 3892 10ef 09       		.uleb128 0x9
 3893 10f0 15020000 		.4byte	.LASF550
 3894 10f4 2A02     		.2byte	0x22a
 3895 10f6 09       		.uleb128 0x9
 3896 10f7 7C2B0000 		.4byte	.LASF551
 3897 10fb 2B02     		.2byte	0x22b
 3898 10fd 09       		.uleb128 0x9
 3899 10fe 30160000 		.4byte	.LASF552
 3900 1102 2C02     		.2byte	0x22c
 3901 1104 09       		.uleb128 0x9
 3902 1105 B52A0000 		.4byte	.LASF553
 3903 1109 2D02     		.2byte	0x22d
 3904 110b 09       		.uleb128 0x9
 3905 110c 94440000 		.4byte	.LASF554
 3906 1110 2E02     		.2byte	0x22e
 3907 1112 09       		.uleb128 0x9
 3908 1113 B6110000 		.4byte	.LASF555
 3909 1117 2F02     		.2byte	0x22f
 3910 1119 09       		.uleb128 0x9
 3911 111a FA0F0000 		.4byte	.LASF556
 3912 111e 3002     		.2byte	0x230
 3913 1120 09       		.uleb128 0x9
 3914 1121 042E0000 		.4byte	.LASF557
 3915 1125 00E0     		.2byte	0xe000
 3916 1127 00       		.byte	0
 3917 1128 07       		.uleb128 0x7
 3918 1129 01       		.byte	0x1
 3919 112a 2C000000 		.4byte	0x2c
 3920 112e 08       		.byte	0x8
 3921 112f A808     		.2byte	0x8a8
 3922 1131 60110000 		.4byte	0x1160
 3923 1135 08       		.uleb128 0x8
 3924 1136 DE100000 		.4byte	.LASF558
 3925 113a 00       		.byte	0
 3926 113b 08       		.uleb128 0x8
ARM GAS  C:\Users\dmytro\AppData\Local\Temp\ccjppNo8.s 			page 91


 3927 113c 2E220000 		.4byte	.LASF559
 3928 1140 01       		.byte	0x1
 3929 1141 08       		.uleb128 0x8
 3930 1142 9B420000 		.4byte	.LASF560
 3931 1146 02       		.byte	0x2
 3932 1147 08       		.uleb128 0x8
 3933 1148 FE090000 		.4byte	.LASF561
 3934 114c 03       		.byte	0x3
 3935 114d 08       		.uleb128 0x8
 3936 114e E4060000 		.4byte	.LASF562
 3937 1152 04       		.byte	0x4
 3938 1153 08       		.uleb128 0x8
 3939 1154 96140000 		.4byte	.LASF563
 3940 1158 05       		.byte	0x5
 3941 1159 08       		.uleb128 0x8
 3942 115a 9E230000 		.4byte	.LASF564
 3943 115e 06       		.byte	0x6
 3944 115f 00       		.byte	0
 3945 1160 04       		.uleb128 0x4
 3946 1161 61310000 		.4byte	.LASF565
 3947 1165 08       		.byte	0x8
 3948 1166 B608     		.2byte	0x8b6
 3949 1168 28110000 		.4byte	0x1128
 3950 116c 07       		.uleb128 0x7
 3951 116d 01       		.byte	0x1
 3952 116e 2C000000 		.4byte	0x2c
 3953 1172 08       		.byte	0x8
 3954 1173 EB08     		.2byte	0x8eb
 3955 1175 98110000 		.4byte	0x1198
 3956 1179 08       		.uleb128 0x8
 3957 117a 9F350000 		.4byte	.LASF566
 3958 117e 00       		.byte	0
 3959 117f 08       		.uleb128 0x8
 3960 1180 7E1D0000 		.4byte	.LASF567
 3961 1184 01       		.byte	0x1
 3962 1185 08       		.uleb128 0x8
 3963 1186 09420000 		.4byte	.LASF568
 3964 118a 02       		.byte	0x2
 3965 118b 08       		.uleb128 0x8
 3966 118c 39330000 		.4byte	.LASF569
 3967 1190 02       		.byte	0x2
 3968 1191 08       		.uleb128 0x8
 3969 1192 E13B0000 		.4byte	.LASF570
 3970 1196 03       		.byte	0x3
 3971 1197 00       		.byte	0
 3972 1198 14       		.uleb128 0x14
 3973 1199 B4160000 		.4byte	.LASF580
 3974 119d 01       		.byte	0x1
 3975 119e 39       		.byte	0x39
 3976 119f 00000000 		.4byte	.LFB35
 3977 11a3 A4060000 		.4byte	.LFE35-.LFB35
 3978 11a7 01       		.uleb128 0x1
 3979 11a8 9C       		.byte	0x9c
 3980 11a9 3C120000 		.4byte	0x123c
 3981 11ad 15       		.uleb128 0x15
 3982 11ae DC210000 		.4byte	.LASF571
 3983 11b2 01       		.byte	0x1
ARM GAS  C:\Users\dmytro\AppData\Local\Temp\ccjppNo8.s 			page 92


 3984 11b3 39       		.byte	0x39
 3985 11b4 83000000 		.4byte	0x83
 3986 11b8 03       		.uleb128 0x3
 3987 11b9 91       		.byte	0x91
 3988 11ba 947F     		.sleb128 -108
 3989 11bc 15       		.uleb128 0x15
 3990 11bd EA020000 		.4byte	.LASF572
 3991 11c1 01       		.byte	0x1
 3992 11c2 39       		.byte	0x39
 3993 11c3 C3000000 		.4byte	0xc3
 3994 11c7 03       		.uleb128 0x3
 3995 11c8 91       		.byte	0x91
 3996 11c9 907F     		.sleb128 -112
 3997 11cb 16       		.uleb128 0x16
 3998 11cc 1A2F0000 		.4byte	.LASF573
 3999 11d0 01       		.byte	0x1
 4000 11d1 3C       		.byte	0x3c
 4001 11d2 9C080000 		.4byte	0x89c
 4002 11d6 02       		.uleb128 0x2
 4003 11d7 91       		.byte	0x91
 4004 11d8 5C       		.sleb128 -36
 4005 11d9 16       		.uleb128 0x16
 4006 11da 093A0000 		.4byte	.LASF574
 4007 11de 01       		.byte	0x1
 4008 11df 3D       		.byte	0x3d
 4009 11e0 B2080000 		.4byte	0x8b2
 4010 11e4 02       		.uleb128 0x2
 4011 11e5 91       		.byte	0x91
 4012 11e6 50       		.sleb128 -48
 4013 11e7 16       		.uleb128 0x16
 4014 11e8 92340000 		.4byte	.LASF575
 4015 11ec 01       		.byte	0x1
 4016 11ed 3E       		.byte	0x3e
 4017 11ee D0050000 		.4byte	0x5d0
 4018 11f2 03       		.uleb128 0x3
 4019 11f3 91       		.byte	0x91
 4020 11f4 BC7F     		.sleb128 -68
 4021 11f6 16       		.uleb128 0x16
 4022 11f7 FC310000 		.4byte	.LASF576
 4023 11fb 01       		.byte	0x1
 4024 11fc 3F       		.byte	0x3f
 4025 11fd A7080000 		.4byte	0x8a7
 4026 1201 03       		.uleb128 0x3
 4027 1202 91       		.byte	0x91
 4028 1203 AC7F     		.sleb128 -84
 4029 1205 16       		.uleb128 0x16
 4030 1206 99360000 		.4byte	.LASF577
 4031 120a 01       		.byte	0x1
 4032 120b 40       		.byte	0x40
 4033 120c 62030000 		.4byte	0x362
 4034 1210 02       		.uleb128 0x2
 4035 1211 91       		.byte	0x91
 4036 1212 6E       		.sleb128 -18
 4037 1213 16       		.uleb128 0x16
 4038 1214 2C330000 		.4byte	.LASF578
 4039 1218 01       		.byte	0x1
 4040 1219 41       		.byte	0x41
ARM GAS  C:\Users\dmytro\AppData\Local\Temp\ccjppNo8.s 			page 93


 4041 121a B2080000 		.4byte	0x8b2
 4042 121e 03       		.uleb128 0x3
 4043 121f 91       		.byte	0x91
 4044 1220 A07F     		.sleb128 -96
 4045 1222 17       		.uleb128 0x17
 4046 1223 22010000 		.4byte	.LBB2
 4047 1227 CA000000 		.4byte	.LBE2-.LBB2
 4048 122b 16       		.uleb128 0x16
 4049 122c 2D300000 		.4byte	.LASF579
 4050 1230 01       		.byte	0x1
 4051 1231 9B       		.byte	0x9b
 4052 1232 3C120000 		.4byte	0x123c
 4053 1236 03       		.uleb128 0x3
 4054 1237 91       		.byte	0x91
 4055 1238 9C7F     		.sleb128 -100
 4056 123a 00       		.byte	0
 4057 123b 00       		.byte	0
 4058 123c 0C       		.uleb128 0xc
 4059 123d 6B000000 		.4byte	0x6b
 4060 1241 4C120000 		.4byte	0x124c
 4061 1245 0D       		.uleb128 0xd
 4062 1246 BC000000 		.4byte	0xbc
 4063 124a 03       		.byte	0x3
 4064 124b 00       		.byte	0
 4065 124c 18       		.uleb128 0x18
 4066 124d 2F1B0000 		.4byte	.LASF581
 4067 1251 01       		.byte	0x1
 4068 1252 0902     		.2byte	0x209
 4069 1254 00000000 		.4byte	.LFB36
 4070 1258 F0010000 		.4byte	.LFE36-.LFB36
 4071 125c 01       		.uleb128 0x1
 4072 125d 9C       		.byte	0x9c
 4073 125e 72120000 		.4byte	0x1272
 4074 1262 19       		.uleb128 0x19
 4075 1263 99360000 		.4byte	.LASF577
 4076 1267 01       		.byte	0x1
 4077 1268 0B02     		.2byte	0x20b
 4078 126a 62030000 		.4byte	0x362
 4079 126e 02       		.uleb128 0x2
 4080 126f 91       		.byte	0x91
 4081 1270 6E       		.sleb128 -18
 4082 1271 00       		.byte	0
 4083 1272 18       		.uleb128 0x18
 4084 1273 F20C0000 		.4byte	.LASF582
 4085 1277 01       		.byte	0x1
 4086 1278 B102     		.2byte	0x2b1
 4087 127a 00000000 		.4byte	.LFB37
 4088 127e 88000000 		.4byte	.LFE37-.LFB37
 4089 1282 01       		.uleb128 0x1
 4090 1283 9C       		.byte	0x9c
 4091 1284 98120000 		.4byte	0x1298
 4092 1288 19       		.uleb128 0x19
 4093 1289 99360000 		.4byte	.LASF577
 4094 128d 01       		.byte	0x1
 4095 128e B302     		.2byte	0x2b3
 4096 1290 62030000 		.4byte	0x362
 4097 1294 02       		.uleb128 0x2
ARM GAS  C:\Users\dmytro\AppData\Local\Temp\ccjppNo8.s 			page 94


 4098 1295 91       		.byte	0x91
 4099 1296 6E       		.sleb128 -18
 4100 1297 00       		.byte	0
 4101 1298 1A       		.uleb128 0x1a
 4102 1299 B70B0000 		.4byte	.LASF609
 4103 129d 01       		.byte	0x1
 4104 129e F602     		.2byte	0x2f6
 4105 12a0 00000000 		.4byte	.LFB38
 4106 12a4 B0000000 		.4byte	.LFE38-.LFB38
 4107 12a8 01       		.uleb128 0x1
 4108 12a9 9C       		.byte	0x9c
 4109 12aa 18       		.uleb128 0x18
 4110 12ab 6A130000 		.4byte	.LASF583
 4111 12af 01       		.byte	0x1
 4112 12b0 3103     		.2byte	0x331
 4113 12b2 00000000 		.4byte	.LFB39
 4114 12b6 68000000 		.4byte	.LFE39-.LFB39
 4115 12ba 01       		.uleb128 0x1
 4116 12bb 9C       		.byte	0x9c
 4117 12bc FD120000 		.4byte	0x12fd
 4118 12c0 1B       		.uleb128 0x1b
 4119 12c1 FE250000 		.4byte	.LASF584
 4120 12c5 01       		.byte	0x1
 4121 12c6 3103     		.2byte	0x331
 4122 12c8 6B000000 		.4byte	0x6b
 4123 12cc 02       		.uleb128 0x2
 4124 12cd 91       		.byte	0x91
 4125 12ce 67       		.sleb128 -25
 4126 12cf 1B       		.uleb128 0x1b
 4127 12d0 7C280000 		.4byte	.LASF242
 4128 12d4 01       		.byte	0x1
 4129 12d5 3103     		.2byte	0x331
 4130 12d7 9A070000 		.4byte	0x79a
 4131 12db 02       		.uleb128 0x2
 4132 12dc 91       		.byte	0x91
 4133 12dd 64       		.sleb128 -28
 4134 12de 1B       		.uleb128 0x1b
 4135 12df 87120000 		.4byte	.LASF245
 4136 12e3 01       		.byte	0x1
 4137 12e4 3103     		.2byte	0x331
 4138 12e6 8E070000 		.4byte	0x78e
 4139 12ea 02       		.uleb128 0x2
 4140 12eb 91       		.byte	0x91
 4141 12ec 66       		.sleb128 -26
 4142 12ed 19       		.uleb128 0x19
 4143 12ee 56350000 		.4byte	.LASF585
 4144 12f2 01       		.byte	0x1
 4145 12f3 3303     		.2byte	0x333
 4146 12f5 70080000 		.4byte	0x870
 4147 12f9 02       		.uleb128 0x2
 4148 12fa 91       		.byte	0x91
 4149 12fb 6C       		.sleb128 -20
 4150 12fc 00       		.byte	0
 4151 12fd 18       		.uleb128 0x18
 4152 12fe 56420000 		.4byte	.LASF586
 4153 1302 01       		.byte	0x1
 4154 1303 3F03     		.2byte	0x33f
ARM GAS  C:\Users\dmytro\AppData\Local\Temp\ccjppNo8.s 			page 95


 4155 1305 00000000 		.4byte	.LFB40
 4156 1309 A0000000 		.4byte	.LFE40-.LFB40
 4157 130d 01       		.uleb128 0x1
 4158 130e 9C       		.byte	0x9c
 4159 130f 32130000 		.4byte	0x1332
 4160 1313 1B       		.uleb128 0x1b
 4161 1314 2D300000 		.4byte	.LASF579
 4162 1318 01       		.byte	0x1
 4163 1319 3F03     		.2byte	0x33f
 4164 131b AE030000 		.4byte	0x3ae
 4165 131f 02       		.uleb128 0x2
 4166 1320 91       		.byte	0x91
 4167 1321 64       		.sleb128 -28
 4168 1322 19       		.uleb128 0x19
 4169 1323 3A1B0000 		.4byte	.LASF587
 4170 1327 01       		.byte	0x1
 4171 1328 4B03     		.2byte	0x34b
 4172 132a 37080000 		.4byte	0x837
 4173 132e 02       		.uleb128 0x2
 4174 132f 91       		.byte	0x91
 4175 1330 6C       		.sleb128 -20
 4176 1331 00       		.byte	0
 4177 1332 1C       		.uleb128 0x1c
 4178 1333 403D0000 		.4byte	.LASF588
 4179 1337 09       		.byte	0x9
 4180 1338 B602     		.2byte	0x2b6
 4181 133a 6C050000 		.4byte	0x56c
 4182 133e 1C       		.uleb128 0x1c
 4183 133f A3360000 		.4byte	.LASF589
 4184 1343 08       		.byte	0x8
 4185 1344 160B     		.2byte	0xb16
 4186 1346 60110000 		.4byte	0x1160
 4187 134a 1C       		.uleb128 0x1c
 4188 134b 773C0000 		.4byte	.LASF590
 4189 134f 08       		.byte	0x8
 4190 1350 170B     		.2byte	0xb17
 4191 1352 CA070000 		.4byte	0x7ca
 4192 1356 1D       		.uleb128 0x1d
 4193 1357 B3400000 		.4byte	.LASF591
 4194 135b 0A       		.byte	0xa
 4195 135c 21       		.byte	0x21
 4196 135d B0000000 		.4byte	0xb0
 4197 1361 05       		.uleb128 0x5
 4198 1362 03       		.byte	0x3
 4199 1363 00000000 		.4byte	current_watchdog_counter
 4200 1367 1D       		.uleb128 0x1d
 4201 1368 761D0000 		.4byte	.LASF592
 4202 136c 01       		.byte	0x1
 4203 136d 12       		.byte	0x12
 4204 136e 3C120000 		.4byte	0x123c
 4205 1372 05       		.uleb128 0x5
 4206 1373 03       		.byte	0x3
 4207 1374 00000000 		.4byte	RGBData
 4208 1378 1D       		.uleb128 0x1d
 4209 1379 DF170000 		.4byte	.LASF593
 4210 137d 01       		.byte	0x1
 4211 137e 13       		.byte	0x13
ARM GAS  C:\Users\dmytro\AppData\Local\Temp\ccjppNo8.s 			page 96


 4212 137f 6B000000 		.4byte	0x6b
 4213 1383 05       		.uleb128 0x5
 4214 1384 03       		.byte	0x3
 4215 1385 00000000 		.4byte	dataADVCounter
 4216 1389 1D       		.uleb128 0x1d
 4217 138a 59030000 		.4byte	.LASF594
 4218 138e 01       		.byte	0x1
 4219 138f 14       		.byte	0x14
 4220 1390 6B000000 		.4byte	0x6b
 4221 1394 05       		.uleb128 0x5
 4222 1395 03       		.byte	0x3
 4223 1396 00000000 		.4byte	switch_Role
 4224 139a 1D       		.uleb128 0x1d
 4225 139b 4B060000 		.4byte	.LASF595
 4226 139f 01       		.byte	0x1
 4227 13a0 17       		.byte	0x17
 4228 13a1 D3040000 		.4byte	0x4d3
 4229 13a5 05       		.uleb128 0x5
 4230 13a6 03       		.byte	0x3
 4231 13a7 00000000 		.4byte	new_advData
 4232 13ab 1D       		.uleb128 0x1d
 4233 13ac C9420000 		.4byte	.LASF596
 4234 13b0 01       		.byte	0x1
 4235 13b1 18       		.byte	0x18
 4236 13b2 6B000000 		.4byte	0x6b
 4237 13b6 05       		.uleb128 0x5
 4238 13b7 03       		.byte	0x3
 4239 13b8 00000000 		.4byte	potential_node_found
 4240 13bc 1D       		.uleb128 0x1d
 4241 13bd DA0A0000 		.4byte	.LASF597
 4242 13c1 01       		.byte	0x1
 4243 13c2 19       		.byte	0x19
 4244 13c3 92030000 		.4byte	0x392
 4245 13c7 05       		.uleb128 0x5
 4246 13c8 03       		.byte	0x3
 4247 13c9 00000000 		.4byte	potential_node_bdAddr
 4248 13cd 1D       		.uleb128 0x1d
 4249 13ce D2320000 		.4byte	.LASF598
 4250 13d2 01       		.byte	0x1
 4251 13d3 1A       		.byte	0x1a
 4252 13d4 6B000000 		.4byte	0x6b
 4253 13d8 05       		.uleb128 0x5
 4254 13d9 03       		.byte	0x3
 4255 13da 00000000 		.4byte	potential_node_bdAddrType
 4256 13de 0C       		.uleb128 0xc
 4257 13df 6B000000 		.4byte	0x6b
 4258 13e3 EE130000 		.4byte	0x13ee
 4259 13e7 0D       		.uleb128 0xd
 4260 13e8 BC000000 		.4byte	0xbc
 4261 13ec 13       		.byte	0x13
 4262 13ed 00       		.byte	0
 4263 13ee 1D       		.uleb128 0x1d
 4264 13ef 34140000 		.4byte	.LASF599
 4265 13f3 01       		.byte	0x1
 4266 13f4 1D       		.byte	0x1d
 4267 13f5 DE130000 		.4byte	0x13de
 4268 13f9 05       		.uleb128 0x5
ARM GAS  C:\Users\dmytro\AppData\Local\Temp\ccjppNo8.s 			page 97


 4269 13fa 03       		.byte	0x3
 4270 13fb 00000000 		.4byte	scan_tag
 4271 13ff 1D       		.uleb128 0x1d
 4272 1400 CD3A0000 		.4byte	.LASF600
 4273 1404 01       		.byte	0x1
 4274 1405 21       		.byte	0x21
 4275 1406 A2030000 		.4byte	0x3a2
 4276 140a 05       		.uleb128 0x5
 4277 140b 03       		.byte	0x3
 4278 140c 00000000 		.4byte	peripAddr
 4279 1410 1D       		.uleb128 0x1d
 4280 1411 3C290000 		.4byte	.LASF601
 4281 1415 01       		.byte	0x1
 4282 1416 22       		.byte	0x22
 4283 1417 6B000000 		.4byte	0x6b
 4284 141b 05       		.uleb128 0x5
 4285 141c 03       		.byte	0x3
 4286 141d 00000000 		.4byte	clientConnectToDevice
 4287 1421 1D       		.uleb128 0x1d
 4288 1422 48350000 		.4byte	.LASF602
 4289 1426 01       		.byte	0x1
 4290 1427 23       		.byte	0x23
 4291 1428 6B000000 		.4byte	0x6b
 4292 142c 05       		.uleb128 0x5
 4293 142d 03       		.byte	0x3
 4294 142e 00000000 		.4byte	ble_gap_state
 4295 1432 1D       		.uleb128 0x1d
 4296 1433 E6220000 		.4byte	.LASF603
 4297 1437 01       		.byte	0x1
 4298 1438 25       		.byte	0x25
 4299 1439 6B000000 		.4byte	0x6b
 4300 143d 05       		.uleb128 0x5
 4301 143e 03       		.byte	0x3
 4302 143f 00000000 		.4byte	deviceConnected
 4303 1443 1D       		.uleb128 0x1d
 4304 1444 E2290000 		.4byte	.LASF604
 4305 1448 01       		.byte	0x1
 4306 1449 26       		.byte	0x26
 4307 144a 6B000000 		.4byte	0x6b
 4308 144e 05       		.uleb128 0x5
 4309 144f 03       		.byte	0x3
 4310 1450 00000000 		.4byte	restartScanning
 4311 1454 1D       		.uleb128 0x1d
 4312 1455 1F070000 		.4byte	.LASF605
 4313 1459 01       		.byte	0x1
 4314 145a 27       		.byte	0x27
 4315 145b B0000000 		.4byte	0xb0
 4316 145f 05       		.uleb128 0x5
 4317 1460 03       		.byte	0x3
 4318 1461 00000000 		.4byte	centralStartedTime
 4319 1465 00       		.byte	0
 4320              		.section	.debug_abbrev,"",%progbits
 4321              	.Ldebug_abbrev0:
 4322 0000 01       		.uleb128 0x1
 4323 0001 11       		.uleb128 0x11
 4324 0002 01       		.byte	0x1
 4325 0003 25       		.uleb128 0x25
ARM GAS  C:\Users\dmytro\AppData\Local\Temp\ccjppNo8.s 			page 98


 4326 0004 0E       		.uleb128 0xe
 4327 0005 13       		.uleb128 0x13
 4328 0006 0B       		.uleb128 0xb
 4329 0007 03       		.uleb128 0x3
 4330 0008 0E       		.uleb128 0xe
 4331 0009 1B       		.uleb128 0x1b
 4332 000a 0E       		.uleb128 0xe
 4333 000b 55       		.uleb128 0x55
 4334 000c 17       		.uleb128 0x17
 4335 000d 11       		.uleb128 0x11
 4336 000e 01       		.uleb128 0x1
 4337 000f 10       		.uleb128 0x10
 4338 0010 17       		.uleb128 0x17
 4339 0011 00       		.byte	0
 4340 0012 00       		.byte	0
 4341 0013 02       		.uleb128 0x2
 4342 0014 24       		.uleb128 0x24
 4343 0015 00       		.byte	0
 4344 0016 0B       		.uleb128 0xb
 4345 0017 0B       		.uleb128 0xb
 4346 0018 3E       		.uleb128 0x3e
 4347 0019 0B       		.uleb128 0xb
 4348 001a 03       		.uleb128 0x3
 4349 001b 0E       		.uleb128 0xe
 4350 001c 00       		.byte	0
 4351 001d 00       		.byte	0
 4352 001e 03       		.uleb128 0x3
 4353 001f 24       		.uleb128 0x24
 4354 0020 00       		.byte	0
 4355 0021 0B       		.uleb128 0xb
 4356 0022 0B       		.uleb128 0xb
 4357 0023 3E       		.uleb128 0x3e
 4358 0024 0B       		.uleb128 0xb
 4359 0025 03       		.uleb128 0x3
 4360 0026 08       		.uleb128 0x8
 4361 0027 00       		.byte	0
 4362 0028 00       		.byte	0
 4363 0029 04       		.uleb128 0x4
 4364 002a 16       		.uleb128 0x16
 4365 002b 00       		.byte	0
 4366 002c 03       		.uleb128 0x3
 4367 002d 0E       		.uleb128 0xe
 4368 002e 3A       		.uleb128 0x3a
 4369 002f 0B       		.uleb128 0xb
 4370 0030 3B       		.uleb128 0x3b
 4371 0031 05       		.uleb128 0x5
 4372 0032 49       		.uleb128 0x49
 4373 0033 13       		.uleb128 0x13
 4374 0034 00       		.byte	0
 4375 0035 00       		.byte	0
 4376 0036 05       		.uleb128 0x5
 4377 0037 35       		.uleb128 0x35
 4378 0038 00       		.byte	0
 4379 0039 49       		.uleb128 0x49
 4380 003a 13       		.uleb128 0x13
 4381 003b 00       		.byte	0
 4382 003c 00       		.byte	0
ARM GAS  C:\Users\dmytro\AppData\Local\Temp\ccjppNo8.s 			page 99


 4383 003d 06       		.uleb128 0x6
 4384 003e 0F       		.uleb128 0xf
 4385 003f 00       		.byte	0
 4386 0040 0B       		.uleb128 0xb
 4387 0041 0B       		.uleb128 0xb
 4388 0042 00       		.byte	0
 4389 0043 00       		.byte	0
 4390 0044 07       		.uleb128 0x7
 4391 0045 04       		.uleb128 0x4
 4392 0046 01       		.byte	0x1
 4393 0047 0B       		.uleb128 0xb
 4394 0048 0B       		.uleb128 0xb
 4395 0049 49       		.uleb128 0x49
 4396 004a 13       		.uleb128 0x13
 4397 004b 3A       		.uleb128 0x3a
 4398 004c 0B       		.uleb128 0xb
 4399 004d 3B       		.uleb128 0x3b
 4400 004e 05       		.uleb128 0x5
 4401 004f 01       		.uleb128 0x1
 4402 0050 13       		.uleb128 0x13
 4403 0051 00       		.byte	0
 4404 0052 00       		.byte	0
 4405 0053 08       		.uleb128 0x8
 4406 0054 28       		.uleb128 0x28
 4407 0055 00       		.byte	0
 4408 0056 03       		.uleb128 0x3
 4409 0057 0E       		.uleb128 0xe
 4410 0058 1C       		.uleb128 0x1c
 4411 0059 0B       		.uleb128 0xb
 4412 005a 00       		.byte	0
 4413 005b 00       		.byte	0
 4414 005c 09       		.uleb128 0x9
 4415 005d 28       		.uleb128 0x28
 4416 005e 00       		.byte	0
 4417 005f 03       		.uleb128 0x3
 4418 0060 0E       		.uleb128 0xe
 4419 0061 1C       		.uleb128 0x1c
 4420 0062 05       		.uleb128 0x5
 4421 0063 00       		.byte	0
 4422 0064 00       		.byte	0
 4423 0065 0A       		.uleb128 0xa
 4424 0066 13       		.uleb128 0x13
 4425 0067 01       		.byte	0x1
 4426 0068 0B       		.uleb128 0xb
 4427 0069 0B       		.uleb128 0xb
 4428 006a 3A       		.uleb128 0x3a
 4429 006b 0B       		.uleb128 0xb
 4430 006c 3B       		.uleb128 0x3b
 4431 006d 05       		.uleb128 0x5
 4432 006e 01       		.uleb128 0x1
 4433 006f 13       		.uleb128 0x13
 4434 0070 00       		.byte	0
 4435 0071 00       		.byte	0
 4436 0072 0B       		.uleb128 0xb
 4437 0073 0D       		.uleb128 0xd
 4438 0074 00       		.byte	0
 4439 0075 03       		.uleb128 0x3
ARM GAS  C:\Users\dmytro\AppData\Local\Temp\ccjppNo8.s 			page 100


 4440 0076 0E       		.uleb128 0xe
 4441 0077 3A       		.uleb128 0x3a
 4442 0078 0B       		.uleb128 0xb
 4443 0079 3B       		.uleb128 0x3b
 4444 007a 05       		.uleb128 0x5
 4445 007b 49       		.uleb128 0x49
 4446 007c 13       		.uleb128 0x13
 4447 007d 38       		.uleb128 0x38
 4448 007e 0B       		.uleb128 0xb
 4449 007f 00       		.byte	0
 4450 0080 00       		.byte	0
 4451 0081 0C       		.uleb128 0xc
 4452 0082 01       		.uleb128 0x1
 4453 0083 01       		.byte	0x1
 4454 0084 49       		.uleb128 0x49
 4455 0085 13       		.uleb128 0x13
 4456 0086 01       		.uleb128 0x1
 4457 0087 13       		.uleb128 0x13
 4458 0088 00       		.byte	0
 4459 0089 00       		.byte	0
 4460 008a 0D       		.uleb128 0xd
 4461 008b 21       		.uleb128 0x21
 4462 008c 00       		.byte	0
 4463 008d 49       		.uleb128 0x49
 4464 008e 13       		.uleb128 0x13
 4465 008f 2F       		.uleb128 0x2f
 4466 0090 0B       		.uleb128 0xb
 4467 0091 00       		.byte	0
 4468 0092 00       		.byte	0
 4469 0093 0E       		.uleb128 0xe
 4470 0094 0F       		.uleb128 0xf
 4471 0095 00       		.byte	0
 4472 0096 0B       		.uleb128 0xb
 4473 0097 0B       		.uleb128 0xb
 4474 0098 49       		.uleb128 0x49
 4475 0099 13       		.uleb128 0x13
 4476 009a 00       		.byte	0
 4477 009b 00       		.byte	0
 4478 009c 0F       		.uleb128 0xf
 4479 009d 04       		.uleb128 0x4
 4480 009e 01       		.byte	0x1
 4481 009f 0B       		.uleb128 0xb
 4482 00a0 0B       		.uleb128 0xb
 4483 00a1 49       		.uleb128 0x49
 4484 00a2 13       		.uleb128 0x13
 4485 00a3 3A       		.uleb128 0x3a
 4486 00a4 0B       		.uleb128 0xb
 4487 00a5 3B       		.uleb128 0x3b
 4488 00a6 0B       		.uleb128 0xb
 4489 00a7 01       		.uleb128 0x1
 4490 00a8 13       		.uleb128 0x13
 4491 00a9 00       		.byte	0
 4492 00aa 00       		.byte	0
 4493 00ab 10       		.uleb128 0x10
 4494 00ac 16       		.uleb128 0x16
 4495 00ad 00       		.byte	0
 4496 00ae 03       		.uleb128 0x3
ARM GAS  C:\Users\dmytro\AppData\Local\Temp\ccjppNo8.s 			page 101


 4497 00af 0E       		.uleb128 0xe
 4498 00b0 3A       		.uleb128 0x3a
 4499 00b1 0B       		.uleb128 0xb
 4500 00b2 3B       		.uleb128 0x3b
 4501 00b3 0B       		.uleb128 0xb
 4502 00b4 49       		.uleb128 0x49
 4503 00b5 13       		.uleb128 0x13
 4504 00b6 00       		.byte	0
 4505 00b7 00       		.byte	0
 4506 00b8 11       		.uleb128 0x11
 4507 00b9 0D       		.uleb128 0xd
 4508 00ba 00       		.byte	0
 4509 00bb 03       		.uleb128 0x3
 4510 00bc 08       		.uleb128 0x8
 4511 00bd 3A       		.uleb128 0x3a
 4512 00be 0B       		.uleb128 0xb
 4513 00bf 3B       		.uleb128 0x3b
 4514 00c0 05       		.uleb128 0x5
 4515 00c1 49       		.uleb128 0x49
 4516 00c2 13       		.uleb128 0x13
 4517 00c3 38       		.uleb128 0x38
 4518 00c4 0B       		.uleb128 0xb
 4519 00c5 00       		.byte	0
 4520 00c6 00       		.byte	0
 4521 00c7 12       		.uleb128 0x12
 4522 00c8 13       		.uleb128 0x13
 4523 00c9 01       		.byte	0x1
 4524 00ca 0B       		.uleb128 0xb
 4525 00cb 0B       		.uleb128 0xb
 4526 00cc 3A       		.uleb128 0x3a
 4527 00cd 0B       		.uleb128 0xb
 4528 00ce 3B       		.uleb128 0x3b
 4529 00cf 0B       		.uleb128 0xb
 4530 00d0 01       		.uleb128 0x1
 4531 00d1 13       		.uleb128 0x13
 4532 00d2 00       		.byte	0
 4533 00d3 00       		.byte	0
 4534 00d4 13       		.uleb128 0x13
 4535 00d5 0D       		.uleb128 0xd
 4536 00d6 00       		.byte	0
 4537 00d7 03       		.uleb128 0x3
 4538 00d8 0E       		.uleb128 0xe
 4539 00d9 3A       		.uleb128 0x3a
 4540 00da 0B       		.uleb128 0xb
 4541 00db 3B       		.uleb128 0x3b
 4542 00dc 0B       		.uleb128 0xb
 4543 00dd 49       		.uleb128 0x49
 4544 00de 13       		.uleb128 0x13
 4545 00df 38       		.uleb128 0x38
 4546 00e0 0B       		.uleb128 0xb
 4547 00e1 00       		.byte	0
 4548 00e2 00       		.byte	0
 4549 00e3 14       		.uleb128 0x14
 4550 00e4 2E       		.uleb128 0x2e
 4551 00e5 01       		.byte	0x1
 4552 00e6 3F       		.uleb128 0x3f
 4553 00e7 19       		.uleb128 0x19
ARM GAS  C:\Users\dmytro\AppData\Local\Temp\ccjppNo8.s 			page 102


 4554 00e8 03       		.uleb128 0x3
 4555 00e9 0E       		.uleb128 0xe
 4556 00ea 3A       		.uleb128 0x3a
 4557 00eb 0B       		.uleb128 0xb
 4558 00ec 3B       		.uleb128 0x3b
 4559 00ed 0B       		.uleb128 0xb
 4560 00ee 27       		.uleb128 0x27
 4561 00ef 19       		.uleb128 0x19
 4562 00f0 11       		.uleb128 0x11
 4563 00f1 01       		.uleb128 0x1
 4564 00f2 12       		.uleb128 0x12
 4565 00f3 06       		.uleb128 0x6
 4566 00f4 40       		.uleb128 0x40
 4567 00f5 18       		.uleb128 0x18
 4568 00f6 9642     		.uleb128 0x2116
 4569 00f8 19       		.uleb128 0x19
 4570 00f9 01       		.uleb128 0x1
 4571 00fa 13       		.uleb128 0x13
 4572 00fb 00       		.byte	0
 4573 00fc 00       		.byte	0
 4574 00fd 15       		.uleb128 0x15
 4575 00fe 05       		.uleb128 0x5
 4576 00ff 00       		.byte	0
 4577 0100 03       		.uleb128 0x3
 4578 0101 0E       		.uleb128 0xe
 4579 0102 3A       		.uleb128 0x3a
 4580 0103 0B       		.uleb128 0xb
 4581 0104 3B       		.uleb128 0x3b
 4582 0105 0B       		.uleb128 0xb
 4583 0106 49       		.uleb128 0x49
 4584 0107 13       		.uleb128 0x13
 4585 0108 02       		.uleb128 0x2
 4586 0109 18       		.uleb128 0x18
 4587 010a 00       		.byte	0
 4588 010b 00       		.byte	0
 4589 010c 16       		.uleb128 0x16
 4590 010d 34       		.uleb128 0x34
 4591 010e 00       		.byte	0
 4592 010f 03       		.uleb128 0x3
 4593 0110 0E       		.uleb128 0xe
 4594 0111 3A       		.uleb128 0x3a
 4595 0112 0B       		.uleb128 0xb
 4596 0113 3B       		.uleb128 0x3b
 4597 0114 0B       		.uleb128 0xb
 4598 0115 49       		.uleb128 0x49
 4599 0116 13       		.uleb128 0x13
 4600 0117 02       		.uleb128 0x2
 4601 0118 18       		.uleb128 0x18
 4602 0119 00       		.byte	0
 4603 011a 00       		.byte	0
 4604 011b 17       		.uleb128 0x17
 4605 011c 0B       		.uleb128 0xb
 4606 011d 01       		.byte	0x1
 4607 011e 11       		.uleb128 0x11
 4608 011f 01       		.uleb128 0x1
 4609 0120 12       		.uleb128 0x12
 4610 0121 06       		.uleb128 0x6
ARM GAS  C:\Users\dmytro\AppData\Local\Temp\ccjppNo8.s 			page 103


 4611 0122 00       		.byte	0
 4612 0123 00       		.byte	0
 4613 0124 18       		.uleb128 0x18
 4614 0125 2E       		.uleb128 0x2e
 4615 0126 01       		.byte	0x1
 4616 0127 3F       		.uleb128 0x3f
 4617 0128 19       		.uleb128 0x19
 4618 0129 03       		.uleb128 0x3
 4619 012a 0E       		.uleb128 0xe
 4620 012b 3A       		.uleb128 0x3a
 4621 012c 0B       		.uleb128 0xb
 4622 012d 3B       		.uleb128 0x3b
 4623 012e 05       		.uleb128 0x5
 4624 012f 27       		.uleb128 0x27
 4625 0130 19       		.uleb128 0x19
 4626 0131 11       		.uleb128 0x11
 4627 0132 01       		.uleb128 0x1
 4628 0133 12       		.uleb128 0x12
 4629 0134 06       		.uleb128 0x6
 4630 0135 40       		.uleb128 0x40
 4631 0136 18       		.uleb128 0x18
 4632 0137 9642     		.uleb128 0x2116
 4633 0139 19       		.uleb128 0x19
 4634 013a 01       		.uleb128 0x1
 4635 013b 13       		.uleb128 0x13
 4636 013c 00       		.byte	0
 4637 013d 00       		.byte	0
 4638 013e 19       		.uleb128 0x19
 4639 013f 34       		.uleb128 0x34
 4640 0140 00       		.byte	0
 4641 0141 03       		.uleb128 0x3
 4642 0142 0E       		.uleb128 0xe
 4643 0143 3A       		.uleb128 0x3a
 4644 0144 0B       		.uleb128 0xb
 4645 0145 3B       		.uleb128 0x3b
 4646 0146 05       		.uleb128 0x5
 4647 0147 49       		.uleb128 0x49
 4648 0148 13       		.uleb128 0x13
 4649 0149 02       		.uleb128 0x2
 4650 014a 18       		.uleb128 0x18
 4651 014b 00       		.byte	0
 4652 014c 00       		.byte	0
 4653 014d 1A       		.uleb128 0x1a
 4654 014e 2E       		.uleb128 0x2e
 4655 014f 00       		.byte	0
 4656 0150 3F       		.uleb128 0x3f
 4657 0151 19       		.uleb128 0x19
 4658 0152 03       		.uleb128 0x3
 4659 0153 0E       		.uleb128 0xe
 4660 0154 3A       		.uleb128 0x3a
 4661 0155 0B       		.uleb128 0xb
 4662 0156 3B       		.uleb128 0x3b
 4663 0157 05       		.uleb128 0x5
 4664 0158 27       		.uleb128 0x27
 4665 0159 19       		.uleb128 0x19
 4666 015a 11       		.uleb128 0x11
 4667 015b 01       		.uleb128 0x1
ARM GAS  C:\Users\dmytro\AppData\Local\Temp\ccjppNo8.s 			page 104


 4668 015c 12       		.uleb128 0x12
 4669 015d 06       		.uleb128 0x6
 4670 015e 40       		.uleb128 0x40
 4671 015f 18       		.uleb128 0x18
 4672 0160 9642     		.uleb128 0x2116
 4673 0162 19       		.uleb128 0x19
 4674 0163 00       		.byte	0
 4675 0164 00       		.byte	0
 4676 0165 1B       		.uleb128 0x1b
 4677 0166 05       		.uleb128 0x5
 4678 0167 00       		.byte	0
 4679 0168 03       		.uleb128 0x3
 4680 0169 0E       		.uleb128 0xe
 4681 016a 3A       		.uleb128 0x3a
 4682 016b 0B       		.uleb128 0xb
 4683 016c 3B       		.uleb128 0x3b
 4684 016d 05       		.uleb128 0x5
 4685 016e 49       		.uleb128 0x49
 4686 016f 13       		.uleb128 0x13
 4687 0170 02       		.uleb128 0x2
 4688 0171 18       		.uleb128 0x18
 4689 0172 00       		.byte	0
 4690 0173 00       		.byte	0
 4691 0174 1C       		.uleb128 0x1c
 4692 0175 34       		.uleb128 0x34
 4693 0176 00       		.byte	0
 4694 0177 03       		.uleb128 0x3
 4695 0178 0E       		.uleb128 0xe
 4696 0179 3A       		.uleb128 0x3a
 4697 017a 0B       		.uleb128 0xb
 4698 017b 3B       		.uleb128 0x3b
 4699 017c 05       		.uleb128 0x5
 4700 017d 49       		.uleb128 0x49
 4701 017e 13       		.uleb128 0x13
 4702 017f 3F       		.uleb128 0x3f
 4703 0180 19       		.uleb128 0x19
 4704 0181 3C       		.uleb128 0x3c
 4705 0182 19       		.uleb128 0x19
 4706 0183 00       		.byte	0
 4707 0184 00       		.byte	0
 4708 0185 1D       		.uleb128 0x1d
 4709 0186 34       		.uleb128 0x34
 4710 0187 00       		.byte	0
 4711 0188 03       		.uleb128 0x3
 4712 0189 0E       		.uleb128 0xe
 4713 018a 3A       		.uleb128 0x3a
 4714 018b 0B       		.uleb128 0xb
 4715 018c 3B       		.uleb128 0x3b
 4716 018d 0B       		.uleb128 0xb
 4717 018e 49       		.uleb128 0x49
 4718 018f 13       		.uleb128 0x13
 4719 0190 3F       		.uleb128 0x3f
 4720 0191 19       		.uleb128 0x19
 4721 0192 02       		.uleb128 0x2
 4722 0193 18       		.uleb128 0x18
 4723 0194 00       		.byte	0
 4724 0195 00       		.byte	0
ARM GAS  C:\Users\dmytro\AppData\Local\Temp\ccjppNo8.s 			page 105


 4725 0196 00       		.byte	0
 4726              		.section	.debug_aranges,"",%progbits
 4727 0000 44000000 		.4byte	0x44
 4728 0004 0200     		.2byte	0x2
 4729 0006 00000000 		.4byte	.Ldebug_info0
 4730 000a 04       		.byte	0x4
 4731 000b 00       		.byte	0
 4732 000c 0000     		.2byte	0
 4733 000e 0000     		.2byte	0
 4734 0010 00000000 		.4byte	.LFB35
 4735 0014 A4060000 		.4byte	.LFE35-.LFB35
 4736 0018 00000000 		.4byte	.LFB36
 4737 001c F0010000 		.4byte	.LFE36-.LFB36
 4738 0020 00000000 		.4byte	.LFB37
 4739 0024 88000000 		.4byte	.LFE37-.LFB37
 4740 0028 00000000 		.4byte	.LFB38
 4741 002c B0000000 		.4byte	.LFE38-.LFB38
 4742 0030 00000000 		.4byte	.LFB39
 4743 0034 68000000 		.4byte	.LFE39-.LFB39
 4744 0038 00000000 		.4byte	.LFB40
 4745 003c A0000000 		.4byte	.LFE40-.LFB40
 4746 0040 00000000 		.4byte	0
 4747 0044 00000000 		.4byte	0
 4748              		.section	.debug_ranges,"",%progbits
 4749              	.Ldebug_ranges0:
 4750 0000 00000000 		.4byte	.LFB35
 4751 0004 A4060000 		.4byte	.LFE35
 4752 0008 00000000 		.4byte	.LFB36
 4753 000c F0010000 		.4byte	.LFE36
 4754 0010 00000000 		.4byte	.LFB37
 4755 0014 88000000 		.4byte	.LFE37
 4756 0018 00000000 		.4byte	.LFB38
 4757 001c B0000000 		.4byte	.LFE38
 4758 0020 00000000 		.4byte	.LFB39
 4759 0024 68000000 		.4byte	.LFE39
 4760 0028 00000000 		.4byte	.LFB40
 4761 002c A0000000 		.4byte	.LFE40
 4762 0030 00000000 		.4byte	0
 4763 0034 00000000 		.4byte	0
 4764              		.section	.debug_line,"",%progbits
 4765              	.Ldebug_line0:
 4766 0000 C1020000 		.section	.debug_str,"MS",%progbits,1
 4766      0200D900 
 4766      00000201 
 4766      FB0E0D00 
 4766      01010101 
 4767              	.LASF533:
 4768 0000 4359424C 		.ascii	"CYBLE_EVT_UDSC_READ_CHAR_RESPONSE\000"
 4768      455F4556 
 4768      545F5544 
 4768      53435F52 
 4768      4541445F 
 4769              	.LASF491:
 4770 0022 4359424C 		.ascii	"CYBLE_EVT_PLXSC_NOTIFICATION\000"
 4770      455F4556 
 4770      545F504C 
 4770      5853435F 
ARM GAS  C:\Users\dmytro\AppData\Local\Temp\ccjppNo8.s 			page 106


 4770      4E4F5449 
 4771              	.LASF430:
 4772 003f 4359424C 		.ascii	"CYBLE_EVT_HTSS_NOTIFICATION_DISABLED\000"
 4772      455F4556 
 4772      545F4854 
 4772      53535F4E 
 4772      4F544946 
 4773              	.LASF223:
 4774 0064 4359424C 		.ascii	"CYBLE_GATT_ERR_INVALID_CRC\000"
 4774      455F4741 
 4774      54545F45 
 4774      52525F49 
 4774      4E56414C 
 4775              	.LASF138:
 4776 007f 4359424C 		.ascii	"CYBLE_GAPC_SCAN_RSP\000"
 4776      455F4741 
 4776      50435F53 
 4776      43414E5F 
 4776      52535000 
 4777              	.LASF152:
 4778 0093 7363616E 		.ascii	"scanRspData\000"
 4778      52737044 
 4778      61746100 
 4779              	.LASF488:
 4780 009f 4359424C 		.ascii	"CYBLE_EVT_PLXSS_INDICATION_ENABLED\000"
 4780      455F4556 
 4780      545F504C 
 4780      5853535F 
 4780      494E4449 
 4781              	.LASF17:
 4782 00c2 73697A65 		.ascii	"sizetype\000"
 4782      74797065 
 4782      00
 4783              	.LASF311:
 4784 00cb 4359424C 		.ascii	"CYBLE_EVT_BCSC_READ_CHAR_RESPONSE\000"
 4784      455F4556 
 4784      545F4243 
 4784      53435F52 
 4784      4541445F 
 4785              	.LASF334:
 4786 00ed 4359424C 		.ascii	"CYBLE_EVT_CGMSC_INDICATION\000"
 4786      455F4556 
 4786      545F4347 
 4786      4D53435F 
 4786      494E4449 
 4787              	.LASF352:
 4788 0108 4359424C 		.ascii	"CYBLE_EVT_CPSC_READ_DESCR_RESPONSE\000"
 4788      455F4556 
 4788      545F4350 
 4788      53435F52 
 4788      4541445F 
 4789              	.LASF495:
 4790 012b 4359424C 		.ascii	"CYBLE_EVT_PLXSC_READ_DESCR_RESPONSE\000"
 4790      455F4556 
 4790      545F504C 
 4790      5853435F 
 4790      52454144 
ARM GAS  C:\Users\dmytro\AppData\Local\Temp\ccjppNo8.s 			page 107


 4791              	.LASF510:
 4792 014f 4359424C 		.ascii	"CYBLE_EVT_RTUSS_WRITE_CHAR_CMD\000"
 4792      455F4556 
 4792      545F5254 
 4792      5553535F 
 4792      57524954 
 4793              	.LASF192:
 4794 016e 4359424C 		.ascii	"CYBLE_GATT_HANDLE_VALUE_CNF\000"
 4794      455F4741 
 4794      54545F48 
 4794      414E444C 
 4794      455F5641 
 4795              	.LASF544:
 4796 018a 4359424C 		.ascii	"CYBLE_EVT_WPTSC_NOTIFICATION\000"
 4796      455F4556 
 4796      545F5750 
 4796      5453435F 
 4796      4E4F5449 
 4797              	.LASF267:
 4798 01a7 4359424C 		.ascii	"CYBLE_EVT_GATTC_INCL_DISCOVERY_COMPLETE\000"
 4798      455F4556 
 4798      545F4741 
 4798      5454435F 
 4798      494E434C 
 4799              	.LASF38:
 4800 01cf 4359424C 		.ascii	"CYBLE_EVT_GAP_NUMERIC_COMPARISON_REQUEST\000"
 4800      455F4556 
 4800      545F4741 
 4800      505F4E55 
 4800      4D455249 
 4801              	.LASF278:
 4802 01f8 4359424C 		.ascii	"CYBLE_EVT_AIOSC_NOTIFICATION\000"
 4802      455F4556 
 4802      545F4149 
 4802      4F53435F 
 4802      4E4F5449 
 4803              	.LASF550:
 4804 0215 4359424C 		.ascii	"CYBLE_EVT_WSSS_INDICATION_ENABLED\000"
 4804      455F4556 
 4804      545F5753 
 4804      53535F49 
 4804      4E444943 
 4805              	.LASF350:
 4806 0237 4359424C 		.ascii	"CYBLE_EVT_CPSC_READ_CHAR_RESPONSE\000"
 4806      455F4556 
 4806      545F4350 
 4806      53435F52 
 4806      4541445F 
 4807              	.LASF316:
 4808 0259 4359424C 		.ascii	"CYBLE_EVT_BLSS_INDICATION_CONFIRMED\000"
 4808      455F4556 
 4808      545F424C 
 4808      53535F49 
 4808      4E444943 
 4809              	.LASF363:
 4810 027d 4359424C 		.ascii	"CYBLE_EVT_CSCSC_READ_CHAR_RESPONSE\000"
 4810      455F4556 
ARM GAS  C:\Users\dmytro\AppData\Local\Temp\ccjppNo8.s 			page 108


 4810      545F4353 
 4810      4353435F 
 4810      52454144 
 4811              	.LASF339:
 4812 02a0 4359424C 		.ascii	"CYBLE_EVT_CGMSC_WRITE_DESCR_RESPONSE\000"
 4812      455F4556 
 4812      545F4347 
 4812      4D53435F 
 4812      57524954 
 4813              	.LASF393:
 4814 02c5 4359424C 		.ascii	"CYBLE_EVT_GLSS_NOTIFICATION_DISABLED\000"
 4814      455F4556 
 4814      545F474C 
 4814      53535F4E 
 4814      4F544946 
 4815              	.LASF572:
 4816 02ea 6576656E 		.ascii	"eventParam\000"
 4816      74506172 
 4816      616D00
 4817              	.LASF321:
 4818 02f5 4359424C 		.ascii	"CYBLE_EVT_BLSC_READ_CHAR_RESPONSE\000"
 4818      455F4556 
 4818      545F424C 
 4818      53435F52 
 4818      4541445F 
 4819              	.LASF32:
 4820 0317 4359424C 		.ascii	"CYBLE_EVT_GAP_DEVICE_CONNECTED\000"
 4820      455F4556 
 4820      545F4741 
 4820      505F4445 
 4820      56494345 
 4821              	.LASF500:
 4822 0336 4359424C 		.ascii	"CYBLE_EVT_RSCSS_INDICATION_ENABLED\000"
 4822      455F4556 
 4822      545F5253 
 4822      4353535F 
 4822      494E4449 
 4823              	.LASF594:
 4824 0359 73776974 		.ascii	"switch_Role\000"
 4824      63685F52 
 4824      6F6C6500 
 4825              	.LASF50:
 4826 0365 4359424C 		.ascii	"CYBLE_EVT_GATT_CONNECT_IND\000"
 4826      455F4556 
 4826      545F4741 
 4826      54545F43 
 4826      4F4E4E45 
 4827              	.LASF398:
 4828 0380 4359424C 		.ascii	"CYBLE_EVT_GLSC_WRITE_CHAR_RESPONSE\000"
 4828      455F4556 
 4828      545F474C 
 4828      53435F57 
 4828      52495445 
 4829              	.LASF185:
 4830 03a3 4359424C 		.ascii	"CYBLE_GATT_WRITE_CMD\000"
 4830      455F4741 
 4830      54545F57 
ARM GAS  C:\Users\dmytro\AppData\Local\Temp\ccjppNo8.s 			page 109


 4830      52495445 
 4830      5F434D44 
 4831              	.LASF608:
 4832 03b8 433A5C55 		.ascii	"C:\\Users\\dmytro\\Documents\\PSoC Creator\\PSoC-10"
 4832      73657273 
 4832      5C646D79 
 4832      74726F5C 
 4832      446F6375 
 4833 03e6 315C4D65 		.ascii	"1\\Mesh_Flood\\Mesh_Flood_Original\\Mesh_Flood_PSoC"
 4833      73685F46 
 4833      6C6F6F64 
 4833      5C4D6573 
 4833      685F466C 
 4834 0416 34424C45 		.ascii	"4BLE_Main.cydsn\000"
 4834      5F4D6169 
 4834      6E2E6379 
 4834      64736E00 
 4835              	.LASF472:
 4836 0426 4359424C 		.ascii	"CYBLE_EVT_OTSC_READ_CHAR_RESPONSE\000"
 4836      455F4556 
 4836      545F4F54 
 4836      53435F52 
 4836      4541445F 
 4837              	.LASF262:
 4838 0448 4359424C 		.ascii	"CYBLE_EVT_GATTC_DESCR_DISCOVERY_FAILED\000"
 4838      455F4556 
 4838      545F4741 
 4838      5454435F 
 4838      44455343 
 4839              	.LASF509:
 4840 046f 4359424C 		.ascii	"CYBLE_EVT_RSCSC_WRITE_DESCR_RESPONSE\000"
 4840      455F4556 
 4840      545F5253 
 4840      4353435F 
 4840      57524954 
 4841              	.LASF309:
 4842 0494 4359424C 		.ascii	"CYBLE_EVT_BCSS_INDICATION_CONFIRMED\000"
 4842      455F4556 
 4842      545F4243 
 4842      53535F49 
 4842      4E444943 
 4843              	.LASF310:
 4844 04b8 4359424C 		.ascii	"CYBLE_EVT_BCSC_INDICATION\000"
 4844      455F4556 
 4844      545F4243 
 4844      53435F49 
 4844      4E444943 
 4845              	.LASF454:
 4846 04d2 4359424C 		.ascii	"CYBLE_EVT_LNSS_INDICATION_DISABLED\000"
 4846      455F4556 
 4846      545F4C4E 
 4846      53535F49 
 4846      4E444943 
 4847              	.LASF371:
 4848 04f5 4359424C 		.ascii	"CYBLE_EVT_CTSC_READ_CHAR_RESPONSE\000"
 4848      455F4556 
 4848      545F4354 
ARM GAS  C:\Users\dmytro\AppData\Local\Temp\ccjppNo8.s 			page 110


 4848      53435F52 
 4848      4541445F 
 4849              	.LASF266:
 4850 0517 4359424C 		.ascii	"CYBLE_EVT_GATTC_SRVC_DISCOVERY_COMPLETE\000"
 4850      455F4556 
 4850      545F4741 
 4850      5454435F 
 4850      53525643 
 4851              	.LASF503:
 4852 053f 4359424C 		.ascii	"CYBLE_EVT_RSCSS_CHAR_WRITE\000"
 4852      455F4556 
 4852      545F5253 
 4852      4353535F 
 4852      43484152 
 4853              	.LASF287:
 4854 055a 4359424C 		.ascii	"CYBLE_EVT_ANCSS_WRITE_CHAR\000"
 4854      455F4556 
 4854      545F414E 
 4854      4353535F 
 4854      57524954 
 4855              	.LASF492:
 4856 0575 4359424C 		.ascii	"CYBLE_EVT_PLXSC_INDICATION\000"
 4856      455F4556 
 4856      545F504C 
 4856      5853435F 
 4856      494E4449 
 4857              	.LASF536:
 4858 0590 4359424C 		.ascii	"CYBLE_EVT_UDSC_WRITE_DESCR_RESPONSE\000"
 4858      455F4556 
 4858      545F5544 
 4858      53435F57 
 4858      52495445 
 4859              	.LASF155:
 4860 05b4 64697363 		.ascii	"discMode\000"
 4860      4D6F6465 
 4860      00
 4861              	.LASF518:
 4862 05bd 4359424C 		.ascii	"CYBLE_EVT_TPSS_NOTIFICATION_ENABLED\000"
 4862      455F4556 
 4862      545F5450 
 4862      53535F4E 
 4862      4F544946 
 4863              	.LASF299:
 4864 05e1 4359424C 		.ascii	"CYBLE_EVT_ANSC_READ_DESCR_RESPONSE\000"
 4864      455F4556 
 4864      545F414E 
 4864      53435F52 
 4864      4541445F 
 4865              	.LASF197:
 4866 0604 4359424C 		.ascii	"CYBLE_GATT_ERR_READ_NOT_PERMITTED\000"
 4866      455F4741 
 4866      54545F45 
 4866      52525F52 
 4866      4541445F 
 4867              	.LASF212:
 4868 0626 4359424C 		.ascii	"CYBLE_GATT_ERR_INSUFFICIENT_RESOURCE\000"
 4868      455F4741 
ARM GAS  C:\Users\dmytro\AppData\Local\Temp\ccjppNo8.s 			page 111


 4868      54545F45 
 4868      52525F49 
 4868      4E535546 
 4869              	.LASF595:
 4870 064b 6E65775F 		.ascii	"new_advData\000"
 4870      61647644 
 4870      61746100 
 4871              	.LASF186:
 4872 0657 4359424C 		.ascii	"CYBLE_GATT_PREPARE_WRITE_REQ\000"
 4872      455F4741 
 4872      54545F50 
 4872      52455041 
 4872      52455F57 
 4873              	.LASF211:
 4874 0674 4359424C 		.ascii	"CYBLE_GATT_ERR_UNSUPPORTED_GROUP_TYPE\000"
 4874      455F4741 
 4874      54545F45 
 4874      52525F55 
 4874      4E535550 
 4875              	.LASF106:
 4876 069a 4359424C 		.ascii	"CYBLE_ERROR_L2CAP_CONNECTION_ENTITY_NOT_FOUND\000"
 4876      455F4552 
 4876      524F525F 
 4876      4C324341 
 4876      505F434F 
 4877              	.LASF112:
 4878 06c8 4359424C 		.ascii	"CYBLE_ERROR_MIC_AUTH_FAILED\000"
 4878      455F4552 
 4878      524F525F 
 4878      4D49435F 
 4878      41555448 
 4879              	.LASF562:
 4880 06e4 4359424C 		.ascii	"CYBLE_STATE_SCANNING\000"
 4880      455F5354 
 4880      4154455F 
 4880      5343414E 
 4880      4E494E47 
 4881              	.LASF261:
 4882 06f9 4359424C 		.ascii	"CYBLE_EVT_GATTC_CHAR_DISCOVERY_FAILED\000"
 4882      455F4556 
 4882      545F4741 
 4882      5454435F 
 4882      43484152 
 4883              	.LASF605:
 4884 071f 63656E74 		.ascii	"centralStartedTime\000"
 4884      72616C53 
 4884      74617274 
 4884      65645469 
 4884      6D6500
 4885              	.LASF70:
 4886 0732 4359424C 		.ascii	"CYBLE_EVT_GATTS_DATA_SIGNED_CMD_REQ\000"
 4886      455F4556 
 4886      545F4741 
 4886      5454535F 
 4886      44415441 
 4887              	.LASF82:
 4888 0756 4359424C 		.ascii	"CYBLE_EVT_L2CAP_CBFC_RX_CREDIT_IND\000"
ARM GAS  C:\Users\dmytro\AppData\Local\Temp\ccjppNo8.s 			page 112


 4888      455F4556 
 4888      545F4C32 
 4888      4341505F 
 4888      43424643 
 4889              	.LASF240:
 4890 0779 4359424C 		.ascii	"CYBLE_GATT_VALUE_T\000"
 4890      455F4741 
 4890      54545F56 
 4890      414C5545 
 4890      5F5400
 4891              	.LASF357:
 4892 078c 4359424C 		.ascii	"CYBLE_EVT_CSCSS_INDICATION_ENABLED\000"
 4892      455F4556 
 4892      545F4353 
 4892      4353535F 
 4892      494E4449 
 4893              	.LASF180:
 4894 07af 4359424C 		.ascii	"CYBLE_GATT_READ_MULTIPLE_RSP\000"
 4894      455F4741 
 4894      54545F52 
 4894      4541445F 
 4894      4D554C54 
 4895              	.LASF459:
 4896 07cc 4359424C 		.ascii	"CYBLE_EVT_LNSC_INDICATION\000"
 4896      455F4556 
 4896      545F4C4E 
 4896      53435F49 
 4896      4E444943 
 4897              	.LASF126:
 4898 07e6 74797065 		.ascii	"type\000"
 4898      00
 4899              	.LASF213:
 4900 07eb 4359424C 		.ascii	"CYBLE_GATT_ERR_TRIGGER_CODITION_VALUE_NOT_SUPPORTED"
 4900      455F4741 
 4900      54545F45 
 4900      52525F54 
 4900      52494747 
 4901 081e 00       		.ascii	"\000"
 4902              	.LASF482:
 4903 081f 4359424C 		.ascii	"CYBLE_EVT_PASSC_READ_CHAR_RESPONSE\000"
 4903      455F4556 
 4903      545F5041 
 4903      5353435F 
 4903      52454144 
 4904              	.LASF314:
 4905 0842 4359424C 		.ascii	"CYBLE_EVT_BLSS_INDICATION_ENABLED\000"
 4905      455F4556 
 4905      545F424C 
 4905      53535F49 
 4905      4E444943 
 4906              	.LASF320:
 4907 0864 4359424C 		.ascii	"CYBLE_EVT_BLSC_NOTIFICATION\000"
 4907      455F4556 
 4907      545F424C 
 4907      53435F4E 
 4907      4F544946 
 4908              	.LASF174:
ARM GAS  C:\Users\dmytro\AppData\Local\Temp\ccjppNo8.s 			page 113


 4909 0880 4359424C 		.ascii	"CYBLE_GATT_READ_BY_TYPE_RSP\000"
 4909      455F4741 
 4909      54545F52 
 4909      4541445F 
 4909      42595F54 
 4910              	.LASF362:
 4911 089c 4359424C 		.ascii	"CYBLE_EVT_CSCSC_INDICATION\000"
 4911      455F4556 
 4911      545F4353 
 4911      4353435F 
 4911      494E4449 
 4912              	.LASF67:
 4913 08b7 4359424C 		.ascii	"CYBLE_EVT_GATTC_HANDLE_VALUE_NTF\000"
 4913      455F4556 
 4913      545F4741 
 4913      5454435F 
 4913      48414E44 
 4914              	.LASF26:
 4915 08d8 4359424C 		.ascii	"CYBLE_EVT_GAP_AUTH_REQ\000"
 4915      455F4556 
 4915      545F4741 
 4915      505F4155 
 4915      54485F52 
 4916              	.LASF12:
 4917 08ef 696E7438 		.ascii	"int8\000"
 4917      00
 4918              	.LASF268:
 4919 08f4 4359424C 		.ascii	"CYBLE_EVT_GATTC_CHAR_DISCOVERY_COMPLETE\000"
 4919      455F4556 
 4919      545F4741 
 4919      5454435F 
 4919      43484152 
 4920              	.LASF238:
 4921 091c 4359424C 		.ascii	"CYBLE_CONN_HANDLE_T\000"
 4921      455F434F 
 4921      4E4E5F48 
 4921      414E444C 
 4921      455F5400 
 4922              	.LASF349:
 4923 0930 4359424C 		.ascii	"CYBLE_EVT_CPSC_INDICATION\000"
 4923      455F4556 
 4923      545F4350 
 4923      53435F49 
 4923      4E444943 
 4924              	.LASF101:
 4925 094a 4359424C 		.ascii	"CYBLE_ERROR_BT_ON_NOT_COMPLETED\000"
 4925      455F4552 
 4925      524F525F 
 4925      42545F4F 
 4925      4E5F4E4F 
 4926              	.LASF361:
 4927 096a 4359424C 		.ascii	"CYBLE_EVT_CSCSC_NOTIFICATION\000"
 4927      455F4556 
 4927      545F4353 
 4927      4353435F 
 4927      4E4F5449 
 4928              	.LASF531:
ARM GAS  C:\Users\dmytro\AppData\Local\Temp\ccjppNo8.s 			page 114


 4929 0987 4359424C 		.ascii	"CYBLE_EVT_UDSC_INDICATION\000"
 4929      455F4556 
 4929      545F5544 
 4929      53435F49 
 4929      4E444943 
 4930              	.LASF442:
 4931 09a1 4359424C 		.ascii	"CYBLE_EVT_IPSS_WRITE_CHAR\000"
 4931      455F4556 
 4931      545F4950 
 4931      53535F57 
 4931      52495445 
 4932              	.LASF47:
 4933 09bb 4359424C 		.ascii	"CYBLE_EVT_GAP_AUTH_REQ_REPLY_ERR\000"
 4933      455F4556 
 4933      545F4741 
 4933      505F4155 
 4933      54485F52 
 4934              	.LASF325:
 4935 09dc 4359424C 		.ascii	"CYBLE_EVT_BMSC_READ_CHAR_RESPONSE\000"
 4935      455F4556 
 4935      545F424D 
 4935      53435F52 
 4935      4541445F 
 4936              	.LASF561:
 4937 09fe 4359424C 		.ascii	"CYBLE_STATE_ADVERTISING\000"
 4937      455F5354 
 4937      4154455F 
 4937      41445645 
 4937      52544953 
 4938              	.LASF40:
 4939 0a16 4359424C 		.ascii	"CYBLE_EVT_GAP_OOB_GENERATED_NOTIFICATION\000"
 4939      455F4556 
 4939      545F4741 
 4939      505F4F4F 
 4939      425F4745 
 4940              	.LASF236:
 4941 0a3f 62644861 		.ascii	"bdHandle\000"
 4941      6E646C65 
 4941      00
 4942              	.LASF225:
 4943 0a48 4359424C 		.ascii	"CYBLE_GATTS_ERR_NETWORK_NOT_AVAILABLE\000"
 4943      455F4741 
 4943      5454535F 
 4943      4552525F 
 4943      4E455457 
 4944              	.LASF330:
 4945 0a6e 4359424C 		.ascii	"CYBLE_EVT_CGMSS_INDICATION_CONFIRMED\000"
 4945      455F4556 
 4945      545F4347 
 4945      4D53535F 
 4945      494E4449 
 4946              	.LASF474:
 4947 0a93 4359424C 		.ascii	"CYBLE_EVT_OTSC_WRITE_CHAR_RESPONSE\000"
 4947      455F4556 
 4947      545F4F54 
 4947      53435F57 
 4947      52495445 
ARM GAS  C:\Users\dmytro\AppData\Local\Temp\ccjppNo8.s 			page 115


 4948              	.LASF228:
 4949 0ab6 4359424C 		.ascii	"CYBLE_GATT_ERR_ANCS_INVALID_COMMAND\000"
 4949      455F4741 
 4949      54545F45 
 4949      52525F41 
 4949      4E43535F 
 4950              	.LASF597:
 4951 0ada 706F7465 		.ascii	"potential_node_bdAddr\000"
 4951      6E746961 
 4951      6C5F6E6F 
 4951      64655F62 
 4951      64416464 
 4952              	.LASF137:
 4953 0af0 4359424C 		.ascii	"CYBLE_GAPC_NON_CONN_UNDIRECTED_ADV\000"
 4953      455F4741 
 4953      50435F4E 
 4953      4F4E5F43 
 4953      4F4E4E5F 
 4954              	.LASF322:
 4955 0b13 4359424C 		.ascii	"CYBLE_EVT_BLSC_READ_DESCR_RESPONSE\000"
 4955      455F4556 
 4955      545F424C 
 4955      53435F52 
 4955      4541445F 
 4956              	.LASF475:
 4957 0b36 4359424C 		.ascii	"CYBLE_EVT_OTSC_READ_DESCR_RESPONSE\000"
 4957      455F4556 
 4957      545F4F54 
 4957      53435F52 
 4957      4541445F 
 4958              	.LASF343:
 4959 0b59 4359424C 		.ascii	"CYBLE_EVT_CPSS_INDICATION_DISABLED\000"
 4959      455F4556 
 4959      545F4350 
 4959      53535F49 
 4959      4E444943 
 4960              	.LASF168:
 4961 0b7c 4359424C 		.ascii	"CYBLE_GATT_XCHNG_MTU_RSP\000"
 4961      455F4741 
 4961      54545F58 
 4961      43484E47 
 4961      5F4D5455 
 4962              	.LASF342:
 4963 0b95 4359424C 		.ascii	"CYBLE_EVT_CPSS_INDICATION_ENABLED\000"
 4963      455F4556 
 4963      545F4350 
 4963      53535F49 
 4963      4E444943 
 4964              	.LASF609:
 4965 0bb7 52657374 		.ascii	"RestartCentralScanning\000"
 4965      61727443 
 4965      656E7472 
 4965      616C5363 
 4965      616E6E69 
 4966              	.LASF456:
 4967 0bce 4359424C 		.ascii	"CYBLE_EVT_LNSS_NOTIFICATION_ENABLED\000"
 4967      455F4556 
ARM GAS  C:\Users\dmytro\AppData\Local\Temp\ccjppNo8.s 			page 116


 4967      545F4C4E 
 4967      53535F4E 
 4967      4F544946 
 4968              	.LASF63:
 4969 0bf2 4359424C 		.ascii	"CYBLE_EVT_GATTS_WRITE_CMD_REQ\000"
 4969      455F4556 
 4969      545F4741 
 4969      5454535F 
 4969      57524954 
 4970              	.LASF353:
 4971 0c10 4359424C 		.ascii	"CYBLE_EVT_CPSC_WRITE_DESCR_RESPONSE\000"
 4971      455F4556 
 4971      545F4350 
 4971      53435F57 
 4971      52495445 
 4972              	.LASF134:
 4973 0c34 4359424C 		.ascii	"CYBLE_GAPC_CONN_UNDIRECTED_ADV\000"
 4973      455F4741 
 4973      50435F43 
 4973      4F4E4E5F 
 4973      554E4449 
 4974              	.LASF83:
 4975 0c53 4359424C 		.ascii	"CYBLE_EVT_L2CAP_CBFC_TX_CREDIT_IND\000"
 4975      455F4556 
 4975      545F4C32 
 4975      4341505F 
 4975      43424643 
 4976              	.LASF4:
 4977 0c76 6C6F6E67 		.ascii	"long int\000"
 4977      20696E74 
 4977      00
 4978              	.LASF457:
 4979 0c7f 4359424C 		.ascii	"CYBLE_EVT_LNSS_NOTIFICATION_DISABLED\000"
 4979      455F4556 
 4979      545F4C4E 
 4979      53535F4E 
 4979      4F544946 
 4980              	.LASF358:
 4981 0ca4 4359424C 		.ascii	"CYBLE_EVT_CSCSS_INDICATION_DISABLED\000"
 4981      455F4556 
 4981      545F4353 
 4981      4353535F 
 4981      494E4449 
 4982              	.LASF162:
 4983 0cc8 64617461 		.ascii	"dataLen\000"
 4983      4C656E00 
 4984              	.LASF254:
 4985 0cd0 4359424C 		.ascii	"CYBLE_LONG_TERM_KEY_REQUEST_REPLY\000"
 4985      455F4C4F 
 4985      4E475F54 
 4985      45524D5F 
 4985      4B45595F 
 4986              	.LASF582:
 4987 0cf2 436F6E6E 		.ascii	"ConnectToPeripheralDevice\000"
 4987      65637454 
 4987      6F506572 
 4987      69706865 
ARM GAS  C:\Users\dmytro\AppData\Local\Temp\ccjppNo8.s 			page 117


 4987      72616C44 
 4988              	.LASF172:
 4989 0d0c 4359424C 		.ascii	"CYBLE_GATT_FIND_BY_TYPE_VALUE_RSP\000"
 4989      455F4741 
 4989      54545F46 
 4989      494E445F 
 4989      42595F54 
 4990              	.LASF19:
 4991 0d2e 4359424C 		.ascii	"CYBLE_EVT_STACK_ON\000"
 4991      455F4556 
 4991      545F5354 
 4991      41434B5F 
 4991      4F4E00
 4992              	.LASF108:
 4993 0d41 4359424C 		.ascii	"CYBLE_ERROR_L2CAP_PSM_NOT_IN_RANGE\000"
 4993      455F4552 
 4993      524F525F 
 4993      4C324341 
 4993      505F5053 
 4994              	.LASF308:
 4995 0d64 4359424C 		.ascii	"CYBLE_EVT_BCSS_INDICATION_DISABLED\000"
 4995      455F4556 
 4995      545F4243 
 4995      53535F49 
 4995      4E444943 
 4996              	.LASF388:
 4997 0d87 4359424C 		.ascii	"CYBLE_EVT_ESSC_WRITE_DESCR_RESPONSE\000"
 4997      455F4556 
 4997      545F4553 
 4997      53435F57 
 4997      52495445 
 4998              	.LASF224:
 4999 0dab 4359424C 		.ascii	"CYBLE_GATTS_ERR_HPS_INVALID_REQUEST\000"
 4999      455F4741 
 4999      5454535F 
 4999      4552525F 
 4999      4850535F 
 5000              	.LASF445:
 5001 0dcf 4359424C 		.ascii	"CYBLE_EVT_IPSC_WRITE_CHAR_RESPONSE\000"
 5001      455F4556 
 5001      545F4950 
 5001      53435F57 
 5001      52495445 
 5002              	.LASF429:
 5003 0df2 4359424C 		.ascii	"CYBLE_EVT_HTSS_NOTIFICATION_ENABLED\000"
 5003      455F4556 
 5003      545F4854 
 5003      53535F4E 
 5003      4F544946 
 5004              	.LASF199:
 5005 0e16 4359424C 		.ascii	"CYBLE_GATT_ERR_INVALID_PDU\000"
 5005      455F4741 
 5005      54545F45 
 5005      52525F49 
 5005      4E56414C 
 5006              	.LASF121:
 5007 0e31 4359424C 		.ascii	"CYBLE_ERROR_CHAR_IS_NOT_DISCOVERED\000"
ARM GAS  C:\Users\dmytro\AppData\Local\Temp\ccjppNo8.s 			page 118


 5007      455F4552 
 5007      524F525F 
 5007      43484152 
 5007      5F49535F 
 5008              	.LASF529:
 5009 0e54 4359424C 		.ascii	"CYBLE_EVT_UDSS_READ_CHAR\000"
 5009      455F4556 
 5009      545F5544 
 5009      53535F52 
 5009      4541445F 
 5010              	.LASF274:
 5011 0e6d 4359424C 		.ascii	"CYBLE_EVT_AIOSS_INDICATION_DISABLED\000"
 5011      455F4556 
 5011      545F4149 
 5011      4F53535F 
 5011      494E4449 
 5012              	.LASF243:
 5013 0e91 4359424C 		.ascii	"CYBLE_GATT_HANDLE_VALUE_PAIR_T\000"
 5013      455F4741 
 5013      54545F48 
 5013      414E444C 
 5013      455F5641 
 5014              	.LASF385:
 5015 0eb0 4359424C 		.ascii	"CYBLE_EVT_ESSC_READ_CHAR_RESPONSE\000"
 5015      455F4556 
 5015      545F4553 
 5015      53435F52 
 5015      4541445F 
 5016              	.LASF408:
 5017 0ed2 4359424C 		.ascii	"CYBLE_EVT_HIDSC_NOTIFICATION\000"
 5017      455F4556 
 5017      545F4849 
 5017      4453435F 
 5017      4E4F5449 
 5018              	.LASF131:
 5019 0eef 4359424C 		.ascii	"CYBLE_GAPP_NON_CONNECTABLE_UNDIRECTED_ADV\000"
 5019      455F4741 
 5019      50505F4E 
 5019      4F4E5F43 
 5019      4F4E4E45 
 5020              	.LASF76:
 5021 0f19 4359424C 		.ascii	"CYBLE_EVT_L2CAP_COMMAND_REJ\000"
 5021      455F4556 
 5021      545F4C32 
 5021      4341505F 
 5021      434F4D4D 
 5022              	.LASF251:
 5023 0f35 4359424C 		.ascii	"CYBLE_GATTC_WRITE_REQ_T\000"
 5023      455F4741 
 5023      5454435F 
 5023      57524954 
 5023      455F5245 
 5024              	.LASF178:
 5025 0f4d 4359424C 		.ascii	"CYBLE_GATT_READ_BLOB_RSP\000"
 5025      455F4741 
 5025      54545F52 
 5025      4541445F 
ARM GAS  C:\Users\dmytro\AppData\Local\Temp\ccjppNo8.s 			page 119


 5025      424C4F42 
 5026              	.LASF208:
 5027 0f66 4359424C 		.ascii	"CYBLE_GATT_ERR_INVALID_ATTRIBUTE_LEN\000"
 5027      455F4741 
 5027      54545F45 
 5027      52525F49 
 5027      4E56414C 
 5028              	.LASF405:
 5029 0f8b 4359424C 		.ascii	"CYBLE_EVT_HIDSS_SUSPEND\000"
 5029      455F4556 
 5029      545F4849 
 5029      4453535F 
 5029      53555350 
 5030              	.LASF109:
 5031 0fa3 4359424C 		.ascii	"CYBLE_ERROR_GATT_DB_INVALID_ATTR_HANDLE\000"
 5031      455F4552 
 5031      524F525F 
 5031      47415454 
 5031      5F44425F 
 5032              	.LASF0:
 5033 0fcb 7369676E 		.ascii	"signed char\000"
 5033      65642063 
 5033      68617200 
 5034              	.LASF312:
 5035 0fd7 4359424C 		.ascii	"CYBLE_EVT_BCSC_READ_DESCR_RESPONSE\000"
 5035      455F4556 
 5035      545F4243 
 5035      53435F52 
 5035      4541445F 
 5036              	.LASF556:
 5037 0ffa 4359424C 		.ascii	"CYBLE_EVT_WSSC_WRITE_DESCR_RESPONSE\000"
 5037      455F4556 
 5037      545F5753 
 5037      53435F57 
 5037      52495445 
 5038              	.LASF305:
 5039 101e 4359424C 		.ascii	"CYBLE_EVT_BASC_READ_DESCR_RESPONSE\000"
 5039      455F4556 
 5039      545F4241 
 5039      53435F52 
 5039      4541445F 
 5040              	.LASF169:
 5041 1041 4359424C 		.ascii	"CYBLE_GATT_FIND_INFO_REQ\000"
 5041      455F4741 
 5041      54545F46 
 5041      494E445F 
 5041      494E464F 
 5042              	.LASF21:
 5043 105a 4359424C 		.ascii	"CYBLE_EVT_HARDWARE_ERROR\000"
 5043      455F4556 
 5043      545F4841 
 5043      52445741 
 5043      52455F45 
 5044              	.LASF90:
 5045 1073 4359424C 		.ascii	"CYBLE_ERROR_OK\000"
 5045      455F4552 
 5045      524F525F 
ARM GAS  C:\Users\dmytro\AppData\Local\Temp\ccjppNo8.s 			page 120


 5045      4F4B00
 5046              	.LASF161:
 5047 1082 70656572 		.ascii	"peerBdAddr\000"
 5047      42644164 
 5047      647200
 5048              	.LASF231:
 5049 108d 4359424C 		.ascii	"CYBLE_GATT_ERR_CCCD_IMPROPERLY_CONFIGURED\000"
 5049      455F4741 
 5049      54545F45 
 5049      52525F43 
 5049      4343445F 
 5050              	.LASF54:
 5051 10b7 4359424C 		.ascii	"CYBLE_EVT_GATTC_READ_BY_GROUP_TYPE_RSP\000"
 5051      455F4556 
 5051      545F4741 
 5051      5454435F 
 5051      52454144 
 5052              	.LASF558:
 5053 10de 4359424C 		.ascii	"CYBLE_STATE_STOPPED\000"
 5053      455F5354 
 5053      4154455F 
 5053      53544F50 
 5053      50454400 
 5054              	.LASF246:
 5055 10f2 4359424C 		.ascii	"CYBLE_GATTS_ERR_PARAM_T\000"
 5055      455F4741 
 5055      5454535F 
 5055      4552525F 
 5055      50415241 
 5056              	.LASF1:
 5057 110a 756E7369 		.ascii	"unsigned char\000"
 5057      676E6564 
 5057      20636861 
 5057      7200
 5058              	.LASF53:
 5059 1118 4359424C 		.ascii	"CYBLE_EVT_GATTC_XCHNG_MTU_RSP\000"
 5059      455F4556 
 5059      545F4741 
 5059      5454435F 
 5059      5843484E 
 5060              	.LASF344:
 5061 1136 4359424C 		.ascii	"CYBLE_EVT_CPSS_INDICATION_CONFIRMED\000"
 5061      455F4556 
 5061      545F4350 
 5061      53535F49 
 5061      4E444943 
 5062              	.LASF191:
 5063 115a 4359424C 		.ascii	"CYBLE_GATT_HANDLE_VALUE_IND\000"
 5063      455F4741 
 5063      54545F48 
 5063      414E444C 
 5063      455F5641 
 5064              	.LASF341:
 5065 1176 4359424C 		.ascii	"CYBLE_EVT_CPSS_NOTIFICATION_DISABLED\000"
 5065      455F4556 
 5065      545F4350 
 5065      53535F4E 
ARM GAS  C:\Users\dmytro\AppData\Local\Temp\ccjppNo8.s 			page 121


 5065      4F544946 
 5066              	.LASF505:
 5067 119b 4359424C 		.ascii	"CYBLE_EVT_RSCSC_INDICATION\000"
 5067      455F4556 
 5067      545F5253 
 5067      4353435F 
 5067      494E4449 
 5068              	.LASF555:
 5069 11b6 4359424C 		.ascii	"CYBLE_EVT_WSSC_READ_DESCR_RESPONSE\000"
 5069      455F4556 
 5069      545F5753 
 5069      53435F52 
 5069      4541445F 
 5070              	.LASF541:
 5071 11d9 4359424C 		.ascii	"CYBLE_EVT_WPTSS_INDICATION_DISABLED\000"
 5071      455F4556 
 5071      545F5750 
 5071      5453535F 
 5071      494E4449 
 5072              	.LASF44:
 5073 11fd 4359424C 		.ascii	"CYBLE_EVT_GAP_SMP_NEGOTIATED_AUTH_INFO\000"
 5073      455F4556 
 5073      545F4741 
 5073      505F534D 
 5073      505F4E45 
 5074              	.LASF45:
 5075 1224 4359424C 		.ascii	"CYBLE_EVT_GAP_CONN_ESTB\000"
 5075      455F4556 
 5075      545F4741 
 5075      505F434F 
 5075      4E4E5F45 
 5076              	.LASF140:
 5077 123c 61647649 		.ascii	"advIntvMin\000"
 5077      6E74764D 
 5077      696E00
 5078              	.LASF331:
 5079 1247 4359424C 		.ascii	"CYBLE_EVT_CGMSS_NOTIFICATION_ENABLED\000"
 5079      455F4556 
 5079      545F4347 
 5079      4D53535F 
 5079      4E4F5449 
 5080              	.LASF258:
 5081 126c 4359424C 		.ascii	"CYBLE_EVT_GATTC_INDICATION\000"
 5081      455F4556 
 5081      545F4741 
 5081      5454435F 
 5081      494E4449 
 5082              	.LASF245:
 5083 1287 6572726F 		.ascii	"errorCode\000"
 5083      72436F64 
 5083      6500
 5084              	.LASF151:
 5085 1291 4359424C 		.ascii	"CYBLE_GAPP_DISC_DATA_T\000"
 5085      455F4741 
 5085      50505F44 
 5085      4953435F 
 5085      44415441 
ARM GAS  C:\Users\dmytro\AppData\Local\Temp\ccjppNo8.s 			page 122


 5086              	.LASF512:
 5087 12a8 4359424C 		.ascii	"CYBLE_EVT_SCPSS_NOTIFICATION_ENABLED\000"
 5087      455F4556 
 5087      545F5343 
 5087      5053535F 
 5087      4E4F5449 
 5088              	.LASF443:
 5089 12cd 4359424C 		.ascii	"CYBLE_EVT_IPSC_READ_CHAR_RESPONSE\000"
 5089      455F4556 
 5089      545F4950 
 5089      53435F52 
 5089      4541445F 
 5090              	.LASF607:
 5091 12ef 626C655F 		.ascii	"ble_process.c\000"
 5091      70726F63 
 5091      6573732E 
 5091      6300
 5092              	.LASF80:
 5093 12fd 4359424C 		.ascii	"CYBLE_EVT_L2CAP_CBFC_DISCONN_CNF\000"
 5093      455F4556 
 5093      545F4C32 
 5093      4341505F 
 5093      43424643 
 5094              	.LASF57:
 5095 131e 4359424C 		.ascii	"CYBLE_EVT_GATTC_FIND_BY_TYPE_VALUE_RSP\000"
 5095      455F4556 
 5095      545F4741 
 5095      5454435F 
 5095      46494E44 
 5096              	.LASF285:
 5097 1345 4359424C 		.ascii	"CYBLE_EVT_ANCSS_NOTIFICATION_ENABLED\000"
 5097      455F4556 
 5097      545F414E 
 5097      4353535F 
 5097      4E4F5449 
 5098              	.LASF583:
 5099 136a 53656E64 		.ascii	"SendErrorCode\000"
 5099      4572726F 
 5099      72436F64 
 5099      6500
 5100              	.LASF41:
 5101 1378 4359424C 		.ascii	"CYBLE_EVT_GAP_DATA_LENGTH_CHANGE\000"
 5101      455F4556 
 5101      545F4741 
 5101      505F4441 
 5101      54415F4C 
 5102              	.LASF517:
 5103 1399 4359424C 		.ascii	"CYBLE_EVT_SCPSC_WRITE_DESCR_RESPONSE\000"
 5103      455F4556 
 5103      545F5343 
 5103      5053435F 
 5103      57524954 
 5104              	.LASF15:
 5105 13be 63686172 		.ascii	"char\000"
 5105      00
 5106              	.LASF485:
 5107 13c3 4359424C 		.ascii	"CYBLE_EVT_PLXSS_WRITE_CHAR\000"
ARM GAS  C:\Users\dmytro\AppData\Local\Temp\ccjppNo8.s 			page 123


 5107      455F4556 
 5107      545F504C 
 5107      5853535F 
 5107      57524954 
 5108              	.LASF520:
 5109 13de 4359424C 		.ascii	"CYBLE_EVT_TPSC_NOTIFICATION\000"
 5109      455F4556 
 5109      545F5450 
 5109      53435F4E 
 5109      4F544946 
 5110              	.LASF184:
 5111 13fa 4359424C 		.ascii	"CYBLE_GATT_WRITE_RSP\000"
 5111      455F4741 
 5111      54545F57 
 5111      52495445 
 5111      5F525350 
 5112              	.LASF486:
 5113 140f 4359424C 		.ascii	"CYBLE_EVT_PLXSS_NOTIFICATION_ENABLED\000"
 5113      455F4556 
 5113      545F504C 
 5113      5853535F 
 5113      4E4F5449 
 5114              	.LASF599:
 5115 1434 7363616E 		.ascii	"scan_tag\000"
 5115      5F746167 
 5115      00
 5116              	.LASF60:
 5117 143d 4359424C 		.ascii	"CYBLE_EVT_GATTC_READ_MULTI_RSP\000"
 5117      455F4556 
 5117      545F4741 
 5117      5454435F 
 5117      52454144 
 5118              	.LASF284:
 5119 145c 4359424C 		.ascii	"CYBLE_EVT_AIOSC_ERROR_RESPONSE\000"
 5119      455F4556 
 5119      545F4149 
 5119      4F53435F 
 5119      4552524F 
 5120              	.LASF279:
 5121 147b 4359424C 		.ascii	"CYBLE_EVT_AIOSC_INDICATION\000"
 5121      455F4556 
 5121      545F4149 
 5121      4F53435F 
 5121      494E4449 
 5122              	.LASF563:
 5123 1496 4359424C 		.ascii	"CYBLE_STATE_CONNECTING\000"
 5123      455F5354 
 5123      4154455F 
 5123      434F4E4E 
 5123      45435449 
 5124              	.LASF18:
 5125 14ad 4359424C 		.ascii	"CYBLE_EVT_HOST_INVALID\000"
 5125      455F4556 
 5125      545F484F 
 5125      53545F49 
 5125      4E56414C 
 5126              	.LASF220:
ARM GAS  C:\Users\dmytro\AppData\Local\Temp\ccjppNo8.s 			page 124


 5127 14c4 4359424C 		.ascii	"CYBLE_GATT_ERR_MISSING_CRC\000"
 5127      455F4741 
 5127      54545F45 
 5127      52525F4D 
 5127      49535349 
 5128              	.LASF209:
 5129 14df 4359424C 		.ascii	"CYBLE_GATT_ERR_UNLIKELY_ERROR\000"
 5129      455F4741 
 5129      54545F45 
 5129      52525F55 
 5129      4E4C494B 
 5130              	.LASF43:
 5131 14fd 4359424C 		.ascii	"CYBLE_EVT_GAPC_DIRECT_ADV_REPORT\000"
 5131      455F4556 
 5131      545F4741 
 5131      50435F44 
 5131      49524543 
 5132              	.LASF399:
 5133 151e 4359424C 		.ascii	"CYBLE_EVT_GLSC_READ_DESCR_RESPONSE\000"
 5133      455F4556 
 5133      545F474C 
 5133      53435F52 
 5133      4541445F 
 5134              	.LASF167:
 5135 1541 4359424C 		.ascii	"CYBLE_GATT_XCNHG_MTU_REQ\000"
 5135      455F4741 
 5135      54545F58 
 5135      434E4847 
 5135      5F4D5455 
 5136              	.LASF97:
 5137 155a 4359424C 		.ascii	"CYBLE_ERROR_NO_DEVICE_ENTITY\000"
 5137      455F4552 
 5137      524F525F 
 5137      4E4F5F44 
 5137      45564943 
 5138              	.LASF59:
 5139 1577 4359424C 		.ascii	"CYBLE_EVT_GATTC_READ_BLOB_RSP\000"
 5139      455F4556 
 5139      545F4741 
 5139      5454435F 
 5139      52454144 
 5140              	.LASF432:
 5141 1595 4359424C 		.ascii	"CYBLE_EVT_HTSS_INDICATION_DISABLED\000"
 5141      455F4556 
 5141      545F4854 
 5141      53535F49 
 5141      4E444943 
 5142              	.LASF511:
 5143 15b8 4359424C 		.ascii	"CYBLE_EVT_RTUSC_READ_CHAR_RESPONSE\000"
 5143      455F4556 
 5143      545F5254 
 5143      5553435F 
 5143      52454144 
 5144              	.LASF66:
 5145 15db 4359424C 		.ascii	"CYBLE_EVT_GATTC_EXEC_WRITE_RSP\000"
 5145      455F4556 
 5145      545F4741 
ARM GAS  C:\Users\dmytro\AppData\Local\Temp\ccjppNo8.s 			page 125


 5145      5454435F 
 5145      45584543 
 5146              	.LASF214:
 5147 15fa 4359424C 		.ascii	"CYBLE_GATT_ERR_HEART_RATE_CONTROL_POINT_NOT_SUPPORT"
 5147      455F4741 
 5147      54545F45 
 5147      52525F48 
 5147      45415254 
 5148 162d 454400   		.ascii	"ED\000"
 5149              	.LASF552:
 5150 1630 4359424C 		.ascii	"CYBLE_EVT_WSSS_INDICATION_CONFIRMED\000"
 5150      455F4556 
 5150      545F5753 
 5150      53535F49 
 5150      4E444943 
 5151              	.LASF206:
 5152 1654 4359424C 		.ascii	"CYBLE_GATT_ERR_ATTRIBUTE_NOT_LONG\000"
 5152      455F4741 
 5152      54545F45 
 5152      52525F41 
 5152      54545249 
 5153              	.LASF373:
 5154 1676 4359424C 		.ascii	"CYBLE_EVT_CTSC_WRITE_DESCR_RESPONSE\000"
 5154      455F4556 
 5154      545F4354 
 5154      53435F57 
 5154      52495445 
 5155              	.LASF471:
 5156 169a 4359424C 		.ascii	"CYBLE_EVT_OTSC_INDICATION\000"
 5156      455F4556 
 5156      545F4F54 
 5156      53435F49 
 5156      4E444943 
 5157              	.LASF580:
 5158 16b4 47656E65 		.ascii	"GenericEventHandler\000"
 5158      72696345 
 5158      76656E74 
 5158      48616E64 
 5158      6C657200 
 5159              	.LASF525:
 5160 16c8 4359424C 		.ascii	"CYBLE_EVT_UDSS_INDICATION_DISABLED\000"
 5160      455F4556 
 5160      545F5544 
 5160      53535F49 
 5160      4E444943 
 5161              	.LASF483:
 5162 16eb 4359424C 		.ascii	"CYBLE_EVT_PASSC_READ_DESCR_RESPONSE\000"
 5162      455F4556 
 5162      545F5041 
 5162      5353435F 
 5162      52454144 
 5163              	.LASF71:
 5164 170f 4359424C 		.ascii	"CYBLE_EVT_GATTC_STOP_CMD_COMPLETE\000"
 5164      455F4556 
 5164      545F4741 
 5164      5454435F 
 5164      53544F50 
ARM GAS  C:\Users\dmytro\AppData\Local\Temp\ccjppNo8.s 			page 126


 5165              	.LASF157:
 5166 1731 61647654 		.ascii	"advTo\000"
 5166      6F00
 5167              	.LASF347:
 5168 1737 4359424C 		.ascii	"CYBLE_EVT_CPSS_CHAR_WRITE\000"
 5168      455F4556 
 5168      545F4350 
 5168      53535F43 
 5168      4841525F 
 5169              	.LASF421:
 5170 1751 4359424C 		.ascii	"CYBLE_EVT_HRSS_ENERGY_EXPENDED_RESET\000"
 5170      455F4556 
 5170      545F4852 
 5170      53535F45 
 5170      4E455247 
 5171              	.LASF230:
 5172 1776 4359424C 		.ascii	"CYBLE_GATT_ERR_ANCS_ACTION_FAILED\000"
 5172      455F4741 
 5172      54545F45 
 5172      52525F41 
 5172      4E43535F 
 5173              	.LASF377:
 5174 1798 4359424C 		.ascii	"CYBLE_EVT_ESSS_NOTIFICATION_DISABLED\000"
 5174      455F4556 
 5174      545F4553 
 5174      53535F4E 
 5174      4F544946 
 5175              	.LASF466:
 5176 17bd 4359424C 		.ascii	"CYBLE_EVT_OTSS_INDICATION_ENABLED\000"
 5176      455F4556 
 5176      545F4F54 
 5176      53535F49 
 5176      4E444943 
 5177              	.LASF593:
 5178 17df 64617461 		.ascii	"dataADVCounter\000"
 5178      41445643 
 5178      6F756E74 
 5178      657200
 5179              	.LASF317:
 5180 17ee 4359424C 		.ascii	"CYBLE_EVT_BLSS_NOTIFICATION_ENABLED\000"
 5180      455F4556 
 5180      545F424C 
 5180      53535F4E 
 5180      4F544946 
 5181              	.LASF419:
 5182 1812 4359424C 		.ascii	"CYBLE_EVT_HPSC_WRITE_DESCR_RESPONSE\000"
 5182      455F4556 
 5182      545F4850 
 5182      53435F57 
 5182      52495445 
 5183              	.LASF166:
 5184 1836 4359424C 		.ascii	"CYBLE_GATT_ERROR_RSP\000"
 5184      455F4741 
 5184      54545F45 
 5184      52524F52 
 5184      5F525350 
 5185              	.LASF117:
ARM GAS  C:\Users\dmytro\AppData\Local\Temp\ccjppNo8.s 			page 127


 5186 184b 4359424C 		.ascii	"CYBLE_ERROR_CONTROLLER_BUSY\000"
 5186      455F4552 
 5186      524F525F 
 5186      434F4E54 
 5186      524F4C4C 
 5187              	.LASF91:
 5188 1867 4359424C 		.ascii	"CYBLE_ERROR_INVALID_PARAMETER\000"
 5188      455F4552 
 5188      524F525F 
 5188      494E5641 
 5188      4C49445F 
 5189              	.LASF384:
 5190 1885 4359424C 		.ascii	"CYBLE_EVT_ESSC_INDICATION\000"
 5190      455F4556 
 5190      545F4553 
 5190      53435F49 
 5190      4E444943 
 5191              	.LASF291:
 5192 189f 4359424C 		.ascii	"CYBLE_EVT_ANCSC_WRITE_DESCR_RESPONSE\000"
 5192      455F4556 
 5192      545F414E 
 5192      4353435F 
 5192      57524954 
 5193              	.LASF507:
 5194 18c4 4359424C 		.ascii	"CYBLE_EVT_RSCSC_WRITE_CHAR_RESPONSE\000"
 5194      455F4556 
 5194      545F5253 
 5194      4353435F 
 5194      57524954 
 5195              	.LASF523:
 5196 18e8 4359424C 		.ascii	"CYBLE_EVT_TPSC_WRITE_DESCR_RESPONSE\000"
 5196      455F4556 
 5196      545F5450 
 5196      53435F57 
 5196      52495445 
 5197              	.LASF271:
 5198 190c 4359424C 		.ascii	"CYBLE_EVT_AIOSS_NOTIFICATION_ENABLED\000"
 5198      455F4556 
 5198      545F4149 
 5198      4F53535F 
 5198      4E4F5449 
 5199              	.LASF356:
 5200 1931 4359424C 		.ascii	"CYBLE_EVT_CSCSS_NOTIFICATION_DISABLED\000"
 5200      455F4556 
 5200      545F4353 
 5200      4353535F 
 5200      4E4F5449 
 5201              	.LASF367:
 5202 1957 4359424C 		.ascii	"CYBLE_EVT_CTSS_NOTIFICATION_ENABLED\000"
 5202      455F4556 
 5202      545F4354 
 5202      53535F4E 
 5202      4F544946 
 5203              	.LASF501:
 5204 197b 4359424C 		.ascii	"CYBLE_EVT_RSCSS_INDICATION_DISABLED\000"
 5204      455F4556 
 5204      545F5253 
ARM GAS  C:\Users\dmytro\AppData\Local\Temp\ccjppNo8.s 			page 128


 5204      4353535F 
 5204      494E4449 
 5205              	.LASF132:
 5206 199f 4359424C 		.ascii	"CYBLE_GAPP_CONNECTABLE_LOW_DC_DIRECTED_ADV\000"
 5206      455F4741 
 5206      50505F43 
 5206      4F4E4E45 
 5206      43544142 
 5207              	.LASF543:
 5208 19ca 4359424C 		.ascii	"CYBLE_EVT_WPTSS_WRITE_CHAR\000"
 5208      455F4556 
 5208      545F5750 
 5208      5453535F 
 5208      57524954 
 5209              	.LASF450:
 5210 19e5 4359424C 		.ascii	"CYBLE_EVT_LLSS_WRITE_CHAR_REQ\000"
 5210      455F4556 
 5210      545F4C4C 
 5210      53535F57 
 5210      52495445 
 5211              	.LASF93:
 5212 1a03 4359424C 		.ascii	"CYBLE_ERROR_MEMORY_ALLOCATION_FAILED\000"
 5212      455F4552 
 5212      524F525F 
 5212      4D454D4F 
 5212      52595F41 
 5213              	.LASF427:
 5214 1a28 4359424C 		.ascii	"CYBLE_EVT_HRSC_READ_DESCR_RESPONSE\000"
 5214      455F4556 
 5214      545F4852 
 5214      53435F52 
 5214      4541445F 
 5215              	.LASF355:
 5216 1a4b 4359424C 		.ascii	"CYBLE_EVT_CSCSS_NOTIFICATION_ENABLED\000"
 5216      455F4556 
 5216      545F4353 
 5216      4353535F 
 5216      4E4F5449 
 5217              	.LASF319:
 5218 1a70 4359424C 		.ascii	"CYBLE_EVT_BLSC_INDICATION\000"
 5218      455F4556 
 5218      545F424C 
 5218      53435F49 
 5218      4E444943 
 5219              	.LASF415:
 5220 1a8a 4359424C 		.ascii	"CYBLE_EVT_HPSS_CHAR_WRITE\000"
 5220      455F4556 
 5220      545F4850 
 5220      53535F43 
 5220      4841525F 
 5221              	.LASF193:
 5222 1aa4 4359424C 		.ascii	"CYBLE_GATT_SIGNED_WRITE_CMD\000"
 5222      455F4741 
 5222      54545F53 
 5222      49474E45 
 5222      445F5752 
 5223              	.LASF407:
ARM GAS  C:\Users\dmytro\AppData\Local\Temp\ccjppNo8.s 			page 129


 5224 1ac0 4359424C 		.ascii	"CYBLE_EVT_HIDSS_REPORT_CHAR_WRITE\000"
 5224      455F4556 
 5224      545F4849 
 5224      4453535F 
 5224      5245504F 
 5225              	.LASF307:
 5226 1ae2 4359424C 		.ascii	"CYBLE_EVT_BCSS_INDICATION_ENABLED\000"
 5226      455F4556 
 5226      545F4243 
 5226      53535F49 
 5226      4E444943 
 5227              	.LASF221:
 5228 1b04 4359424C 		.ascii	"CYBLE_GATTS_ERR_CCCD_IMPROPERLY_CONFIGURED\000"
 5228      455F4741 
 5228      5454535F 
 5228      4552525F 
 5228      43434344 
 5229              	.LASF581:
 5230 1b2f 53776974 		.ascii	"SwitchRole\000"
 5230      6368526F 
 5230      6C6500
 5231              	.LASF587:
 5232 1b3a 76616C75 		.ascii	"value_pair\000"
 5232      655F7061 
 5232      697200
 5233              	.LASF547:
 5234 1b45 4359424C 		.ascii	"CYBLE_EVT_WPTSC_READ_CHAR_RESPONSE\000"
 5234      455F4556 
 5234      545F5750 
 5234      5453435F 
 5234      52454144 
 5235              	.LASF189:
 5236 1b68 4359424C 		.ascii	"CYBLE_GATT_EXECUTE_WRITE_RSP\000"
 5236      455F4741 
 5236      54545F45 
 5236      58454355 
 5236      54455F57 
 5237              	.LASF118:
 5238 1b85 4359424C 		.ascii	"CYBLE_ERROR_MAX\000"
 5238      455F4552 
 5238      524F525F 
 5238      4D415800 
 5239              	.LASF462:
 5240 1b95 4359424C 		.ascii	"CYBLE_EVT_LNSC_WRITE_CHAR_RESPONSE\000"
 5240      455F4556 
 5240      545F4C4E 
 5240      53435F57 
 5240      52495445 
 5241              	.LASF75:
 5242 1bb8 4359424C 		.ascii	"CYBLE_EVT_L2CAP_CONN_PARAM_UPDATE_RSP\000"
 5242      455F4556 
 5242      545F4C32 
 5242      4341505F 
 5242      434F4E4E 
 5243              	.LASF87:
 5244 1bde 4359424C 		.ascii	"CYBLE_EVT_HCI_PKT\000"
 5244      455F4556 
ARM GAS  C:\Users\dmytro\AppData\Local\Temp\ccjppNo8.s 			page 130


 5244      545F4843 
 5244      495F504B 
 5244      5400
 5245              	.LASF528:
 5246 1bf0 4359424C 		.ascii	"CYBLE_EVT_UDSS_NOTIFICATION_DISABLED\000"
 5246      455F4556 
 5246      545F5544 
 5246      53535F4E 
 5246      4F544946 
 5247              	.LASF366:
 5248 1c15 4359424C 		.ascii	"CYBLE_EVT_CSCSC_WRITE_DESCR_RESPONSE\000"
 5248      455F4556 
 5248      545F4353 
 5248      4353435F 
 5248      57524954 
 5249              	.LASF606:
 5250 1c3a 474E5520 		.ascii	"GNU C11 5.4.1 20160609 (release) [ARM/embedded-5-br"
 5250      43313120 
 5250      352E342E 
 5250      31203230 
 5250      31363036 
 5251 1c6d 616E6368 		.ascii	"anch revision 237715] -mcpu=cortex-m0 -mthumb -g -O"
 5251      20726576 
 5251      6973696F 
 5251      6E203233 
 5251      37373135 
 5252 1ca0 30202D66 		.ascii	"0 -ffunction-sections -ffat-lto-objects\000"
 5252      66756E63 
 5252      74696F6E 
 5252      2D736563 
 5252      74696F6E 
 5253              	.LASF530:
 5254 1cc8 4359424C 		.ascii	"CYBLE_EVT_UDSS_WRITE_CHAR\000"
 5254      455F4556 
 5254      545F5544 
 5254      53535F57 
 5254      52495445 
 5255              	.LASF493:
 5256 1ce2 4359424C 		.ascii	"CYBLE_EVT_PLXSC_READ_CHAR_RESPONSE\000"
 5256      455F4556 
 5256      545F504C 
 5256      5853435F 
 5256      52454144 
 5257              	.LASF11:
 5258 1d05 75696E74 		.ascii	"uint32\000"
 5258      333200
 5259              	.LASF148:
 5260 1d0c 4359424C 		.ascii	"CYBLE_GAPP_DISC_PARAM_T\000"
 5260      455F4741 
 5260      50505F44 
 5260      4953435F 
 5260      50415241 
 5261              	.LASF422:
 5262 1d24 4359424C 		.ascii	"CYBLE_EVT_HRSS_NOTIFICATION_ENABLED\000"
 5262      455F4556 
 5262      545F4852 
 5262      53535F4E 
ARM GAS  C:\Users\dmytro\AppData\Local\Temp\ccjppNo8.s 			page 131


 5262      4F544946 
 5263              	.LASF215:
 5264 1d48 4359424C 		.ascii	"CYBLE_GATT_ERR_USER_DATA_ACCESS_NOT_PERMITTED\000"
 5264      455F4741 
 5264      54545F45 
 5264      52525F55 
 5264      5345525F 
 5265              	.LASF592:
 5266 1d76 52474244 		.ascii	"RGBData\000"
 5266      61746100 
 5267              	.LASF567:
 5268 1d7e 4359424C 		.ascii	"CYBLE_SRVI_GATT\000"
 5268      455F5352 
 5268      56495F47 
 5268      41545400 
 5269              	.LASF477:
 5270 1d8e 4359424C 		.ascii	"CYBLE_EVT_OTSC_ERROR_RESPONSE\000"
 5270      455F4556 
 5270      545F4F54 
 5270      53435F45 
 5270      52524F52 
 5271              	.LASF29:
 5272 1dac 4359424C 		.ascii	"CYBLE_EVT_GAP_AUTH_COMPLETE\000"
 5272      455F4556 
 5272      545F4741 
 5272      505F4155 
 5272      54485F43 
 5273              	.LASF147:
 5274 1dc8 61647646 		.ascii	"advFilterPolicy\000"
 5274      696C7465 
 5274      72506F6C 
 5274      69637900 
 5275              	.LASF387:
 5276 1dd8 4359424C 		.ascii	"CYBLE_EVT_ESSC_READ_DESCR_RESPONSE\000"
 5276      455F4556 
 5276      545F4553 
 5276      53435F52 
 5276      4541445F 
 5277              	.LASF30:
 5278 1dfb 4359424C 		.ascii	"CYBLE_EVT_GAP_AUTH_FAILED\000"
 5278      455F4556 
 5278      545F4741 
 5278      505F4155 
 5278      54485F46 
 5279              	.LASF406:
 5280 1e15 4359424C 		.ascii	"CYBLE_EVT_HIDSS_EXIT_SUSPEND\000"
 5280      455F4556 
 5280      545F4849 
 5280      4453535F 
 5280      45584954 
 5281              	.LASF123:
 5282 1e32 4359424C 		.ascii	"CYBLE_ERROR_STACK_BUSY\000"
 5282      455F4552 
 5282      524F525F 
 5282      53544143 
 5282      4B5F4255 
 5283              	.LASF142:
ARM GAS  C:\Users\dmytro\AppData\Local\Temp\ccjppNo8.s 			page 132


 5284 1e49 61647654 		.ascii	"advType\000"
 5284      79706500 
 5285              	.LASF182:
 5286 1e51 4359424C 		.ascii	"CYBLE_GATT_READ_BY_GROUP_RSP\000"
 5286      455F4741 
 5286      54545F52 
 5286      4541445F 
 5286      42595F47 
 5287              	.LASF94:
 5288 1e6e 4359424C 		.ascii	"CYBLE_ERROR_INSUFFICIENT_RESOURCES\000"
 5288      455F4552 
 5288      524F525F 
 5288      494E5355 
 5288      46464943 
 5289              	.LASF499:
 5290 1e91 4359424C 		.ascii	"CYBLE_EVT_RSCSS_NOTIFICATION_DISABLED\000"
 5290      455F4556 
 5290      545F5253 
 5290      4353535F 
 5290      4E4F5449 
 5291              	.LASF219:
 5292 1eb7 4359424C 		.ascii	"CYBLE_GATT_ERR_OP_CODE_NOT_SUPPORTED\000"
 5292      455F4741 
 5292      54545F45 
 5292      52525F4F 
 5292      505F434F 
 5293              	.LASF410:
 5294 1edc 4359424C 		.ascii	"CYBLE_EVT_HIDSC_WRITE_CHAR_RESPONSE\000"
 5294      455F4556 
 5294      545F4849 
 5294      4453435F 
 5294      57524954 
 5295              	.LASF5:
 5296 1f00 6C6F6E67 		.ascii	"long unsigned int\000"
 5296      20756E73 
 5296      69676E65 
 5296      6420696E 
 5296      7400
 5297              	.LASF175:
 5298 1f12 4359424C 		.ascii	"CYBLE_GATT_READ_REQ\000"
 5298      455F4741 
 5298      54545F52 
 5298      4541445F 
 5298      52455100 
 5299              	.LASF446:
 5300 1f26 4359424C 		.ascii	"CYBLE_EVT_IPSC_READ_DESCR_RESPONSE\000"
 5300      455F4556 
 5300      545F4950 
 5300      53435F52 
 5300      4541445F 
 5301              	.LASF441:
 5302 1f49 4359424C 		.ascii	"CYBLE_EVT_IASS_WRITE_CHAR_CMD\000"
 5302      455F4556 
 5302      545F4941 
 5302      53535F57 
 5302      52495445 
 5303              	.LASF476:
ARM GAS  C:\Users\dmytro\AppData\Local\Temp\ccjppNo8.s 			page 133


 5304 1f67 4359424C 		.ascii	"CYBLE_EVT_OTSC_WRITE_DESCR_RESPONSE\000"
 5304      455F4556 
 5304      545F4F54 
 5304      53435F57 
 5304      52495445 
 5305              	.LASF478:
 5306 1f8b 4359424C 		.ascii	"CYBLE_EVT_PASSS_NOTIFICATION_ENABLED\000"
 5306      455F4556 
 5306      545F5041 
 5306      5353535F 
 5306      4E4F5449 
 5307              	.LASF481:
 5308 1fb0 4359424C 		.ascii	"CYBLE_EVT_PASSC_NOTIFICATION\000"
 5308      455F4556 
 5308      545F5041 
 5308      5353435F 
 5308      4E4F5449 
 5309              	.LASF114:
 5310 1fcd 4359424C 		.ascii	"CYBLE_ERROR_UNSUPPORTED_FEATURE_OR_PARAMETER_VALUE\000"
 5310      455F4552 
 5310      524F525F 
 5310      554E5355 
 5310      50504F52 
 5311              	.LASF540:
 5312 2000 4359424C 		.ascii	"CYBLE_EVT_WPTSS_INDICATION_ENABLED\000"
 5312      455F4556 
 5312      545F5750 
 5312      5453535F 
 5312      494E4449 
 5313              	.LASF190:
 5314 2023 4359424C 		.ascii	"CYBLE_GATT_HANDLE_VALUE_NTF\000"
 5314      455F4741 
 5314      54545F48 
 5314      414E444C 
 5314      455F5641 
 5315              	.LASF487:
 5316 203f 4359424C 		.ascii	"CYBLE_EVT_PLXSS_NOTIFICATION_DISABLED\000"
 5316      455F4556 
 5316      545F504C 
 5316      5853535F 
 5316      4E4F5449 
 5317              	.LASF297:
 5318 2065 4359424C 		.ascii	"CYBLE_EVT_ANSC_READ_CHAR_RESPONSE\000"
 5318      455F4556 
 5318      545F414E 
 5318      53435F52 
 5318      4541445F 
 5319              	.LASF463:
 5320 2087 4359424C 		.ascii	"CYBLE_EVT_LNSC_READ_DESCR_RESPONSE\000"
 5320      455F4556 
 5320      545F4C4E 
 5320      53435F52 
 5320      4541445F 
 5321              	.LASF104:
 5322 20aa 4359424C 		.ascii	"CYBLE_ERROR_L2CAP_PSM_ALREADY_REGISTERED\000"
 5322      455F4552 
 5322      524F525F 
ARM GAS  C:\Users\dmytro\AppData\Local\Temp\ccjppNo8.s 			page 134


 5322      4C324341 
 5322      505F5053 
 5323              	.LASF434:
 5324 20d3 4359424C 		.ascii	"CYBLE_EVT_HTSS_CHAR_WRITE\000"
 5324      455F4556 
 5324      545F4854 
 5324      53535F43 
 5324      4841525F 
 5325              	.LASF227:
 5326 20ed 4359424C 		.ascii	"CYBLE_GATT_ERR_ANCS_UNKNOWN_COMMAND\000"
 5326      455F4741 
 5326      54545F45 
 5326      52525F41 
 5326      4E43535F 
 5327              	.LASF301:
 5328 2111 4359424C 		.ascii	"CYBLE_EVT_BASS_NOTIFICATION_ENABLED\000"
 5328      455F4556 
 5328      545F4241 
 5328      53535F4E 
 5328      4F544946 
 5329              	.LASF375:
 5330 2135 4359424C 		.ascii	"CYBLE_EVT_DISC_READ_CHAR_RESPONSE\000"
 5330      455F4556 
 5330      545F4449 
 5330      53435F52 
 5330      4541445F 
 5331              	.LASF374:
 5332 2157 4359424C 		.ascii	"CYBLE_EVT_CTSC_WRITE_CHAR_RESPONSE\000"
 5332      455F4556 
 5332      545F4354 
 5332      53435F57 
 5332      52495445 
 5333              	.LASF480:
 5334 217a 4359424C 		.ascii	"CYBLE_EVT_PASSS_WRITE_CHAR\000"
 5334      455F4556 
 5334      545F5041 
 5334      5353535F 
 5334      57524954 
 5335              	.LASF351:
 5336 2195 4359424C 		.ascii	"CYBLE_EVT_CPSC_WRITE_CHAR_RESPONSE\000"
 5336      455F4556 
 5336      545F4350 
 5336      53435F57 
 5336      52495445 
 5337              	.LASF494:
 5338 21b8 4359424C 		.ascii	"CYBLE_EVT_PLXSC_WRITE_CHAR_RESPONSE\000"
 5338      455F4556 
 5338      545F504C 
 5338      5853435F 
 5338      57524954 
 5339              	.LASF571:
 5340 21dc 6576656E 		.ascii	"event\000"
 5340      7400
 5341              	.LASF35:
 5342 21e2 4359424C 		.ascii	"CYBLE_EVT_GAP_CONNECTION_UPDATE_COMPLETE\000"
 5342      455F4556 
 5342      545F4741 
ARM GAS  C:\Users\dmytro\AppData\Local\Temp\ccjppNo8.s 			page 135


 5342      505F434F 
 5342      4E4E4543 
 5343              	.LASF336:
 5344 220b 4359424C 		.ascii	"CYBLE_EVT_CGMSC_READ_CHAR_RESPONSE\000"
 5344      455F4556 
 5344      545F4347 
 5344      4D53435F 
 5344      52454144 
 5345              	.LASF559:
 5346 222e 4359424C 		.ascii	"CYBLE_STATE_INITIALIZING\000"
 5346      455F5354 
 5346      4154455F 
 5346      494E4954 
 5346      49414C49 
 5347              	.LASF364:
 5348 2247 4359424C 		.ascii	"CYBLE_EVT_CSCSC_WRITE_CHAR_RESPONSE\000"
 5348      455F4556 
 5348      545F4353 
 5348      4353435F 
 5348      57524954 
 5349              	.LASF79:
 5350 226b 4359424C 		.ascii	"CYBLE_EVT_L2CAP_CBFC_DISCONN_IND\000"
 5350      455F4556 
 5350      545F4C32 
 5350      4341505F 
 5350      43424643 
 5351              	.LASF360:
 5352 228c 4359424C 		.ascii	"CYBLE_EVT_CSCSS_CHAR_WRITE\000"
 5352      455F4556 
 5352      545F4353 
 5352      4353535F 
 5352      43484152 
 5353              	.LASF470:
 5354 22a7 4359424C 		.ascii	"CYBLE_EVT_OTSS_WRITE_DESCR\000"
 5354      455F4556 
 5354      545F4F54 
 5354      53535F57 
 5354      52495445 
 5355              	.LASF489:
 5356 22c2 4359424C 		.ascii	"CYBLE_EVT_PLXSS_INDICATION_DISABLED\000"
 5356      455F4556 
 5356      545F504C 
 5356      5853535F 
 5356      494E4449 
 5357              	.LASF603:
 5358 22e6 64657669 		.ascii	"deviceConnected\000"
 5358      6365436F 
 5358      6E6E6563 
 5358      74656400 
 5359              	.LASF506:
 5360 22f6 4359424C 		.ascii	"CYBLE_EVT_RSCSC_READ_CHAR_RESPONSE\000"
 5360      455F4556 
 5360      545F5253 
 5360      4353435F 
 5360      52454144 
 5361              	.LASF27:
 5362 2319 4359424C 		.ascii	"CYBLE_EVT_GAP_PASSKEY_ENTRY_REQUEST\000"
ARM GAS  C:\Users\dmytro\AppData\Local\Temp\ccjppNo8.s 			page 136


 5362      455F4556 
 5362      545F4741 
 5362      505F5041 
 5362      53534B45 
 5363              	.LASF416:
 5364 233d 4359424C 		.ascii	"CYBLE_EVT_HPSC_NOTIFICATION\000"
 5364      455F4556 
 5364      545F4850 
 5364      53435F4E 
 5364      4F544946 
 5365              	.LASF345:
 5366 2359 4359424C 		.ascii	"CYBLE_EVT_CPSS_BROADCAST_ENABLED\000"
 5366      455F4556 
 5366      545F4350 
 5366      53535F42 
 5366      524F4144 
 5367              	.LASF447:
 5368 237a 4359424C 		.ascii	"CYBLE_EVT_IPSC_WRITE_DESCR_RESPONSE\000"
 5368      455F4556 
 5368      545F4950 
 5368      53435F57 
 5368      52495445 
 5369              	.LASF564:
 5370 239e 4359424C 		.ascii	"CYBLE_STATE_DISCONNECTED\000"
 5370      455F5354 
 5370      4154455F 
 5370      44495343 
 5370      4F4E4E45 
 5371              	.LASF496:
 5372 23b7 4359424C 		.ascii	"CYBLE_EVT_PLXSC_WRITE_DESCR_RESPONSE\000"
 5372      455F4556 
 5372      545F504C 
 5372      5853435F 
 5372      57524954 
 5373              	.LASF413:
 5374 23dc 4359424C 		.ascii	"CYBLE_EVT_HPSS_NOTIFICATION_ENABLED\000"
 5374      455F4556 
 5374      545F4850 
 5374      53535F4E 
 5374      4F544946 
 5375              	.LASF435:
 5376 2400 4359424C 		.ascii	"CYBLE_EVT_HTSC_NOTIFICATION\000"
 5376      455F4556 
 5376      545F4854 
 5376      53435F4E 
 5376      4F544946 
 5377              	.LASF6:
 5378 241c 6C6F6E67 		.ascii	"long long int\000"
 5378      206C6F6E 
 5378      6720696E 
 5378      7400
 5379              	.LASF521:
 5380 242a 4359424C 		.ascii	"CYBLE_EVT_TPSC_READ_CHAR_RESPONSE\000"
 5380      455F4556 
 5380      545F5450 
 5380      53435F52 
 5380      4541445F 
ARM GAS  C:\Users\dmytro\AppData\Local\Temp\ccjppNo8.s 			page 137


 5381              	.LASF264:
 5382 244c 4359424C 		.ascii	"CYBLE_EVT_GATTC_CHAR_DUPLICATION\000"
 5382      455F4556 
 5382      545F4741 
 5382      5454435F 
 5382      43484152 
 5383              	.LASF392:
 5384 246d 4359424C 		.ascii	"CYBLE_EVT_GLSS_NOTIFICATION_ENABLED\000"
 5384      455F4556 
 5384      545F474C 
 5384      53535F4E 
 5384      4F544946 
 5385              	.LASF468:
 5386 2491 4359424C 		.ascii	"CYBLE_EVT_OTSS_INDICATION_CONFIRMED\000"
 5386      455F4556 
 5386      545F4F54 
 5386      53535F49 
 5386      4E444943 
 5387              	.LASF156:
 5388 24b5 61647650 		.ascii	"advParam\000"
 5388      6172616D 
 5388      00
 5389              	.LASF417:
 5390 24be 4359424C 		.ascii	"CYBLE_EVT_HPSC_READ_CHAR_RESPONSE\000"
 5390      455F4556 
 5390      545F4850 
 5390      53435F52 
 5390      4541445F 
 5391              	.LASF105:
 5392 24e0 4359424C 		.ascii	"CYBLE_ERROR_L2CAP_PSM_NOT_REGISTERED\000"
 5392      455F4552 
 5392      524F525F 
 5392      4C324341 
 5392      505F5053 
 5393              	.LASF95:
 5394 2505 4359424C 		.ascii	"CYBLE_ERROR_OOB_NOT_AVAILABLE\000"
 5394      455F4552 
 5394      524F525F 
 5394      4F4F425F 
 5394      4E4F545F 
 5395              	.LASF328:
 5396 2523 4359424C 		.ascii	"CYBLE_EVT_CGMSS_INDICATION_ENABLED\000"
 5396      455F4556 
 5396      545F4347 
 5396      4D53535F 
 5396      494E4449 
 5397              	.LASF14:
 5398 2546 646F7562 		.ascii	"double\000"
 5398      6C6500
 5399              	.LASF110:
 5400 254d 4359424C 		.ascii	"CYBLE_ERROR_DEVICE_ALREADY_EXISTS\000"
 5400      455F4552 
 5400      524F525F 
 5400      44455649 
 5400      43455F41 
 5401              	.LASF379:
 5402 256f 4359424C 		.ascii	"CYBLE_EVT_ESSS_INDICATION_DISABLED\000"
ARM GAS  C:\Users\dmytro\AppData\Local\Temp\ccjppNo8.s 			page 138


 5402      455F4556 
 5402      545F4553 
 5402      53535F49 
 5402      4E444943 
 5403              	.LASF85:
 5404 2592 4359424C 		.ascii	"CYBLE_EVT_PENDING_FLASH_WRITE\000"
 5404      455F4556 
 5404      545F5045 
 5404      4E44494E 
 5404      475F464C 
 5405              	.LASF207:
 5406 25b0 4359424C 		.ascii	"CYBLE_GATT_ERR_INSUFFICIENT_ENC_KEY_SIZE\000"
 5406      455F4741 
 5406      54545F45 
 5406      52525F49 
 5406      4E535546 
 5407              	.LASF538:
 5408 25d9 4359424C 		.ascii	"CYBLE_EVT_WPTSS_NOTIFICATION_ENABLED\000"
 5408      455F4556 
 5408      545F5750 
 5408      5453535F 
 5408      4E4F5449 
 5409              	.LASF584:
 5410 25fe 6F70436F 		.ascii	"opCode\000"
 5410      646500
 5411              	.LASF232:
 5412 2605 4359424C 		.ascii	"CYBLE_GATT_ERR_PROCEDURE_ALREADY_IN_PROGRESS\000"
 5412      455F4741 
 5412      54545F45 
 5412      52525F50 
 5412      524F4345 
 5413              	.LASF464:
 5414 2632 4359424C 		.ascii	"CYBLE_EVT_LNSC_WRITE_DESCR_RESPONSE\000"
 5414      455F4556 
 5414      545F4C4E 
 5414      53435F57 
 5414      52495445 
 5415              	.LASF144:
 5416 2656 64697265 		.ascii	"directAddrType\000"
 5416      63744164 
 5416      64725479 
 5416      706500
 5417              	.LASF42:
 5418 2665 4359424C 		.ascii	"CYBLE_EVT_GAP_ENHANCE_CONN_COMPLETE\000"
 5418      455F4556 
 5418      545F4741 
 5418      505F454E 
 5418      48414E43 
 5419              	.LASF451:
 5420 2689 4359424C 		.ascii	"CYBLE_EVT_LLSC_READ_CHAR_RESPONSE\000"
 5420      455F4556 
 5420      545F4C4C 
 5420      53435F52 
 5420      4541445F 
 5421              	.LASF359:
 5422 26ab 4359424C 		.ascii	"CYBLE_EVT_CSCSS_INDICATION_CONFIRMATION\000"
 5422      455F4556 
ARM GAS  C:\Users\dmytro\AppData\Local\Temp\ccjppNo8.s 			page 139


 5422      545F4353 
 5422      4353535F 
 5422      494E4449 
 5423              	.LASF107:
 5424 26d3 4359424C 		.ascii	"CYBLE_ERROR_L2CAP_CHANNEL_NOT_FOUND\000"
 5424      455F4552 
 5424      524F525F 
 5424      4C324341 
 5424      505F4348 
 5425              	.LASF98:
 5426 26f7 4359424C 		.ascii	"CYBLE_ERROR_REPEATED_ATTEMPTS\000"
 5426      455F4552 
 5426      524F525F 
 5426      52455045 
 5426      41544544 
 5427              	.LASF382:
 5428 2715 4359424C 		.ascii	"CYBLE_EVT_ESSS_DESCR_WRITE\000"
 5428      455F4556 
 5428      545F4553 
 5428      53535F44 
 5428      45534352 
 5429              	.LASF378:
 5430 2730 4359424C 		.ascii	"CYBLE_EVT_ESSS_INDICATION_ENABLED\000"
 5430      455F4556 
 5430      545F4553 
 5430      53535F49 
 5430      4E444943 
 5431              	.LASF13:
 5432 2752 666C6F61 		.ascii	"float\000"
 5432      7400
 5433              	.LASF515:
 5434 2758 4359424C 		.ascii	"CYBLE_EVT_SCPSC_NOTIFICATION\000"
 5434      455F4556 
 5434      545F5343 
 5434      5053435F 
 5434      4E4F5449 
 5435              	.LASF404:
 5436 2775 4359424C 		.ascii	"CYBLE_EVT_HIDSS_REPORT_MODE_ENTER\000"
 5436      455F4556 
 5436      545F4849 
 5436      4453535F 
 5436      5245504F 
 5437              	.LASF383:
 5438 2797 4359424C 		.ascii	"CYBLE_EVT_ESSC_NOTIFICATION\000"
 5438      455F4556 
 5438      545F4553 
 5438      53435F4E 
 5438      4F544946 
 5439              	.LASF111:
 5440 27b3 4359424C 		.ascii	"CYBLE_ERROR_FLASH_WRITE_NOT_PERMITED\000"
 5440      455F4552 
 5440      524F525F 
 5440      464C4153 
 5440      485F5752 
 5441              	.LASF402:
 5442 27d8 4359424C 		.ascii	"CYBLE_EVT_HIDSS_NOTIFICATION_DISABLED\000"
 5442      455F4556 
ARM GAS  C:\Users\dmytro\AppData\Local\Temp\ccjppNo8.s 			page 140


 5442      545F4849 
 5442      4453535F 
 5442      4E4F5449 
 5443              	.LASF72:
 5444 27fe 4359424C 		.ascii	"CYBLE_EVT_GATTS_READ_CHAR_VAL_ACCESS_REQ\000"
 5444      455F4556 
 5444      545F4741 
 5444      5454535F 
 5444      52454144 
 5445              	.LASF290:
 5446 2827 4359424C 		.ascii	"CYBLE_EVT_ANCSC_READ_DESCR_RESPONSE\000"
 5446      455F4556 
 5446      545F414E 
 5446      4353435F 
 5446      52454144 
 5447              	.LASF244:
 5448 284b 6F70636F 		.ascii	"opcode\000"
 5448      646500
 5449              	.LASF203:
 5450 2852 4359424C 		.ascii	"CYBLE_GATT_ERR_INSUFFICIENT_AUTHORIZATION\000"
 5450      455F4741 
 5450      54545F45 
 5450      52525F49 
 5450      4E535546 
 5451              	.LASF242:
 5452 287c 61747472 		.ascii	"attrHandle\000"
 5452      48616E64 
 5452      6C6500
 5453              	.LASF532:
 5454 2887 4359424C 		.ascii	"CYBLE_EVT_UDSC_NOTIFICATION\000"
 5454      455F4556 
 5454      545F5544 
 5454      53435F4E 
 5454      4F544946 
 5455              	.LASF546:
 5456 28a3 4359424C 		.ascii	"CYBLE_EVT_WPTSC_WRITE_CHAR_RESPONSE\000"
 5456      455F4556 
 5456      545F5750 
 5456      5453435F 
 5456      57524954 
 5457              	.LASF249:
 5458 28c7 4359424C 		.ascii	"CYBLE_GATTS_WRITE_REQ_PARAM_T\000"
 5458      455F4741 
 5458      5454535F 
 5458      57524954 
 5458      455F5245 
 5459              	.LASF8:
 5460 28e5 756E7369 		.ascii	"unsigned int\000"
 5460      676E6564 
 5460      20696E74 
 5460      00
 5461              	.LASF64:
 5462 28f2 4359424C 		.ascii	"CYBLE_EVT_GATTS_PREP_WRITE_REQ\000"
 5462      455F4556 
 5462      545F4741 
 5462      5454535F 
 5462      50524550 
ARM GAS  C:\Users\dmytro\AppData\Local\Temp\ccjppNo8.s 			page 141


 5463              	.LASF200:
 5464 2911 4359424C 		.ascii	"CYBLE_GATT_ERR_INSUFFICIENT_AUTHENTICATION\000"
 5464      455F4741 
 5464      54545F45 
 5464      52525F49 
 5464      4E535546 
 5465              	.LASF601:
 5466 293c 636C6965 		.ascii	"clientConnectToDevice\000"
 5466      6E74436F 
 5466      6E6E6563 
 5466      74546F44 
 5466      65766963 
 5467              	.LASF368:
 5468 2952 4359424C 		.ascii	"CYBLE_EVT_CTSS_NOTIFICATION_DISABLED\000"
 5468      455F4556 
 5468      545F4354 
 5468      53535F4E 
 5468      4F544946 
 5469              	.LASF315:
 5470 2977 4359424C 		.ascii	"CYBLE_EVT_BLSS_INDICATION_DISABLED\000"
 5470      455F4556 
 5470      545F424C 
 5470      53535F49 
 5470      4E444943 
 5471              	.LASF467:
 5472 299a 4359424C 		.ascii	"CYBLE_EVT_OTSS_INDICATION_DISABLED\000"
 5472      455F4556 
 5472      545F4F54 
 5472      53535F49 
 5472      4E444943 
 5473              	.LASF490:
 5474 29bd 4359424C 		.ascii	"CYBLE_EVT_PLXSS_INDICATION_CONFIRMED\000"
 5474      455F4556 
 5474      545F504C 
 5474      5853535F 
 5474      494E4449 
 5475              	.LASF604:
 5476 29e2 72657374 		.ascii	"restartScanning\000"
 5476      61727453 
 5476      63616E6E 
 5476      696E6700 
 5477              	.LASF513:
 5478 29f2 4359424C 		.ascii	"CYBLE_EVT_SCPSS_NOTIFICATION_DISABLED\000"
 5478      455F4556 
 5478      545F5343 
 5478      5053535F 
 5478      4E4F5449 
 5479              	.LASF380:
 5480 2a18 4359424C 		.ascii	"CYBLE_EVT_ESSS_INDICATION_CONFIRMATION\000"
 5480      455F4556 
 5480      545F4553 
 5480      53535F49 
 5480      4E444943 
 5481              	.LASF218:
 5482 2a3f 4359424C 		.ascii	"CYBLE_GATTS_ERR_PROCEDURE_ALREADY_IN_PROGRESS\000"
 5482      455F4741 
 5482      5454535F 
ARM GAS  C:\Users\dmytro\AppData\Local\Temp\ccjppNo8.s 			page 142


 5482      4552525F 
 5482      50524F43 
 5483              	.LASF283:
 5484 2a6d 4359424C 		.ascii	"CYBLE_EVT_AIOSC_WRITE_DESCR_RESPONSE\000"
 5484      455F4556 
 5484      545F4149 
 5484      4F53435F 
 5484      57524954 
 5485              	.LASF252:
 5486 2a92 4359424C 		.ascii	"CYBLE_AUTHENTICATION_REQUEST_REPLY\000"
 5486      455F4155 
 5486      5448454E 
 5486      54494341 
 5486      54494F4E 
 5487              	.LASF553:
 5488 2ab5 4359424C 		.ascii	"CYBLE_EVT_WSSC_INDICATION\000"
 5488      455F4556 
 5488      545F5753 
 5488      53435F49 
 5488      4E444943 
 5489              	.LASF103:
 5490 2acf 4359424C 		.ascii	"CYBLE_ERROR_L2CAP_PSM_WRONG_ENCODING\000"
 5490      455F4552 
 5490      524F525F 
 5490      4C324341 
 5490      505F5053 
 5491              	.LASF187:
 5492 2af4 4359424C 		.ascii	"CYBLE_GATT_PREPARE_WRITE_RSP\000"
 5492      455F4741 
 5492      54545F50 
 5492      52455041 
 5492      52455F57 
 5493              	.LASF318:
 5494 2b11 4359424C 		.ascii	"CYBLE_EVT_BLSS_NOTIFICATION_DISABLED\000"
 5494      455F4556 
 5494      545F424C 
 5494      53535F4E 
 5494      4F544946 
 5495              	.LASF205:
 5496 2b36 4359424C 		.ascii	"CYBLE_GATT_ERR_ATTRIBUTE_NOT_FOUND\000"
 5496      455F4741 
 5496      54545F45 
 5496      52525F41 
 5496      54545249 
 5497              	.LASF438:
 5498 2b59 4359424C 		.ascii	"CYBLE_EVT_HTSC_WRITE_CHAR_RESPONSE\000"
 5498      455F4556 
 5498      545F4854 
 5498      53435F57 
 5498      52495445 
 5499              	.LASF551:
 5500 2b7c 4359424C 		.ascii	"CYBLE_EVT_WSSS_INDICATION_DISABLED\000"
 5500      455F4556 
 5500      545F5753 
 5500      53535F49 
 5500      4E444943 
 5501              	.LASF204:
ARM GAS  C:\Users\dmytro\AppData\Local\Temp\ccjppNo8.s 			page 143


 5502 2b9f 4359424C 		.ascii	"CYBLE_GATT_ERR_PREPARE_WRITE_QUEUE_FULL\000"
 5502      455F4741 
 5502      54545F45 
 5502      52525F50 
 5502      52455041 
 5503              	.LASF420:
 5504 2bc7 4359424C 		.ascii	"CYBLE_EVT_HPSC_WRITE_CHAR_RESPONSE\000"
 5504      455F4556 
 5504      545F4850 
 5504      53435F57 
 5504      52495445 
 5505              	.LASF89:
 5506 2bea 4359424C 		.ascii	"CYBLE_EVT_MAX\000"
 5506      455F4556 
 5506      545F4D41 
 5506      5800
 5507              	.LASF36:
 5508 2bf8 4359424C 		.ascii	"CYBLE_EVT_GAPC_SCAN_START_STOP\000"
 5508      455F4556 
 5508      545F4741 
 5508      50435F53 
 5508      43414E5F 
 5509              	.LASF293:
 5510 2c17 4359424C 		.ascii	"CYBLE_EVT_ANSS_NOTIFICATION_ENABLED\000"
 5510      455F4556 
 5510      545F414E 
 5510      53535F4E 
 5510      4F544946 
 5511              	.LASF133:
 5512 2c3b 4359424C 		.ascii	"CYBLE_GAPP_ADV_T\000"
 5512      455F4741 
 5512      50505F41 
 5512      44565F54 
 5512      00
 5513              	.LASF61:
 5514 2c4c 4359424C 		.ascii	"CYBLE_EVT_GATTS_WRITE_REQ\000"
 5514      455F4556 
 5514      545F4741 
 5514      5454535F 
 5514      57524954 
 5515              	.LASF149:
 5516 2c66 61647644 		.ascii	"advData\000"
 5516      61746100 
 5517              	.LASF534:
 5518 2c6e 4359424C 		.ascii	"CYBLE_EVT_UDSC_WRITE_CHAR_RESPONSE\000"
 5518      455F4556 
 5518      545F5544 
 5518      53435F57 
 5518      52495445 
 5519              	.LASF545:
 5520 2c91 4359424C 		.ascii	"CYBLE_EVT_WPTSC_INDICATION\000"
 5520      455F4556 
 5520      545F5750 
 5520      5453435F 
 5520      494E4449 
 5521              	.LASF28:
 5522 2cac 4359424C 		.ascii	"CYBLE_EVT_GAP_PASSKEY_DISPLAY_REQUEST\000"
ARM GAS  C:\Users\dmytro\AppData\Local\Temp\ccjppNo8.s 			page 144


 5522      455F4556 
 5522      545F4741 
 5522      505F5041 
 5522      53534B45 
 5523              	.LASF120:
 5524 2cd2 4359424C 		.ascii	"CYBLE_ERROR_IND_DISABLED\000"
 5524      455F4552 
 5524      524F525F 
 5524      494E445F 
 5524      44495341 
 5525              	.LASF119:
 5526 2ceb 4359424C 		.ascii	"CYBLE_ERROR_NTF_DISABLED\000"
 5526      455F4552 
 5526      524F525F 
 5526      4E54465F 
 5526      44495341 
 5527              	.LASF179:
 5528 2d04 4359424C 		.ascii	"CYBLE_GATT_READ_MULTIPLE_REQ\000"
 5528      455F4741 
 5528      54545F52 
 5528      4541445F 
 5528      4D554C54 
 5529              	.LASF58:
 5530 2d21 4359424C 		.ascii	"CYBLE_EVT_GATTC_READ_RSP\000"
 5530      455F4556 
 5530      545F4741 
 5530      5454435F 
 5530      52454144 
 5531              	.LASF129:
 5532 2d3a 4359424C 		.ascii	"CYBLE_GAPP_CONNECTABLE_HIGH_DC_DIRECTED_ADV\000"
 5532      455F4741 
 5532      50505F43 
 5532      4F4E4E45 
 5532      43544142 
 5533              	.LASF202:
 5534 2d66 4359424C 		.ascii	"CYBLE_GATT_ERR_INVALID_OFFSET\000"
 5534      455F4741 
 5534      54545F45 
 5534      52525F49 
 5534      4E56414C 
 5535              	.LASF173:
 5536 2d84 4359424C 		.ascii	"CYBLE_GATT_READ_BY_TYPE_REQ\000"
 5536      455F4741 
 5536      54545F52 
 5536      4541445F 
 5536      42595F54 
 5537              	.LASF78:
 5538 2da0 4359424C 		.ascii	"CYBLE_EVT_L2CAP_CBFC_CONN_CNF\000"
 5538      455F4556 
 5538      545F4C32 
 5538      4341505F 
 5538      43424643 
 5539              	.LASF326:
 5540 2dbe 4359424C 		.ascii	"CYBLE_EVT_BMSC_WRITE_CHAR_RESPONSE\000"
 5540      455F4556 
 5540      545F424D 
 5540      53435F57 
ARM GAS  C:\Users\dmytro\AppData\Local\Temp\ccjppNo8.s 			page 145


 5540      52495445 
 5541              	.LASF439:
 5542 2de1 4359424C 		.ascii	"CYBLE_EVT_HTSC_READ_DESCR_RESPONSE\000"
 5542      455F4556 
 5542      545F4854 
 5542      53435F52 
 5542      4541445F 
 5543              	.LASF557:
 5544 2e04 4359424C 		.ascii	"CYBLE_DEBUG_EVT_BLESS_INT\000"
 5544      455F4445 
 5544      4255475F 
 5544      4556545F 
 5544      424C4553 
 5545              	.LASF233:
 5546 2e1e 4359424C 		.ascii	"CYBLE_GATT_ERR_OUT_OF_RANGE\000"
 5546      455F4741 
 5546      54545F45 
 5546      52525F4F 
 5546      55545F4F 
 5547              	.LASF394:
 5548 2e3a 4359424C 		.ascii	"CYBLE_EVT_GLSS_WRITE_CHAR\000"
 5548      455F4556 
 5548      545F474C 
 5548      53535F57 
 5548      52495445 
 5549              	.LASF88:
 5550 2e54 4359424C 		.ascii	"CYBLE_EVT_FLASH_CORRUPT\000"
 5550      455F4556 
 5550      545F464C 
 5550      4153485F 
 5550      434F5252 
 5551              	.LASF16:
 5552 2e6c 6C6F6E67 		.ascii	"long double\000"
 5552      20646F75 
 5552      626C6500 
 5553              	.LASF171:
 5554 2e78 4359424C 		.ascii	"CYBLE_GATT_FIND_BY_TYPE_VALUE_REQ\000"
 5554      455F4741 
 5554      54545F46 
 5554      494E445F 
 5554      42595F54 
 5555              	.LASF424:
 5556 2e9a 4359424C 		.ascii	"CYBLE_EVT_HRSC_NOTIFICATION\000"
 5556      455F4556 
 5556      545F4852 
 5556      53435F4E 
 5556      4F544946 
 5557              	.LASF24:
 5558 2eb6 4359424C 		.ascii	"CYBLE_EVT_MEMORY_REQUEST\000"
 5558      455F4556 
 5558      545F4D45 
 5558      4D4F5259 
 5558      5F524551 
 5559              	.LASF280:
 5560 2ecf 4359424C 		.ascii	"CYBLE_EVT_AIOSC_READ_CHAR_RESPONSE\000"
 5560      455F4556 
 5560      545F4149 
ARM GAS  C:\Users\dmytro\AppData\Local\Temp\ccjppNo8.s 			page 146


 5560      4F53435F 
 5560      52454144 
 5561              	.LASF502:
 5562 2ef2 4359424C 		.ascii	"CYBLE_EVT_RSCSS_INDICATION_CONFIRMATION\000"
 5562      455F4556 
 5562      545F5253 
 5562      4353535F 
 5562      494E4449 
 5563              	.LASF573:
 5564 2f1a 77726974 		.ascii	"writeReqData\000"
 5564      65526571 
 5564      44617461 
 5564      00
 5565              	.LASF411:
 5566 2f27 4359424C 		.ascii	"CYBLE_EVT_HIDSC_READ_DESCR_RESPONSE\000"
 5566      455F4556 
 5566      545F4849 
 5566      4453435F 
 5566      52454144 
 5567              	.LASF425:
 5568 2f4b 4359424C 		.ascii	"CYBLE_EVT_HRSC_READ_CHAR_RESPONSE\000"
 5568      455F4556 
 5568      545F4852 
 5568      53435F52 
 5568      4541445F 
 5569              	.LASF303:
 5570 2f6d 4359424C 		.ascii	"CYBLE_EVT_BASC_NOTIFICATION\000"
 5570      455F4556 
 5570      545F4241 
 5570      53435F4E 
 5570      4F544946 
 5571              	.LASF34:
 5572 2f89 4359424C 		.ascii	"CYBLE_EVT_GAP_ENCRYPT_CHANGE\000"
 5572      455F4556 
 5572      545F4741 
 5572      505F454E 
 5572      43525950 
 5573              	.LASF526:
 5574 2fa6 4359424C 		.ascii	"CYBLE_EVT_UDSS_INDICATION_CONFIRMED\000"
 5574      455F4556 
 5574      545F5544 
 5574      53535F49 
 5574      4E444943 
 5575              	.LASF465:
 5576 2fca 4359424C 		.ascii	"CYBLE_EVT_NDCSC_READ_CHAR_RESPONSE\000"
 5576      455F4556 
 5576      545F4E44 
 5576      4353435F 
 5576      52454144 
 5577              	.LASF265:
 5578 2fed 4359424C 		.ascii	"CYBLE_EVT_GATTC_DESCR_DUPLICATION\000"
 5578      455F4556 
 5578      545F4741 
 5578      5454435F 
 5578      44455343 
 5579              	.LASF52:
 5580 300f 4359424C 		.ascii	"CYBLE_EVT_GATTS_XCNHG_MTU_REQ\000"
ARM GAS  C:\Users\dmytro\AppData\Local\Temp\ccjppNo8.s 			page 147


 5580      455F4556 
 5580      545F4741 
 5580      5454535F 
 5580      58434E48 
 5581              	.LASF579:
 5582 302d 5247425F 		.ascii	"RGB_Collection\000"
 5582      436F6C6C 
 5582      65637469 
 5582      6F6E00
 5583              	.LASF414:
 5584 303c 4359424C 		.ascii	"CYBLE_EVT_HPSS_NOTIFICATION_DISABLED\000"
 5584      455F4556 
 5584      545F4850 
 5584      53535F4E 
 5584      4F544946 
 5585              	.LASF527:
 5586 3061 4359424C 		.ascii	"CYBLE_EVT_UDSS_NOTIFICATION_ENABLED\000"
 5586      455F4556 
 5586      545F5544 
 5586      53535F4E 
 5586      4F544946 
 5587              	.LASF170:
 5588 3085 4359424C 		.ascii	"CYBLE_GATT_FIND_INFO_RSP\000"
 5588      455F4741 
 5588      54545F46 
 5588      494E445F 
 5588      494E464F 
 5589              	.LASF455:
 5590 309e 4359424C 		.ascii	"CYBLE_EVT_LNSS_INDICATION_CONFIRMED\000"
 5590      455F4556 
 5590      545F4C4E 
 5590      53535F49 
 5590      4E444943 
 5591              	.LASF48:
 5592 30c2 4359424C 		.ascii	"CYBLE_EVT_GAP_SMP_LOC_P256_KEYS_GEN_AND_SET_COMPLET"
 5592      455F4556 
 5592      545F4741 
 5592      505F534D 
 5592      505F4C4F 
 5593 30f5 4500     		.ascii	"E\000"
 5594              	.LASF300:
 5595 30f7 4359424C 		.ascii	"CYBLE_EVT_ANSC_WRITE_DESCR_RESPONSE\000"
 5595      455F4556 
 5595      545F414E 
 5595      53435F57 
 5595      52495445 
 5596              	.LASF461:
 5597 311b 4359424C 		.ascii	"CYBLE_EVT_LNSC_READ_CHAR_RESPONSE\000"
 5597      455F4556 
 5597      545F4C4E 
 5597      53435F52 
 5597      4541445F 
 5598              	.LASF391:
 5599 313d 4359424C 		.ascii	"CYBLE_EVT_GLSS_INDICATION_CONFIRMED\000"
 5599      455F4556 
 5599      545F474C 
 5599      53535F49 
ARM GAS  C:\Users\dmytro\AppData\Local\Temp\ccjppNo8.s 			page 148


 5599      4E444943 
 5600              	.LASF565:
 5601 3161 4359424C 		.ascii	"CYBLE_STATE_T\000"
 5601      455F5354 
 5601      4154455F 
 5601      5400
 5602              	.LASF256:
 5603 316f 4359424C 		.ascii	"CYBLE_EVT_GATTS_INDICATION_ENABLED\000"
 5603      455F4556 
 5603      545F4741 
 5603      5454535F 
 5603      494E4449 
 5604              	.LASF7:
 5605 3192 6C6F6E67 		.ascii	"long long unsigned int\000"
 5605      206C6F6E 
 5605      6720756E 
 5605      7369676E 
 5605      65642069 
 5606              	.LASF196:
 5607 31a9 4359424C 		.ascii	"CYBLE_GATT_ERR_INVALID_HANDLE\000"
 5607      455F4741 
 5607      54545F45 
 5607      52525F49 
 5607      4E56414C 
 5608              	.LASF20:
 5609 31c7 4359424C 		.ascii	"CYBLE_EVT_TIMEOUT\000"
 5609      455F4556 
 5609      545F5449 
 5609      4D454F55 
 5609      5400
 5610              	.LASF372:
 5611 31d9 4359424C 		.ascii	"CYBLE_EVT_CTSC_READ_DESCR_RESPONSE\000"
 5611      455F4556 
 5611      545F4354 
 5611      53435F52 
 5611      4541445F 
 5612              	.LASF576:
 5613 31fc 77726974 		.ascii	"writeCmdData\000"
 5613      65436D64 
 5613      44617461 
 5613      00
 5614              	.LASF194:
 5615 3209 4359424C 		.ascii	"CYBLE_GATT_UNKNOWN_PDU_IND\000"
 5615      455F4741 
 5615      54545F55 
 5615      4E4B4E4F 
 5615      574E5F50 
 5616              	.LASF122:
 5617 3224 4359424C 		.ascii	"CYBLE_ERROR_INVALID_STATE\000"
 5617      455F4552 
 5617      524F525F 
 5617      494E5641 
 5617      4C49445F 
 5618              	.LASF235:
 5619 323e 4359424C 		.ascii	"CYBLE_GATT_DB_ATTR_HANDLE_T\000"
 5619      455F4741 
 5619      54545F44 
ARM GAS  C:\Users\dmytro\AppData\Local\Temp\ccjppNo8.s 			page 149


 5619      425F4154 
 5619      54525F48 
 5620              	.LASF273:
 5621 325a 4359424C 		.ascii	"CYBLE_EVT_AIOSS_INDICATION_ENABLED\000"
 5621      455F4556 
 5621      545F4149 
 5621      4F53535F 
 5621      494E4449 
 5622              	.LASF81:
 5623 327d 4359424C 		.ascii	"CYBLE_EVT_L2CAP_CBFC_DATA_READ\000"
 5623      455F4556 
 5623      545F4C32 
 5623      4341505F 
 5623      43424643 
 5624              	.LASF195:
 5625 329c 4359424C 		.ascii	"CYBLE_GATT_ERR_NONE\000"
 5625      455F4741 
 5625      54545F45 
 5625      52525F4E 
 5625      4F4E4500 
 5626              	.LASF241:
 5627 32b0 76616C75 		.ascii	"value\000"
 5627      6500
 5628              	.LASF348:
 5629 32b6 4359424C 		.ascii	"CYBLE_EVT_CPSC_NOTIFICATION\000"
 5629      455F4556 
 5629      545F4350 
 5629      53435F4E 
 5629      4F544946 
 5630              	.LASF598:
 5631 32d2 706F7465 		.ascii	"potential_node_bdAddrType\000"
 5631      6E746961 
 5631      6C5F6E6F 
 5631      64655F62 
 5631      64416464 
 5632              	.LASF323:
 5633 32ec 4359424C 		.ascii	"CYBLE_EVT_BLSC_WRITE_DESCR_RESPONSE\000"
 5633      455F4556 
 5633      545F424C 
 5633      53435F57 
 5633      52495445 
 5634              	.LASF460:
 5635 3310 4359424C 		.ascii	"CYBLE_EVT_LNSC_NOTIFICATION\000"
 5635      455F4556 
 5635      545F4C4E 
 5635      53435F4E 
 5635      4F544946 
 5636              	.LASF578:
 5637 332c 77726974 		.ascii	"writeRGBdata\000"
 5637      65524742 
 5637      64617461 
 5637      00
 5638              	.LASF569:
 5639 3339 4359424C 		.ascii	"CYBLE_SRVI_CUSTOMS_END\000"
 5639      455F5352 
 5639      56495F43 
 5639      5553544F 
ARM GAS  C:\Users\dmytro\AppData\Local\Temp\ccjppNo8.s 			page 150


 5639      4D535F45 
 5640              	.LASF370:
 5641 3350 4359424C 		.ascii	"CYBLE_EVT_CTSC_NOTIFICATION\000"
 5641      455F4556 
 5641      545F4354 
 5641      53435F4E 
 5641      4F544946 
 5642              	.LASF115:
 5643 336c 4359424C 		.ascii	"CYBLE_ERROR_FLASH_WRITE\000"
 5643      455F4552 
 5643      524F525F 
 5643      464C4153 
 5643      485F5752 
 5644              	.LASF390:
 5645 3384 4359424C 		.ascii	"CYBLE_EVT_GLSS_INDICATION_DISABLED\000"
 5645      455F4556 
 5645      545F474C 
 5645      53535F49 
 5645      4E444943 
 5646              	.LASF217:
 5647 33a7 4359424C 		.ascii	"CYBLE_GATT_ERR_HTS_OUT_OF_RANGE\000"
 5647      455F4741 
 5647      54545F45 
 5647      52525F48 
 5647      54535F4F 
 5648              	.LASF135:
 5649 33c7 4359424C 		.ascii	"CYBLE_GAPC_CONN_DIRECTED_ADV\000"
 5649      455F4741 
 5649      50435F43 
 5649      4F4E4E5F 
 5649      44495245 
 5650              	.LASF276:
 5651 33e4 4359424C 		.ascii	"CYBLE_EVT_AIOSS_CHAR_WRITE\000"
 5651      455F4556 
 5651      545F4149 
 5651      4F53535F 
 5651      43484152 
 5652              	.LASF263:
 5653 33ff 4359424C 		.ascii	"CYBLE_EVT_GATTC_SRVC_DUPLICATION\000"
 5653      455F4556 
 5653      545F4741 
 5653      5454435F 
 5653      53525643 
 5654              	.LASF453:
 5655 3420 4359424C 		.ascii	"CYBLE_EVT_LNSS_INDICATION_ENABLED\000"
 5655      455F4556 
 5655      545F4C4E 
 5655      53535F49 
 5655      4E444943 
 5656              	.LASF127:
 5657 3442 4359424C 		.ascii	"CYBLE_GAP_BD_ADDR_T\000"
 5657      455F4741 
 5657      505F4244 
 5657      5F414444 
 5657      525F5400 
 5658              	.LASF426:
 5659 3456 4359424C 		.ascii	"CYBLE_EVT_HRSC_WRITE_CHAR_RESPONSE\000"
ARM GAS  C:\Users\dmytro\AppData\Local\Temp\ccjppNo8.s 			page 151


 5659      455F4556 
 5659      545F4852 
 5659      53435F57 
 5659      52495445 
 5660              	.LASF177:
 5661 3479 4359424C 		.ascii	"CYBLE_GATT_READ_BLOB_REQ\000"
 5661      455F4741 
 5661      54545F52 
 5661      4541445F 
 5661      424C4F42 
 5662              	.LASF575:
 5663 3492 7363616E 		.ascii	"scan_report\000"
 5663      5F726570 
 5663      6F727400 
 5664              	.LASF286:
 5665 349e 4359424C 		.ascii	"CYBLE_EVT_ANCSS_NOTIFICATION_DISABLED\000"
 5665      455F4556 
 5665      545F414E 
 5665      4353535F 
 5665      4E4F5449 
 5666              	.LASF247:
 5667 34c4 636F6E6E 		.ascii	"connHandle\000"
 5667      48616E64 
 5667      6C6500
 5668              	.LASF302:
 5669 34cf 4359424C 		.ascii	"CYBLE_EVT_BASS_NOTIFICATION_DISABLED\000"
 5669      455F4556 
 5669      545F4241 
 5669      53535F4E 
 5669      4F544946 
 5670              	.LASF150:
 5671 34f4 61647644 		.ascii	"advDataLen\000"
 5671      6174614C 
 5671      656E00
 5672              	.LASF412:
 5673 34ff 4359424C 		.ascii	"CYBLE_EVT_HIDSC_WRITE_DESCR_RESPONSE\000"
 5673      455F4556 
 5673      545F4849 
 5673      4453435F 
 5673      57524954 
 5674              	.LASF340:
 5675 3524 4359424C 		.ascii	"CYBLE_EVT_CPSS_NOTIFICATION_ENABLED\000"
 5675      455F4556 
 5675      545F4350 
 5675      53535F4E 
 5675      4F544946 
 5676              	.LASF602:
 5677 3548 626C655F 		.ascii	"ble_gap_state\000"
 5677      6761705F 
 5677      73746174 
 5677      6500
 5678              	.LASF585:
 5679 3556 6572725F 		.ascii	"err_param\000"
 5679      70617261 
 5679      6D00
 5680              	.LASF522:
 5681 3560 4359424C 		.ascii	"CYBLE_EVT_TPSC_READ_DESCR_RESPONSE\000"
ARM GAS  C:\Users\dmytro\AppData\Local\Temp\ccjppNo8.s 			page 152


 5681      455F4556 
 5681      545F5450 
 5681      53435F52 
 5681      4541445F 
 5682              	.LASF158:
 5683 3583 4359424C 		.ascii	"CYBLE_GAPP_DISC_MODE_INFO_T\000"
 5683      455F4741 
 5683      50505F44 
 5683      4953435F 
 5683      4D4F4445 
 5684              	.LASF566:
 5685 359f 4359424C 		.ascii	"CYBLE_SRVI_GAP\000"
 5685      455F5352 
 5685      56495F47 
 5685      415000
 5686              	.LASF537:
 5687 35ae 4359424C 		.ascii	"CYBLE_EVT_UDSC_ERROR_RESPONSE\000"
 5687      455F4556 
 5687      545F5544 
 5687      53435F45 
 5687      52524F52 
 5688              	.LASF56:
 5689 35cc 4359424C 		.ascii	"CYBLE_EVT_GATTC_FIND_INFO_RSP\000"
 5689      455F4556 
 5689      545F4741 
 5689      5454435F 
 5689      46494E44 
 5690              	.LASF55:
 5691 35ea 4359424C 		.ascii	"CYBLE_EVT_GATTC_READ_BY_TYPE_RSP\000"
 5691      455F4556 
 5691      545F4741 
 5691      5454435F 
 5691      52454144 
 5692              	.LASF479:
 5693 360b 4359424C 		.ascii	"CYBLE_EVT_PASSS_NOTIFICATION_DISABLED\000"
 5693      455F4556 
 5693      545F5041 
 5693      5353535F 
 5693      4E4F5449 
 5694              	.LASF338:
 5695 3631 4359424C 		.ascii	"CYBLE_EVT_CGMSC_READ_DESCR_RESPONSE\000"
 5695      455F4556 
 5695      545F4347 
 5695      4D53435F 
 5695      52454144 
 5696              	.LASF409:
 5697 3655 4359424C 		.ascii	"CYBLE_EVT_HIDSC_READ_CHAR_RESPONSE\000"
 5697      455F4556 
 5697      545F4849 
 5697      4453435F 
 5697      52454144 
 5698              	.LASF222:
 5699 3678 4359424C 		.ascii	"CYBLE_GATTS_ERR_OPERATION_FAILED\000"
 5699      455F4741 
 5699      5454535F 
 5699      4552525F 
 5699      4F504552 
ARM GAS  C:\Users\dmytro\AppData\Local\Temp\ccjppNo8.s 			page 153


 5700              	.LASF577:
 5701 3699 61706952 		.ascii	"apiResult\000"
 5701      6573756C 
 5701      7400
 5702              	.LASF589:
 5703 36a3 6379426C 		.ascii	"cyBle_state\000"
 5703      655F7374 
 5703      61746500 
 5704              	.LASF519:
 5705 36af 4359424C 		.ascii	"CYBLE_EVT_TPSS_NOTIFICATION_DISABLED\000"
 5705      455F4556 
 5705      545F5450 
 5705      53535F4E 
 5705      4F544946 
 5706              	.LASF516:
 5707 36d4 4359424C 		.ascii	"CYBLE_EVT_SCPSC_READ_DESCR_RESPONSE\000"
 5707      455F4556 
 5707      545F5343 
 5707      5053435F 
 5707      52454144 
 5708              	.LASF428:
 5709 36f8 4359424C 		.ascii	"CYBLE_EVT_HRSC_WRITE_DESCR_RESPONSE\000"
 5709      455F4556 
 5709      545F4852 
 5709      53435F57 
 5709      52495445 
 5710              	.LASF116:
 5711 371c 4359424C 		.ascii	"CYBLE_ERROR_LL_SAME_TRANSACTION_COLLISION\000"
 5711      455F4552 
 5711      524F525F 
 5711      4C4C5F53 
 5711      414D455F 
 5712              	.LASF458:
 5713 3746 4359424C 		.ascii	"CYBLE_EVT_LNSS_WRITE_CHAR\000"
 5713      455F4556 
 5713      545F4C4E 
 5713      53535F57 
 5713      52495445 
 5714              	.LASF381:
 5715 3760 4359424C 		.ascii	"CYBLE_EVT_ESSS_CHAR_WRITE\000"
 5715      455F4556 
 5715      545F4553 
 5715      53535F43 
 5715      4841525F 
 5716              	.LASF62:
 5717 377a 4359424C 		.ascii	"CYBLE_EVT_GATTC_WRITE_RSP\000"
 5717      455F4556 
 5717      545F4741 
 5717      5454435F 
 5717      57524954 
 5718              	.LASF376:
 5719 3794 4359424C 		.ascii	"CYBLE_EVT_ESSS_NOTIFICATION_ENABLED\000"
 5719      455F4556 
 5719      545F4553 
 5719      53535F4E 
 5719      4F544946 
 5720              	.LASF282:
ARM GAS  C:\Users\dmytro\AppData\Local\Temp\ccjppNo8.s 			page 154


 5721 37b8 4359424C 		.ascii	"CYBLE_EVT_AIOSC_READ_DESCR_RESPONSE\000"
 5721      455F4556 
 5721      545F4149 
 5721      4F53435F 
 5721      52454144 
 5722              	.LASF397:
 5723 37dc 4359424C 		.ascii	"CYBLE_EVT_GLSC_READ_CHAR_RESPONSE\000"
 5723      455F4556 
 5723      545F474C 
 5723      53435F52 
 5723      4541445F 
 5724              	.LASF504:
 5725 37fe 4359424C 		.ascii	"CYBLE_EVT_RSCSC_NOTIFICATION\000"
 5725      455F4556 
 5725      545F5253 
 5725      4353435F 
 5725      4E4F5449 
 5726              	.LASF31:
 5727 381b 4359424C 		.ascii	"CYBLE_EVT_GAPP_ADVERTISEMENT_START_STOP\000"
 5727      455F4556 
 5727      545F4741 
 5727      50505F41 
 5727      44564552 
 5728              	.LASF154:
 5729 3843 4359424C 		.ascii	"CYBLE_GAPP_SCAN_RSP_DATA_T\000"
 5729      455F4741 
 5729      50505F53 
 5729      43414E5F 
 5729      5253505F 
 5730              	.LASF548:
 5731 385e 4359424C 		.ascii	"CYBLE_EVT_WPTSC_READ_DESCR_RESPONSE\000"
 5731      455F4556 
 5731      545F5750 
 5731      5453435F 
 5731      52454144 
 5732              	.LASF288:
 5733 3882 4359424C 		.ascii	"CYBLE_EVT_ANCSC_NOTIFICATION\000"
 5733      455F4556 
 5733      545F414E 
 5733      4353435F 
 5733      4E4F5449 
 5734              	.LASF497:
 5735 389f 4359424C 		.ascii	"CYBLE_EVT_PLXSC_TIMEOUT\000"
 5735      455F4556 
 5735      545F504C 
 5735      5853435F 
 5735      54494D45 
 5736              	.LASF337:
 5737 38b7 4359424C 		.ascii	"CYBLE_EVT_CGMSC_WRITE_CHAR_RESPONSE\000"
 5737      455F4556 
 5737      545F4347 
 5737      4D53435F 
 5737      57524954 
 5738              	.LASF9:
 5739 38db 75696E74 		.ascii	"uint8\000"
 5739      3800
 5740              	.LASF437:
ARM GAS  C:\Users\dmytro\AppData\Local\Temp\ccjppNo8.s 			page 155


 5741 38e1 4359424C 		.ascii	"CYBLE_EVT_HTSC_READ_CHAR_RESPONSE\000"
 5741      455F4556 
 5741      545F4854 
 5741      53435F52 
 5741      4541445F 
 5742              	.LASF39:
 5743 3903 4359424C 		.ascii	"CYBLE_EVT_GAP_KEYPRESS_NOTIFICATION\000"
 5743      455F4556 
 5743      545F4741 
 5743      505F4B45 
 5743      59505245 
 5744              	.LASF484:
 5745 3927 4359424C 		.ascii	"CYBLE_EVT_PASSC_WRITE_DESCR_RESPONSE\000"
 5745      455F4556 
 5745      545F5041 
 5745      5353435F 
 5745      57524954 
 5746              	.LASF183:
 5747 394c 4359424C 		.ascii	"CYBLE_GATT_WRITE_REQ\000"
 5747      455F4741 
 5747      54545F57 
 5747      52495445 
 5747      5F524551 
 5748              	.LASF2:
 5749 3961 73686F72 		.ascii	"short int\000"
 5749      7420696E 
 5749      7400
 5750              	.LASF248:
 5751 396b 68616E64 		.ascii	"handleValPair\000"
 5751      6C655661 
 5751      6C506169 
 5751      7200
 5752              	.LASF324:
 5753 3979 4359424C 		.ascii	"CYBLE_EVT_BMSS_WRITE_CHAR\000"
 5753      455F4556 
 5753      545F424D 
 5753      53535F57 
 5753      52495445 
 5754              	.LASF257:
 5755 3993 4359424C 		.ascii	"CYBLE_EVT_GATTS_INDICATION_DISABLED\000"
 5755      455F4556 
 5755      545F4741 
 5755      5454535F 
 5755      494E4449 
 5756              	.LASF136:
 5757 39b7 4359424C 		.ascii	"CYBLE_GAPC_SCAN_UNDIRECTED_ADV\000"
 5757      455F4741 
 5757      50435F53 
 5757      43414E5F 
 5757      554E4449 
 5758              	.LASF281:
 5759 39d6 4359424C 		.ascii	"CYBLE_EVT_AIOSC_WRITE_CHAR_RESPONSE\000"
 5759      455F4556 
 5759      545F4149 
 5759      4F53435F 
 5759      57524954 
 5760              	.LASF153:
ARM GAS  C:\Users\dmytro\AppData\Local\Temp\ccjppNo8.s 			page 156


 5761 39fa 7363616E 		.ascii	"scanRspDataLen\000"
 5761      52737044 
 5761      6174614C 
 5761      656E00
 5762              	.LASF574:
 5763 3a09 77726974 		.ascii	"writeADVcounterdata\000"
 5763      65414456 
 5763      636F756E 
 5763      74657264 
 5763      61746100 
 5764              	.LASF113:
 5765 3a1d 4359424C 		.ascii	"CYBLE_ERROR_HARDWARE_FAILURE\000"
 5765      455F4552 
 5765      524F525F 
 5765      48415244 
 5765      57415245 
 5766              	.LASF216:
 5767 3a3a 4359424C 		.ascii	"CYBLE_GATT_ERR_CPS_INAPPROPRIATE_CONNECTION_PARAMET"
 5767      455F4741 
 5767      54545F45 
 5767      52525F43 
 5767      50535F49 
 5768 3a6d 45525300 		.ascii	"ERS\000"
 5769              	.LASF335:
 5770 3a71 4359424C 		.ascii	"CYBLE_EVT_CGMSC_NOTIFICATION\000"
 5770      455F4556 
 5770      545F4347 
 5770      4D53435F 
 5770      4E4F5449 
 5771              	.LASF201:
 5772 3a8e 4359424C 		.ascii	"CYBLE_GATT_ERR_REQUEST_NOT_SUPPORTED\000"
 5772      455F4741 
 5772      54545F45 
 5772      52525F52 
 5772      45515545 
 5773              	.LASF49:
 5774 3ab3 4359424C 		.ascii	"CYBLE_EVT_GATTC_ERROR_RSP\000"
 5774      455F4556 
 5774      545F4741 
 5774      5454435F 
 5774      4552524F 
 5775              	.LASF600:
 5776 3acd 70657269 		.ascii	"peripAddr\000"
 5776      70416464 
 5776      7200
 5777              	.LASF473:
 5778 3ad7 4359424C 		.ascii	"CYBLE_EVT_OTSC_READ_BLOB_RSP\000"
 5778      455F4556 
 5778      545F4F54 
 5778      53435F52 
 5778      4541445F 
 5779              	.LASF386:
 5780 3af4 4359424C 		.ascii	"CYBLE_EVT_ESSC_WRITE_CHAR_RESPONSE\000"
 5780      455F4556 
 5780      545F4553 
 5780      53435F57 
 5780      52495445 
ARM GAS  C:\Users\dmytro\AppData\Local\Temp\ccjppNo8.s 			page 157


 5781              	.LASF275:
 5782 3b17 4359424C 		.ascii	"CYBLE_EVT_AIOSS_INDICATION_CONFIRMED\000"
 5782      455F4556 
 5782      545F4149 
 5782      4F53535F 
 5782      494E4449 
 5783              	.LASF292:
 5784 3b3c 4359424C 		.ascii	"CYBLE_EVT_ANCSC_ERROR_RESPONSE\000"
 5784      455F4556 
 5784      545F414E 
 5784      4353435F 
 5784      4552524F 
 5785              	.LASF306:
 5786 3b5b 4359424C 		.ascii	"CYBLE_EVT_BASC_WRITE_DESCR_RESPONSE\000"
 5786      455F4556 
 5786      545F4241 
 5786      53435F57 
 5786      52495445 
 5787              	.LASF259:
 5788 3b7f 4359424C 		.ascii	"CYBLE_EVT_GATTC_SRVC_DISCOVERY_FAILED\000"
 5788      455F4556 
 5788      545F4741 
 5788      5454435F 
 5788      53525643 
 5789              	.LASF389:
 5790 3ba5 4359424C 		.ascii	"CYBLE_EVT_GLSS_INDICATION_ENABLED\000"
 5790      455F4556 
 5790      545F474C 
 5790      53535F49 
 5790      4E444943 
 5791              	.LASF295:
 5792 3bc7 4359424C 		.ascii	"CYBLE_EVT_ANSS_CHAR_WRITE\000"
 5792      455F4556 
 5792      545F414E 
 5792      53535F43 
 5792      4841525F 
 5793              	.LASF570:
 5794 3be1 4359424C 		.ascii	"CYBLE_SRVI_COUNT\000"
 5794      455F5352 
 5794      56495F43 
 5794      4F554E54 
 5794      00
 5795              	.LASF130:
 5796 3bf2 4359424C 		.ascii	"CYBLE_GAPP_SCANNABLE_UNDIRECTED_ADV\000"
 5796      455F4741 
 5796      50505F53 
 5796      43414E4E 
 5796      41424C45 
 5797              	.LASF77:
 5798 3c16 4359424C 		.ascii	"CYBLE_EVT_L2CAP_CBFC_CONN_IND\000"
 5798      455F4556 
 5798      545F4C32 
 5798      4341505F 
 5798      43424643 
 5799              	.LASF65:
 5800 3c34 4359424C 		.ascii	"CYBLE_EVT_GATTS_EXEC_WRITE_REQ\000"
 5800      455F4556 
ARM GAS  C:\Users\dmytro\AppData\Local\Temp\ccjppNo8.s 			page 158


 5800      545F4741 
 5800      5454535F 
 5800      45584543 
 5801              	.LASF25:
 5802 3c53 4359424C 		.ascii	"CYBLE_EVT_GAPC_SCAN_PROGRESS_RESULT\000"
 5802      455F4556 
 5802      545F4741 
 5802      50435F53 
 5802      43414E5F 
 5803              	.LASF590:
 5804 3c77 6379426C 		.ascii	"cyBle_connHandle\000"
 5804      655F636F 
 5804      6E6E4861 
 5804      6E646C65 
 5804      00
 5805              	.LASF418:
 5806 3c88 4359424C 		.ascii	"CYBLE_EVT_HPSC_READ_DESCR_RESPONSE\000"
 5806      455F4556 
 5806      545F4850 
 5806      53435F52 
 5806      4541445F 
 5807              	.LASF369:
 5808 3cab 4359424C 		.ascii	"CYBLE_EVT_CTSS_CHAR_WRITE\000"
 5808      455F4556 
 5808      545F4354 
 5808      53535F43 
 5808      4841525F 
 5809              	.LASF524:
 5810 3cc5 4359424C 		.ascii	"CYBLE_EVT_UDSS_INDICATION_ENABLED\000"
 5810      455F4556 
 5810      545F5544 
 5810      53535F49 
 5810      4E444943 
 5811              	.LASF449:
 5812 3ce7 4359424C 		.ascii	"CYBLE_EVT_IPSC_READ_BLOB_RSP\000"
 5812      455F4556 
 5812      545F4950 
 5812      53435F52 
 5812      4541445F 
 5813              	.LASF234:
 5814 3d04 4359424C 		.ascii	"CYBLE_GATT_ERR_CODE_T\000"
 5814      455F4741 
 5814      54545F45 
 5814      52525F43 
 5814      4F44455F 
 5815              	.LASF229:
 5816 3d1a 4359424C 		.ascii	"CYBLE_GATT_ERR_ANCS_INVALID_PARAMETER\000"
 5816      455F4741 
 5816      54545F45 
 5816      52525F41 
 5816      4E43535F 
 5817              	.LASF588:
 5818 3d40 6379426C 		.ascii	"cyBle_discoveryModeInfo\000"
 5818      655F6469 
 5818      73636F76 
 5818      6572794D 
 5818      6F646549 
ARM GAS  C:\Users\dmytro\AppData\Local\Temp\ccjppNo8.s 			page 159


 5819              	.LASF160:
 5820 3d58 70656572 		.ascii	"peerAddrType\000"
 5820      41646472 
 5820      54797065 
 5820      00
 5821              	.LASF99:
 5822 3d65 4359424C 		.ascii	"CYBLE_ERROR_GAP_ROLE\000"
 5822      455F4552 
 5822      524F525F 
 5822      4741505F 
 5822      524F4C45 
 5823              	.LASF431:
 5824 3d7a 4359424C 		.ascii	"CYBLE_EVT_HTSS_INDICATION_ENABLED\000"
 5824      455F4556 
 5824      545F4854 
 5824      53535F49 
 5824      4E444943 
 5825              	.LASF469:
 5826 3d9c 4359424C 		.ascii	"CYBLE_EVT_OTSS_WRITE_CHAR\000"
 5826      455F4556 
 5826      545F4F54 
 5826      53535F57 
 5826      52495445 
 5827              	.LASF535:
 5828 3db6 4359424C 		.ascii	"CYBLE_EVT_UDSC_READ_DESCR_RESPONSE\000"
 5828      455F4556 
 5828      545F5544 
 5828      53435F52 
 5828      4541445F 
 5829              	.LASF277:
 5830 3dd9 4359424C 		.ascii	"CYBLE_EVT_AIOSS_DESCR_WRITE\000"
 5830      455F4556 
 5830      545F4149 
 5830      4F53535F 
 5830      44455343 
 5831              	.LASF46:
 5832 3df5 4359424C 		.ascii	"CYBLE_EVT_GAP_SCAN_REQ_RECVD\000"
 5832      455F4556 
 5832      545F4741 
 5832      505F5343 
 5832      414E5F52 
 5833              	.LASF304:
 5834 3e12 4359424C 		.ascii	"CYBLE_EVT_BASC_READ_CHAR_RESPONSE\000"
 5834      455F4556 
 5834      545F4241 
 5834      53435F52 
 5834      4541445F 
 5835              	.LASF396:
 5836 3e34 4359424C 		.ascii	"CYBLE_EVT_GLSC_NOTIFICATION\000"
 5836      455F4556 
 5836      545F474C 
 5836      53435F4E 
 5836      4F544946 
 5837              	.LASF125:
 5838 3e50 62644164 		.ascii	"bdAddr\000"
 5838      647200
 5839              	.LASF226:
ARM GAS  C:\Users\dmytro\AppData\Local\Temp\ccjppNo8.s 			page 160


 5840 3e57 4359424C 		.ascii	"CYBLE_GATT_ERR_ANS_COMMAND_NOT_SUPPORTED\000"
 5840      455F4741 
 5840      54545F45 
 5840      52525F41 
 5840      4E535F43 
 5841              	.LASF514:
 5842 3e80 4359424C 		.ascii	"CYBLE_EVT_SCPSS_SCAN_INT_WIN_CHAR_WRITE\000"
 5842      455F4556 
 5842      545F5343 
 5842      5053535F 
 5842      5343414E 
 5843              	.LASF176:
 5844 3ea8 4359424C 		.ascii	"CYBLE_GATT_READ_RSP\000"
 5844      455F4741 
 5844      54545F52 
 5844      4541445F 
 5844      52535000 
 5845              	.LASF452:
 5846 3ebc 4359424C 		.ascii	"CYBLE_EVT_LLSC_WRITE_CHAR_RESPONSE\000"
 5846      455F4556 
 5846      545F4C4C 
 5846      53435F57 
 5846      52495445 
 5847              	.LASF139:
 5848 3edf 4359424C 		.ascii	"CYBLE_GAPC_ADV_EVENT_T\000"
 5848      455F4741 
 5848      50435F41 
 5848      44565F45 
 5848      56454E54 
 5849              	.LASF96:
 5850 3ef6 4359424C 		.ascii	"CYBLE_ERROR_NO_CONNECTION\000"
 5850      455F4552 
 5850      524F525F 
 5850      4E4F5F43 
 5850      4F4E4E45 
 5851              	.LASF327:
 5852 3f10 4359424C 		.ascii	"CYBLE_EVT_BMSC_READ_DESCR_RESPONSE\000"
 5852      455F4556 
 5852      545F424D 
 5852      53435F52 
 5852      4541445F 
 5853              	.LASF86:
 5854 3f33 4359424C 		.ascii	"CYBLE_EVT_LE_PING_AUTH_TIMEOUT\000"
 5854      455F4556 
 5854      545F4C45 
 5854      5F50494E 
 5854      475F4155 
 5855              	.LASF124:
 5856 3f52 4359424C 		.ascii	"CYBLE_API_RESULT_T\000"
 5856      455F4150 
 5856      495F5245 
 5856      53554C54 
 5856      5F5400
 5857              	.LASF329:
 5858 3f65 4359424C 		.ascii	"CYBLE_EVT_CGMSS_INDICATION_DISABLED\000"
 5858      455F4556 
 5858      545F4347 
ARM GAS  C:\Users\dmytro\AppData\Local\Temp\ccjppNo8.s 			page 161


 5858      4D53535F 
 5858      494E4449 
 5859              	.LASF270:
 5860 3f89 4359424C 		.ascii	"CYBLE_EVT_GATTC_DISCOVERY_COMPLETE\000"
 5860      455F4556 
 5860      545F4741 
 5860      5454435F 
 5860      44495343 
 5861              	.LASF333:
 5862 3fac 4359424C 		.ascii	"CYBLE_EVT_CGMSS_WRITE_CHAR\000"
 5862      455F4556 
 5862      545F4347 
 5862      4D53535F 
 5862      57524954 
 5863              	.LASF400:
 5864 3fc7 4359424C 		.ascii	"CYBLE_EVT_GLSC_WRITE_DESCR_RESPONSE\000"
 5864      455F4556 
 5864      545F474C 
 5864      53435F57 
 5864      52495445 
 5865              	.LASF159:
 5866 3feb 6576656E 		.ascii	"eventType\000"
 5866      74547970 
 5866      6500
 5867              	.LASF68:
 5868 3ff5 4359424C 		.ascii	"CYBLE_EVT_GATTC_HANDLE_VALUE_IND\000"
 5868      455F4556 
 5868      545F4741 
 5868      5454435F 
 5868      48414E44 
 5869              	.LASF354:
 5870 4016 4359424C 		.ascii	"CYBLE_EVT_CPSC_SCAN_PROGRESS_RESULT\000"
 5870      455F4556 
 5870      545F4350 
 5870      53435F53 
 5870      43414E5F 
 5871              	.LASF508:
 5872 403a 4359424C 		.ascii	"CYBLE_EVT_RSCSC_READ_DESCR_RESPONSE\000"
 5872      455F4556 
 5872      545F5253 
 5872      4353435F 
 5872      52454144 
 5873              	.LASF102:
 5874 405e 4359424C 		.ascii	"CYBLE_ERROR_SEC_FAILED\000"
 5874      455F4552 
 5874      524F525F 
 5874      5345435F 
 5874      4641494C 
 5875              	.LASF23:
 5876 4075 4359424C 		.ascii	"CYBLE_EVT_STACK_BUSY_STATUS\000"
 5876      455F4556 
 5876      545F5354 
 5876      41434B5F 
 5876      42555359 
 5877              	.LASF250:
 5878 4091 4359424C 		.ascii	"CYBLE_GATTS_WRITE_CMD_REQ_PARAM_T\000"
 5878      455F4741 
ARM GAS  C:\Users\dmytro\AppData\Local\Temp\ccjppNo8.s 			page 162


 5878      5454535F 
 5878      57524954 
 5878      455F434D 
 5879              	.LASF591:
 5880 40b3 63757272 		.ascii	"current_watchdog_counter\000"
 5880      656E745F 
 5880      77617463 
 5880      68646F67 
 5880      5F636F75 
 5881              	.LASF448:
 5882 40cc 4359424C 		.ascii	"CYBLE_EVT_IPSC_ERROR_RESPONSE\000"
 5882      455F4556 
 5882      545F4950 
 5882      53435F45 
 5882      52524F52 
 5883              	.LASF440:
 5884 40ea 4359424C 		.ascii	"CYBLE_EVT_HTSC_WRITE_DESCR_RESPONSE\000"
 5884      455F4556 
 5884      545F4854 
 5884      53435F57 
 5884      52495445 
 5885              	.LASF37:
 5886 410e 4359424C 		.ascii	"CYBLE_EVT_GAP_KEYINFO_EXCHNGE_CMPLT\000"
 5886      455F4556 
 5886      545F4741 
 5886      505F4B45 
 5886      59494E46 
 5887              	.LASF188:
 5888 4132 4359424C 		.ascii	"CYBLE_GATT_EXECUTE_WRITE_REQ\000"
 5888      455F4741 
 5888      54545F45 
 5888      58454355 
 5888      54455F57 
 5889              	.LASF549:
 5890 414f 4359424C 		.ascii	"CYBLE_EVT_WPTSC_WRITE_DESCR_RESPONSE\000"
 5890      455F4556 
 5890      545F5750 
 5890      5453435F 
 5890      57524954 
 5891              	.LASF74:
 5892 4174 4359424C 		.ascii	"CYBLE_EVT_L2CAP_CONN_PARAM_UPDATE_REQ\000"
 5892      455F4556 
 5892      545F4C32 
 5892      4341505F 
 5892      434F4E4E 
 5893              	.LASF332:
 5894 419a 4359424C 		.ascii	"CYBLE_EVT_CGMSS_NOTIFICATION_DISABLED\000"
 5894      455F4556 
 5894      545F4347 
 5894      4D53535F 
 5894      4E4F5449 
 5895              	.LASF260:
 5896 41c0 4359424C 		.ascii	"CYBLE_EVT_GATTC_INCL_DISCOVERY_FAILED\000"
 5896      455F4556 
 5896      545F4741 
 5896      5454435F 
 5896      494E434C 
ARM GAS  C:\Users\dmytro\AppData\Local\Temp\ccjppNo8.s 			page 163


 5897              	.LASF198:
 5898 41e6 4359424C 		.ascii	"CYBLE_GATT_ERR_WRITE_NOT_PERMITTED\000"
 5898      455F4741 
 5898      54545F45 
 5898      52525F57 
 5898      52495445 
 5899              	.LASF568:
 5900 4209 4359424C 		.ascii	"CYBLE_SRVI_CUSTOMS\000"
 5900      455F5352 
 5900      56495F43 
 5900      5553544F 
 5900      4D5300
 5901              	.LASF3:
 5902 421c 73686F72 		.ascii	"short unsigned int\000"
 5902      7420756E 
 5902      7369676E 
 5902      65642069 
 5902      6E7400
 5903              	.LASF210:
 5904 422f 4359424C 		.ascii	"CYBLE_GATT_ERR_INSUFFICIENT_ENCRYPTION\000"
 5904      455F4741 
 5904      54545F45 
 5904      52525F49 
 5904      4E535546 
 5905              	.LASF586:
 5906 4256 73656E64 		.ascii	"sendColorDataToNetwork\000"
 5906      436F6C6F 
 5906      72446174 
 5906      61546F4E 
 5906      6574776F 
 5907              	.LASF298:
 5908 426d 4359424C 		.ascii	"CYBLE_EVT_ANSC_WRITE_CHAR_RESPONSE\000"
 5908      455F4556 
 5908      545F414E 
 5908      53435F57 
 5908      52495445 
 5909              	.LASF145:
 5910 4290 64697265 		.ascii	"directAddr\000"
 5910      63744164 
 5910      647200
 5911              	.LASF560:
 5912 429b 4359424C 		.ascii	"CYBLE_STATE_CONNECTED\000"
 5912      455F5354 
 5912      4154455F 
 5912      434F4E4E 
 5912      45435445 
 5913              	.LASF239:
 5914 42b1 61637475 		.ascii	"actualLen\000"
 5914      616C4C65 
 5914      6E00
 5915              	.LASF146:
 5916 42bb 61647643 		.ascii	"advChannelMap\000"
 5916      68616E6E 
 5916      656C4D61 
 5916      7000
 5917              	.LASF596:
 5918 42c9 706F7465 		.ascii	"potential_node_found\000"
ARM GAS  C:\Users\dmytro\AppData\Local\Temp\ccjppNo8.s 			page 164


 5918      6E746961 
 5918      6C5F6E6F 
 5918      64655F66 
 5918      6F756E64 
 5919              	.LASF181:
 5920 42de 4359424C 		.ascii	"CYBLE_GATT_READ_BY_GROUP_REQ\000"
 5920      455F4741 
 5920      54545F52 
 5920      4541445F 
 5920      42595F47 
 5921              	.LASF269:
 5922 42fb 4359424C 		.ascii	"CYBLE_EVT_GATTC_DISC_SKIPPED_SERVICE\000"
 5922      455F4556 
 5922      545F4741 
 5922      5454435F 
 5922      44495343 
 5923              	.LASF395:
 5924 4320 4359424C 		.ascii	"CYBLE_EVT_GLSC_INDICATION\000"
 5924      455F4556 
 5924      545F474C 
 5924      53435F49 
 5924      4E444943 
 5925              	.LASF128:
 5926 433a 4359424C 		.ascii	"CYBLE_GAPP_CONNECTABLE_UNDIRECTED_ADV\000"
 5926      455F4741 
 5926      50505F43 
 5926      4F4E4E45 
 5926      43544142 
 5927              	.LASF346:
 5928 4360 4359424C 		.ascii	"CYBLE_EVT_CPSS_BROADCAST_DISABLED\000"
 5928      455F4556 
 5928      545F4350 
 5928      53535F42 
 5928      524F4144 
 5929              	.LASF237:
 5930 4382 61747449 		.ascii	"attId\000"
 5930      6400
 5931              	.LASF92:
 5932 4388 4359424C 		.ascii	"CYBLE_ERROR_INVALID_OPERATION\000"
 5932      455F4552 
 5932      524F525F 
 5932      494E5641 
 5932      4C49445F 
 5933              	.LASF22:
 5934 43a6 4359424C 		.ascii	"CYBLE_EVT_HCI_STATUS\000"
 5934      455F4556 
 5934      545F4843 
 5934      495F5354 
 5934      41545553 
 5935              	.LASF539:
 5936 43bb 4359424C 		.ascii	"CYBLE_EVT_WPTSS_NOTIFICATION_DISABLED\000"
 5936      455F4556 
 5936      545F5750 
 5936      5453535F 
 5936      4E4F5449 
 5937              	.LASF51:
 5938 43e1 4359424C 		.ascii	"CYBLE_EVT_GATT_DISCONNECT_IND\000"
ARM GAS  C:\Users\dmytro\AppData\Local\Temp\ccjppNo8.s 			page 165


 5938      455F4556 
 5938      545F4741 
 5938      54545F44 
 5938      4953434F 
 5939              	.LASF255:
 5940 43ff 4359424C 		.ascii	"CYBLE_KEY_EXCHANGE_INFO_REQUEST_REPLY\000"
 5940      455F4B45 
 5940      595F4558 
 5940      4348414E 
 5940      47455F49 
 5941              	.LASF84:
 5942 4425 4359424C 		.ascii	"CYBLE_EVT_L2CAP_CBFC_DATA_WRITE_IND\000"
 5942      455F4556 
 5942      545F4C32 
 5942      4341505F 
 5942      43424643 
 5943              	.LASF253:
 5944 4449 4359424C 		.ascii	"CYBLE_PASSKEY_ENTRY_REQUEST_REPLY\000"
 5944      455F5041 
 5944      53534B45 
 5944      595F454E 
 5944      5452595F 
 5945              	.LASF164:
 5946 446b 72737369 		.ascii	"rssi\000"
 5946      00
 5947              	.LASF313:
 5948 4470 4359424C 		.ascii	"CYBLE_EVT_BCSC_WRITE_DESCR_RESPONSE\000"
 5948      455F4556 
 5948      545F4243 
 5948      53435F57 
 5948      52495445 
 5949              	.LASF554:
 5950 4494 4359424C 		.ascii	"CYBLE_EVT_WSSC_READ_CHAR_RESPONSE\000"
 5950      455F4556 
 5950      545F5753 
 5950      53435F52 
 5950      4541445F 
 5951              	.LASF73:
 5952 44b6 4359424C 		.ascii	"CYBLE_EVT_GATTC_LONG_PROCEDURE_END\000"
 5952      455F4556 
 5952      545F4741 
 5952      5454435F 
 5952      4C4F4E47 
 5953              	.LASF163:
 5954 44d9 64617461 		.ascii	"data\000"
 5954      00
 5955              	.LASF296:
 5956 44de 4359424C 		.ascii	"CYBLE_EVT_ANSC_NOTIFICATION\000"
 5956      455F4556 
 5956      545F414E 
 5956      53435F4E 
 5956      4F544946 
 5957              	.LASF33:
 5958 44fa 4359424C 		.ascii	"CYBLE_EVT_GAP_DEVICE_DISCONNECTED\000"
 5958      455F4556 
 5958      545F4741 
 5958      505F4445 
ARM GAS  C:\Users\dmytro\AppData\Local\Temp\ccjppNo8.s 			page 166


 5958      56494345 
 5959              	.LASF403:
 5960 451c 4359424C 		.ascii	"CYBLE_EVT_HIDSS_BOOT_MODE_ENTER\000"
 5960      455F4556 
 5960      545F4849 
 5960      4453535F 
 5960      424F4F54 
 5961              	.LASF69:
 5962 453c 4359424C 		.ascii	"CYBLE_EVT_GATTS_HANDLE_VALUE_CNF\000"
 5962      455F4556 
 5962      545F4741 
 5962      5454535F 
 5962      48414E44 
 5963              	.LASF444:
 5964 455d 4359424C 		.ascii	"CYBLE_EVT_IPSC_READ_MULTIPLE_CHAR_RESPONSE\000"
 5964      455F4556 
 5964      545F4950 
 5964      53435F52 
 5964      4541445F 
 5965              	.LASF365:
 5966 4588 4359424C 		.ascii	"CYBLE_EVT_CSCSC_READ_DESCR_RESPONSE\000"
 5966      455F4556 
 5966      545F4353 
 5966      4353435F 
 5966      52454144 
 5967              	.LASF165:
 5968 45ac 4359424C 		.ascii	"CYBLE_GAPC_ADV_REPORT_T\000"
 5968      455F4741 
 5968      50435F41 
 5968      44565F52 
 5968      45504F52 
 5969              	.LASF10:
 5970 45c4 75696E74 		.ascii	"uint16\000"
 5970      313600
 5971              	.LASF289:
 5972 45cb 4359424C 		.ascii	"CYBLE_EVT_ANCSC_WRITE_CHAR_RESPONSE\000"
 5972      455F4556 
 5972      545F414E 
 5972      4353435F 
 5972      57524954 
 5973              	.LASF143:
 5974 45ef 6F776E41 		.ascii	"ownAddrType\000"
 5974      64647254 
 5974      79706500 
 5975              	.LASF100:
 5976 45fb 4359424C 		.ascii	"CYBLE_ERROR_TX_POWER_READ\000"
 5976      455F4552 
 5976      524F525F 
 5976      54585F50 
 5976      4F574552 
 5977              	.LASF498:
 5978 4615 4359424C 		.ascii	"CYBLE_EVT_RSCSS_NOTIFICATION_ENABLED\000"
 5978      455F4556 
 5978      545F5253 
 5978      4353535F 
 5978      4E4F5449 
 5979              	.LASF294:
ARM GAS  C:\Users\dmytro\AppData\Local\Temp\ccjppNo8.s 			page 167


 5980 463a 4359424C 		.ascii	"CYBLE_EVT_ANSS_NOTIFICATION_DISABLED\000"
 5980      455F4556 
 5980      545F414E 
 5980      53535F4E 
 5980      4F544946 
 5981              	.LASF436:
 5982 465f 4359424C 		.ascii	"CYBLE_EVT_HTSC_INDICATION\000"
 5982      455F4556 
 5982      545F4854 
 5982      53435F49 
 5982      4E444943 
 5983              	.LASF401:
 5984 4679 4359424C 		.ascii	"CYBLE_EVT_HIDSS_NOTIFICATION_ENABLED\000"
 5984      455F4556 
 5984      545F4849 
 5984      4453535F 
 5984      4E4F5449 
 5985              	.LASF433:
 5986 469e 4359424C 		.ascii	"CYBLE_EVT_HTSS_INDICATION_CONFIRMED\000"
 5986      455F4556 
 5986      545F4854 
 5986      53535F49 
 5986      4E444943 
 5987              	.LASF272:
 5988 46c2 4359424C 		.ascii	"CYBLE_EVT_AIOSS_NOTIFICATION_DISABLED\000"
 5988      455F4556 
 5988      545F4149 
 5988      4F53535F 
 5988      4E4F5449 
 5989              	.LASF141:
 5990 46e8 61647649 		.ascii	"advIntvMax\000"
 5990      6E74764D 
 5990      617800
 5991              	.LASF542:
 5992 46f3 4359424C 		.ascii	"CYBLE_EVT_WPTSS_INDICATION_CONFIRMED\000"
 5992      455F4556 
 5992      545F5750 
 5992      5453535F 
 5992      494E4449 
 5993              	.LASF423:
 5994 4718 4359424C 		.ascii	"CYBLE_EVT_HRSS_NOTIFICATION_DISABLED\000"
 5994      455F4556 
 5994      545F4852 
 5994      53535F4E 
 5994      4F544946 
 5995              		.ident	"GCC: (GNU Tools for ARM Embedded Processors) 5.4.1 20160609 (release) [ARM/embedded-5-bran
