ARM GAS  C:\Users\JANUSD~1\AppData\Local\Temp\ccqBJafM.s 			page 1


   1              		.syntax unified
   2              		.cpu cortex-m0
   3              		.fpu softvfp
   4              		.eabi_attribute 20, 1
   5              		.eabi_attribute 21, 1
   6              		.eabi_attribute 23, 3
   7              		.eabi_attribute 24, 1
   8              		.eabi_attribute 25, 1
   9              		.eabi_attribute 26, 1
  10              		.eabi_attribute 30, 6
  11              		.eabi_attribute 34, 0
  12              		.eabi_attribute 18, 4
  13              		.thumb
  14              		.syntax unified
  15              		.file	"main.c"
  16              		.text
  17              	.Ltext0:
  18              		.cfi_sections	.debug_frame
  19              		.comm	current_watchdog_counter,2,2
  20              		.global	RGB_Collection
  21              		.data
  22              		.align	2
  23              		.type	RGB_Collection, %object
  24              		.size	RGB_Collection, 16
  25              	RGB_Collection:
  26 0000 00       		.byte	0
  27 0001 00       		.byte	0
  28 0002 FF       		.byte	-1
  29 0003 FF       		.byte	-1
  30 0004 FF       		.byte	-1
  31 0005 00       		.byte	0
  32 0006 FF       		.byte	-1
  33 0007 FF       		.byte	-1
  34 0008 00       		.byte	0
  35 0009 FF       		.byte	-1
  36 000a 00       		.byte	0
  37 000b FF       		.byte	-1
  38 000c FF       		.byte	-1
  39 000d FF       		.byte	-1
  40 000e 00       		.byte	0
  41 000f FF       		.byte	-1
  42              		.global	interrupt_counter
  43              		.bss
  44              		.align	2
  45              		.type	interrupt_counter, %object
  46              		.size	interrupt_counter, 4
  47              	interrupt_counter:
  48 0000 00000000 		.space	4
  49              		.section	.rodata
  50              		.align	2
  51              	.LC0:
  52 0000 53797465 		.ascii	"Sytem Started \000"
  52      6D205374 
  52      61727465 
  52      642000
  53              		.section	.text.main,"ax",%progbits
  54              		.align	2
ARM GAS  C:\Users\JANUSD~1\AppData\Local\Temp\ccqBJafM.s 			page 2


  55              		.global	main
  56              		.code	16
  57              		.thumb_func
  58              		.type	main, %function
  59              	main:
  60              	.LFB35:
  61              		.file 1 "main.c"
   1:main.c        **** /******************************************************************************
   2:main.c        **** * Project Name		: Mesh_Flood_PSoC4BLE
   3:main.c        **** * File Name			: main.c
   4:main.c        **** * Version 			: 1.0
   5:main.c        **** * Device Used		: CY8C4247LQI-BL483
   6:main.c        **** * Software Used		: PSoC Creator 3.1 SP1
   7:main.c        **** * Compiler    		: ARM GCC 4.8.4, ARM RVDS Generic, ARM MDK Generic
   8:main.c        **** * Related Hardware	: CY8CKIT-042-BLE Bluetooth Low Energy Pioneer Kit 
   9:main.c        **** * Owner             : roit@cypress.com
  10:main.c        **** *
  11:main.c        **** ********************************************************************************
  12:main.c        **** * Copyright (2014-15), Cypress Semiconductor Corporation. All Rights Reserved.
  13:main.c        **** ********************************************************************************
  14:main.c        **** * This software is owned by Cypress Semiconductor Corporation (Cypress)
  15:main.c        **** * and is protected by and subject to worldwide patent protection (United
  16:main.c        **** * States and foreign), United States copyright laws and international treaty
  17:main.c        **** * provisions. Cypress hereby grants to licensee a personal, non-exclusive,
  18:main.c        **** * non-transferable license to copy, use, modify, create derivative works of,
  19:main.c        **** * and compile the Cypress Source Code and derivative works for the sole
  20:main.c        **** * purpose of creating custom software in support of licensee product to be
  21:main.c        **** * used only in conjunction with a Cypress integrated circuit as specified in
  22:main.c        **** * the applicable agreement. Any reproduction, modification, translation,
  23:main.c        **** * compilation, or representation of this software except as specified above 
  24:main.c        **** * is prohibited without the express written permission of Cypress.
  25:main.c        **** *
  26:main.c        **** * Disclaimer: CYPRESS MAKES NO WARRANTY OF ANY KIND, EXPRESS OR IMPLIED, WITH 
  27:main.c        **** * REGARD TO THIS MATERIAL, INCLUDING, BUT NOT LIMITED TO, THE IMPLIED 
  28:main.c        **** * WARRANTIES OF MERCHANTABILITY AND FITNESS FOR A PARTICULAR PURPOSE.
  29:main.c        **** * Cypress reserves the right to make changes without further notice to the 
  30:main.c        **** * materials described herein. Cypress does not assume any liability arising out 
  31:main.c        **** * of the application or use of any product or circuit described herein. Cypress 
  32:main.c        **** * does not authorize its products for use as critical components in life-support 
  33:main.c        **** * systems where a malfunction or failure may reasonably be expected to result in 
  34:main.c        **** * significant injury to the user. The inclusion of Cypress' product in a life-
  35:main.c        **** * support systems application implies that the manufacturer assumes all risk of 
  36:main.c        **** * such use and in doing so indemnifies Cypress against all charges. 
  37:main.c        **** *
  38:main.c        **** * Use of this Software may be limited by and subject to the applicable Cypress
  39:main.c        **** * software license agreement. 
  40:main.c        **** *******************************************************************************/
  41:main.c        **** #include <main.h>
  42:main.c        **** 
  43:main.c        **** extern uint8 switch_Role;
  44:main.c        **** extern uint8 ble_gap_state;
  45:main.c        **** extern uint8 deviceConnected;
  46:main.c        **** 
  47:main.c        **** extern uint8 restartScanning;
  48:main.c        **** 
  49:main.c        **** extern uint8 dataADVCounter;
  50:main.c        **** 
ARM GAS  C:\Users\JANUSD~1\AppData\Local\Temp\ccqBJafM.s 			page 3


  51:main.c        **** 
  52:main.c        **** #ifdef ENABLE_ADV_DATA_COUNTER
  53:main.c        **** extern CYBLE_GAPP_DISC_DATA_T  new_advData;
  54:main.c        **** extern uint8 potential_node_found;
  55:main.c        **** extern uint8 potential_node_bdAddr[6];
  56:main.c        **** extern uint8 potential_node_bdAddrType;
  57:main.c        **** #endif
  58:main.c        **** 
  59:main.c        **** extern uint8 clientConnectToDevice;
  60:main.c        **** extern CYBLE_GAP_BD_ADDR_T				peripAddr;
  61:main.c        **** 
  62:main.c        **** CY_ISR_PROTO(CC_TC_InterruptHandler);
  63:main.c        **** 
  64:main.c        **** uint8 RGB_Collection[4][4] = {
  65:main.c        ****     {0, 0, 0xFF, 0xFF},
  66:main.c        ****     {0xFF, 0, 0xFF, 0xFF},
  67:main.c        ****     {0, 0xFF, 0, 0xFF},
  68:main.c        ****     {0xFF, 0xFF, 0, 0xFF},
  69:main.c        **** };
  70:main.c        **** int interrupt_counter = 0;
  71:main.c        **** 
  72:main.c        **** /*******************************************************************************
  73:main.c        **** * Function Name: main
  74:main.c        **** ********************************************************************************
  75:main.c        **** * Summary:
  76:main.c        **** *       Entry point for the firmware, Starts the system and continuously processes
  77:main.c        **** * Application and BLE events.
  78:main.c        **** *
  79:main.c        **** * Parameters:
  80:main.c        **** *  void
  81:main.c        **** *
  82:main.c        **** * Return:
  83:main.c        **** *  int
  84:main.c        **** *
  85:main.c        **** *******************************************************************************/
  86:main.c        **** int main()
  87:main.c        **** {
  62              		.loc 1 87 0
  63              		.cfi_startproc
  64              		@ args = 0, pretend = 0, frame = 0
  65              		@ frame_needed = 1, uses_anonymous_args = 0
  66 0000 80B5     		push	{r7, lr}
  67              		.cfi_def_cfa_offset 8
  68              		.cfi_offset 7, -8
  69              		.cfi_offset 14, -4
  70 0002 00AF     		add	r7, sp, #0
  71              		.cfi_def_cfa_register 7
  88:main.c        ****     /* Initialize system */	
  89:main.c        **** 	InitializeSystem();
  72              		.loc 1 89 0
  73 0004 FFF7FEFF 		bl	InitializeSystem
  90:main.c        **** 	
  91:main.c        **** 	#ifdef DEBUG_ENABLED
  92:main.c        **** 		UART_UartPutString("Sytem Started ");
  74              		.loc 1 92 0
  75 0008 074B     		ldr	r3, .L3
  76 000a 1800     		movs	r0, r3
ARM GAS  C:\Users\JANUSD~1\AppData\Local\Temp\ccqBJafM.s 			page 4


  77 000c FFF7FEFF 		bl	UART_UartPutString
  93:main.c        **** 		UART_UartPutCRLF(' ');
  78              		.loc 1 93 0
  79 0010 2020     		movs	r0, #32
  80 0012 FFF7FEFF 		bl	UART_UartPutCRLF
  81              	.L2:
  94:main.c        **** 	#endif
  95:main.c        ****    
  96:main.c        ****     for(;;)
  97:main.c        ****     {
  98:main.c        **** 		/* Process BLE Events. This function generates the respective 
  99:main.c        **** 		* events to application layer */
 100:main.c        **** 		CyBle_ProcessEvents();
  82              		.loc 1 100 0 discriminator 1
  83 0016 FFF7FEFF 		bl	CyBle_ProcessEvents
 101:main.c        **** 
 102:main.c        **** 		/* If flag is set, then switch the GAP role between Peripheral and 
 103:main.c        **** 		* Central. This function disconnects existing connection, if any, 
 104:main.c        **** 		* before switching role. Depending on switched role, the system will
 105:main.c        **** 		* either start scanning or start advertisement */
 106:main.c        **** 		SwitchRole();
  84              		.loc 1 106 0 discriminator 1
  85 001a FFF7FEFF 		bl	SwitchRole
 107:main.c        **** 		
 108:main.c        **** 		/* If a valid node is found, then this function will initiate a connection 
 109:main.c        **** 		* to that node. */
 110:main.c        **** 		ConnectToPeripheralDevice();
  86              		.loc 1 110 0 discriminator 1
  87 001e FFF7FEFF 		bl	ConnectToPeripheralDevice
 111:main.c        **** 		
 112:main.c        **** 		/* This function will restart scanning when earlier connection has been
 113:main.c        **** 		* disconnected. This function also checks internal counter and sets flag to
 114:main.c        **** 		* switch role from Central to Peripheral when the count is above set value. */
 115:main.c        **** 		RestartCentralScanning();
  88              		.loc 1 115 0 discriminator 1
  89 0022 FFF7FEFF 		bl	RestartCentralScanning
 116:main.c        ****     }
  90              		.loc 1 116 0 discriminator 1
  91 0026 F6E7     		b	.L2
  92              	.L4:
  93              		.align	2
  94              	.L3:
  95 0028 00000000 		.word	.LC0
  96              		.cfi_endproc
  97              	.LFE35:
  98              		.size	main, .-main
  99              		.section	.rodata
 100 000f 00       		.align	2
 101              	.LC7:
 102 0010 48656C6C 		.ascii	"Helloushki\012\000"
 102      6F757368 
 102      6B690A00 
 103              		.align	2
 104              	.LC9:
 105 001c 2D2D2D2D 		.ascii	"--------------------------Mesh Flood---------------"
 105      2D2D2D2D 
 105      2D2D2D2D 
ARM GAS  C:\Users\JANUSD~1\AppData\Local\Temp\ccqBJafM.s 			page 5


 105      2D2D2D2D 
 105      2D2D2D2D 
 106 004f 2D2D2D2D 		.ascii	"---------------------------\000"
 106      2D2D2D2D 
 106      2D2D2D2D 
 106      2D2D2D2D 
 106      2D2D2D2D 
 107              		.section	.text.InitializeSystem,"ax",%progbits
 108              		.align	2
 109              		.global	InitializeSystem
 110              		.code	16
 111              		.thumb_func
 112              		.type	InitializeSystem, %function
 113              	InitializeSystem:
 114              	.LFB36:
 117:main.c        **** }
 118:main.c        **** 
 119:main.c        **** /*******************************************************************************
 120:main.c        **** * Function Name: InitializeSystem
 121:main.c        **** ********************************************************************************
 122:main.c        **** * Summary:
 123:main.c        **** *       Starts the components in the project and registers BLE event handler 
 124:main.c        **** * function. It also modifies the advertisement packet and appends data counter
 125:main.c        **** * at its end.
 126:main.c        **** *
 127:main.c        **** * Parameters:
 128:main.c        **** *  void
 129:main.c        **** *
 130:main.c        **** * Return:
 131:main.c        **** *  void
 132:main.c        **** *
 133:main.c        **** *******************************************************************************/
 134:main.c        **** void InitializeSystem(void)
 135:main.c        **** {
 115              		.loc 1 135 0
 116              		.cfi_startproc
 117              		@ args = 0, pretend = 0, frame = 0
 118              		@ frame_needed = 1, uses_anonymous_args = 0
 119 0000 80B5     		push	{r7, lr}
 120              		.cfi_def_cfa_offset 8
 121              		.cfi_offset 7, -8
 122              		.cfi_offset 14, -4
 123 0002 00AF     		add	r7, sp, #0
 124              		.cfi_def_cfa_register 7
 136:main.c        **** 	/* Enable global interrupts. */
 137:main.c        **** 	CyGlobalIntEnable;
 125              		.loc 1 137 0
 126              		.syntax divided
 127              	@ 137 "main.c" 1
 128 0004 62B6     		CPSIE   i
 129              	@ 0 "" 2
 138:main.c        **** 	
 139:main.c        **** 	/* Start BLE component and Register the generic Event callback function */
 140:main.c        **** 	CyBle_Start(GenericEventHandler);
 130              		.loc 1 140 0
 131              		.thumb
 132              		.syntax unified
ARM GAS  C:\Users\JANUSD~1\AppData\Local\Temp\ccqBJafM.s 			page 6


 133 0006 2C4B     		ldr	r3, .L7
 134 0008 1800     		movs	r0, r3
 135 000a FFF7FEFF 		bl	CyBle_Start
 141:main.c        ****     
 142:main.c        ****     // Define interrupt handle for color changes
 143:main.c        ****     //PWM_1sWindow_Start();
 144:main.c        ****     isr_Counter_StartEx(CC_TC_InterruptHandler);
 136              		.loc 1 144 0
 137 000e 2B4B     		ldr	r3, .L7+4
 138 0010 1800     		movs	r0, r3
 139 0012 FFF7FEFF 		bl	isr_Counter_StartEx
 145:main.c        **** 	
 146:main.c        **** 	/* Start the PrISM component and configure drive mode of LED pins to be
 147:main.c        **** 	* initially OFF*/
 148:main.c        **** 	PrISM_1_Start();
 140              		.loc 1 148 0
 141 0016 FFF7FEFF 		bl	PrISM_1_Start
 149:main.c        **** 	PrISM_2_Start();
 142              		.loc 1 149 0
 143 001a FFF7FEFF 		bl	PrISM_2_Start
 150:main.c        **** 	
 151:main.c        **** 	PrISM_1_WritePulse0(255);
 144              		.loc 1 151 0
 145 001e FF20     		movs	r0, #255
 146 0020 FFF7FEFF 		bl	PrISM_1_WritePulse0
 152:main.c        **** 	PrISM_1_WritePulse1(255);
 147              		.loc 1 152 0
 148 0024 FF20     		movs	r0, #255
 149 0026 FFF7FEFF 		bl	PrISM_1_WritePulse1
 153:main.c        **** 	PrISM_2_WritePulse0(255);
 150              		.loc 1 153 0
 151 002a FF20     		movs	r0, #255
 152 002c FFF7FEFF 		bl	PrISM_2_WritePulse0
 154:main.c        **** 	
 155:main.c        **** 	RED_SetDriveMode(RED_DM_STRONG);
 153              		.loc 1 155 0
 154 0030 0620     		movs	r0, #6
 155 0032 FFF7FEFF 		bl	RED_SetDriveMode
 156:main.c        **** 	GREEN_SetDriveMode(GREEN_DM_STRONG);
 156              		.loc 1 156 0
 157 0036 0620     		movs	r0, #6
 158 0038 FFF7FEFF 		bl	GREEN_SetDriveMode
 157:main.c        **** 	BLUE_SetDriveMode(BLUE_DM_STRONG);
 159              		.loc 1 157 0
 160 003c 0620     		movs	r0, #6
 161 003e FFF7FEFF 		bl	BLUE_SetDriveMode
 158:main.c        **** 	
 159:main.c        **** 	/* Configure the Watchdog (WDT) timer for 100 millisecond timing */
 160:main.c        **** 	InitializeWatchdog(WATCHDOG_COUNT_VAL);
 162              		.loc 1 160 0
 163 0042 1F4B     		ldr	r3, .L7+8
 164 0044 1800     		movs	r0, r3
 165 0046 FFF7FEFF 		bl	InitializeWatchdog
 161:main.c        **** 
 162:main.c        **** 	#ifdef ENABLE_ADV_DATA_COUNTER
 163:main.c        **** 	new_advData = *cyBle_discoveryModeInfo.advData;
 166              		.loc 1 163 0
ARM GAS  C:\Users\JANUSD~1\AppData\Local\Temp\ccqBJafM.s 			page 7


 167 004a 1E4B     		ldr	r3, .L7+12
 168 004c 9B68     		ldr	r3, [r3, #8]
 169 004e 1E4A     		ldr	r2, .L7+16
 170 0050 1000     		movs	r0, r2
 171 0052 1900     		movs	r1, r3
 172 0054 2023     		movs	r3, #32
 173 0056 1A00     		movs	r2, r3
 174 0058 FFF7FEFF 		bl	memcpy
 164:main.c        **** 	
 165:main.c        **** 	if( cyBle_discoveryModeInfo.advData->advDataLen < 29)
 175              		.loc 1 165 0
 176 005c 194B     		ldr	r3, .L7+12
 177 005e 9B68     		ldr	r3, [r3, #8]
 178 0060 DB7F     		ldrb	r3, [r3, #31]
 179 0062 1C2B     		cmp	r3, #28
 180 0064 15D8     		bhi	.L6
 166:main.c        **** 	{
 167:main.c        **** 		/* Initialize the DataCounter data in advertisement packet. This is custom data in 
 168:main.c        **** 		* ADV packet and used to track whether the RGB LED data is latest or not */
 169:main.c        **** 		new_advData.advData[cyBle_discoveryModeInfo.advData->advDataLen] = CUSTOM_ADV_DATA_MARKER;	
 181              		.loc 1 169 0
 182 0066 174B     		ldr	r3, .L7+12
 183 0068 9B68     		ldr	r3, [r3, #8]
 184 006a DB7F     		ldrb	r3, [r3, #31]
 185 006c 1A00     		movs	r2, r3
 186 006e 164B     		ldr	r3, .L7+16
 187 0070 0121     		movs	r1, #1
 188 0072 9954     		strb	r1, [r3, r2]
 170:main.c        **** 		new_advData.advData[cyBle_discoveryModeInfo.advData->advDataLen+1] = dataADVCounter;
 189              		.loc 1 170 0
 190 0074 134B     		ldr	r3, .L7+12
 191 0076 9B68     		ldr	r3, [r3, #8]
 192 0078 DB7F     		ldrb	r3, [r3, #31]
 193 007a 0133     		adds	r3, r3, #1
 194 007c 134A     		ldr	r2, .L7+20
 195 007e 1178     		ldrb	r1, [r2]
 196 0080 114A     		ldr	r2, .L7+16
 197 0082 D154     		strb	r1, [r2, r3]
 171:main.c        **** 		new_advData.advDataLen = cyBle_discoveryModeInfo.advData->advDataLen+2;
 198              		.loc 1 171 0
 199 0084 0F4B     		ldr	r3, .L7+12
 200 0086 9B68     		ldr	r3, [r3, #8]
 201 0088 DB7F     		ldrb	r3, [r3, #31]
 202 008a 0233     		adds	r3, r3, #2
 203 008c DAB2     		uxtb	r2, r3
 204 008e 0E4B     		ldr	r3, .L7+16
 205 0090 DA77     		strb	r2, [r3, #31]
 206              	.L6:
 172:main.c        **** 	}
 173:main.c        **** 	
 174:main.c        **** 	/* Assign the new ADV data to stack */
 175:main.c        **** 	cyBle_discoveryModeInfo.advData = &new_advData;
 207              		.loc 1 175 0
 208 0092 0C4B     		ldr	r3, .L7+12
 209 0094 0C4A     		ldr	r2, .L7+16
 210 0096 9A60     		str	r2, [r3, #8]
 176:main.c        **** 	#endif
ARM GAS  C:\Users\JANUSD~1\AppData\Local\Temp\ccqBJafM.s 			page 8


 177:main.c        **** 	
 178:main.c        ****     //Timet_new
 179:main.c        **** 	/* Provide a color pusle on RGB LED to indicate startup */
 180:main.c        **** 	//PrISM_1_WritePulse1(128);
 181:main.c        **** 	//CyDelay(20);
 182:main.c        **** 	//PrISM_1_WritePulse1(255);
 183:main.c        **** 	
 184:main.c        ****     UART_Start();
 211              		.loc 1 184 0
 212 0098 FFF7FEFF 		bl	UART_Start
 185:main.c        ****     UART_UartPutString("Helloushki\n");
 213              		.loc 1 185 0
 214 009c 0C4B     		ldr	r3, .L7+24
 215 009e 1800     		movs	r0, r3
 216 00a0 FFF7FEFF 		bl	UART_UartPutString
 186:main.c        ****     
 187:main.c        **** 	#ifdef DEBUG_ENABLED
 188:main.c        **** 		
 189:main.c        **** 		UART_UartPutString("--------------------------Mesh Flood-----------------------------------------
 217              		.loc 1 189 0
 218 00a4 0B4B     		ldr	r3, .L7+28
 219 00a6 1800     		movs	r0, r3
 220 00a8 FFF7FEFF 		bl	UART_UartPutString
 190:main.c        **** 		UART_UartPutCRLF(' ');
 221              		.loc 1 190 0
 222 00ac 2020     		movs	r0, #32
 223 00ae FFF7FEFF 		bl	UART_UartPutCRLF
 191:main.c        **** 	#endif
 192:main.c        **** }
 224              		.loc 1 192 0
 225 00b2 C046     		nop
 226 00b4 BD46     		mov	sp, r7
 227              		@ sp needed
 228 00b6 80BD     		pop	{r7, pc}
 229              	.L8:
 230              		.align	2
 231              	.L7:
 232 00b8 00000000 		.word	GenericEventHandler
 233 00bc 00000000 		.word	CC_TC_InterruptHandler
 234 00c0 CC0C0000 		.word	3276
 235 00c4 00000000 		.word	cyBle_discoveryModeInfo
 236 00c8 00000000 		.word	new_advData
 237 00cc 00000000 		.word	dataADVCounter
 238 00d0 10000000 		.word	.LC7
 239 00d4 1C000000 		.word	.LC9
 240              		.cfi_endproc
 241              	.LFE36:
 242              		.size	InitializeSystem, .-InitializeSystem
 243              		.section	.text.CC_TC_InterruptHandler,"ax",%progbits
 244              		.align	2
 245              		.global	CC_TC_InterruptHandler
 246              		.code	16
 247              		.thumb_func
 248              		.type	CC_TC_InterruptHandler, %function
 249              	CC_TC_InterruptHandler:
 250              	.LFB37:
 193:main.c        **** 
ARM GAS  C:\Users\JANUSD~1\AppData\Local\Temp\ccqBJafM.s 			page 9


 194:main.c        **** 
 195:main.c        **** CY_ISR(CC_TC_InterruptHandler)
 196:main.c        **** {
 251              		.loc 1 196 0
 252              		.cfi_startproc
 253              		@ args = 0, pretend = 0, frame = 0
 254              		@ frame_needed = 1, uses_anonymous_args = 0
 255 0000 80B5     		push	{r7, lr}
 256              		.cfi_def_cfa_offset 8
 257              		.cfi_offset 7, -8
 258              		.cfi_offset 14, -4
 259 0002 00AF     		add	r7, sp, #0
 260              		.cfi_def_cfa_register 7
 197:main.c        ****     sendColorDataToNetwork(RGB_Collection[interrupt_counter]);
 261              		.loc 1 197 0
 262 0004 0F4B     		ldr	r3, .L11
 263 0006 1B68     		ldr	r3, [r3]
 264 0008 9A00     		lsls	r2, r3, #2
 265 000a 0F4B     		ldr	r3, .L11+4
 266 000c D318     		adds	r3, r2, r3
 267 000e 1800     		movs	r0, r3
 268 0010 FFF7FEFF 		bl	sendColorDataToNetwork
 198:main.c        ****     SwitchRole();
 269              		.loc 1 198 0
 270 0014 FFF7FEFF 		bl	SwitchRole
 199:main.c        **** 	ConnectToPeripheralDevice();
 271              		.loc 1 199 0
 272 0018 FFF7FEFF 		bl	ConnectToPeripheralDevice
 200:main.c        **** 	RestartCentralScanning();
 273              		.loc 1 200 0
 274 001c FFF7FEFF 		bl	RestartCentralScanning
 201:main.c        ****     interrupt_counter++;
 275              		.loc 1 201 0
 276 0020 084B     		ldr	r3, .L11
 277 0022 1B68     		ldr	r3, [r3]
 278 0024 5A1C     		adds	r2, r3, #1
 279 0026 074B     		ldr	r3, .L11
 280 0028 1A60     		str	r2, [r3]
 202:main.c        ****     if (interrupt_counter == 4) {
 281              		.loc 1 202 0
 282 002a 064B     		ldr	r3, .L11
 283 002c 1B68     		ldr	r3, [r3]
 284 002e 042B     		cmp	r3, #4
 285 0030 02D1     		bne	.L10
 203:main.c        ****         interrupt_counter = 0;
 286              		.loc 1 203 0
 287 0032 044B     		ldr	r3, .L11
 288 0034 0022     		movs	r2, #0
 289 0036 1A60     		str	r2, [r3]
 290              	.L10:
 204:main.c        ****     }
 205:main.c        ****     isr_Counter_ClearPending();
 291              		.loc 1 205 0
 292 0038 FFF7FEFF 		bl	isr_Counter_ClearPending
 206:main.c        ****     
 207:main.c        ****     
 208:main.c        ****     //PWM_1sWindow_ClearInterrupt(PWM_1sWindow_INTR_MASK_CC_MATCH);
ARM GAS  C:\Users\JANUSD~1\AppData\Local\Temp\ccqBJafM.s 			page 10


 209:main.c        ****     //PWM_1sWindow_ClearInterrupt(PWM_1sWindow_INTR_MASK_TC);
 210:main.c        **** }
 293              		.loc 1 210 0
 294 003c C046     		nop
 295 003e BD46     		mov	sp, r7
 296              		@ sp needed
 297 0040 80BD     		pop	{r7, pc}
 298              	.L12:
 299 0042 C046     		.align	2
 300              	.L11:
 301 0044 00000000 		.word	interrupt_counter
 302 0048 00000000 		.word	RGB_Collection
 303              		.cfi_endproc
 304              	.LFE37:
 305              		.size	CC_TC_InterruptHandler, .-CC_TC_InterruptHandler
 306              		.global	__aeabi_idiv
 307              		.section	.rodata
 308 006b 00       		.align	2
 309              	.LC13:
 310 006c 50724953 		.ascii	"PrISM Updated \000"
 310      4D205570 
 310      64617465 
 310      642000
 311              		.section	.text.UpdateRGBled,"ax",%progbits
 312              		.align	2
 313              		.global	UpdateRGBled
 314              		.code	16
 315              		.thumb_func
 316              		.type	UpdateRGBled, %function
 317              	UpdateRGBled:
 318              	.LFB38:
 211:main.c        **** 
 212:main.c        **** 
 213:main.c        **** /*******************************************************************************
 214:main.c        **** * Function Name: UpdateRGBled
 215:main.c        **** ********************************************************************************
 216:main.c        **** * Summary:
 217:main.c        **** *        Update the RGB LED color by reconfiguring PrISM component. This function 
 218:main.c        **** * is valid for PSoC 4 BLE parts and not PROC BLE, as PRoC BLE does not have UDBs
 219:main.c        **** * that makes up the PrISM component. To replace this with software PrISM, refer to
 220:main.c        **** * CY8CKIT-042-BLE Pioneer Kit example project, PRoC_BLE_CapSense_Slider_LED, from
 221:main.c        **** * http://www.cypress.com/CY8CKIT-042-BLE
 222:main.c        **** *
 223:main.c        **** * Parameters:
 224:main.c        **** *  rgb_led_data: array storing the RGB and Intensity vlaue
 225:main.c        **** *  len: length of the array.
 226:main.c        **** *
 227:main.c        **** * Return:
 228:main.c        **** *  void
 229:main.c        **** *
 230:main.c        **** *******************************************************************************/
 231:main.c        **** void UpdateRGBled(uint8 * rgb_led_data, uint8 len)
 232:main.c        **** {
 319              		.loc 1 232 0
 320              		.cfi_startproc
 321              		@ args = 0, pretend = 0, frame = 16
 322              		@ frame_needed = 1, uses_anonymous_args = 0
ARM GAS  C:\Users\JANUSD~1\AppData\Local\Temp\ccqBJafM.s 			page 11


 323 0000 80B5     		push	{r7, lr}
 324              		.cfi_def_cfa_offset 8
 325              		.cfi_offset 7, -8
 326              		.cfi_offset 14, -4
 327 0002 84B0     		sub	sp, sp, #16
 328              		.cfi_def_cfa_offset 24
 329 0004 00AF     		add	r7, sp, #0
 330              		.cfi_def_cfa_register 7
 331 0006 7860     		str	r0, [r7, #4]
 332 0008 0A00     		movs	r2, r1
 333 000a FB1C     		adds	r3, r7, #3
 334 000c 1A70     		strb	r2, [r3]
 233:main.c        **** 	uint8 calc_red, calc_green, calc_blue;
 234:main.c        **** 	
 235:main.c        **** 	if(len == RGB_LED_DATA_LEN)
 335              		.loc 1 235 0
 336 000e FB1C     		adds	r3, r7, #3
 337 0010 1B78     		ldrb	r3, [r3]
 338 0012 042B     		cmp	r3, #4
 339 0014 50D1     		bne	.L15
 236:main.c        **** 	{
 237:main.c        **** 		/* If a valid length packet has been sent, calculate the intensity of each of
 238:main.c        **** 		* R, G and B color and update the PrISM module */
 239:main.c        **** 		calc_red = (uint8)(((uint16)rgb_led_data[RGB_RED_INDEX]*rgb_led_data[RGB_INTENSITY_INDEX])/RGB_LE
 340              		.loc 1 239 0
 341 0016 7B68     		ldr	r3, [r7, #4]
 342 0018 1B78     		ldrb	r3, [r3]
 343 001a 1A00     		movs	r2, r3
 344 001c 7B68     		ldr	r3, [r7, #4]
 345 001e 0333     		adds	r3, r3, #3
 346 0020 1B78     		ldrb	r3, [r3]
 347 0022 5343     		muls	r3, r2
 348 0024 FF21     		movs	r1, #255
 349 0026 1800     		movs	r0, r3
 350 0028 FFF7FEFF 		bl	__aeabi_idiv
 351 002c 0300     		movs	r3, r0
 352 002e 1A00     		movs	r2, r3
 353 0030 0F23     		movs	r3, #15
 354 0032 FB18     		adds	r3, r7, r3
 355 0034 1A70     		strb	r2, [r3]
 240:main.c        **** 		calc_green = (uint8)(((uint16)rgb_led_data[RGB_GREEN_INDEX]*rgb_led_data[RGB_INTENSITY_INDEX])/RG
 356              		.loc 1 240 0
 357 0036 7B68     		ldr	r3, [r7, #4]
 358 0038 0133     		adds	r3, r3, #1
 359 003a 1B78     		ldrb	r3, [r3]
 360 003c 1A00     		movs	r2, r3
 361 003e 7B68     		ldr	r3, [r7, #4]
 362 0040 0333     		adds	r3, r3, #3
 363 0042 1B78     		ldrb	r3, [r3]
 364 0044 5343     		muls	r3, r2
 365 0046 FF21     		movs	r1, #255
 366 0048 1800     		movs	r0, r3
 367 004a FFF7FEFF 		bl	__aeabi_idiv
 368 004e 0300     		movs	r3, r0
 369 0050 1A00     		movs	r2, r3
 370 0052 0E23     		movs	r3, #14
 371 0054 FB18     		adds	r3, r7, r3
ARM GAS  C:\Users\JANUSD~1\AppData\Local\Temp\ccqBJafM.s 			page 12


 372 0056 1A70     		strb	r2, [r3]
 241:main.c        **** 		calc_blue = (uint8)(((uint16)rgb_led_data[RGB_BLUE_INDEX]*rgb_led_data[RGB_INTENSITY_INDEX])/RGB_
 373              		.loc 1 241 0
 374 0058 7B68     		ldr	r3, [r7, #4]
 375 005a 0233     		adds	r3, r3, #2
 376 005c 1B78     		ldrb	r3, [r3]
 377 005e 1A00     		movs	r2, r3
 378 0060 7B68     		ldr	r3, [r7, #4]
 379 0062 0333     		adds	r3, r3, #3
 380 0064 1B78     		ldrb	r3, [r3]
 381 0066 5343     		muls	r3, r2
 382 0068 FF21     		movs	r1, #255
 383 006a 1800     		movs	r0, r3
 384 006c FFF7FEFF 		bl	__aeabi_idiv
 385 0070 0300     		movs	r3, r0
 386 0072 1A00     		movs	r2, r3
 387 0074 0D23     		movs	r3, #13
 388 0076 FB18     		adds	r3, r7, r3
 389 0078 1A70     		strb	r2, [r3]
 242:main.c        **** 		
 243:main.c        **** 		PrISM_1_WritePulse0(RGB_LED_MAX_VAL - calc_red);
 390              		.loc 1 243 0
 391 007a 0F23     		movs	r3, #15
 392 007c FB18     		adds	r3, r7, r3
 393 007e 1B78     		ldrb	r3, [r3]
 394 0080 DB43     		mvns	r3, r3
 395 0082 DBB2     		uxtb	r3, r3
 396 0084 1800     		movs	r0, r3
 397 0086 FFF7FEFF 		bl	PrISM_1_WritePulse0
 244:main.c        **** 		PrISM_1_WritePulse1(RGB_LED_MAX_VAL - calc_green);
 398              		.loc 1 244 0
 399 008a 0E23     		movs	r3, #14
 400 008c FB18     		adds	r3, r7, r3
 401 008e 1B78     		ldrb	r3, [r3]
 402 0090 DB43     		mvns	r3, r3
 403 0092 DBB2     		uxtb	r3, r3
 404 0094 1800     		movs	r0, r3
 405 0096 FFF7FEFF 		bl	PrISM_1_WritePulse1
 245:main.c        **** 		PrISM_2_WritePulse0(RGB_LED_MAX_VAL - calc_blue);
 406              		.loc 1 245 0
 407 009a 0D23     		movs	r3, #13
 408 009c FB18     		adds	r3, r7, r3
 409 009e 1B78     		ldrb	r3, [r3]
 410 00a0 DB43     		mvns	r3, r3
 411 00a2 DBB2     		uxtb	r3, r3
 412 00a4 1800     		movs	r0, r3
 413 00a6 FFF7FEFF 		bl	PrISM_2_WritePulse0
 246:main.c        **** 		
 247:main.c        **** 		#ifdef DEBUG_ENABLED
 248:main.c        **** 			UART_UartPutString("PrISM Updated ");
 414              		.loc 1 248 0
 415 00aa 054B     		ldr	r3, .L16
 416 00ac 1800     		movs	r0, r3
 417 00ae FFF7FEFF 		bl	UART_UartPutString
 249:main.c        **** 			UART_UartPutCRLF(' ');
 418              		.loc 1 249 0
 419 00b2 2020     		movs	r0, #32
ARM GAS  C:\Users\JANUSD~1\AppData\Local\Temp\ccqBJafM.s 			page 13


 420 00b4 FFF7FEFF 		bl	UART_UartPutCRLF
 421              	.L15:
 250:main.c        **** 		#endif
 251:main.c        **** 	}
 252:main.c        **** }
 422              		.loc 1 252 0
 423 00b8 C046     		nop
 424 00ba BD46     		mov	sp, r7
 425 00bc 04B0     		add	sp, sp, #16
 426              		@ sp needed
 427 00be 80BD     		pop	{r7, pc}
 428              	.L17:
 429              		.align	2
 430              	.L16:
 431 00c0 6C000000 		.word	.LC13
 432              		.cfi_endproc
 433              	.LFE38:
 434              		.size	UpdateRGBled, .-UpdateRGBled
 435              		.text
 436              	.Letext0:
 437              		.file 2 "Generated_Source\\PSoC4/cytypes.h"
 438              		.file 3 "Generated_Source\\PSoC4/BLE_Stack.h"
 439              		.file 4 "Generated_Source\\PSoC4/BLE_StackGap.h"
 440              		.file 5 "Generated_Source\\PSoC4/BLE_eventHandler.h"
 441              		.file 6 "Generated_Source\\PSoC4/BLE.h"
 442              		.file 7 "./main.h"